 arclite

 Timestamp is 56453821 (Fri Nov 13 04:08:49 2015)

 Preferred load address is 0000000064000000

 Start         Length     Name                   Class
 0001:00000000 00088c5dH .text                   CODE
 0001:00088c60 0000f68bH .text$x                 CODE
 0001:000982f0 00000360H .text$yc                CODE
 0001:00098650 0000049eH .text$yd                CODE
 0002:00000000 00000490H .idata$5                DATA
 0002:00000490 00000008H .CRT$XCA                DATA
 0002:00000498 00000018H .CRT$XCC                DATA
 0002:000004b0 00000010H .CRT$XCL                DATA
 0002:000004c0 00000090H .CRT$XCU                DATA
 0002:00000550 00000008H .CRT$XCZ                DATA
 0002:00000558 00000008H .CRT$XIA                DATA
 0002:00000560 00000018H .CRT$XIC                DATA
 0002:00000578 00000008H .CRT$XID                DATA
 0002:00000580 00000008H .CRT$XIZ                DATA
 0002:00000588 00000008H .CRT$XPA                DATA
 0002:00000590 00000008H .CRT$XPX                DATA
 0002:00000598 00000008H .CRT$XPXA               DATA
 0002:000005a0 00000008H .CRT$XPZ                DATA
 0002:000005a8 00000008H .CRT$XTA                DATA
 0002:000005b0 00000008H .CRT$XTZ                DATA
 0002:000005c0 0000d447H .rdata                  DATA
 0002:0000da10 000038d4H .rdata$r                DATA
 0002:000112e8 00000008H .rtc$IAA                DATA
 0002:000112f0 00000008H .rtc$IZZ                DATA
 0002:000112f8 00000008H .rtc$TAA                DATA
 0002:00011300 00000008H .rtc$TZZ                DATA
 0002:00011308 0001bde0H .xdata                  DATA
 0002:0002d0e8 000004b4H .xdata$x                DATA
 0002:0002d59c 00000078H .idata$2                DATA
 0002:0002d614 00000014H .idata$3                DATA
 0002:0002d628 00000490H .idata$4                DATA
 0002:0002dab8 00000a34H .idata$6                DATA
 0002:0002e4f0 000001ecH .edata                  DATA
 0003:00000000 00002fecH .data                   DATA
 0003:00003000 00003270H .bss                    DATA
 0004:00000000 00006f0cH .pdata                  DATA
 0005:00000000 00000058H .rsrc$01                DATA
 0005:00000060 000002a0H .rsrc$02                DATA

  Address         Publics by Value              Rva+Base               Lib:Object

 0000:00000000       ___safe_se_handler_count   0000000000000000     <absolute>
 0000:00000000       ___safe_se_handler_table   0000000000000000     <absolute>
 0000:00000000       __ImageBase                0000000064000000     <linker-defined>
 0001:00000000       ??$_Dest_val@V?$allocator@VPropVariant@@@std@@VPropVariant@@@std@@YAXAEAV?$allocator@VPropVariant@@@0@PEAVPropVariant@@@Z 0000000064001000 f i update.obj
 0001:00000000       ??1PropVariant@@QEAA@XZ    0000000064001000 f i archive.obj
 0001:00000050       ?get_uint@PropVariant@@QEBA_KXZ 0000000064001050 f i archive.obj
 0001:000000d0       ?get_str@PropVariant@@QEBA?AV?$basic_string@_WU?$char_traits@_W@std@@V?$allocator@_W@2@@std@@XZ 00000000640010d0 f i archive.obj
 0001:000001a0       ??1Error@@QEAA@XZ          00000000640011a0 f i archive.obj
 0001:000001c0       ??0Error@@QEAA@AEBU0@@Z    00000000640011c0 f i archive.obj
 0001:00000200       ??1?$map@V?$basic_string@_WU?$char_traits@_W@std@@V?$allocator@_W@2@@std@@V12@U?$less@V?$basic_string@_WU?$char_traits@_W@std@@V?$allocator@_W@2@@std@@@2@V?$allocator@U?$pair@$$CBV?$basic_string@_WU?$char_traits@_W@std@@V?$allocator@_W@2@@std@@V12@@std@@@2@@std@@QEAA@XZ 0000000064001200 f i archive.obj
 0001:00000240       ?arc_dir@Archive@@QEBA?AV?$basic_string@_WU?$char_traits@_W@std@@V?$allocator@_W@2@@std@@XZ 0000000064001240 f i archive.obj
 0001:00000270       ?arc_name@Archive@@QEBA?AV?$basic_string@_WU?$char_traits@_W@std@@V?$allocator@_W@2@@std@@XZ 0000000064001270 f i archive.obj
 0001:00000320       ?get_bool_prop@ArcLib@@QEBAJIKAEA_N@Z 0000000064001320 f   archive.obj
 0001:000004d0       ?get_uint_prop@ArcLib@@QEBAJIKAEAI@Z 00000000640014d0 f   archive.obj
 0001:000006f0       ?get_string_prop@ArcLib@@QEBAJIKAEAV?$basic_string@_WU?$char_traits@_W@std@@V?$allocator@_W@2@@std@@@Z 00000000640016f0 f   archive.obj
 0001:000008d0       ?get_bytes_prop@ArcLib@@QEBAJIKAEAV?$vector@EV?$allocator@E@std@@@std@@@Z 00000000640018d0 f   archive.obj
 0001:00000a90       ?default_extension@ArcFormat@@QEBA?AV?$basic_string@_WU?$char_traits@_W@std@@V?$allocator@_W@2@@std@@XZ 0000000064001a90 f   archive.obj
 0001:00000af0       ?get_arc_types@ArcFormats@@QEBA?AV?$list@V?$vector@EV?$allocator@E@std@@@std@@V?$allocator@V?$vector@EV?$allocator@E@std@@@std@@@2@@std@@XZ 0000000064001af0 f   archive.obj
 0001:00000c20       ?find_by_name@ArcFormats@@QEBA?AV?$list@V?$vector@EV?$allocator@E@std@@@std@@V?$allocator@V?$vector@EV?$allocator@E@std@@@std@@@2@@std@@AEBV?$basic_string@_WU?$char_traits@_W@std@@V?$allocator@_W@2@@3@@Z 0000000064001c20 f   archive.obj
 0001:00000e40       ?find_by_ext@ArcFormats@@QEBA?AV?$list@V?$vector@EV?$allocator@E@std@@@std@@V?$allocator@V?$vector@EV?$allocator@E@std@@@std@@@2@@std@@AEBV?$basic_string@_WU?$char_traits@_W@std@@V?$allocator@_W@2@@3@@Z 0000000064001e40 f   archive.obj
 0001:00001210       ?find_by_name@SfxModules@@QEBA_KAEBV?$basic_string@_WU?$char_traits@_W@std@@V?$allocator@_W@2@@std@@@Z 0000000064002210 f   archive.obj
 0001:000013e0       ?to_string@ArcChain@@QEBA?AV?$basic_string@_WU?$char_traits@_W@std@@V?$allocator@_W@2@@std@@XZ 00000000640023e0 f   archive.obj
 0001:00001440       ??1ArcAPI@@AEAA@XZ         0000000064002440 f   archive.obj
 0001:000014c0       ?get@ArcAPI@@CAPEAV1@XZ    00000000640024c0 f   archive.obj
 0001:00001540       ?load_libs@ArcAPI@@AEAAXAEBV?$basic_string@_WU?$char_traits@_W@std@@V?$allocator@_W@2@@std@@@Z 0000000064002540 f   archive.obj
 0001:00001aa0       ??1ArcLib@@QEAA@XZ         0000000064002aa0 f i archive.obj
 0001:00001ae0       ?find@@YAPEBUSfxModuleInfo@@AEBV?$basic_string@_WU?$char_traits@_W@std@@V?$allocator@_W@2@@std@@@Z 0000000064002ae0 f   archive.obj
 0001:00001d30       ?description@SfxModule@@QEBA?AV?$basic_string@_WU?$char_traits@_W@std@@V?$allocator@_W@2@@std@@XZ 0000000064002d30 f   archive.obj
 0001:00001f40       ?find_sfx_modules@ArcAPI@@AEAAXAEBV?$basic_string@_WU?$char_traits@_W@std@@V?$allocator@_W@2@@std@@@Z 0000000064002f40 f   archive.obj
 0001:00002680       ?load@ArcAPI@@AEAAXXZ      0000000064003680 f   archive.obj
 0001:000038b0       ??1ArcFormat@@QEAA@XZ      00000000640048b0 f i archive.obj
 0001:00003960       ??4ArcFormat@@QEAAAEAU0@AEBU0@@Z 0000000064004960 f i archive.obj
 0001:00003a60       ??1?$set@IU?$less@I@std@@V?$allocator@I@2@@std@@QEAA@XZ 0000000064004a60 f i archive.obj
 0001:00003aa0       ?create_in_archive@ArcAPI@@SAXAEBV?$vector@EV?$allocator@E@std@@@std@@PEAPEAUIInArchive@@@Z 0000000064004aa0 f   archive.obj
 0001:00003b60       ?get_default_name@Archive@@AEBA?AV?$basic_string@_WU?$char_traits@_W@std@@V?$allocator@_W@2@@std@@XZ 0000000064004b60 f   archive.obj
 0001:00004100       ?get_temp_file_name@Archive@@AEBA?AV?$basic_string@_WU?$char_traits@_W@std@@V?$allocator@_W@2@@std@@XZ 0000000064005100 f   archive.obj
 0001:000042d0       ?make_index@Archive@@QEAAXXZ 00000000640052d0 f   archive.obj
 0001:00005490       ??1?$map@IIU?$less@I@std@@V?$allocator@U?$pair@$$CBII@std@@@2@@std@@QEAA@XZ 0000000064006490 f i archive.obj
 0001:000054d0       ??1?$set@UDirInfo@?4??make_index@Archive@@QEAAXXZ@U?$less@UDirInfo@?4??make_index@Archive@@QEAAXXZ@@std@@V?$allocator@UDirInfo@?4??make_index@Archive@@QEAAXXZ@@5@@std@@QEAA@XZ 00000000640064d0 f i archive.obj
 0001:00005510       ??1ArcFileInfo@@QEAA@XZ    0000000064006510 f i archive.obj
 0001:00005510       ??1?$pair@$$CBIUFileIndexInfo@@@std@@QEAA@XZ 0000000064006510 f i update.obj
 0001:00005510       ??1DirInfo@?4??make_index@Archive@@QEAAXXZ@QEAA@XZ 0000000064006510 f i archive.obj
 0001:00005550       ??1?$stack@IV?$deque@IV?$allocator@I@std@@@std@@@std@@QEAA@XZ 0000000064006550 f i archive.obj
 0001:00005580       ?find_dir@Archive@@QEAAIAEBV?$basic_string@_WU?$char_traits@_W@std@@V?$allocator@_W@2@@std@@@Z 0000000064006580 f   archive.obj
 0001:00005730       ?get_dir_list@Archive@@QEAA?AU?$pair@V?$_Vector_const_iterator@V?$_Vector_val@IV?$allocator@I@std@@@std@@@std@@V12@@std@@I@Z 0000000064006730 f   archive.obj
 0001:00005800       ?get_file_info@Archive@@QEAA?AUFindData@@I@Z 0000000064006800 f   archive.obj
 0001:00005900       ?get_main_file@Archive@@QEBA_NAEAI@Z 0000000064006900 f   archive.obj
 0001:00005a30       ?get_attr@Archive@@QEBAKI@Z 0000000064006a30 f   archive.obj
 0001:00005cb0       ?get_size@Archive@@QEBA_KI@Z 0000000064006cb0 f   archive.obj
 0001:00005e80       ?get_psize@Archive@@QEBA_KI@Z 0000000064006e80 f   archive.obj
 0001:00006050       ?get_ctime@Archive@@QEBA?AU_FILETIME@@I@Z 0000000064007050 f   archive.obj
 0001:00006200       ?get_mtime@Archive@@QEBA?AU_FILETIME@@I@Z 0000000064007200 f   archive.obj
 0001:000063b0       ?get_atime@Archive@@QEBA?AU_FILETIME@@I@Z 00000000640073b0 f   archive.obj
 0001:00006560       ?get_crc@Archive@@QEBAII@Z 0000000064007560 f   archive.obj
 0001:00006770       ?get_anti@Archive@@QEBA_NI@Z 0000000064007770 f   archive.obj
 0001:00006900       ??0?$basic_string@_WU?$char_traits@_W@std@@V?$allocator@_W@2@@std@@QEAA@XZ 0000000064007900 f i archive.obj
 0001:00006920       ?assign@?$basic_string@_WU?$char_traits@_W@std@@V?$allocator@_W@2@@std@@QEAAAEAV12@$$QEAV12@@Z 0000000064007920 f i archive.obj
 0001:000069b0       ?insert@?$basic_string@_WU?$char_traits@_W@std@@V?$allocator@_W@2@@std@@QEAAAEAV12@_K0_W@Z 00000000640079b0 f i archive.obj
 0001:00006ac0       ?substr@?$basic_string@_WU?$char_traits@_W@std@@V?$allocator@_W@2@@std@@QEBA?AV12@_K0@Z 0000000064007ac0 f i archive.obj
 0001:00006b00       ??0?$list@V?$basic_string@_WU?$char_traits@_W@std@@V?$allocator@_W@2@@std@@V?$allocator@V?$basic_string@_WU?$char_traits@_W@std@@V?$allocator@_W@2@@std@@@2@@std@@QEAA@AEBV01@@Z 0000000064007b00 f i archive.obj
 0001:00006ba0       ??1?$list@UCacheRecord@FileWriteCache@@V?$allocator@UCacheRecord@FileWriteCache@@@std@@@std@@QEAA@XZ 0000000064007ba0 f i extract.obj
 0001:00006ba0       ??1?$list@VRsrcId@@V?$allocator@VRsrcId@@@std@@@std@@QEAA@XZ 0000000064007ba0 f i rsrc.obj
 0001:00006ba0       ??1?$list@V?$basic_string@_WU?$char_traits@_W@std@@V?$allocator@_W@2@@std@@V?$allocator@V?$basic_string@_WU?$char_traits@_W@std@@V?$allocator@_W@2@@std@@@2@@std@@QEAA@XZ 0000000064007ba0 f i archive.obj
 0001:00006ba0       ??1?$list@UIdLang@@V?$allocator@UIdLang@@@std@@@std@@QEAA@XZ 0000000064007ba0 f i rsrc.obj
 0001:00006bc0       ??0?$list@V?$vector@EV?$allocator@E@std@@@std@@V?$allocator@V?$vector@EV?$allocator@E@std@@@std@@@2@@std@@QEAA@$$QEAV01@@Z 0000000064007bc0 f i archive.obj
 0001:00006c90       ??0?$vector@EV?$allocator@E@std@@@std@@QEAA@AEBV01@@Z 0000000064007c90 f i archive.obj
 0001:00006d30       ??4?$vector@EV?$allocator@E@std@@@std@@QEAAAEAV01@AEBV01@@Z 0000000064007d30 f i archive.obj
 0001:00006e50       ??A?$map@V?$basic_string@_WU?$char_traits@_W@std@@V?$allocator@_W@2@@std@@V12@U?$less@V?$basic_string@_WU?$char_traits@_W@std@@V?$allocator@_W@2@@std@@@2@V?$allocator@U?$pair@$$CBV?$basic_string@_WU?$char_traits@_W@std@@V?$allocator@_W@2@@std@@V12@@std@@@2@@std@@QEAAAEAV?$basic_string@_WU?$char_traits@_W@std@@V?$allocator@_W@2@@1@$$QEAV21@@Z 0000000064007e50 f i archive.obj
 0001:00006ff0       ??1?$vector@V?$vector@EV?$allocator@E@std@@@std@@V?$allocator@V?$vector@EV?$allocator@E@std@@@std@@@2@@std@@QEAA@XZ 0000000064007ff0 f i archive.obj
 0001:00007000       ??4?$vector@V?$vector@EV?$allocator@E@std@@@std@@V?$allocator@V?$vector@EV?$allocator@E@std@@@std@@@2@@std@@QEAAAEAV01@AEBV01@@Z 0000000064008000 f i archive.obj
 0001:00007120       ?push_back@?$vector@V?$vector@EV?$allocator@E@std@@@std@@V?$allocator@V?$vector@EV?$allocator@E@std@@@std@@@2@@std@@QEAAXAEBV?$vector@EV?$allocator@E@std@@@2@@Z 0000000064008120 f i archive.obj
 0001:000071c0       ?clear@?$vector@V?$vector@EV?$allocator@E@std@@@std@@V?$allocator@V?$vector@EV?$allocator@E@std@@@std@@@2@@std@@QEAAXXZ 00000000640081c0 f i archive.obj
 0001:00007250       ??A?$map@V?$vector@EV?$allocator@E@std@@@std@@UArcFormat@@U?$less@V?$vector@EV?$allocator@E@std@@@std@@@2@V?$allocator@U?$pair@$$CBV?$vector@EV?$allocator@E@std@@@std@@UArcFormat@@@std@@@2@@std@@QEAAAEAUArcFormat@@AEBV?$vector@EV?$allocator@E@std@@@1@@Z 0000000064008250 f i archive.obj
 0001:000073d0       ?at@?$map@V?$vector@EV?$allocator@E@std@@@std@@UArcFormat@@U?$less@V?$vector@EV?$allocator@E@std@@@std@@@2@V?$allocator@U?$pair@$$CBV?$vector@EV?$allocator@E@std@@@std@@UArcFormat@@@std@@@2@@std@@QEBAAEBUArcFormat@@AEBV?$vector@EV?$allocator@E@std@@@2@@Z 00000000640083d0 f i archive.obj
 0001:00007450       ?push_back@?$vector@USfxModule@@V?$allocator@USfxModule@@@std@@@std@@QEAAXAEBUSfxModule@@@Z 0000000064008450 f i archive.obj
 0001:00007540       ??1?$vector@UArcLib@@V?$allocator@UArcLib@@@std@@@std@@QEAA@XZ 0000000064008540 f i archive.obj
 0001:00007550       ?reserve@?$vector@IV?$allocator@I@std@@@std@@QEAAX_K@Z 0000000064008550 f i archive.obj
 0001:00007610       ?clear@?$vector@IV?$allocator@I@std@@@std@@QEAAXXZ 0000000064008610 f i archive.obj
 0001:00007670       ?reserve@?$vector@UArcFileInfo@@V?$allocator@UArcFileInfo@@@std@@@std@@QEAAX_K@Z 0000000064008670 f i archive.obj
 0001:000077b0       ?push_back@?$vector@UArcFileInfo@@V?$allocator@UArcFileInfo@@@std@@@std@@QEAAXAEBUArcFileInfo@@@Z 00000000640087b0 f i archive.obj
 0001:000078d0       ?count@?$_Tree@V?$_Tset_traits@IU?$less@I@std@@V?$allocator@I@2@$0A@@std@@@std@@QEBA_KAEBI@Z 00000000640088d0 f i archive.obj
 0001:000079b0       ??A?$map@IIU?$less@I@std@@V?$allocator@U?$pair@$$CBII@std@@@2@@std@@QEAAAEAIAEBI@Z 00000000640089b0 f i archive.obj
 0001:00007a50       ?count@?$_Tree@V?$_Tmap_traits@IIU?$less@I@std@@V?$allocator@U?$pair@$$CBII@std@@@2@$0A@@std@@@std@@QEBA_KAEBI@Z 0000000064008a50 f i archive.obj
 0001:00007b30       ??1?$pair@V?$vector@EV?$allocator@E@std@@@std@@UArcFormat@@@std@@QEAA@XZ 0000000064008b30 f i archive.obj
 0001:00007b30       ??1?$pair@$$CBV?$vector@EV?$allocator@E@std@@@std@@UArcFormat@@@std@@QEAA@XZ 0000000064008b30 f i archive.obj
 0001:00007b70       ?insert@?$basic_string@_WU?$char_traits@_W@std@@V?$allocator@_W@2@@std@@QEAAAEAV12@_KAEBV12@00@Z 0000000064008b70 f i archive.obj
 0001:00007d20       ?replace@?$basic_string@_WU?$char_traits@_W@std@@V?$allocator@_W@2@@std@@QEAAAEAV12@_K0AEBV12@00@Z 0000000064008d20 f i archive.obj
 0001:000080a0       ?_Chassign@?$basic_string@_WU?$char_traits@_W@std@@V?$allocator@_W@2@@std@@QEAAX_K0_W@Z 00000000640090a0 f i archive.obj
 0001:000080f0       ?_Construct_n@?$list@V?$basic_string@_WU?$char_traits@_W@std@@V?$allocator@_W@2@@std@@V?$allocator@V?$basic_string@_WU?$char_traits@_W@std@@V?$allocator@_W@2@@std@@@2@@std@@QEAAX_KAEBV?$basic_string@_WU?$char_traits@_W@std@@V?$allocator@_W@2@@2@@Z 00000000640090f0 f i archive.obj
 0001:00008120       ??0?$_List_val@V?$basic_string@_WU?$char_traits@_W@std@@V?$allocator@_W@2@@std@@V?$allocator@V?$basic_string@_WU?$char_traits@_W@std@@V?$allocator@_W@2@@std@@@2@@std@@QEAA@V?$allocator@V?$basic_string@_WU?$char_traits@_W@std@@V?$allocator@_W@2@@std@@@1@@Z 0000000064009120 f i archive.obj
 0001:00008120       ??0?$_List_val@UIconImage@@V?$allocator@UIconImage@@@std@@@std@@QEAA@V?$allocator@UIconImage@@@1@@Z 0000000064009120 f i rsrc.obj
 0001:00008120       ??0?$_List_val@UArcEntry@@V?$allocator@UArcEntry@@@std@@@std@@QEAA@V?$allocator@UArcEntry@@@1@@Z 0000000064009120 f i plugin.obj
 0001:00008190       ??0?$_List_val@V?$vector@EV?$allocator@E@std@@@std@@V?$allocator@V?$vector@EV?$allocator@E@std@@@std@@@2@@std@@QEAA@V?$allocator@V?$vector@EV?$allocator@E@std@@@std@@@1@@Z 0000000064009190 f i archive.obj
 0001:00008200       ?_Buy@?$vector@EV?$allocator@E@std@@@std@@IEAA_N_K@Z 0000000064009200 f i archive.obj
 0001:00008260       ?_Buy@?$vector@V?$vector@EV?$allocator@E@std@@@std@@V?$allocator@V?$vector@EV?$allocator@E@std@@@std@@@2@@std@@IEAA_N_K@Z 0000000064009260 f i archive.obj
 0001:000082d0       ?_Destroy@?$vector@V?$vector@EV?$allocator@E@std@@@std@@V?$allocator@V?$vector@EV?$allocator@E@std@@@std@@@2@@std@@IEAAXPEAV?$vector@EV?$allocator@E@std@@@2@0@Z 00000000640092d0 f i archive.obj
 0001:00008330       ?_Reserve@?$vector@V?$vector@EV?$allocator@E@std@@@std@@V?$allocator@V?$vector@EV?$allocator@E@std@@@std@@@2@@std@@IEAAX_K@Z 0000000064009330 f i archive.obj
 0001:000083c0       ?_Tidy@?$vector@V?$vector@EV?$allocator@E@std@@@std@@V?$allocator@V?$vector@EV?$allocator@E@std@@@std@@@2@@std@@IEAAXXZ 00000000640093c0 f i archive.obj
 0001:00008440       ??0?$_Tree@V?$_Tmap_traits@V?$vector@EV?$allocator@E@std@@@std@@UArcFormat@@U?$less@V?$vector@EV?$allocator@E@std@@@std@@@2@V?$allocator@U?$pair@$$CBV?$vector@EV?$allocator@E@std@@@std@@UArcFormat@@@std@@@2@$0A@@std@@@std@@QEAA@AEBU?$less@V?$vector@EV?$allocator@E@std@@@std@@@1@AEBV?$allocator@U?$pair@$$CBV?$vector@EV?$allocator@E@std@@@std@@UArcFormat@@@std@@@1@@Z 0000000064009440 f i archive.obj
 0001:000084d0       ??R?$less@V?$vector@EV?$allocator@E@std@@@std@@@std@@QEBA_NAEBV?$vector@EV?$allocator@E@std@@@1@0@Z 00000000640094d0 f i archive.obj
 0001:00008530       ?_Reserve@?$vector@USfxModule@@V?$allocator@USfxModule@@@std@@@std@@IEAAX_K@Z 0000000064009530 f i archive.obj
 0001:000085f0       ?_Tidy@?$vector@V?$basic_string@_WU?$char_traits@_W@std@@V?$allocator@_W@2@@std@@V?$allocator@V?$basic_string@_WU?$char_traits@_W@std@@V?$allocator@_W@2@@std@@@2@@std@@IEAAXXZ 00000000640095f0 f i plugin.obj
 0001:000085f0       ?_Tidy@?$vector@USfxModule@@V?$allocator@USfxModule@@@std@@@std@@IEAAXXZ 00000000640095f0 f i archive.obj
 0001:00008670       ?_Reserve@?$vector@UArcLib@@V?$allocator@UArcLib@@@std@@@std@@IEAAX_K@Z 0000000064009670 f i archive.obj
 0001:00008730       ?_Tidy@?$vector@UArcLib@@V?$allocator@UArcLib@@@std@@@std@@IEAAXXZ 0000000064009730 f i archive.obj
 0001:000087c0       ?_Reserve@?$vector@IV?$allocator@I@std@@@std@@IEAAX_K@Z 00000000640097c0 f i archive.obj
 0001:00008850       ?allocate@?$allocator@I@std@@QEAAPEAI_K@Z 0000000064009850 f i archive.obj
 0001:000088c0       ?erase@?$vector@UArcFileInfo@@V?$allocator@UArcFileInfo@@@std@@@std@@QEAA?AV?$_Vector_iterator@V?$_Vector_val@UArcFileInfo@@V?$allocator@UArcFileInfo@@@std@@@std@@@2@V?$_Vector_const_iterator@V?$_Vector_val@UArcFileInfo@@V?$allocator@UArcFileInfo@@@std@@@std@@@2@0@Z 00000000640098c0 f i archive.obj
 0001:00008990       ?_Destroy@?$vector@UArcFileInfo@@V?$allocator@UArcFileInfo@@@std@@@std@@IEAAXPEAUArcFileInfo@@0@Z 0000000064009990 f i archive.obj
 0001:000089f0       ?_Reserve@?$vector@UArcFileInfo@@V?$allocator@UArcFileInfo@@@std@@@std@@IEAAX_K@Z 00000000640099f0 f i archive.obj
 0001:00008ab0       ??0?$_Tree@V?$_Tset_traits@IU?$less@I@std@@V?$allocator@I@2@$0A@@std@@@std@@QEAA@AEBU?$less@I@1@AEBV?$allocator@I@1@@Z 0000000064009ab0 f i archive.obj
 0001:00008b40       ?_Tidy@?$deque@IV?$allocator@I@std@@@std@@IEAAXXZ 0000000064009b40 f i archive.obj
 0001:00008bd0       ?append@?$basic_string@_WU?$char_traits@_W@std@@V?$allocator@_W@2@@std@@QEAAAEAV12@AEBV12@_K1@Z 0000000064009bd0 f i archive.obj
 0001:00008d00       ?append@?$basic_string@_WU?$char_traits@_W@std@@V?$allocator@_W@2@@std@@QEAAAEAV12@PEB_W_K@Z 0000000064009d00 f i archive.obj
 0001:00008e60       ?clear@?$list@UCacheRecord@FileWriteCache@@V?$allocator@UCacheRecord@FileWriteCache@@@std@@@std@@QEAAXXZ 0000000064009e60 f i extract.obj
 0001:00008e60       ?clear@?$list@V?$basic_string@_WU?$char_traits@_W@std@@V?$allocator@_W@2@@std@@V?$allocator@V?$basic_string@_WU?$char_traits@_W@std@@V?$allocator@_W@2@@std@@@2@@std@@QEAAXXZ 0000000064009e60 f i archive.obj
 0001:00008e60       ?clear@?$list@UIdLang@@V?$allocator@UIdLang@@@std@@@std@@QEAAXXZ 0000000064009e60 f i rsrc.obj
 0001:00008e60       ?clear@?$list@VRsrcId@@V?$allocator@VRsrcId@@@std@@@std@@QEAAXXZ 0000000064009e60 f i rsrc.obj
 0001:00008ee0       ?_Insert_n@?$list@V?$basic_string@_WU?$char_traits@_W@std@@V?$allocator@_W@2@@std@@V?$allocator@V?$basic_string@_WU?$char_traits@_W@std@@V?$allocator@_W@2@@std@@@2@@std@@QEAAXV?$_List_const_iterator@V?$_List_val@V?$basic_string@_WU?$char_traits@_W@std@@V?$allocator@_W@2@@std@@V?$allocator@V?$basic_string@_WU?$char_traits@_W@std@@V?$allocator@_W@2@@std@@@2@@std@@@2@_KAEBV?$basic_string@_WU?$char_traits@_W@std@@V?$allocator@_W@2@@2@@Z 0000000064009ee0 f i archive.obj
 0001:00008f80       ?_Buynode@?$_List_val@V?$basic_string@_WU?$char_traits@_W@std@@V?$allocator@_W@2@@std@@V?$allocator@V?$basic_string@_WU?$char_traits@_W@std@@V?$allocator@_W@2@@std@@@2@@std@@QEAAPEAU_Node@?$_List_nod@V?$basic_string@_WU?$char_traits@_W@std@@V?$allocator@_W@2@@std@@V?$allocator@V?$basic_string@_WU?$char_traits@_W@std@@V?$allocator@_W@2@@std@@@2@@2@PEAU342@0AEBV?$basic_string@_WU?$char_traits@_W@std@@V?$allocator@_W@2@@2@@Z 0000000064009f80 f i archive.obj
 0001:00009050       ?_Buynode@?$_List_val@V?$vector@EV?$allocator@E@std@@@std@@V?$allocator@V?$vector@EV?$allocator@E@std@@@std@@@2@@std@@QEAAPEAU_Node@?$_List_nod@V?$vector@EV?$allocator@E@std@@@std@@V?$allocator@V?$vector@EV?$allocator@E@std@@@std@@@2@@2@PEAU342@0AEBV?$vector@EV?$allocator@E@std@@@2@@Z 000000006400a050 f i archive.obj
 0001:00009110       ?allocate@?$allocator@V?$vector@EV?$allocator@E@std@@@std@@@std@@QEAAPEAV?$vector@EV?$allocator@E@std@@@2@_K@Z 000000006400a110 f i archive.obj
 0001:00009180       ?allocate@?$allocator@E@std@@QEAAPEAE_K@Z 000000006400a180 f i archive.obj
 0001:000091e0       ?erase@?$_Tree@V?$_Tmap_traits@V?$basic_string@_WU?$char_traits@_W@std@@V?$allocator@_W@2@@std@@V12@U?$less@V?$basic_string@_WU?$char_traits@_W@std@@V?$allocator@_W@2@@std@@@2@V?$allocator@U?$pair@$$CBV?$basic_string@_WU?$char_traits@_W@std@@V?$allocator@_W@2@@std@@V12@@std@@@2@$0A@@std@@@std@@QEAA?AV?$_Tree_iterator@V?$_Tree_val@V?$_Tmap_traits@V?$basic_string@_WU?$char_traits@_W@std@@V?$allocator@_W@2@@std@@V12@U?$less@V?$basic_string@_WU?$char_traits@_W@std@@V?$allocator@_W@2@@std@@@2@V?$allocator@U?$pair@$$CBV?$basic_string@_WU?$char_traits@_W@std@@V?$allocator@_W@2@@std@@V12@@std@@@2@$0A@@std@@@std@@@2@V?$_Tree_const_iterator@V?$_Tree_val@V?$_Tmap_traits@V?$basic_string@_WU?$char_traits@_W@std@@V?$allocator@_W@2@@std@@V12@U?$less@V?$basic_string@_WU?$char_traits@_W@std@@V?$allocator@_W@2@@std@@@2@V?$allocator@U?$pair@$$CBV?$basic_string@_WU?$char_traits@_W@std@@V?$allocator@_W@2@@std@@V12@@std@@@2@$0A@@std@@@std@@@2@0@Z 000000006400a1e0 f i archive.obj
 0001:000092e0       ?_Copy@?$_Tree@V?$_Tmap_traits@V?$basic_string@_WU?$char_traits@_W@std@@V?$allocator@_W@2@@std@@V12@U?$less@V?$basic_string@_WU?$char_traits@_W@std@@V?$allocator@_W@2@@std@@@2@V?$allocator@U?$pair@$$CBV?$basic_string@_WU?$char_traits@_W@std@@V?$allocator@_W@2@@std@@V12@@std@@@2@$0A@@std@@@std@@IEAAXAEBV12@@Z 000000006400a2e0 f i archive.obj
 0001:00009390       ?_Lbound@?$_Tree@V?$_Tmap_traits@V?$basic_string@_WU?$char_traits@_W@std@@V?$allocator@_W@2@@std@@V12@U?$less@V?$basic_string@_WU?$char_traits@_W@std@@V?$allocator@_W@2@@std@@@2@V?$allocator@U?$pair@$$CBV?$basic_string@_WU?$char_traits@_W@std@@V?$allocator@_W@2@@std@@V12@@std@@@2@$0A@@std@@@std@@IEAAPEAU_Node@?$_Tree_nod@V?$_Tmap_traits@V?$basic_string@_WU?$char_traits@_W@std@@V?$allocator@_W@2@@std@@V12@U?$less@V?$basic_string@_WU?$char_traits@_W@std@@V?$allocator@_W@2@@std@@@2@V?$allocator@U?$pair@$$CBV?$basic_string@_WU?$char_traits@_W@std@@V?$allocator@_W@2@@std@@V12@@std@@@2@$0A@@std@@@2@AEBV?$basic_string@_WU?$char_traits@_W@std@@V?$allocator@_W@2@@2@@Z 000000006400a390 f i archive.obj
 0001:00009390       ?_Lbound@?$_Tree@V?$_Tmap_traits@V?$basic_string@_WU?$char_traits@_W@std@@V?$allocator@_W@2@@std@@V12@U?$less@V?$basic_string@_WU?$char_traits@_W@std@@V?$allocator@_W@2@@std@@@2@V?$allocator@U?$pair@$$CBV?$basic_string@_WU?$char_traits@_W@std@@V?$allocator@_W@2@@std@@V12@@std@@@2@$0A@@std@@@std@@IEBAPEAU_Node@?$_Tree_nod@V?$_Tmap_traits@V?$basic_string@_WU?$char_traits@_W@std@@V?$allocator@_W@2@@std@@V12@U?$less@V?$basic_string@_WU?$char_traits@_W@std@@V?$allocator@_W@2@@std@@@2@V?$allocator@U?$pair@$$CBV?$basic_string@_WU?$char_traits@_W@std@@V?$allocator@_W@2@@std@@V12@@std@@@2@$0A@@std@@@2@AEBV?$basic_string@_WU?$char_traits@_W@std@@V?$allocator@_W@2@@2@@Z 000000006400a390 f i archive.obj
 0001:00009460       ??0?$_Tree@V?$_Tmap_traits@V?$basic_string@_WU?$char_traits@_W@std@@V?$allocator@_W@2@@std@@V12@U?$less@V?$basic_string@_WU?$char_traits@_W@std@@V?$allocator@_W@2@@std@@@2@V?$allocator@U?$pair@$$CBV?$basic_string@_WU?$char_traits@_W@std@@V?$allocator@_W@2@@std@@V12@@std@@@2@$0A@@std@@@std@@QEAA@AEBU?$less@V?$basic_string@_WU?$char_traits@_W@std@@V?$allocator@_W@2@@std@@@1@AEBV?$allocator@U?$pair@$$CBV?$basic_string@_WU?$char_traits@_W@std@@V?$allocator@_W@2@@std@@V12@@std@@@1@@Z 000000006400a460 f i archive.obj
 0001:00009460       ??0?$_Tree_val@V?$_Tmap_traits@V?$basic_string@_WU?$char_traits@_W@std@@V?$allocator@_W@2@@std@@V12@U?$less@V?$basic_string@_WU?$char_traits@_W@std@@V?$allocator@_W@2@@std@@@2@V?$allocator@U?$pair@$$CBV?$basic_string@_WU?$char_traits@_W@std@@V?$allocator@_W@2@@std@@V12@@std@@@2@$0A@@std@@@std@@QEAA@AEBU?$less@V?$basic_string@_WU?$char_traits@_W@std@@V?$allocator@_W@2@@std@@@1@V?$allocator@U?$pair@$$CBV?$basic_string@_WU?$char_traits@_W@std@@V?$allocator@_W@2@@std@@V12@@std@@@1@@Z 000000006400a460 f i archive.obj
 0001:000094f0       ?reserve@?$vector@V?$vector@EV?$allocator@E@std@@@std@@V?$allocator@V?$vector@EV?$allocator@E@std@@@std@@@2@@std@@QEAAX_K@Z 000000006400a4f0 f i archive.obj
 0001:000095b0       ?erase@?$_Tree@V?$_Tmap_traits@V?$vector@EV?$allocator@E@std@@@std@@UArcFormat@@U?$less@V?$vector@EV?$allocator@E@std@@@std@@@2@V?$allocator@U?$pair@$$CBV?$vector@EV?$allocator@E@std@@@std@@UArcFormat@@@std@@@2@$0A@@std@@@std@@QEAA?AV?$_Tree_iterator@V?$_Tree_val@V?$_Tmap_traits@V?$vector@EV?$allocator@E@std@@@std@@UArcFormat@@U?$less@V?$vector@EV?$allocator@E@std@@@std@@@2@V?$allocator@U?$pair@$$CBV?$vector@EV?$allocator@E@std@@@std@@UArcFormat@@@std@@@2@$0A@@std@@@std@@@2@V?$_Tree_const_iterator@V?$_Tree_val@V?$_Tmap_traits@V?$vector@EV?$allocator@E@std@@@std@@UArcFormat@@U?$less@V?$vector@EV?$allocator@E@std@@@std@@@2@V?$allocator@U?$pair@$$CBV?$vector@EV?$allocator@E@std@@@std@@UArcFormat@@@std@@@2@$0A@@std@@@std@@@2@0@Z 000000006400a5b0 f i archive.obj
 0001:000096d0       ?_Lbound@?$_Tree@V?$_Tmap_traits@V?$vector@EV?$allocator@E@std@@@std@@UArcFormat@@U?$less@V?$vector@EV?$allocator@E@std@@@std@@@2@V?$allocator@U?$pair@$$CBV?$vector@EV?$allocator@E@std@@@std@@UArcFormat@@@std@@@2@$0A@@std@@@std@@IEBAPEAU_Node@?$_Tree_nod@V?$_Tmap_traits@V?$vector@EV?$allocator@E@std@@@std@@UArcFormat@@U?$less@V?$vector@EV?$allocator@E@std@@@std@@@2@V?$allocator@U?$pair@$$CBV?$vector@EV?$allocator@E@std@@@std@@UArcFormat@@@std@@@2@$0A@@std@@@2@AEBV?$vector@EV?$allocator@E@std@@@2@@Z 000000006400a6d0 f i archive.obj
 0001:000096d0       ?_Lbound@?$_Tree@V?$_Tmap_traits@V?$vector@EV?$allocator@E@std@@@std@@UArcFormat@@U?$less@V?$vector@EV?$allocator@E@std@@@std@@@2@V?$allocator@U?$pair@$$CBV?$vector@EV?$allocator@E@std@@@std@@UArcFormat@@@std@@@2@$0A@@std@@@std@@IEAAPEAU_Node@?$_Tree_nod@V?$_Tmap_traits@V?$vector@EV?$allocator@E@std@@@std@@UArcFormat@@U?$less@V?$vector@EV?$allocator@E@std@@@std@@@2@V?$allocator@U?$pair@$$CBV?$vector@EV?$allocator@E@std@@@std@@UArcFormat@@@std@@@2@$0A@@std@@@2@AEBV?$vector@EV?$allocator@E@std@@@2@@Z 000000006400a6d0 f i archive.obj
 0001:00009770       ?reserve@?$vector@USfxModule@@V?$allocator@USfxModule@@@std@@@std@@QEAAX_K@Z 000000006400a770 f i archive.obj
 0001:000098b0       ?_Destroy@?$vector@V?$basic_string@_WU?$char_traits@_W@std@@V?$allocator@_W@2@@std@@V?$allocator@V?$basic_string@_WU?$char_traits@_W@std@@V?$allocator@_W@2@@std@@@2@@std@@IEAAXPEAV?$basic_string@_WU?$char_traits@_W@std@@V?$allocator@_W@2@@2@0@Z 000000006400a8b0 f i plugin.obj
 0001:000098b0       ?_Destroy@?$vector@USfxModule@@V?$allocator@USfxModule@@@std@@@std@@IEAAXPEAUSfxModule@@0@Z 000000006400a8b0 f i archive.obj
 0001:00009910       ?reserve@?$vector@UArcLib@@V?$allocator@UArcLib@@@std@@@std@@QEAAX_K@Z 000000006400a910 f i archive.obj
 0001:00009a50       ?_Destroy@?$vector@UArcLib@@V?$allocator@UArcLib@@@std@@@std@@IEAAXPEAUArcLib@@0@Z 000000006400aa50 f i archive.obj
 0001:00009ab0       ?erase@?$_Tree@V?$_Tset_traits@IU?$less@I@std@@V?$allocator@I@2@$0A@@std@@@std@@QEAA?AV?$_Tree_const_iterator@V?$_Tree_val@V?$_Tset_traits@IU?$less@I@std@@V?$allocator@I@2@$0A@@std@@@std@@@2@V32@0@Z 000000006400aab0 f i archive.obj
 0001:00009b90       ?erase@?$_Tree@V?$_Tmap_traits@IIU?$less@I@std@@V?$allocator@U?$pair@$$CBII@std@@@2@$0A@@std@@@std@@QEAA?AV?$_Tree_iterator@V?$_Tree_val@V?$_Tmap_traits@IIU?$less@I@std@@V?$allocator@U?$pair@$$CBII@std@@@2@$0A@@std@@@std@@@2@V?$_Tree_const_iterator@V?$_Tree_val@V?$_Tmap_traits@IIU?$less@I@std@@V?$allocator@U?$pair@$$CBII@std@@@2@$0A@@std@@@std@@@2@0@Z 000000006400ab90 f i archive.obj
 0001:00009c70       ?erase@?$_Tree@V?$_Tset_traits@UDirInfo@?4??make_index@Archive@@QEAAXXZ@U?$less@UDirInfo@?4??make_index@Archive@@QEAAXXZ@@std@@V?$allocator@UDirInfo@?4??make_index@Archive@@QEAAXXZ@@5@$0A@@std@@@std@@QEAA?AV?$_Tree_const_iterator@V?$_Tree_val@V?$_Tset_traits@UDirInfo@?4??make_index@Archive@@QEAAXXZ@U?$less@UDirInfo@?4??make_index@Archive@@QEAAXXZ@@std@@V?$allocator@UDirInfo@?4??make_index@Archive@@QEAAXXZ@@5@$0A@@std@@@std@@@2@V32@0@Z 000000006400ac70 f i archive.obj
 0001:00009d70       ?end@?$deque@IV?$allocator@I@std@@@std@@QEAA?AV?$_Deque_iterator@IV?$allocator@I@std@@@2@XZ 000000006400ad70 f i archive.obj
 0001:00009d90       ?_Growmap@?$deque@IV?$allocator@I@std@@@std@@IEAAX_K@Z 000000006400ad90 f i archive.obj
 0001:00009f80       ??G?$_Deque_iterator@IV?$allocator@I@std@@@std@@QEBA?AV01@_J@Z 000000006400af80 f i archive.obj
 0001:00009fd0       ??0ArcFormat@@QEAA@AEBU0@@Z 000000006400afd0 f i archive.obj
 0001:0000a0a0       ?_Splice_same@?$list@V?$basic_string@_WU?$char_traits@_W@std@@V?$allocator@_W@2@@std@@V?$allocator@V?$basic_string@_WU?$char_traits@_W@std@@V?$allocator@_W@2@@std@@@2@@std@@QEAAXV?$_List_const_iterator@V?$_List_val@V?$basic_string@_WU?$char_traits@_W@std@@V?$allocator@_W@2@@std@@V?$allocator@V?$basic_string@_WU?$char_traits@_W@std@@V?$allocator@_W@2@@std@@@2@@std@@@2@AEAV12@00_K@Z 000000006400b0a0 f i archive.obj
 0001:0000a150       ?_Splice_same@?$list@V?$vector@EV?$allocator@E@std@@@std@@V?$allocator@V?$vector@EV?$allocator@E@std@@@std@@@2@@std@@QEAAXV?$_List_const_iterator@V?$_List_val@V?$vector@EV?$allocator@E@std@@@std@@V?$allocator@V?$vector@EV?$allocator@E@std@@@std@@@2@@std@@@2@AEAV12@00_K@Z 000000006400b150 f i archive.obj
 0001:0000a200       ?erase@?$_Tree@V?$_Tmap_traits@V?$basic_string@_WU?$char_traits@_W@std@@V?$allocator@_W@2@@std@@V12@U?$less@V?$basic_string@_WU?$char_traits@_W@std@@V?$allocator@_W@2@@std@@@2@V?$allocator@U?$pair@$$CBV?$basic_string@_WU?$char_traits@_W@std@@V?$allocator@_W@2@@std@@V12@@std@@@2@$0A@@std@@@std@@QEAA?AV?$_Tree_iterator@V?$_Tree_val@V?$_Tmap_traits@V?$basic_string@_WU?$char_traits@_W@std@@V?$allocator@_W@2@@std@@V12@U?$less@V?$basic_string@_WU?$char_traits@_W@std@@V?$allocator@_W@2@@std@@@2@V?$allocator@U?$pair@$$CBV?$basic_string@_WU?$char_traits@_W@std@@V?$allocator@_W@2@@std@@V12@@std@@@2@$0A@@std@@@std@@@2@V?$_Tree_const_iterator@V?$_Tree_val@V?$_Tmap_traits@V?$basic_string@_WU?$char_traits@_W@std@@V?$allocator@_W@2@@std@@V12@U?$less@V?$basic_string@_WU?$char_traits@_W@std@@V?$allocator@_W@2@@std@@@2@V?$allocator@U?$pair@$$CBV?$basic_string@_WU?$char_traits@_W@std@@V?$allocator@_W@2@@std@@V12@@std@@@2@$0A@@std@@@std@@@2@@Z 000000006400b200 f i archive.obj
 0001:0000a590       ?_Copy@?$_Tree@V?$_Tmap_traits@V?$basic_string@_WU?$char_traits@_W@std@@V?$allocator@_W@2@@std@@V12@U?$less@V?$basic_string@_WU?$char_traits@_W@std@@V?$allocator@_W@2@@std@@@2@V?$allocator@U?$pair@$$CBV?$basic_string@_WU?$char_traits@_W@std@@V?$allocator@_W@2@@std@@V12@@std@@@2@$0A@@std@@@std@@IEAAPEAU_Node@?$_Tree_nod@V?$_Tmap_traits@V?$basic_string@_WU?$char_traits@_W@std@@V?$allocator@_W@2@@std@@V12@U?$less@V?$basic_string@_WU?$char_traits@_W@std@@V?$allocator@_W@2@@std@@@2@V?$allocator@U?$pair@$$CBV?$basic_string@_WU?$char_traits@_W@std@@V?$allocator@_W@2@@std@@V12@@std@@@2@$0A@@std@@@2@PEAU342@0@Z 000000006400b590 f i archive.obj
 0001:0000a630       ??0?$vector@V?$vector@EV?$allocator@E@std@@@std@@V?$allocator@V?$vector@EV?$allocator@E@std@@@std@@@2@@std@@QEAA@AEBV01@@Z 000000006400b630 f i archive.obj
 0001:0000a6e0       ?erase@?$_Tree@V?$_Tmap_traits@V?$vector@EV?$allocator@E@std@@@std@@UArcFormat@@U?$less@V?$vector@EV?$allocator@E@std@@@std@@@2@V?$allocator@U?$pair@$$CBV?$vector@EV?$allocator@E@std@@@std@@UArcFormat@@@std@@@2@$0A@@std@@@std@@QEAA?AV?$_Tree_iterator@V?$_Tree_val@V?$_Tmap_traits@V?$vector@EV?$allocator@E@std@@@std@@UArcFormat@@U?$less@V?$vector@EV?$allocator@E@std@@@std@@@2@V?$allocator@U?$pair@$$CBV?$vector@EV?$allocator@E@std@@@std@@UArcFormat@@@std@@@2@$0A@@std@@@std@@@2@V?$_Tree_const_iterator@V?$_Tree_val@V?$_Tmap_traits@V?$vector@EV?$allocator@E@std@@@std@@UArcFormat@@U?$less@V?$vector@EV?$allocator@E@std@@@std@@@2@V?$allocator@U?$pair@$$CBV?$vector@EV?$allocator@E@std@@@std@@UArcFormat@@@std@@@2@$0A@@std@@@std@@@2@@Z 000000006400b6e0 f i archive.obj
 0001:0000aae0       ?erase@?$_Tree@V?$_Tset_traits@IU?$less@I@std@@V?$allocator@I@2@$0A@@std@@@std@@QEAA?AV?$_Tree_const_iterator@V?$_Tree_val@V?$_Tset_traits@IU?$less@I@std@@V?$allocator@I@2@$0A@@std@@@std@@@2@V32@@Z 000000006400bae0 f i archive.obj
 0001:0000ae40       ?clear@?$_Tree@V?$_Tset_traits@IU?$less@I@std@@V?$allocator@I@2@$0A@@std@@@std@@QEAAXXZ 000000006400be40 f i archive.obj
 0001:0000aec0       ?erase@?$_Tree@V?$_Tmap_traits@IIU?$less@I@std@@V?$allocator@U?$pair@$$CBII@std@@@2@$0A@@std@@@std@@QEAA?AV?$_Tree_iterator@V?$_Tree_val@V?$_Tmap_traits@IIU?$less@I@std@@V?$allocator@U?$pair@$$CBII@std@@@2@$0A@@std@@@std@@@2@V?$_Tree_const_iterator@V?$_Tree_val@V?$_Tmap_traits@IIU?$less@I@std@@V?$allocator@U?$pair@$$CBII@std@@@2@$0A@@std@@@std@@@2@@Z 000000006400bec0 f i archive.obj
 0001:0000b220       ?clear@?$_Tree@V?$_Tmap_traits@IIU?$less@I@std@@V?$allocator@U?$pair@$$CBII@std@@@2@$0A@@std@@@std@@QEAAXXZ 000000006400c220 f i archive.obj
 0001:0000b2a0       ?erase@?$_Tree@V?$_Tset_traits@UDirInfo@?4??make_index@Archive@@QEAAXXZ@U?$less@UDirInfo@?4??make_index@Archive@@QEAAXXZ@@std@@V?$allocator@UDirInfo@?4??make_index@Archive@@QEAAXXZ@@5@$0A@@std@@@std@@QEAA?AV?$_Tree_const_iterator@V?$_Tree_val@V?$_Tset_traits@UDirInfo@?4??make_index@Archive@@QEAAXXZ@U?$less@UDirInfo@?4??make_index@Archive@@QEAAXXZ@@std@@V?$allocator@UDirInfo@?4??make_index@Archive@@QEAAXXZ@@5@$0A@@std@@@std@@@2@V32@@Z 000000006400c2a0 f i archive.obj
 0001:0000b620       ??0?$_Tree@V?$_Tmap_traits@V?$basic_string@_WU?$char_traits@_W@std@@V?$allocator@_W@2@@std@@V12@U?$less@V?$basic_string@_WU?$char_traits@_W@std@@V?$allocator@_W@2@@std@@@2@V?$allocator@U?$pair@$$CBV?$basic_string@_WU?$char_traits@_W@std@@V?$allocator@_W@2@@std@@V12@@std@@@2@$0A@@std@@@std@@QEAA@AEBV01@@Z 000000006400c620 f i archive.obj
 0001:0000b660       ?_Erase@?$_Tree@V?$_Tmap_traits@V?$basic_string@_WU?$char_traits@_W@std@@V?$allocator@_W@2@@std@@V12@U?$less@V?$basic_string@_WU?$char_traits@_W@std@@V?$allocator@_W@2@@std@@@2@V?$allocator@U?$pair@$$CBV?$basic_string@_WU?$char_traits@_W@std@@V?$allocator@_W@2@@std@@V12@@std@@@2@$0A@@std@@@std@@IEAAXPEAU_Node@?$_Tree_nod@V?$_Tmap_traits@V?$basic_string@_WU?$char_traits@_W@std@@V?$allocator@_W@2@@std@@V12@U?$less@V?$basic_string@_WU?$char_traits@_W@std@@V?$allocator@_W@2@@std@@@2@V?$allocator@U?$pair@$$CBV?$basic_string@_WU?$char_traits@_W@std@@V?$allocator@_W@2@@std@@V12@@std@@@2@$0A@@std@@@2@@Z 000000006400c660 f i archive.obj
 0001:0000b710       ?_Lrotate@?$_Tree@V?$_Tmap_traits@V?$basic_string@_WU?$char_traits@_W@std@@V?$allocator@_W@2@@std@@V12@U?$less@V?$basic_string@_WU?$char_traits@_W@std@@V?$allocator@_W@2@@std@@@2@V?$allocator@U?$pair@$$CBV?$basic_string@_WU?$char_traits@_W@std@@V?$allocator@_W@2@@std@@V12@@std@@@2@$0A@@std@@@std@@IEAAXPEAU_Node@?$_Tree_nod@V?$_Tmap_traits@V?$basic_string@_WU?$char_traits@_W@std@@V?$allocator@_W@2@@std@@V12@U?$less@V?$basic_string@_WU?$char_traits@_W@std@@V?$allocator@_W@2@@std@@@2@V?$allocator@U?$pair@$$CBV?$basic_string@_WU?$char_traits@_W@std@@V?$allocator@_W@2@@std@@V12@@std@@@2@$0A@@std@@@2@@Z 000000006400c710 f i archive.obj
 0001:0000b770       ?_Rrotate@?$_Tree@V?$_Tmap_traits@V?$basic_string@_WU?$char_traits@_W@std@@V?$allocator@_W@2@@std@@V12@U?$less@V?$basic_string@_WU?$char_traits@_W@std@@V?$allocator@_W@2@@std@@@2@V?$allocator@U?$pair@$$CBV?$basic_string@_WU?$char_traits@_W@std@@V?$allocator@_W@2@@std@@V12@@std@@@2@$0A@@std@@@std@@IEAAXPEAU_Node@?$_Tree_nod@V?$_Tmap_traits@V?$basic_string@_WU?$char_traits@_W@std@@V?$allocator@_W@2@@std@@V12@U?$less@V?$basic_string@_WU?$char_traits@_W@std@@V?$allocator@_W@2@@std@@@2@V?$allocator@U?$pair@$$CBV?$basic_string@_WU?$char_traits@_W@std@@V?$allocator@_W@2@@std@@V12@@std@@@2@$0A@@std@@@2@@Z 000000006400c770 f i archive.obj
 0001:0000b7d0       ?_Erase@?$_Tree@V?$_Tmap_traits@V?$vector@EV?$allocator@E@std@@@std@@UArcFormat@@U?$less@V?$vector@EV?$allocator@E@std@@@std@@@2@V?$allocator@U?$pair@$$CBV?$vector@EV?$allocator@E@std@@@std@@UArcFormat@@@std@@@2@$0A@@std@@@std@@IEAAXPEAU_Node@?$_Tree_nod@V?$_Tmap_traits@V?$vector@EV?$allocator@E@std@@@std@@UArcFormat@@U?$less@V?$vector@EV?$allocator@E@std@@@std@@@2@V?$allocator@U?$pair@$$CBV?$vector@EV?$allocator@E@std@@@std@@UArcFormat@@@std@@@2@$0A@@std@@@2@@Z 000000006400c7d0 f i archive.obj
 0001:0000b870       ?_Lrotate@?$_Tree@V?$_Tmap_traits@V?$vector@EV?$allocator@E@std@@@std@@UArcFormat@@U?$less@V?$vector@EV?$allocator@E@std@@@std@@@2@V?$allocator@U?$pair@$$CBV?$vector@EV?$allocator@E@std@@@std@@UArcFormat@@@std@@@2@$0A@@std@@@std@@IEAAXPEAU_Node@?$_Tree_nod@V?$_Tmap_traits@V?$vector@EV?$allocator@E@std@@@std@@UArcFormat@@U?$less@V?$vector@EV?$allocator@E@std@@@std@@@2@V?$allocator@U?$pair@$$CBV?$vector@EV?$allocator@E@std@@@std@@UArcFormat@@@std@@@2@$0A@@std@@@2@@Z 000000006400c870 f i archive.obj
 0001:0000b8d0       ?_Rrotate@?$_Tree@V?$_Tmap_traits@V?$vector@EV?$allocator@E@std@@@std@@UArcFormat@@U?$less@V?$vector@EV?$allocator@E@std@@@std@@@2@V?$allocator@U?$pair@$$CBV?$vector@EV?$allocator@E@std@@@std@@UArcFormat@@@std@@@2@$0A@@std@@@std@@IEAAXPEAU_Node@?$_Tree_nod@V?$_Tmap_traits@V?$vector@EV?$allocator@E@std@@@std@@UArcFormat@@U?$less@V?$vector@EV?$allocator@E@std@@@std@@@2@V?$allocator@U?$pair@$$CBV?$vector@EV?$allocator@E@std@@@std@@UArcFormat@@@std@@@2@$0A@@std@@@2@@Z 000000006400c8d0 f i archive.obj
 0001:0000b930       ?_Erase@?$_Tree@V?$_Tset_traits@IU?$less@I@std@@V?$allocator@I@2@$0A@@std@@@std@@IEAAXPEAU_Node@?$_Tree_nod@V?$_Tset_traits@IU?$less@I@std@@V?$allocator@I@2@$0A@@std@@@2@@Z 000000006400c930 f i archive.obj
 0001:0000b980       ?_Lrotate@?$_Tree@V?$_Tset_traits@IU?$less@I@std@@V?$allocator@I@2@$0A@@std@@@std@@IEAAXPEAU_Node@?$_Tree_nod@V?$_Tset_traits@IU?$less@I@std@@V?$allocator@I@2@$0A@@std@@@2@@Z 000000006400c980 f i archive.obj
 0001:0000b9e0       ?_Rrotate@?$_Tree@V?$_Tset_traits@IU?$less@I@std@@V?$allocator@I@2@$0A@@std@@@std@@IEAAXPEAU_Node@?$_Tree_nod@V?$_Tset_traits@IU?$less@I@std@@V?$allocator@I@2@$0A@@std@@@2@@Z 000000006400c9e0 f i archive.obj
 0001:0000ba40       ?_Erase@?$_Tree@V?$_Tmap_traits@IIU?$less@I@std@@V?$allocator@U?$pair@$$CBII@std@@@2@$0A@@std@@@std@@IEAAXPEAU_Node@?$_Tree_nod@V?$_Tmap_traits@IIU?$less@I@std@@V?$allocator@U?$pair@$$CBII@std@@@2@$0A@@std@@@2@@Z 000000006400ca40 f i archive.obj
 0001:0000ba90       ?_Lrotate@?$_Tree@V?$_Tmap_traits@IIU?$less@I@std@@V?$allocator@U?$pair@$$CBII@std@@@2@$0A@@std@@@std@@IEAAXPEAU_Node@?$_Tree_nod@V?$_Tmap_traits@IIU?$less@I@std@@V?$allocator@U?$pair@$$CBII@std@@@2@$0A@@std@@@2@@Z 000000006400ca90 f i archive.obj
 0001:0000baf0       ?_Rrotate@?$_Tree@V?$_Tmap_traits@IIU?$less@I@std@@V?$allocator@U?$pair@$$CBII@std@@@2@$0A@@std@@@std@@IEAAXPEAU_Node@?$_Tree_nod@V?$_Tmap_traits@IIU?$less@I@std@@V?$allocator@U?$pair@$$CBII@std@@@2@$0A@@std@@@2@@Z 000000006400caf0 f i archive.obj
 0001:0000bb50       ?_Erase@?$_Tree@V?$_Tset_traits@UDirInfo@?4??make_index@Archive@@QEAAXXZ@U?$less@UDirInfo@?4??make_index@Archive@@QEAAXXZ@@std@@V?$allocator@UDirInfo@?4??make_index@Archive@@QEAAXXZ@@5@$0A@@std@@@std@@IEAAXPEAU_Node@?$_Tree_nod@V?$_Tset_traits@UDirInfo@?4??make_index@Archive@@QEAAXXZ@U?$less@UDirInfo@?4??make_index@Archive@@QEAAXXZ@@std@@V?$allocator@UDirInfo@?4??make_index@Archive@@QEAAXXZ@@5@$0A@@std@@@2@@Z 000000006400cb50 f i archive.obj
 0001:0000bbe0       ?_Lrotate@?$_Tree@V?$_Tset_traits@UDirInfo@?4??make_index@Archive@@QEAAXXZ@U?$less@UDirInfo@?4??make_index@Archive@@QEAAXXZ@@std@@V?$allocator@UDirInfo@?4??make_index@Archive@@QEAAXXZ@@5@$0A@@std@@@std@@IEAAXPEAU_Node@?$_Tree_nod@V?$_Tset_traits@UDirInfo@?4??make_index@Archive@@QEAAXXZ@U?$less@UDirInfo@?4??make_index@Archive@@QEAAXXZ@@std@@V?$allocator@UDirInfo@?4??make_index@Archive@@QEAAXXZ@@5@$0A@@std@@@2@@Z 000000006400cbe0 f i archive.obj
 0001:0000bc40       ?_Rrotate@?$_Tree@V?$_Tset_traits@UDirInfo@?4??make_index@Archive@@QEAAXXZ@U?$less@UDirInfo@?4??make_index@Archive@@QEAAXXZ@@std@@V?$allocator@UDirInfo@?4??make_index@Archive@@QEAAXXZ@@5@$0A@@std@@@std@@IEAAXPEAU_Node@?$_Tree_nod@V?$_Tset_traits@UDirInfo@?4??make_index@Archive@@QEAAXXZ@U?$less@UDirInfo@?4??make_index@Archive@@QEAAXXZ@@std@@V?$allocator@UDirInfo@?4??make_index@Archive@@QEAAXXZ@@5@$0A@@std@@@2@@Z 000000006400cc40 f i archive.obj
 0001:0000bca0       ??$assign@PEAE@?$vector@EV?$allocator@E@std@@@std@@QEAAXPEAE0@Z 000000006400cca0 f i archive.obj
 0001:0000bd20       ??$?H_WU?$char_traits@_W@std@@V?$allocator@_W@1@@std@@YA?AV?$basic_string@_WU?$char_traits@_W@std@@V?$allocator@_W@2@@0@$$QEAV10@PEB_W@Z 000000006400cd20 f i archive.obj
 0001:0000bd90       ??$?H_WU?$char_traits@_W@std@@V?$allocator@_W@1@@std@@YA?AV?$basic_string@_WU?$char_traits@_W@std@@V?$allocator@_W@2@@0@$$QEAV10@0@Z 000000006400cd90 f i archive.obj
 0001:0000be20       ??$_Buynode@AEAU?$pair@$$CBV?$basic_string@_WU?$char_traits@_W@std@@V?$allocator@_W@2@@std@@V12@@std@@@?$_Tree_val@V?$_Tmap_traits@V?$basic_string@_WU?$char_traits@_W@std@@V?$allocator@_W@2@@std@@V12@U?$less@V?$basic_string@_WU?$char_traits@_W@std@@V?$allocator@_W@2@@std@@@2@V?$allocator@U?$pair@$$CBV?$basic_string@_WU?$char_traits@_W@std@@V?$allocator@_W@2@@std@@V12@@std@@@2@$0A@@std@@@std@@QEAAPEAU_Node@?$_Tree_nod@V?$_Tmap_traits@V?$basic_string@_WU?$char_traits@_W@std@@V?$allocator@_W@2@@std@@V12@U?$less@V?$basic_string@_WU?$char_traits@_W@std@@V?$allocator@_W@2@@std@@@2@V?$allocator@U?$pair@$$CBV?$basic_string@_WU?$char_traits@_W@std@@V?$allocator@_W@2@@std@@V12@@std@@@2@$0A@@std@@@1@AEAU?$pair@$$CBV?$basic_string@_WU?$char_traits@_W@std@@V?$allocator@_W@2@@std@@V12@@1@@Z 000000006400ce20 f i archive.obj
 0001:0000be70       ?compare@?$basic_string@_WU?$char_traits@_W@std@@V?$allocator@_W@2@@std@@QEBAHAEBV12@@Z 000000006400ce70 f i archive.obj
 0001:0000bf00       ?_Insert@?$_Tree@V?$_Tmap_traits@V?$basic_string@_WU?$char_traits@_W@std@@V?$allocator@_W@2@@std@@V12@U?$less@V?$basic_string@_WU?$char_traits@_W@std@@V?$allocator@_W@2@@std@@@2@V?$allocator@U?$pair@$$CBV?$basic_string@_WU?$char_traits@_W@std@@V?$allocator@_W@2@@std@@V12@@std@@@2@$0A@@std@@@std@@QEAA?AV?$_Tree_iterator@V?$_Tree_val@V?$_Tmap_traits@V?$basic_string@_WU?$char_traits@_W@std@@V?$allocator@_W@2@@std@@V12@U?$less@V?$basic_string@_WU?$char_traits@_W@std@@V?$allocator@_W@2@@std@@@2@V?$allocator@U?$pair@$$CBV?$basic_string@_WU?$char_traits@_W@std@@V?$allocator@_W@2@@std@@V12@@std@@@2@$0A@@std@@@std@@@2@V?$_Tree_const_iterator@V?$_Tree_val@V?$_Tmap_traits@V?$basic_string@_WU?$char_traits@_W@std@@V?$allocator@_W@2@@std@@V12@U?$less@V?$basic_string@_WU?$char_traits@_W@std@@V?$allocator@_W@2@@std@@@2@V?$allocator@U?$pair@$$CBV?$basic_string@_WU?$char_traits@_W@std@@V?$allocator@_W@2@@std@@V12@@std@@@2@$0A@@std@@@std@@@2@PEAU_Node@?$_Tree_nod@V?$_Tmap_traits@V?$basic_string@_WU?$char_traits@_W@std@@V?$allocator@_W@2@@std@@V12@U?$less@V?$basic_string@_WU?$char_traits@_W@std@@V?$allocator@_W@2@@std@@@2@V?$allocator@U?$pair@$$CBV?$basic_string@_WU?$char_traits@_W@std@@V?$allocator@_W@2@@std@@V12@@std@@@2@$0A@@std@@@2@@Z 000000006400cf00 f i archive.obj
 0001:0000c170       ?_Buynode@?$_Tree_val@V?$_Tmap_traits@V?$basic_string@_WU?$char_traits@_W@std@@V?$allocator@_W@2@@std@@V12@U?$less@V?$basic_string@_WU?$char_traits@_W@std@@V?$allocator@_W@2@@std@@@2@V?$allocator@U?$pair@$$CBV?$basic_string@_WU?$char_traits@_W@std@@V?$allocator@_W@2@@std@@V12@@std@@@2@$0A@@std@@@std@@QEAAPEAU_Node@?$_Tree_nod@V?$_Tmap_traits@V?$basic_string@_WU?$char_traits@_W@std@@V?$allocator@_W@2@@std@@V12@U?$less@V?$basic_string@_WU?$char_traits@_W@std@@V?$allocator@_W@2@@std@@@2@V?$allocator@U?$pair@$$CBV?$basic_string@_WU?$char_traits@_W@std@@V?$allocator@_W@2@@std@@V12@@std@@@2@$0A@@std@@@2@XZ 000000006400d170 f i archive.obj
 0001:0000c1f0       ?_Insert@?$_Tree@V?$_Tmap_traits@V?$vector@EV?$allocator@E@std@@@std@@UArcFormat@@U?$less@V?$vector@EV?$allocator@E@std@@@std@@@2@V?$allocator@U?$pair@$$CBV?$vector@EV?$allocator@E@std@@@std@@UArcFormat@@@std@@@2@$0A@@std@@@std@@QEAA?AV?$_Tree_iterator@V?$_Tree_val@V?$_Tmap_traits@V?$vector@EV?$allocator@E@std@@@std@@UArcFormat@@U?$less@V?$vector@EV?$allocator@E@std@@@std@@@2@V?$allocator@U?$pair@$$CBV?$vector@EV?$allocator@E@std@@@std@@UArcFormat@@@std@@@2@$0A@@std@@@std@@@2@V?$_Tree_const_iterator@V?$_Tree_val@V?$_Tmap_traits@V?$vector@EV?$allocator@E@std@@@std@@UArcFormat@@U?$less@V?$vector@EV?$allocator@E@std@@@std@@@2@V?$allocator@U?$pair@$$CBV?$vector@EV?$allocator@E@std@@@std@@UArcFormat@@@std@@@2@$0A@@std@@@std@@@2@PEAU_Node@?$_Tree_nod@V?$_Tmap_traits@V?$vector@EV?$allocator@E@std@@@std@@UArcFormat@@U?$less@V?$vector@EV?$allocator@E@std@@@std@@@2@V?$allocator@U?$pair@$$CBV?$vector@EV?$allocator@E@std@@@std@@UArcFormat@@@std@@@2@$0A@@std@@@2@@Z 000000006400d1f0 f i archive.obj
 0001:0000c490       ?_Linsert@?$_Tree@V?$_Tset_traits@IU?$less@I@std@@V?$allocator@I@2@$0A@@std@@@std@@QEAA?AU?$pair@V?$_Tree_const_iterator@V?$_Tree_val@V?$_Tset_traits@IU?$less@I@std@@V?$allocator@I@2@$0A@@std@@@std@@@std@@_N@2@PEAU_Node@?$_Tree_nod@V?$_Tset_traits@IU?$less@I@std@@V?$allocator@I@2@$0A@@std@@@2@_N@Z 000000006400d490 f i archive.obj
 0001:0000c5b0       ?_Insert@?$_Tree@V?$_Tmap_traits@IIU?$less@I@std@@V?$allocator@U?$pair@$$CBII@std@@@2@$0A@@std@@@std@@QEAA?AV?$_Tree_iterator@V?$_Tree_val@V?$_Tmap_traits@IIU?$less@I@std@@V?$allocator@U?$pair@$$CBII@std@@@2@$0A@@std@@@std@@@2@V?$_Tree_const_iterator@V?$_Tree_val@V?$_Tmap_traits@IIU?$less@I@std@@V?$allocator@U?$pair@$$CBII@std@@@2@$0A@@std@@@std@@@2@PEAU_Node@?$_Tree_nod@V?$_Tmap_traits@IIU?$less@I@std@@V?$allocator@U?$pair@$$CBII@std@@@2@$0A@@std@@@2@@Z 000000006400d5b0 f i archive.obj
 0001:0000c7c0       ?_Linsert@?$_Tree@V?$_Tset_traits@UDirInfo@?4??make_index@Archive@@QEAAXXZ@U?$less@UDirInfo@?4??make_index@Archive@@QEAAXXZ@@std@@V?$allocator@UDirInfo@?4??make_index@Archive@@QEAAXXZ@@5@$0A@@std@@@std@@QEAA?AU?$pair@V?$_Tree_const_iterator@V?$_Tree_val@V?$_Tset_traits@UDirInfo@?4??make_index@Archive@@QEAAXXZ@U?$less@UDirInfo@?4??make_index@Archive@@QEAAXXZ@@std@@V?$allocator@UDirInfo@?4??make_index@Archive@@QEAAXXZ@@5@$0A@@std@@@std@@@std@@_N@2@PEAU_Node@?$_Tree_nod@V?$_Tset_traits@UDirInfo@?4??make_index@Archive@@QEAAXXZ@U?$less@UDirInfo@?4??make_index@Archive@@QEAAXXZ@@std@@V?$allocator@UDirInfo@?4??make_index@Archive@@QEAAXXZ@@5@$0A@@std@@@2@_N@Z 000000006400d7c0 f i archive.obj
 0001:0000c970       ?compare@?$basic_string@_WU?$char_traits@_W@std@@V?$allocator@_W@2@@std@@QEBAH_K0PEB_W0@Z 000000006400d970 f i archive.obj
 0001:0000c9f0       ?_Linsert@?$_Tree@V?$_Tmap_traits@V?$basic_string@_WU?$char_traits@_W@std@@V?$allocator@_W@2@@std@@V12@U?$less@V?$basic_string@_WU?$char_traits@_W@std@@V?$allocator@_W@2@@std@@@2@V?$allocator@U?$pair@$$CBV?$basic_string@_WU?$char_traits@_W@std@@V?$allocator@_W@2@@std@@V12@@std@@@2@$0A@@std@@@std@@QEAA?AU?$pair@V?$_Tree_iterator@V?$_Tree_val@V?$_Tmap_traits@V?$basic_string@_WU?$char_traits@_W@std@@V?$allocator@_W@2@@std@@V12@U?$less@V?$basic_string@_WU?$char_traits@_W@std@@V?$allocator@_W@2@@std@@@2@V?$allocator@U?$pair@$$CBV?$basic_string@_WU?$char_traits@_W@std@@V?$allocator@_W@2@@std@@V12@@std@@@2@$0A@@std@@@std@@@std@@_N@2@PEAU_Node@?$_Tree_nod@V?$_Tmap_traits@V?$basic_string@_WU?$char_traits@_W@std@@V?$allocator@_W@2@@std@@V12@U?$less@V?$basic_string@_WU?$char_traits@_W@std@@V?$allocator@_W@2@@std@@@2@V?$allocator@U?$pair@$$CBV?$basic_string@_WU?$char_traits@_W@std@@V?$allocator@_W@2@@std@@V12@@std@@@2@$0A@@std@@@2@_N@Z 000000006400d9f0 f i archive.obj
 0001:0000cbd0       ?_Insert@?$_Tree@V?$_Tmap_traits@V?$basic_string@_WU?$char_traits@_W@std@@V?$allocator@_W@2@@std@@V12@U?$less@V?$basic_string@_WU?$char_traits@_W@std@@V?$allocator@_W@2@@std@@@2@V?$allocator@U?$pair@$$CBV?$basic_string@_WU?$char_traits@_W@std@@V?$allocator@_W@2@@std@@V12@@std@@@2@$0A@@std@@@std@@IEAA?AV?$_Tree_iterator@V?$_Tree_val@V?$_Tmap_traits@V?$basic_string@_WU?$char_traits@_W@std@@V?$allocator@_W@2@@std@@V12@U?$less@V?$basic_string@_WU?$char_traits@_W@std@@V?$allocator@_W@2@@std@@@2@V?$allocator@U?$pair@$$CBV?$basic_string@_WU?$char_traits@_W@std@@V?$allocator@_W@2@@std@@V12@@std@@@2@$0A@@std@@@std@@@2@_NPEAU_Node@?$_Tree_nod@V?$_Tmap_traits@V?$basic_string@_WU?$char_traits@_W@std@@V?$allocator@_W@2@@std@@V12@U?$less@V?$basic_string@_WU?$char_traits@_W@std@@V?$allocator@_W@2@@std@@@2@V?$allocator@U?$pair@$$CBV?$basic_string@_WU?$char_traits@_W@std@@V?$allocator@_W@2@@std@@V12@@std@@@2@$0A@@std@@@2@1@Z 000000006400dbd0 f i archive.obj
 0001:0000cec0       ?_Linsert@?$_Tree@V?$_Tmap_traits@V?$vector@EV?$allocator@E@std@@@std@@UArcFormat@@U?$less@V?$vector@EV?$allocator@E@std@@@std@@@2@V?$allocator@U?$pair@$$CBV?$vector@EV?$allocator@E@std@@@std@@UArcFormat@@@std@@@2@$0A@@std@@@std@@QEAA?AU?$pair@V?$_Tree_iterator@V?$_Tree_val@V?$_Tmap_traits@V?$vector@EV?$allocator@E@std@@@std@@UArcFormat@@U?$less@V?$vector@EV?$allocator@E@std@@@std@@@2@V?$allocator@U?$pair@$$CBV?$vector@EV?$allocator@E@std@@@std@@UArcFormat@@@std@@@2@$0A@@std@@@std@@@std@@_N@2@PEAU_Node@?$_Tree_nod@V?$_Tmap_traits@V?$vector@EV?$allocator@E@std@@@std@@UArcFormat@@U?$less@V?$vector@EV?$allocator@E@std@@@std@@@2@V?$allocator@U?$pair@$$CBV?$vector@EV?$allocator@E@std@@@std@@UArcFormat@@@std@@@2@$0A@@std@@@2@_N@Z 000000006400dec0 f i archive.obj
 0001:0000d0b0       ?_Insert@?$_Tree@V?$_Tmap_traits@V?$vector@EV?$allocator@E@std@@@std@@UArcFormat@@U?$less@V?$vector@EV?$allocator@E@std@@@std@@@2@V?$allocator@U?$pair@$$CBV?$vector@EV?$allocator@E@std@@@std@@UArcFormat@@@std@@@2@$0A@@std@@@std@@IEAA?AV?$_Tree_iterator@V?$_Tree_val@V?$_Tmap_traits@V?$vector@EV?$allocator@E@std@@@std@@UArcFormat@@U?$less@V?$vector@EV?$allocator@E@std@@@std@@@2@V?$allocator@U?$pair@$$CBV?$vector@EV?$allocator@E@std@@@std@@UArcFormat@@@std@@@2@$0A@@std@@@std@@@2@_NPEAU_Node@?$_Tree_nod@V?$_Tmap_traits@V?$vector@EV?$allocator@E@std@@@std@@UArcFormat@@U?$less@V?$vector@EV?$allocator@E@std@@@std@@@2@V?$allocator@U?$pair@$$CBV?$vector@EV?$allocator@E@std@@@std@@UArcFormat@@@std@@@2@$0A@@std@@@2@1@Z 000000006400e0b0 f i archive.obj
 0001:0000d3b0       ?_Insert@?$_Tree@V?$_Tset_traits@IU?$less@I@std@@V?$allocator@I@2@$0A@@std@@@std@@IEAA?AV?$_Tree_const_iterator@V?$_Tree_val@V?$_Tset_traits@IU?$less@I@std@@V?$allocator@I@2@$0A@@std@@@std@@@2@_NPEAU_Node@?$_Tree_nod@V?$_Tset_traits@IU?$less@I@std@@V?$allocator@I@2@$0A@@std@@@2@1@Z 000000006400e3b0 f i archive.obj
 0001:0000d650       ?_Linsert@?$_Tree@V?$_Tmap_traits@IIU?$less@I@std@@V?$allocator@U?$pair@$$CBII@std@@@2@$0A@@std@@@std@@QEAA?AU?$pair@V?$_Tree_iterator@V?$_Tree_val@V?$_Tmap_traits@IIU?$less@I@std@@V?$allocator@U?$pair@$$CBII@std@@@2@$0A@@std@@@std@@@std@@_N@2@PEAU_Node@?$_Tree_nod@V?$_Tmap_traits@IIU?$less@I@std@@V?$allocator@U?$pair@$$CBII@std@@@2@$0A@@std@@@2@_N@Z 000000006400e650 f i archive.obj
 0001:0000d770       ?_Insert@?$_Tree@V?$_Tmap_traits@IIU?$less@I@std@@V?$allocator@U?$pair@$$CBII@std@@@2@$0A@@std@@@std@@IEAA?AV?$_Tree_iterator@V?$_Tree_val@V?$_Tmap_traits@IIU?$less@I@std@@V?$allocator@U?$pair@$$CBII@std@@@2@$0A@@std@@@std@@@2@_NPEAU_Node@?$_Tree_nod@V?$_Tmap_traits@IIU?$less@I@std@@V?$allocator@U?$pair@$$CBII@std@@@2@$0A@@std@@@2@1@Z 000000006400e770 f i archive.obj
 0001:0000da10       ?_Insert@?$_Tree@V?$_Tset_traits@UDirInfo@?4??make_index@Archive@@QEAAXXZ@U?$less@UDirInfo@?4??make_index@Archive@@QEAAXXZ@@std@@V?$allocator@UDirInfo@?4??make_index@Archive@@QEAAXXZ@@5@$0A@@std@@@std@@IEAA?AV?$_Tree_const_iterator@V?$_Tree_val@V?$_Tset_traits@UDirInfo@?4??make_index@Archive@@QEAAXXZ@U?$less@UDirInfo@?4??make_index@Archive@@QEAAXXZ@@std@@V?$allocator@UDirInfo@?4??make_index@Archive@@QEAAXXZ@@5@$0A@@std@@@std@@@2@_NPEAU_Node@?$_Tree_nod@V?$_Tset_traits@UDirInfo@?4??make_index@Archive@@QEAAXXZ@U?$less@UDirInfo@?4??make_index@Archive@@QEAAXXZ@@std@@V?$allocator@UDirInfo@?4??make_index@Archive@@QEAAXXZ@@5@$0A@@std@@@2@1@Z 000000006400ea10 f i archive.obj
 0001:0000dcd0       ??$_Construct@PEBE@?$vector@EV?$allocator@E@std@@@std@@QEAAXPEBE0Uinput_iterator_tag@1@@Z 000000006400ecd0 f i archive.obj
 0001:0000dd00       ??$_For_each@V?$_List_unchecked_const_iterator@V?$_List_val@UArcEntry@@V?$allocator@UArcEntry@@@std@@@std@@U_Iterator_base0@2@@std@@V<lambda0>@?A0xe7bd9b10@@@std@@YA?AV<lambda0>@?A0xe7bd9b10@@V?$_List_unchecked_const_iterator@V?$_List_val@UArcEntry@@V?$allocator@UArcEntry@@@std@@@std@@U_Iterator_base0@2@@0@0V12@@Z 000000006400ed00 f i archive.obj
 0001:0000de70       ??$_For_each@V?$_Tree_unchecked_iterator@V?$_Tree_val@V?$_Tmap_traits@V?$vector@EV?$allocator@E@std@@@std@@UArcFormat@@U?$less@V?$vector@EV?$allocator@E@std@@@std@@@2@V?$allocator@U?$pair@$$CBV?$vector@EV?$allocator@E@std@@@std@@UArcFormat@@@std@@@2@$0A@@std@@@std@@@std@@V<lambda2>@?A0xe7bd9b10@@@std@@YA?AV<lambda2>@?A0xe7bd9b10@@V?$_Tree_unchecked_iterator@V?$_Tree_val@V?$_Tmap_traits@V?$vector@EV?$allocator@E@std@@@std@@UArcFormat@@U?$less@V?$vector@EV?$allocator@E@std@@@std@@@2@V?$allocator@U?$pair@$$CBV?$vector@EV?$allocator@E@std@@@std@@UArcFormat@@@std@@@2@$0A@@std@@@std@@@0@0V12@@Z 000000006400ee70 f i archive.obj
 0001:0000dfd0       ??$_Buynode@AEAUDirInfo@?4??make_index@Archive@@QEAAXXZ@@?$_Tree_val@V?$_Tset_traits@UDirInfo@?4??make_index@Archive@@QEAAXXZ@U?$less@UDirInfo@?4??make_index@Archive@@QEAAXXZ@@std@@V?$allocator@UDirInfo@?4??make_index@Archive@@QEAAXXZ@@5@$0A@@std@@@std@@QEAAPEAU_Node@?$_Tree_nod@V?$_Tset_traits@UDirInfo@?4??make_index@Archive@@QEAAXXZ@U?$less@UDirInfo@?4??make_index@Archive@@QEAAXXZ@@std@@V?$allocator@UDirInfo@?4??make_index@Archive@@QEAAXXZ@@5@$0A@@std@@@1@AEAUDirInfo@?4??make_index@Archive@@QEAAXXZ@@Z 000000006400efd0 f i archive.obj
 0001:0000e050       ??$_For_each@V?$_Tree_unchecked_const_iterator@V?$_Tree_val@V?$_Tset_traits@UDirInfo@?4??make_index@Archive@@QEAAXXZ@U?$less@UDirInfo@?4??make_index@Archive@@QEAAXXZ@@std@@V?$allocator@UDirInfo@?4??make_index@Archive@@QEAAXXZ@@5@$0A@@std@@@std@@U_Iterator_base0@2@@std@@V<lambda3>@?A0xe7bd9b10@@@std@@YA?AV<lambda3>@?A0xe7bd9b10@@V?$_Tree_unchecked_const_iterator@V?$_Tree_val@V?$_Tset_traits@UDirInfo@?4??make_index@Archive@@QEAAXXZ@U?$less@UDirInfo@?4??make_index@Archive@@QEAAXXZ@@std@@V?$allocator@UDirInfo@?4??make_index@Archive@@QEAAXXZ@@5@$0A@@std@@@std@@U_Iterator_base0@2@@0@0V12@@Z 000000006400f050 f i archive.obj
 0001:0000e1c0       ??$_Sort@PEAI_JV<lambda5>@?A0xe7bd9b10@@@std@@YAXPEAI0_JV<lambda5>@?A0xe7bd9b10@@@Z 000000006400f1c0 f i archive.obj
 0001:0000e2f0       ??$_Equal_range@PEAIH_JV<lambda6>@?A0xe7bd9b10@@@std@@YA?AU?$pair@PEAIPEAI@0@PEAI0AEBHV<lambda6>@?A0xe7bd9b10@@PEA_J@Z 000000006400f2f0 f i archive.obj
 0001:0000e4e0       ??$_Equal_range@PEAIH_JV<lambda7>@?A0xe7bd9b10@@@std@@YA?AU?$pair@PEAIPEAI@0@PEAI0AEBHV<lambda7>@?A0xe7bd9b10@@PEA_J@Z 000000006400f4e0 f i archive.obj
 0001:0000e640       ??$_Insert@V?$_List_const_iterator@V?$_List_val@V?$basic_string@_WU?$char_traits@_W@std@@V?$allocator@_W@2@@std@@V?$allocator@V?$basic_string@_WU?$char_traits@_W@std@@V?$allocator@_W@2@@std@@@2@@std@@@std@@@?$list@V?$basic_string@_WU?$char_traits@_W@std@@V?$allocator@_W@2@@std@@V?$allocator@V?$basic_string@_WU?$char_traits@_W@std@@V?$allocator@_W@2@@std@@@2@@std@@QEAAXV?$_List_const_iterator@V?$_List_val@V?$basic_string@_WU?$char_traits@_W@std@@V?$allocator@_W@2@@std@@V?$allocator@V?$basic_string@_WU?$char_traits@_W@std@@V?$allocator@_W@2@@std@@@2@@std@@@1@00Uforward_iterator_tag@1@@Z 000000006400f640 f i archive.obj
 0001:0000e6f0       ??$_Buynode@V?$basic_string@_WU?$char_traits@_W@std@@V?$allocator@_W@2@@std@@@?$_List_val@V?$basic_string@_WU?$char_traits@_W@std@@V?$allocator@_W@2@@std@@V?$allocator@V?$basic_string@_WU?$char_traits@_W@std@@V?$allocator@_W@2@@std@@@2@@std@@QEAAPEAU_Node@?$_List_nod@V?$basic_string@_WU?$char_traits@_W@std@@V?$allocator@_W@2@@std@@V?$allocator@V?$basic_string@_WU?$char_traits@_W@std@@V?$allocator@_W@2@@std@@@2@@1@PEAU231@0$$QEAV?$basic_string@_WU?$char_traits@_W@std@@V?$allocator@_W@2@@1@@Z 000000006400f6f0 f i archive.obj
 0001:0000e7c0       ??$_Buynode@U?$pair@V?$basic_string@_WU?$char_traits@_W@std@@V?$allocator@_W@2@@std@@V12@@std@@@?$_Tree_val@V?$_Tmap_traits@V?$basic_string@_WU?$char_traits@_W@std@@V?$allocator@_W@2@@std@@V12@U?$less@V?$basic_string@_WU?$char_traits@_W@std@@V?$allocator@_W@2@@std@@@2@V?$allocator@U?$pair@$$CBV?$basic_string@_WU?$char_traits@_W@std@@V?$allocator@_W@2@@std@@V12@@std@@@2@$0A@@std@@@std@@QEAAPEAU_Node@?$_Tree_nod@V?$_Tmap_traits@V?$basic_string@_WU?$char_traits@_W@std@@V?$allocator@_W@2@@std@@V12@U?$less@V?$basic_string@_WU?$char_traits@_W@std@@V?$allocator@_W@2@@std@@@2@V?$allocator@U?$pair@$$CBV?$basic_string@_WU?$char_traits@_W@std@@V?$allocator@_W@2@@std@@V12@@std@@@2@$0A@@std@@@1@$$QEAU?$pair@V?$basic_string@_WU?$char_traits@_W@std@@V?$allocator@_W@2@@std@@V12@@1@@Z 000000006400f7c0 f i archive.obj
 0001:0000e800       ??$_Copy_impl@PEAV?$vector@EV?$allocator@E@std@@@std@@PEAV12@@std@@YAPEAV?$vector@EV?$allocator@E@std@@@0@PEAV10@00U_Nonscalar_ptr_iterator_tag@0@@Z 000000006400f800 f i archive.obj
 0001:0000e970       ??$_Buynode@U?$pair@$$CBV?$vector@EV?$allocator@E@std@@@std@@UArcFormat@@@std@@@?$_Tree_val@V?$_Tmap_traits@V?$vector@EV?$allocator@E@std@@@std@@UArcFormat@@U?$less@V?$vector@EV?$allocator@E@std@@@std@@@2@V?$allocator@U?$pair@$$CBV?$vector@EV?$allocator@E@std@@@std@@UArcFormat@@@std@@@2@$0A@@std@@@std@@QEAAPEAU_Node@?$_Tree_nod@V?$_Tmap_traits@V?$vector@EV?$allocator@E@std@@@std@@UArcFormat@@U?$less@V?$vector@EV?$allocator@E@std@@@std@@@2@V?$allocator@U?$pair@$$CBV?$vector@EV?$allocator@E@std@@@std@@UArcFormat@@@std@@@2@$0A@@std@@@1@$$QEAU?$pair@$$CBV?$vector@EV?$allocator@E@std@@@std@@UArcFormat@@@1@@Z 000000006400f970 f i archive.obj
 0001:0000e9e0       ??$_Buynode@U?$pair@$$CBII@std@@@?$_Tree_val@V?$_Tmap_traits@IIU?$less@I@std@@V?$allocator@U?$pair@$$CBII@std@@@2@$0A@@std@@@std@@QEAAPEAU_Node@?$_Tree_nod@V?$_Tmap_traits@IIU?$less@I@std@@V?$allocator@U?$pair@$$CBII@std@@@2@$0A@@std@@@1@$$QEAU?$pair@$$CBII@1@@Z 000000006400f9e0 f i archive.obj
 0001:0000ea20       ??$_Move@PEAV?$vector@EV?$allocator@E@std@@@std@@PEAV12@@std@@YAPEAV?$vector@EV?$allocator@E@std@@@0@PEAV10@00U_Nonscalar_ptr_iterator_tag@0@@Z 000000006400fa20 f i archive.obj
 0001:0000eab0       ??0ArcLib@@QEAA@AEBU0@@Z   000000006400fab0 f i archive.obj
 0001:0000eb40       ??1?$pair@$$CBV?$basic_string@_WU?$char_traits@_W@std@@V?$allocator@_W@2@@std@@V12@@std@@QEAA@XZ 000000006400fb40 f i archive.obj
 0001:0000eb40       ??1Param@@QEAA@XZ          000000006400fb40 f i cmdline.obj
 0001:0000eb40       ??1?$pair@V?$basic_string@_WU?$char_traits@_W@std@@V?$allocator@_W@2@@std@@V12@@std@@QEAA@XZ 000000006400fb40 f i archive.obj
 0001:0000eb40       ??1Attr@@QEAA@XZ           000000006400fb40 f i plugin.obj
 0001:0000eb40       ??$_Dest_val@V?$allocator@U?$pair@$$CBV?$basic_string@_WU?$char_traits@_W@std@@V?$allocator@_W@2@@std@@V12@@std@@@std@@U?$pair@$$CBV?$basic_string@_WU?$char_traits@_W@std@@V?$allocator@_W@2@@std@@V12@@2@@std@@YAXAEAV?$allocator@U?$pair@$$CBV?$basic_string@_WU?$char_traits@_W@std@@V?$allocator@_W@2@@std@@V12@@std@@@0@PEAU?$pair@$$CBV?$basic_string@_WU?$char_traits@_W@std@@V?$allocator@_W@2@@std@@V12@@0@@Z 000000006400fb40 f i archive.obj
 0001:0000eba0       ?_Buynode@?$_Tree_val@V?$_Tmap_traits@V?$vector@EV?$allocator@E@std@@@std@@UArcFormat@@U?$less@V?$vector@EV?$allocator@E@std@@@std@@@2@V?$allocator@U?$pair@$$CBV?$vector@EV?$allocator@E@std@@@std@@UArcFormat@@@std@@@2@$0A@@std@@@std@@QEAAPEAU_Node@?$_Tree_nod@V?$_Tmap_traits@V?$vector@EV?$allocator@E@std@@@std@@UArcFormat@@U?$less@V?$vector@EV?$allocator@E@std@@@std@@@2@V?$allocator@U?$pair@$$CBV?$vector@EV?$allocator@E@std@@@std@@UArcFormat@@@std@@@2@$0A@@std@@@2@XZ 000000006400fba0 f i archive.obj
 0001:0000ec20       ?_Buynode@?$_Tree_val@V?$_Tset_traits@IU?$less@I@std@@V?$allocator@I@2@$0A@@std@@@std@@QEAAPEAU_Node@?$_Tree_nod@V?$_Tset_traits@IU?$less@I@std@@V?$allocator@I@2@$0A@@std@@@2@XZ 000000006400fc20 f i archive.obj
 0001:0000eca0       ?_Buynode@?$_Tree_val@V?$_Tmap_traits@IIU?$less@I@std@@V?$allocator@U?$pair@$$CBII@std@@@2@$0A@@std@@@std@@QEAAPEAU_Node@?$_Tree_nod@V?$_Tmap_traits@IIU?$less@I@std@@V?$allocator@U?$pair@$$CBII@std@@@2@$0A@@std@@@2@XZ 000000006400fca0 f i archive.obj
 0001:0000ed20       ?_Buynode@?$_Tree_val@V?$_Tset_traits@UDirInfo@?4??make_index@Archive@@QEAAXXZ@U?$less@UDirInfo@?4??make_index@Archive@@QEAAXXZ@@std@@V?$allocator@UDirInfo@?4??make_index@Archive@@QEAAXXZ@@5@$0A@@std@@@std@@QEAAPEAU_Node@?$_Tree_nod@V?$_Tset_traits@UDirInfo@?4??make_index@Archive@@QEAAXXZ@U?$less@UDirInfo@?4??make_index@Archive@@QEAAXXZ@@std@@V?$allocator@UDirInfo@?4??make_index@Archive@@QEAAXXZ@@5@$0A@@std@@@2@XZ 000000006400fd20 f i archive.obj
 0001:0000eda0       ?reserve@?$vector@EV?$allocator@E@std@@@std@@QEAAX_K@Z 000000006400fda0 f i archive.obj
 0001:0000ee50       ??$_Unguarded_partition@PEAIV<lambda5>@?A0xe7bd9b10@@@std@@YA?AU?$pair@PEAIPEAI@0@PEAI0V<lambda5>@?A0xe7bd9b10@@@Z 000000006400fe50 f i archive.obj
 0001:0000f310       ??$lower_bound@PEAIHV<lambda7>@?A0xe7bd9b10@@@std@@YAPEAIPEAI0AEBHV<lambda7>@?A0xe7bd9b10@@@Z 0000000064010310 f i archive.obj
 0001:0000f3e0       ??$upper_bound@PEAIHV<lambda7>@?A0xe7bd9b10@@@std@@YAPEAIPEAI0AEBHV<lambda7>@?A0xe7bd9b10@@@Z 00000000640103e0 f i archive.obj
 0001:0000f4b0       ??$_Uninit_copy@V?$_Vector_const_iterator@V?$_Vector_val@EV?$allocator@E@std@@@std@@@std@@PEAEV?$allocator@E@2@@std@@YAPEAEV?$_Vector_const_iterator@V?$_Vector_val@EV?$allocator@E@std@@@std@@@0@0PEAEAEAV?$allocator@E@0@U_Nonscalar_ptr_iterator_tag@0@@Z 00000000640104b0 f i archive.obj
 0001:0000f4b0       ??$_Uninit_copy@V?$_String_iterator@DU?$char_traits@D@std@@V?$allocator@D@2@@std@@PEAEV?$allocator@E@2@@std@@YAPEAEV?$_String_iterator@DU?$char_traits@D@std@@V?$allocator@D@2@@0@0PEAEAEAV?$allocator@E@0@U_Nonscalar_ptr_iterator_tag@0@@Z 00000000640104b0 f i sfx.obj
 0001:0000f4f0       ??$_Cons_val@V?$allocator@U?$pair@$$CBV?$basic_string@_WU?$char_traits@_W@std@@V?$allocator@_W@2@@std@@V12@@std@@@std@@U?$pair@$$CBV?$basic_string@_WU?$char_traits@_W@std@@V?$allocator@_W@2@@std@@V12@@2@U?$pair@V?$basic_string@_WU?$char_traits@_W@std@@V?$allocator@_W@2@@std@@V12@@2@@std@@YAXAEAV?$allocator@U?$pair@$$CBV?$basic_string@_WU?$char_traits@_W@std@@V?$allocator@_W@2@@std@@V12@@std@@@0@PEAU?$pair@$$CBV?$basic_string@_WU?$char_traits@_W@std@@V?$allocator@_W@2@@std@@V12@@0@$$QEAU?$pair@V?$basic_string@_WU?$char_traits@_W@std@@V?$allocator@_W@2@@std@@V12@@0@@Z 00000000640104f0 f i archive.obj
 0001:0000f570       ??$_Uninit_copy@PEAV?$vector@EV?$allocator@E@std@@@std@@PEAV12@V?$allocator@V?$vector@EV?$allocator@E@std@@@std@@@2@@std@@YAPEAV?$vector@EV?$allocator@E@std@@@0@PEAV10@00AEAV?$allocator@V?$vector@EV?$allocator@E@std@@@std@@@0@U_Nonscalar_ptr_iterator_tag@0@@Z 0000000064010570 f i archive.obj
 0001:0000f5d0       ??$_Uninit_move@PEAUArcFileInfo@@PEAU1@V?$allocator@UArcFileInfo@@@std@@U1@@std@@YAPEAUArcFileInfo@@PEAU1@00AEAV?$allocator@UArcFileInfo@@@0@0U_Nonscalar_ptr_iterator_tag@0@@Z 00000000640105d0 f i archive.obj
 0001:0000f660       ??$_Uninit_move@PEAV?$vector@EV?$allocator@E@std@@@std@@PEAV12@V?$allocator@V?$vector@EV?$allocator@E@std@@@std@@@2@V12@@std@@YAPEAV?$vector@EV?$allocator@E@std@@@0@PEAV10@00AEAV?$allocator@V?$vector@EV?$allocator@E@std@@@std@@@0@0U_Nonscalar_ptr_iterator_tag@0@@Z 0000000064010660 f i archive.obj
 0001:0000f6e0       ??$_Uninit_move@PEAUSfxModule@@PEAU1@V?$allocator@USfxModule@@@std@@U1@@std@@YAPEAUSfxModule@@PEAU1@00AEAV?$allocator@USfxModule@@@0@0U_Nonscalar_ptr_iterator_tag@0@@Z 00000000640106e0 f i archive.obj
 0001:0000f770       ??$_Uninit_move@PEAUArcLib@@PEAU1@V?$allocator@UArcLib@@@std@@U1@@std@@YAPEAUArcLib@@PEAU1@00AEAV?$allocator@UArcLib@@@0@0U_Nonscalar_ptr_iterator_tag@0@@Z 0000000064010770 f i archive.obj
 0001:0000f840       ??$_Uninit_copy@V?$_Vector_const_iterator@V?$_Vector_val@V?$vector@EV?$allocator@E@std@@@std@@V?$allocator@V?$vector@EV?$allocator@E@std@@@std@@@2@@std@@@std@@PEAV?$vector@EV?$allocator@E@std@@@2@V?$allocator@V?$vector@EV?$allocator@E@std@@@std@@@2@@std@@YAPEAV?$vector@EV?$allocator@E@std@@@0@V?$_Vector_const_iterator@V?$_Vector_val@V?$vector@EV?$allocator@E@std@@@std@@V?$allocator@V?$vector@EV?$allocator@E@std@@@std@@@2@@std@@@0@0PEAV10@AEAV?$allocator@V?$vector@EV?$allocator@E@std@@@std@@@0@U_Nonscalar_ptr_iterator_tag@0@@Z 0000000064010840 f i archive.obj
 0001:0000f8b0       ??$_Insert@PEBE@?$vector@EV?$allocator@E@std@@@std@@QEAAXV?$_Vector_const_iterator@V?$_Vector_val@EV?$allocator@E@std@@@std@@@1@PEBE1Uforward_iterator_tag@1@@Z 00000000640108b0 f i archive.obj
 0001:0000f8b0       ??$_Insert@PEAE@?$vector@EV?$allocator@E@std@@@std@@QEAAXV?$_Vector_const_iterator@V?$_Vector_val@EV?$allocator@E@std@@@std@@@1@PEAE1Uforward_iterator_tag@1@@Z 00000000640108b0 f i archive.obj
 0001:0000f9f0       ??$_Median@PEAIV<lambda5>@?A0xe7bd9b10@@@std@@YAXPEAI00V<lambda5>@?A0xe7bd9b10@@@Z 00000000640109f0 f i archive.obj
 0001:0000fad0       ??$_Make_heap@PEAI_JIV<lambda5>@?A0xe7bd9b10@@@std@@YAXPEAI0V<lambda5>@?A0xe7bd9b10@@PEA_J0@Z 0000000064010ad0 f i archive.obj
 0001:0000fcd0       ??$_Sort_heap@PEAIV<lambda5>@?A0xe7bd9b10@@@std@@YAXPEAI0V<lambda5>@?A0xe7bd9b10@@@Z 0000000064010cd0 f i archive.obj
 0001:0000fee0       ??$_Insertion_sort1@PEAIV<lambda5>@?A0xe7bd9b10@@I@std@@YAXPEAI0V<lambda5>@?A0xe7bd9b10@@0@Z 0000000064010ee0 f i archive.obj
 0001:00010080       ??$_Lower_bound@PEAIH_JV<lambda6>@?A0xe7bd9b10@@@std@@YAPEAIPEAI0AEBHV<lambda6>@?A0xe7bd9b10@@PEA_J@Z 0000000064011080 f i archive.obj
 0001:00010190       ??$_Upper_bound@PEAIH_JV<lambda6>@?A0xe7bd9b10@@@std@@YAPEAIPEAI0AEBHV<lambda6>@?A0xe7bd9b10@@PEA_J@Z 0000000064011190 f i archive.obj
 0001:000102a0       ??$?0$$CBV?$basic_string@_WU?$char_traits@_W@std@@V?$allocator@_W@2@@std@@V01@@?$pair@$$CBV?$basic_string@_WU?$char_traits@_W@std@@V?$allocator@_W@2@@std@@V12@@std@@QEAA@AEAU01@@Z 00000000640112a0 f i archive.obj
 0001:000102a0       ??0Attr@@QEAA@AEBU0@@Z     00000000640112a0 f i plugin.obj
 0001:00010320       ??$rotate@PEAE@std@@YAPEAEPEAE00@Z 0000000064011320 f i archive.obj
 0001:00010380       ??$_Med3@PEAIV<lambda5>@?A0xe7bd9b10@@@std@@YAXPEAI00V<lambda5>@?A0xe7bd9b10@@@Z 0000000064011380 f i archive.obj
 0001:000104f0       ??$_Rotate@PEAE_JE@std@@YAXPEAE00PEA_J0@Z 00000000640114f0 f i archive.obj
 0001:000105f0       ?imbue@?$basic_streambuf@_WU?$char_traits@_W@std@@@std@@MEAAXAEBVlocale@2@@Z 00000000640115f0 f i ui.obj
 0001:000105f0       ??3@YAXPEAX0@Z             00000000640115f0 f i archive.obj
 0001:00010600       ?assign@?$basic_string@_WU?$char_traits@_W@std@@V?$allocator@_W@2@@std@@QEAAAEAV12@PEB_W_K@Z 0000000064011600 f i archive.obj
 0001:00010760       ?erase@?$basic_string@_WU?$char_traits@_W@std@@V?$allocator@_W@2@@std@@QEAAAEAV12@_K0@Z 0000000064011760 f i archive.obj
 0001:00010800       ?allocate@?$allocator@_W@std@@QEAAPEA_W_K@Z 0000000064011800 f i archive.obj
 0001:00010870       ?_Copy@?$basic_string@_WU?$char_traits@_W@std@@V?$allocator@_W@2@@std@@QEAAX_K0@Z 0000000064011870 f i archive.obj
 0001:000109c0       ?_Grow@?$basic_string@_WU?$char_traits@_W@std@@V?$allocator@_W@2@@std@@QEAA_N_K_N@Z 00000000640119c0 f i archive.obj
 0001:00010aa0       ?data@?$basic_string@_WU?$char_traits@_W@std@@V?$allocator@_W@2@@std@@QEBAPEB_WXZ 0000000064011aa0 f i archive.obj
 0001:00010aa0       ?_Myptr@?$basic_string@_WU?$char_traits@_W@std@@V?$allocator@_W@2@@std@@QEBAPEB_WXZ 0000000064011aa0 f i archive.obj
 0001:00010ab0       ?assign@?$basic_string@_WU?$char_traits@_W@std@@V?$allocator@_W@2@@std@@QEAAAEAV12@AEBV12@_K1@Z 0000000064011ab0 f i archive.obj
 0001:00010be0       ??1?$basic_string@DU?$char_traits@D@std@@V?$allocator@D@2@@std@@QEAA@XZ 0000000064011be0 f i archive.obj
 0001:00010c20       ?erase@?$basic_string@DU?$char_traits@D@std@@V?$allocator@D@2@@std@@QEAAAEAV12@_K0@Z 0000000064011c20 f i archive.obj
 0001:00010cc0       ?assign@?$basic_string@DU?$char_traits@D@std@@V?$allocator@D@2@@std@@QEAAAEAV12@AEBV12@_K1@Z 0000000064011cc0 f i archive.obj
 0001:00010dd0       ??1bad_alloc@std@@UEAA@XZ  0000000064011dd0 f i archive.obj
 0001:00010de0       ??_Gbad_alloc@std@@UEAAPEAXI@Z 0000000064011de0 f i archive.obj
 0001:00010de0       ??_Ebad_alloc@std@@UEAAPEAXI@Z 0000000064011de0 f i  CIL library: CIL module
 0001:00010e20       ??0bad_alloc@std@@QEAA@AEBV01@@Z 0000000064011e20 f i archive.obj
 0001:00010e50       ?allocate@?$allocator@D@std@@QEAAPEAD_K@Z 0000000064011e50 f i archive.obj
 0001:00010eb0       ?_Copy@?$basic_string@DU?$char_traits@D@std@@V?$allocator@D@2@@std@@QEAAX_K0@Z 0000000064011eb0 f i archive.obj
 0001:00010ff0       ?assign@?$basic_string@DU?$char_traits@D@std@@V?$allocator@D@2@@std@@QEAAAEAV12@PEBD_K@Z 0000000064011ff0 f i archive.obj
 0001:00011120       ??0Error@@QEAA@AEBVexception@std@@@Z 0000000064012120 f i plugin.obj
 0001:00011320       ?updatable@Archive@@QEBA_NXZ 0000000064012320 f i plugin.obj
 0001:00011370       ??0Archive@@QEAA@XZ        0000000064012370 f i plugin.obj
 0001:00011440       ??0Plugin@@QEAA@XZ         0000000064012440 f i plugin.obj
 0001:00011520       ?open@Plugin@@SAPEAV1@AEBV?$vector@V?$shared_ptr@VArchive@@@tr1@std@@V?$allocator@V?$shared_ptr@VArchive@@@tr1@std@@@3@@std@@@Z 0000000064012520 f i plugin.obj
 0001:00011750       ?info@Plugin@@QEAAXPEAUOpenPanelInfo@@@Z 0000000064012750 f i plugin.obj
 0001:00011ae0       ?set_dir@Plugin@@QEAAXAEBV?$basic_string@_WU?$char_traits@_W@std@@V?$allocator@_W@2@@std@@@Z 0000000064012ae0 f i plugin.obj
 0001:00011ea0       ?list@Plugin@@QEAAXPEAPEAUPluginPanelItem@@PEA_K@Z 0000000064012ea0 f i plugin.obj
 0001:00011fe0       ?get_separate_dir_path@Plugin@@SA?AV?$basic_string@_WU?$char_traits@_W@std@@V?$allocator@_W@2@@std@@AEBV23@0@Z 0000000064012fe0 f i plugin.obj
 0001:000120f0       ?extract@Plugin@@QEAAXAEBVPluginPanelItemAccessor@1@AEAV?$basic_string@_WU?$char_traits@_W@std@@V?$allocator@_W@2@@std@@_N_K@Z 00000000640130f0 f i plugin.obj
 0001:00012bf0       ?get_files@Plugin@@QEAAXPEBUPluginPanelItem@@_JHPEAPEB_W_K@Z 0000000064013bf0 f i plugin.obj
 0001:00012cd0       ?extract@Plugin@@QEAAXXZ   0000000064013cd0 f i plugin.obj
 0001:00012da0       ?extract@Plugin@@SAXAEBV?$vector@V?$basic_string@_WU?$char_traits@_W@std@@V?$allocator@_W@2@@std@@V?$allocator@V?$basic_string@_WU?$char_traits@_W@std@@V?$allocator@_W@2@@std@@@2@@std@@UExtractOptions@@@Z 0000000064013da0 f i plugin.obj
 0001:000139d0       ?bulk_extract@Plugin@@SAXAEBV?$vector@V?$basic_string@_WU?$char_traits@_W@std@@V?$allocator@_W@2@@std@@V?$allocator@V?$basic_string@_WU?$char_traits@_W@std@@V?$allocator@_W@2@@std@@@2@@std@@@Z 00000000640149d0 f i plugin.obj
 0001:00013e60       ?cmdline_extract@Plugin@@SAXAEBUExtractCommand@@@Z 0000000064014e60 f i plugin.obj
 0001:00014160       ?test_files@Plugin@@QEAAXPEAUPluginPanelItem@@_J_K@Z 0000000064015160 f i plugin.obj
 0001:00014410       ?bulk_test@Plugin@@SAXAEBV?$vector@V?$basic_string@_WU?$char_traits@_W@std@@V?$allocator@_W@2@@std@@V?$allocator@V?$basic_string@_WU?$char_traits@_W@std@@V?$allocator@_W@2@@std@@@2@@std@@@Z 0000000064015410 f i plugin.obj
 0001:00014c90       ?cmdline_test@Plugin@@SAXAEBUTestCommand@@@Z 0000000064015c90 f i plugin.obj
 0001:00014dd0       ?put_files@Plugin@@QEAAXPEBUPluginPanelItem@@_JHPEB_W_K@Z 0000000064015dd0 f i plugin.obj
 0001:00015c00       ?create_archive@Plugin@@SAXXZ 0000000064016c00 f i plugin.obj
 0001:00016a70       ?cmdline_update@Plugin@@SAXAEBUUpdateCommand@@@Z 0000000064017a70 f i plugin.obj
 0001:00017770       ?delete_files@Plugin@@QEAAXPEBUPluginPanelItem@@_J_K@Z 0000000064018770 f i plugin.obj
 0001:00017bd0       ?create_dir@Plugin@@QEAAXPEAPEB_W_K@Z 0000000064018bd0 f i plugin.obj
 0001:00017df0       ?show_attr@Plugin@@QEAAXXZ 0000000064018df0 f i plugin.obj
 0001:00018370       ?close@Plugin@@QEAAXXZ     0000000064019370 f i plugin.obj
 0001:00018410       ?convert_to_sfx@Plugin@@SAXAEBV?$vector@V?$basic_string@_WU?$char_traits@_W@std@@V?$allocator@_W@2@@std@@V?$allocator@V?$basic_string@_WU?$char_traits@_W@std@@V?$allocator@_W@2@@std@@@2@@std@@@Z 0000000064019410 f i plugin.obj
 0001:00018810       ??1?$vector@V?$basic_string@_WU?$char_traits@_W@std@@V?$allocator@_W@2@@std@@V?$allocator@V?$basic_string@_WU?$char_traits@_W@std@@V?$allocator@_W@2@@std@@@2@@std@@QEAA@XZ 0000000064019810 f i plugin.obj
 0001:00018810       ??1MenuItems@Far@@QEAA@XZ  0000000064019810 f i plugin.obj
 0001:00018810       ??1TestCommand@@QEAA@XZ    0000000064019810 f i plugin.obj
 0001:00018820       ??1ExtractOptions@@QEAA@XZ 0000000064019820 f i plugin.obj
 0001:00018880       ??1PluginPanelItems@?1??extract@Plugin@@QEAAXXZ@QEAA@XZ 0000000064019880 f i plugin.obj
 0001:00018890       ??1OpenOptions@@QEAA@XZ    0000000064019890 f i plugin.obj
 0001:00018910       ??1UpdateOptions@@QEAA@XZ  0000000064019910 f i plugin.obj
 0001:000189b0       ??4SfxOptions@@QEAAAEAU0@AEBU0@@Z 00000000640199b0 f i plugin.obj
 0001:00018a30       ??1PanelItem@Far@@QEAA@XZ  0000000064019a30 f i plugin.obj
 0001:00018a90       ??0UpdateOptions@@QEAA@AEBU0@@Z 0000000064019a90 f i plugin.obj
 0001:00018b80       ??0SfxOptions@@QEAA@AEBU0@@Z 0000000064019b80 f i plugin.obj
 0001:00018c40       ??1SfxOptions@@QEAA@XZ     0000000064019c40 f i plugin.obj
 0001:00018cb0       ??1ProfileOptions@@QEAA@XZ 0000000064019cb0 f i plugin.obj
 0001:00018d90       ??4SfxVersionInfo@@QEAAAEAU0@AEBU0@@Z 0000000064019d90 f i plugin.obj
 0001:00018e30       ??4SfxInstallConfig@@QEAAAEAU0@AEBU0@@Z 0000000064019e30 f i plugin.obj
 0001:00018ef0       ??0ProfileOptions@@QEAA@AEBU0@@Z 0000000064019ef0 f i plugin.obj
 0001:00019040       ??0SfxVersionInfo@@QEAA@AEBU0@@Z 000000006401a040 f i plugin.obj
 0001:00019160       ??1SfxVersionInfo@@QEAA@XZ 000000006401a160 f i plugin.obj
 0001:00019260       ??0SfxInstallConfig@@QEAA@AEBU0@@Z 000000006401a260 f i plugin.obj
 0001:000193a0       ??1SfxInstallConfig@@QEAA@XZ 000000006401a3a0 f i plugin.obj
 0001:000194d0       GetGlobalInfoW             000000006401a4d0 f   plugin.obj
 0001:00019550       SetStartupInfoW            000000006401a550 f   plugin.obj
 0001:000195f0       GetPluginInfoW             000000006401a5f0 f   plugin.obj
 0001:000196d0       AnalyseW                   000000006401a6d0 f   plugin.obj
 0001:0001a390       CloseAnalyseW              000000006401b390 f   plugin.obj
 0001:0001a3c0       OpenW                      000000006401b3c0 f   plugin.obj
 0001:0001b350       ??1CommandArgs@@QEAA@XZ    000000006401c350 f i plugin.obj
 0001:0001b360       ??1OpenCommand@@QEAA@XZ    000000006401c360 f i plugin.obj
 0001:0001b370       ??0OpenOptions@@QEAA@AEBU0@@Z 000000006401c370 f i plugin.obj
 0001:0001b400       ??1UpdateCommand@@QEAA@XZ  000000006401c400 f i plugin.obj
 0001:0001b430       ??1ExtractCommand@@QEAA@XZ 000000006401c430 f i plugin.obj
 0001:0001b4a0       ClosePanelW                000000006401c4a0 f   plugin.obj
 0001:0001b510       ??1Plugin@@QEAA@XZ         000000006401c510 f i plugin.obj
 0001:0001b640       GetOpenPanelInfoW          000000006401c640 f   plugin.obj
 0001:0001b690       SetDirectoryW              000000006401c690 f   plugin.obj
 0001:0001b750       GetFindDataW               000000006401c750 f   plugin.obj
 0001:0001b7c0       FreeFindDataW              000000006401c7c0 f   plugin.obj
 0001:0001b810       GetFilesW                  000000006401c810 f   plugin.obj
 0001:0001b890       PutFilesW                  000000006401c890 f   plugin.obj
 0001:0001b910       DeleteFilesW               000000006401c910 f   plugin.obj
 0001:0001b980       MakeDirectoryW             000000006401c980 f   plugin.obj
 0001:0001b9f0       ProcessHostFileW           000000006401c9f0 f   plugin.obj
 0001:0001bb90       ProcessPanelInputW         000000006401cb90 f   plugin.obj
 0001:0001bc20       ConfigureW                 000000006401cc20 f   plugin.obj
 0001:0001c160       ??1PluginSettings@@QEAA@XZ 000000006401d160 f i plugin.obj
 0001:0001c210       ?ExitFARW@@YAXPEAUExitInfo@@@Z 000000006401d210 f   plugin.obj
 0001:0001c250       ?push_back@?$vector@V?$basic_string@_WU?$char_traits@_W@std@@V?$allocator@_W@2@@std@@V?$allocator@V?$basic_string@_WU?$char_traits@_W@std@@V?$allocator@_W@2@@std@@@2@@std@@QEAAX$$QEAV?$basic_string@_WU?$char_traits@_W@std@@V?$allocator@_W@2@@2@@Z 000000006401d250 f i plugin.obj
 0001:0001c340       ?reserve@?$vector@V?$basic_string@_WU?$char_traits@_W@std@@V?$allocator@_W@2@@std@@V?$allocator@V?$basic_string@_WU?$char_traits@_W@std@@V?$allocator@_W@2@@std@@@2@@std@@QEAAX_K@Z 000000006401d340 f i plugin.obj
 0001:0001c440       ?push_back@?$vector@V?$basic_string@_WU?$char_traits@_W@std@@V?$allocator@_W@2@@std@@V?$allocator@V?$basic_string@_WU?$char_traits@_W@std@@V?$allocator@_W@2@@std@@@2@@std@@QEAAXAEBV?$basic_string@_WU?$char_traits@_W@std@@V?$allocator@_W@2@@2@@Z 000000006401d440 f i plugin.obj
 0001:0001c530       ??0?$list@V?$vector@EV?$allocator@E@std@@@std@@V?$allocator@V?$vector@EV?$allocator@E@std@@@std@@@2@@std@@QEAA@AEBV01@@Z 000000006401d530 f i plugin.obj
 0001:0001c5d0       ??4?$list@V?$vector@EV?$allocator@E@std@@@std@@V?$allocator@V?$vector@EV?$allocator@E@std@@@std@@@2@@std@@QEAAAEAV01@$$QEAV01@@Z 000000006401d5d0 f i plugin.obj
 0001:0001c630       ?count@?$_Tree@V?$_Tmap_traits@V?$vector@EV?$allocator@E@std@@@std@@UArcFormat@@U?$less@V?$vector@EV?$allocator@E@std@@@std@@@2@V?$allocator@U?$pair@$$CBV?$vector@EV?$allocator@E@std@@@std@@UArcFormat@@@std@@@2@$0A@@std@@@std@@QEBA_KAEBV?$vector@EV?$allocator@E@std@@@2@@Z 000000006401d630 f i plugin.obj
 0001:0001c6d0       ??1?$vector@_KV?$allocator@_K@std@@@std@@QEAA@XZ 000000006401d6d0 f i ui.obj
 0001:0001c6d0       ??1?$vector@EV?$allocator@E@std@@@std@@QEAA@XZ 000000006401d6d0 f i archive.obj
 0001:0001c6d0       ??1ArcEntry@@QEAA@XZ       000000006401d6d0 f i plugin.obj
 0001:0001c6d0       ??1?$vector@UDialogItem@Far@@V?$allocator@UDialogItem@Far@@@std@@@std@@QEAA@XZ 000000006401d6d0 f i ui.obj
 0001:0001c6d0       ??1?$vector@USigData@@V?$allocator@USigData@@@std@@@std@@QEAA@XZ 000000006401d6d0 f i open.obj
 0001:0001c6d0       ??1?$vector@UStrPos@@V?$allocator@UStrPos@@@std@@@std@@QEAA@XZ 000000006401d6d0 f i open.obj
 0001:0001c6d0       ??1?$vector@IV?$allocator@I@std@@@std@@QEAA@XZ 000000006401d6d0 f i plugin.obj
 0001:0001c6d0       ??1?$vector@UFarListItem@@V?$allocator@UFarListItem@@@std@@@std@@QEAA@XZ 000000006401d6d0 f i ui.obj
 0001:0001c6d0       ??1VersionEncoder@@QEAA@XZ 000000006401d6d0 f i rsrc.obj
 0001:0001c6d0       ??$_Dest_val@V?$allocator@V?$vector@EV?$allocator@E@std@@@std@@@std@@V?$vector@EV?$allocator@E@std@@@2@@std@@YAXAEAV?$allocator@V?$vector@EV?$allocator@E@std@@@std@@@0@PEAV?$vector@EV?$allocator@E@std@@@0@@Z 000000006401d6d0 f i archive.obj
 0001:0001c6d0       ??1?$vector@PEB_WV?$allocator@PEB_W@std@@@std@@QEAA@XZ 000000006401d6d0 f i update.obj
 0001:0001c6d0       ??1?$_Vb_val@V?$allocator@_N@std@@@std@@QEAA@XZ 000000006401d6d0 f i msearch.obj
 0001:0001c6d0       ??1?$vector@UFarMenuItem@@V?$allocator@UFarMenuItem@@@std@@@std@@QEAA@XZ 000000006401d6d0 f i farutils.obj
 0001:0001c700       ??1?$list@UArcEntry@@V?$allocator@UArcEntry@@@std@@@std@@QEAA@XZ 000000006401d700 f i plugin.obj
 0001:0001c700       ??1ArcChain@@QEAA@XZ       000000006401d700 f i plugin.obj
 0001:0001c700       ??1?$list@V?$vector@EV?$allocator@E@std@@@std@@V?$allocator@V?$vector@EV?$allocator@E@std@@@std@@@2@@std@@QEAA@XZ 000000006401d700 f i archive.obj
 0001:0001c720       ??1?$enable_shared_from_this@VArchive@@@tr1@std@@IEAA@XZ 000000006401d720 f i plugin.obj
 0001:0001c740       ??1?$vector@UArcFileInfo@@V?$allocator@UArcFileInfo@@@std@@@std@@QEAA@XZ 000000006401d740 f i plugin.obj
 0001:0001c750       ??1?$list@UAttr@@V?$allocator@UAttr@@@std@@@std@@QEAA@XZ 000000006401d750 f i plugin.obj
 0001:0001c770       ??4?$shared_ptr@VArchive@@@tr1@std@@QEAAAEAV012@AEBV012@@Z 000000006401d770 f i plugin.obj
 0001:0001c830       ?reserve@?$vector@UInfoPanelLine@@V?$allocator@UInfoPanelLine@@@std@@@std@@QEAAX_K@Z 000000006401d830 f i plugin.obj
 0001:0001c970       ?push_back@?$vector@UInfoPanelLine@@V?$allocator@UInfoPanelLine@@@std@@@std@@QEAAXAEBUInfoPanelLine@@@Z 000000006401d970 f i plugin.obj
 0001:0001ca30       ??1?$unique_ptr@VPlugin@@U?$default_delete@VPlugin@@@std@@@std@@QEAA@XZ 000000006401da30 f i plugin.obj
 0001:0001ca60       ?push_back@?$list@UError@@V?$allocator@UError@@@std@@@std@@QEAAXAEBUError@@@Z 000000006401da60 f i plugin.obj
 0001:0001cad0       ??1?$unique_ptr@V?$vector@V?$shared_ptr@VArchive@@@tr1@std@@V?$allocator@V?$shared_ptr@VArchive@@@tr1@std@@@3@@std@@U?$default_delete@V?$vector@V?$shared_ptr@VArchive@@@tr1@std@@V?$allocator@V?$shared_ptr@VArchive@@@tr1@std@@@3@@std@@@2@@std@@QEAA@XZ 000000006401dad0 f i plugin.obj
 0001:0001cb00       ?allocate@?$allocator@V?$basic_string@_WU?$char_traits@_W@std@@V?$allocator@_W@2@@std@@@std@@QEAAPEAV?$basic_string@_WU?$char_traits@_W@std@@V?$allocator@_W@2@@2@_K@Z 000000006401db00 f i plugin.obj
 0001:0001cb70       ?_Reserve@?$vector@V?$basic_string@_WU?$char_traits@_W@std@@V?$allocator@_W@2@@std@@V?$allocator@V?$basic_string@_WU?$char_traits@_W@std@@V?$allocator@_W@2@@std@@@2@@std@@IEAAX_K@Z 000000006401db70 f i plugin.obj
 0001:0001cc30       ??0?$_Tree@V?$_Tset_traits@V?$basic_string@_WU?$char_traits@_W@std@@V?$allocator@_W@2@@std@@U?$less@V?$basic_string@_WU?$char_traits@_W@std@@V?$allocator@_W@2@@std@@@2@V?$allocator@V?$basic_string@_WU?$char_traits@_W@std@@V?$allocator@_W@2@@std@@@2@$0A@@std@@@std@@QEAA@AEBU?$less@V?$basic_string@_WU?$char_traits@_W@std@@V?$allocator@_W@2@@std@@@1@AEBV?$allocator@V?$basic_string@_WU?$char_traits@_W@std@@V?$allocator@_W@2@@std@@@1@@Z 000000006401dc30 f i plugin.obj
 0001:0001ccc0       ??1?$_Tree_val@V?$_Tset_traits@V?$basic_string@_WU?$char_traits@_W@std@@V?$allocator@_W@2@@std@@U?$less@V?$basic_string@_WU?$char_traits@_W@std@@V?$allocator@_W@2@@std@@@2@V?$allocator@V?$basic_string@_WU?$char_traits@_W@std@@V?$allocator@_W@2@@std@@@2@$0A@@std@@@std@@QEAA@XZ 000000006401dcc0 f i plugin.obj
 0001:0001ccc0       ??1?$_Tree_val@V?$_Tmap_traits@V?$basic_string@_WU?$char_traits@_W@std@@V?$allocator@_W@2@@std@@V12@U?$less@V?$basic_string@_WU?$char_traits@_W@std@@V?$allocator@_W@2@@std@@@2@V?$allocator@U?$pair@$$CBV?$basic_string@_WU?$char_traits@_W@std@@V?$allocator@_W@2@@std@@V12@@std@@@2@$0A@@std@@@std@@QEAA@XZ 000000006401dcc0 f i archive.obj
 0001:0001ccc0       ??1?$_Tree_val@V?$_Tmap_traits@IIU?$less@I@std@@V?$allocator@U?$pair@$$CBII@std@@@2@$0A@@std@@@std@@QEAA@XZ 000000006401dcc0 f i archive.obj
 0001:0001ccc0       ??1?$_Tree_val@V?$_Tmap_traits@_J_KU?$less@_J@std@@V?$allocator@U?$pair@$$CB_J_K@std@@@2@$0A@@std@@@std@@QEAA@XZ 000000006401dcc0 f i ui.obj
 0001:0001ccc0       ??1?$_Tree_val@V?$_Tmap_traits@IUFileIndexInfo@@U?$less@I@std@@V?$allocator@U?$pair@$$CBIUFileIndexInfo@@@std@@@3@$0A@@std@@@std@@QEAA@XZ 000000006401dcc0 f i update.obj
 0001:0001ccc0       ??1?$_Tree_val@V?$_Tset_traits@V?$vector@EV?$allocator@E@std@@@std@@U?$less@V?$vector@EV?$allocator@E@std@@@std@@@2@V?$allocator@V?$vector@EV?$allocator@E@std@@@std@@@2@$0A@@std@@@std@@QEAA@XZ 000000006401dcc0 f i open.obj
 0001:0001ccc0       ??1?$_Tree_val@V?$_Tset_traits@V?$basic_string@_WU?$char_traits@_W@std@@V?$allocator@_W@2@@std@@UItemCompare@?1??show@MultiSelectDialog@@QEAA_NXZ@V?$allocator@V?$basic_string@_WU?$char_traits@_W@std@@V?$allocator@_W@2@@std@@@2@$0A@@std@@@std@@QEAA@XZ 000000006401dcc0 f i ui.obj
 0001:0001ccc0       ??1?$_Tree_val@V?$_Tset_traits@IU?$less@I@std@@V?$allocator@I@2@$0A@@std@@@std@@QEAA@XZ 000000006401dcc0 f i archive.obj
 0001:0001ccc0       ??1?$_Tree_val@V?$_Tset_traits@UDirInfo@?4??make_index@Archive@@QEAAXXZ@U?$less@UDirInfo@?4??make_index@Archive@@QEAAXXZ@@std@@V?$allocator@UDirInfo@?4??make_index@Archive@@QEAAXXZ@@5@$0A@@std@@@std@@QEAA@XZ 000000006401dcc0 f i archive.obj
 0001:0001ccc0       ??1?$_Tree_val@V?$_Tmap_traits@V?$vector@EV?$allocator@E@std@@@std@@UArcFormat@@U?$less@V?$vector@EV?$allocator@E@std@@@std@@@2@V?$allocator@U?$pair@$$CBV?$vector@EV?$allocator@E@std@@@std@@UArcFormat@@@std@@@2@$0A@@std@@@std@@QEAA@XZ 000000006401dcc0 f i archive.obj
 0001:0001ccd0       ?_Tidy@?$vector@UArcFileInfo@@V?$allocator@UArcFileInfo@@@std@@@std@@IEAAXXZ 000000006401dcd0 f i plugin.obj
 0001:0001cd60       ??0?$_List_val@UAttr@@V?$allocator@UAttr@@@std@@@std@@QEAA@V?$allocator@UAttr@@@1@@Z 000000006401dd60 f i plugin.obj
 0001:0001cdd0       ?_Reserve@?$vector@UInfoPanelLine@@V?$allocator@UInfoPanelLine@@@std@@@std@@IEAAX_K@Z 000000006401ddd0 f i plugin.obj
 0001:0001ce90       ?_Tidy@?$vector@V?$shared_ptr@VArchive@@@tr1@std@@V?$allocator@V?$shared_ptr@VArchive@@@tr1@std@@@3@@std@@IEAAXXZ 000000006401de90 f i plugin.obj
 0001:0001cf20       ?_Grow_to@?$vector@V?$basic_string@_WU?$char_traits@_W@std@@V?$allocator@_W@2@@std@@V?$allocator@V?$basic_string@_WU?$char_traits@_W@std@@V?$allocator@_W@2@@std@@@2@@std@@IEBA_K_K@Z 000000006401df20 f i plugin.obj
 0001:0001cf80       ?_Eqrange@?$_Tree@V?$_Tmap_traits@V?$vector@EV?$allocator@E@std@@@std@@UArcFormat@@U?$less@V?$vector@EV?$allocator@E@std@@@std@@@2@V?$allocator@U?$pair@$$CBV?$vector@EV?$allocator@E@std@@@std@@UArcFormat@@@std@@@2@$0A@@std@@@std@@IEBA?AU?$pair@V?$_Tree_const_iterator@V?$_Tree_val@V?$_Tmap_traits@V?$vector@EV?$allocator@E@std@@@std@@UArcFormat@@U?$less@V?$vector@EV?$allocator@E@std@@@std@@@2@V?$allocator@U?$pair@$$CBV?$vector@EV?$allocator@E@std@@@std@@UArcFormat@@@std@@@2@$0A@@std@@@std@@@std@@V12@@2@AEBV?$vector@EV?$allocator@E@std@@@2@@Z 000000006401df80 f i plugin.obj
 0001:0001d110       ?clear@?$list@UArcEntry@@V?$allocator@UArcEntry@@@std@@@std@@QEAAXXZ 000000006401e110 f i plugin.obj
 0001:0001d110       ?clear@?$list@V?$vector@EV?$allocator@E@std@@@std@@V?$allocator@V?$vector@EV?$allocator@E@std@@@std@@@2@@std@@QEAAXXZ 000000006401e110 f i archive.obj
 0001:0001d190       ?_Eqrange@?$_Tree@V?$_Tset_traits@V?$basic_string@_WU?$char_traits@_W@std@@V?$allocator@_W@2@@std@@U?$less@V?$basic_string@_WU?$char_traits@_W@std@@V?$allocator@_W@2@@std@@@2@V?$allocator@V?$basic_string@_WU?$char_traits@_W@std@@V?$allocator@_W@2@@std@@@2@$0A@@std@@@std@@IEBA?AU?$pair@V?$_Tree_const_iterator@V?$_Tree_val@V?$_Tset_traits@V?$basic_string@_WU?$char_traits@_W@std@@V?$allocator@_W@2@@std@@U?$less@V?$basic_string@_WU?$char_traits@_W@std@@V?$allocator@_W@2@@std@@@2@V?$allocator@V?$basic_string@_WU?$char_traits@_W@std@@V?$allocator@_W@2@@std@@@2@$0A@@std@@@std@@@std@@V12@@2@AEBV?$basic_string@_WU?$char_traits@_W@std@@V?$allocator@_W@2@@2@@Z 000000006401e190 f i plugin.obj
 0001:0001d400       ?clear@?$list@UAttr@@V?$allocator@UAttr@@@std@@@std@@QEAAXXZ 000000006401e400 f i plugin.obj
 0001:0001d4a0       ?_Destroy@?$vector@V?$shared_ptr@VArchive@@@tr1@std@@V?$allocator@V?$shared_ptr@VArchive@@@tr1@std@@@3@@std@@IEAAXPEAV?$shared_ptr@VArchive@@@tr1@2@0@Z 000000006401e4a0 f i plugin.obj
 0001:0001d510       ?_Buynode@?$_List_val@UError@@V?$allocator@UError@@@std@@@std@@QEAAPEAU_Node@?$_List_nod@UError@@V?$allocator@UError@@@std@@@2@PEAU342@0AEBUError@@@Z 000000006401e510 f i plugin.obj
 0001:0001d5e0       ?_Splice_same@?$list@UAttr@@V?$allocator@UAttr@@@std@@@std@@QEAAXV?$_List_const_iterator@V?$_List_val@UAttr@@V?$allocator@UAttr@@@std@@@std@@@2@AEAV12@00_K@Z 000000006401e5e0 f i plugin.obj
 0001:0001d690       ?_Lrotate@?$_Tree@V?$_Tset_traits@V?$basic_string@_WU?$char_traits@_W@std@@V?$allocator@_W@2@@std@@U?$less@V?$basic_string@_WU?$char_traits@_W@std@@V?$allocator@_W@2@@std@@@2@V?$allocator@V?$basic_string@_WU?$char_traits@_W@std@@V?$allocator@_W@2@@std@@@2@$0A@@std@@@std@@IEAAXPEAU_Node@?$_Tree_nod@V?$_Tset_traits@V?$basic_string@_WU?$char_traits@_W@std@@V?$allocator@_W@2@@std@@U?$less@V?$basic_string@_WU?$char_traits@_W@std@@V?$allocator@_W@2@@std@@@2@V?$allocator@V?$basic_string@_WU?$char_traits@_W@std@@V?$allocator@_W@2@@std@@@2@$0A@@std@@@2@@Z 000000006401e690 f i plugin.obj
 0001:0001d690       ?_Lrotate@?$_Tree@V?$_Tset_traits@V?$basic_string@_WU?$char_traits@_W@std@@V?$allocator@_W@2@@std@@UItemCompare@?1??show@MultiSelectDialog@@QEAA_NXZ@V?$allocator@V?$basic_string@_WU?$char_traits@_W@std@@V?$allocator@_W@2@@std@@@2@$0A@@std@@@std@@IEAAXPEAU_Node@?$_Tree_nod@V?$_Tset_traits@V?$basic_string@_WU?$char_traits@_W@std@@V?$allocator@_W@2@@std@@UItemCompare@?1??show@MultiSelectDialog@@QEAA_NXZ@V?$allocator@V?$basic_string@_WU?$char_traits@_W@std@@V?$allocator@_W@2@@std@@@2@$0A@@std@@@2@@Z 000000006401e690 f i ui.obj
 0001:0001d6f0       ?_Rrotate@?$_Tree@V?$_Tset_traits@V?$basic_string@_WU?$char_traits@_W@std@@V?$allocator@_W@2@@std@@U?$less@V?$basic_string@_WU?$char_traits@_W@std@@V?$allocator@_W@2@@std@@@2@V?$allocator@V?$basic_string@_WU?$char_traits@_W@std@@V?$allocator@_W@2@@std@@@2@$0A@@std@@@std@@IEAAXPEAU_Node@?$_Tree_nod@V?$_Tset_traits@V?$basic_string@_WU?$char_traits@_W@std@@V?$allocator@_W@2@@std@@U?$less@V?$basic_string@_WU?$char_traits@_W@std@@V?$allocator@_W@2@@std@@@2@V?$allocator@V?$basic_string@_WU?$char_traits@_W@std@@V?$allocator@_W@2@@std@@@2@$0A@@std@@@2@@Z 000000006401e6f0 f i plugin.obj
 0001:0001d6f0       ?_Rrotate@?$_Tree@V?$_Tset_traits@V?$basic_string@_WU?$char_traits@_W@std@@V?$allocator@_W@2@@std@@UItemCompare@?1??show@MultiSelectDialog@@QEAA_NXZ@V?$allocator@V?$basic_string@_WU?$char_traits@_W@std@@V?$allocator@_W@2@@std@@@2@$0A@@std@@@std@@IEAAXPEAU_Node@?$_Tree_nod@V?$_Tset_traits@V?$basic_string@_WU?$char_traits@_W@std@@V?$allocator@_W@2@@std@@UItemCompare@?1??show@MultiSelectDialog@@QEAA_NXZ@V?$allocator@V?$basic_string@_WU?$char_traits@_W@std@@V?$allocator@_W@2@@std@@@2@$0A@@std@@@2@@Z 000000006401e6f0 f i ui.obj
 0001:0001d750       ?erase@?$list@UAttr@@V?$allocator@UAttr@@@std@@@std@@QEAA?AV?$_List_iterator@V?$_List_val@UAttr@@V?$allocator@UAttr@@@std@@@std@@@2@V?$_List_const_iterator@V?$_List_val@UAttr@@V?$allocator@UAttr@@@std@@@std@@@2@@Z 000000006401e750 f i plugin.obj
 0001:0001d820       ??$?HDU?$char_traits@D@std@@V?$allocator@D@1@@std@@YA?AV?$basic_string@DU?$char_traits@D@std@@V?$allocator@D@2@@0@$$QEAV10@PEBD@Z 000000006401e820 f i plugin.obj
 0001:0001d890       ??$?H_WU?$char_traits@_W@std@@V?$allocator@_W@1@@std@@YA?AV?$basic_string@_WU?$char_traits@_W@std@@V?$allocator@_W@2@@0@PEB_W$$QEAV10@@Z 000000006401e890 f i plugin.obj
 0001:0001d900       ??$?H_WU?$char_traits@_W@std@@V?$allocator@_W@1@@std@@YA?AV?$basic_string@_WU?$char_traits@_W@std@@V?$allocator@_W@2@@0@PEB_WAEBV10@@Z 000000006401e900 f i plugin.obj
 0001:0001d9e0       ??$?H_WU?$char_traits@_W@std@@V?$allocator@_W@1@@std@@YA?AV?$basic_string@_WU?$char_traits@_W@std@@V?$allocator@_W@2@@0@$$QEAV10@AEBV10@@Z 000000006401e9e0 f i plugin.obj
 0001:0001da40       ??$copy@V?$_List_const_iterator@V?$_List_val@V?$basic_string@_WU?$char_traits@_W@std@@V?$allocator@_W@2@@std@@V?$allocator@V?$basic_string@_WU?$char_traits@_W@std@@V?$allocator@_W@2@@std@@@2@@std@@@std@@V?$insert_iterator@V?$set@V?$basic_string@_WU?$char_traits@_W@std@@V?$allocator@_W@2@@std@@U?$less@V?$basic_string@_WU?$char_traits@_W@std@@V?$allocator@_W@2@@std@@@2@V?$allocator@V?$basic_string@_WU?$char_traits@_W@std@@V?$allocator@_W@2@@std@@@2@@std@@@2@@std@@YA?AV?$insert_iterator@V?$set@V?$basic_string@_WU?$char_traits@_W@std@@V?$allocator@_W@2@@std@@U?$less@V?$basic_string@_WU?$char_traits@_W@std@@V?$allocator@_W@2@@std@@@2@V?$allocator@V?$basic_string@_WU?$char_traits@_W@std@@V?$allocator@_W@2@@std@@@2@@std@@@0@V?$_List_const_iterator@V?$_List_val@V?$basic_string@_WU?$char_traits@_W@std@@V?$allocator@_W@2@@std@@V?$allocator@V?$basic_string@_WU?$char_traits@_W@std@@V?$allocator@_W@2@@std@@@2@@std@@@0@0V10@@Z 000000006401ea40 f i plugin.obj
 0001:0001db30       ??0bad_weak_ptr@tr1@std@@QEAA@AEBV012@@Z 000000006401eb30 f i plugin.obj
 0001:0001db60       ?append@?$basic_string@DU?$char_traits@D@std@@V?$allocator@D@2@@std@@QEAAAEAV12@PEBD_K@Z 000000006401eb60 f i plugin.obj
 0001:0001dca0       ?insert@?$basic_string@_WU?$char_traits@_W@std@@V?$allocator@_W@2@@std@@QEAAAEAV12@_KPEB_W0@Z 000000006401eca0 f i plugin.obj
 0001:0001de30       ?append@?$basic_string@DU?$char_traits@D@std@@V?$allocator@D@2@@std@@QEAAAEAV12@AEBV12@_K1@Z 000000006401ee30 f i plugin.obj
 0001:0001df50       ??$_Construct@V?$_String_iterator@DU?$char_traits@D@std@@V?$allocator@D@2@@std@@@?$basic_string@_WU?$char_traits@_W@std@@V?$allocator@_W@2@@std@@QEAAXV?$_String_iterator@DU?$char_traits@D@std@@V?$allocator@D@2@@1@0Uforward_iterator_tag@1@@Z 000000006401ef50 f i plugin.obj
 0001:0001df50       ??$_Construct@V?$_String_const_iterator@DU?$char_traits@D@std@@V?$allocator@D@2@@std@@@?$basic_string@_WU?$char_traits@_W@std@@V?$allocator@_W@2@@std@@QEAAXV?$_String_const_iterator@DU?$char_traits@D@std@@V?$allocator@D@2@@1@0Uforward_iterator_tag@1@@Z 000000006401ef50 f i strutils.obj
 0001:0001e0a0       ??$_Resetp@VArchive@@@?$shared_ptr@VArchive@@@tr1@std@@AEAAXPEAVArchive@@@Z 000000006401f0a0 f i plugin.obj
 0001:0001e140       ??$_For_each@PEBIV<lambda1>@?A0xc5e9a1c5@@@std@@YA?AV<lambda1>@?A0xc5e9a1c5@@PEBI0V12@@Z 000000006401f140 f i plugin.obj
 0001:0001e360       ??$_Resetp@V?$list@UError@@V?$allocator@UError@@@std@@@std@@@?$shared_ptr@V?$list@UError@@V?$allocator@UError@@@std@@@std@@@tr1@std@@AEAAXPEAV?$list@UError@@V?$allocator@UError@@@std@@@2@@Z 000000006401f360 f i plugin.obj
 0001:0001e3d0       ??$_For_each@PEBIV<lambda2>@?A0xc5e9a1c5@@@std@@YA?AV<lambda2>@?A0xc5e9a1c5@@PEBI0V12@@Z 000000006401f3d0 f i plugin.obj
 0001:0001e3d0       ??$_For_each@PEBIV<lambda4>@?A0xc5e9a1c5@@@std@@YA?AV<lambda4>@?A0xc5e9a1c5@@PEBI0V12@@Z 000000006401f3d0 f i plugin.obj
 0001:0001e4b0       ??$_For_each@PEBV?$basic_string@_WU?$char_traits@_W@std@@V?$allocator@_W@2@@std@@V<lambda7>@?A0xc5e9a1c5@@@std@@YA?AV<lambda7>@?A0xc5e9a1c5@@PEBV?$basic_string@_WU?$char_traits@_W@std@@V?$allocator@_W@2@@0@0V12@@Z 000000006401f4b0 f i plugin.obj
 0001:0001e680       ??$_For_each@PEAV?$basic_string@_WU?$char_traits@_W@std@@V?$allocator@_W@2@@std@@V<lambda8>@?A0xc5e9a1c5@@@std@@YA?AV<lambda8>@?A0xc5e9a1c5@@PEAV?$basic_string@_WU?$char_traits@_W@std@@V?$allocator@_W@2@@0@0V12@@Z 000000006401f680 f i plugin.obj
 0001:0001e930       ??$_For_each@PEAV?$basic_string@_WU?$char_traits@_W@std@@V?$allocator@_W@2@@std@@V<lambda9>@?A0xc5e9a1c5@@@std@@YA?AV<lambda9>@?A0xc5e9a1c5@@PEAV?$basic_string@_WU?$char_traits@_W@std@@V?$allocator@_W@2@@0@0V12@@Z 000000006401f930 f i plugin.obj
 0001:0001ea10       ??$_Resetp@XV<lambda11>@?A0xc5e9a1c5@@@?$shared_ptr@X@tr1@std@@AEAAXPEAXV<lambda11>@?A0xc5e9a1c5@@@Z 000000006401fa10 f i plugin.obj
 0001:0001ea70       ??$_Insert@V?$_List_const_iterator@V?$_List_val@V?$vector@EV?$allocator@E@std@@@std@@V?$allocator@V?$vector@EV?$allocator@E@std@@@std@@@2@@std@@@std@@@?$list@V?$vector@EV?$allocator@E@std@@@std@@V?$allocator@V?$vector@EV?$allocator@E@std@@@std@@@2@@std@@QEAAXV?$_List_const_iterator@V?$_List_val@V?$vector@EV?$allocator@E@std@@@std@@V?$allocator@V?$vector@EV?$allocator@E@std@@@std@@@2@@std@@@1@00Uforward_iterator_tag@1@@Z 000000006401fa70 f i plugin.obj
 0001:0001eb20       ??1Archive@@QEAA@XZ        000000006401fb20 f i plugin.obj
 0001:0001ec80       ?append@?$basic_string@_WU?$char_traits@_W@std@@V?$allocator@_W@2@@std@@QEAAAEAV12@_K_W@Z 000000006401fc80 f i plugin.obj
 0001:0001edb0       ??1?$list@UError@@V?$allocator@UError@@@std@@@std@@QEAA@XZ 000000006401fdb0 f i plugin.obj
 0001:0001edd0       ?_Destroy@?$_Ref_count@VArchive@@@tr1@std@@EEAAXXZ 000000006401fdd0 f i plugin.obj
 0001:0001ee00       ?_Destroy@?$_Ref_count@V?$list@UError@@V?$allocator@UError@@@std@@@std@@@tr1@std@@EEAAXXZ 000000006401fe00 f i plugin.obj
 0001:0001ee30       ?_Get_deleter@?$_Ref_count_del@XV<lambda11>@?A0xc5e9a1c5@@@tr1@std@@UEBAPEAXAEBVtype_info@@@Z 000000006401fe30 f i plugin.obj
 0001:0001ee70       ?_Destroy@?$_Ref_count_del@XV<lambda11>@?A0xc5e9a1c5@@@tr1@std@@EEAAXXZ 000000006401fe70 f i plugin.obj
 0001:0001ee80       ?clear@?$list@UError@@V?$allocator@UError@@@std@@@std@@QEAAXXZ 000000006401fe80 f i plugin.obj
 0001:0001ef50       ??$_Uninit_move@PEAV?$basic_string@_WU?$char_traits@_W@std@@V?$allocator@_W@2@@std@@PEAV12@V?$allocator@V?$basic_string@_WU?$char_traits@_W@std@@V?$allocator@_W@2@@std@@@2@V12@@std@@YAPEAV?$basic_string@_WU?$char_traits@_W@std@@V?$allocator@_W@2@@0@PEAV10@00AEAV?$allocator@V?$basic_string@_WU?$char_traits@_W@std@@V?$allocator@_W@2@@std@@@0@0U_Nonscalar_ptr_iterator_tag@0@@Z 000000006401ff50 f i plugin.obj
 0001:0001f030       ??$_Uninit_move@PEAUInfoPanelLine@@PEAU1@V?$allocator@UInfoPanelLine@@@std@@U1@@std@@YAPEAUInfoPanelLine@@PEAU1@00AEAV?$allocator@UInfoPanelLine@@@0@0U_Nonscalar_ptr_iterator_tag@0@@Z 0000000064020030 f i plugin.obj
 0001:0001f080       ?_Reset0@?$_Ptr_base@X@tr1@std@@QEAAXPEAXPEAV_Ref_count_base@23@@Z 0000000064020080 f i plugin.obj
 0001:0001f110       ?insert@?$_Tree@V?$_Tset_traits@V?$basic_string@_WU?$char_traits@_W@std@@V?$allocator@_W@2@@std@@U?$less@V?$basic_string@_WU?$char_traits@_W@std@@V?$allocator@_W@2@@std@@@2@V?$allocator@V?$basic_string@_WU?$char_traits@_W@std@@V?$allocator@_W@2@@std@@@2@$0A@@std@@@std@@QEAA?AV?$_Tree_const_iterator@V?$_Tree_val@V?$_Tset_traits@V?$basic_string@_WU?$char_traits@_W@std@@V?$allocator@_W@2@@std@@U?$less@V?$basic_string@_WU?$char_traits@_W@std@@V?$allocator@_W@2@@std@@@2@V?$allocator@V?$basic_string@_WU?$char_traits@_W@std@@V?$allocator@_W@2@@std@@@2@$0A@@std@@@std@@@2@V32@AEBV?$basic_string@_WU?$char_traits@_W@std@@V?$allocator@_W@2@@2@@Z 0000000064020110 f i plugin.obj
 0001:0001f380       ?insert@?$_Tree@V?$_Tset_traits@V?$basic_string@_WU?$char_traits@_W@std@@V?$allocator@_W@2@@std@@U?$less@V?$basic_string@_WU?$char_traits@_W@std@@V?$allocator@_W@2@@std@@@2@V?$allocator@V?$basic_string@_WU?$char_traits@_W@std@@V?$allocator@_W@2@@std@@@2@$0A@@std@@@std@@QEAA?AU?$pair@V?$_Tree_const_iterator@V?$_Tree_val@V?$_Tset_traits@V?$basic_string@_WU?$char_traits@_W@std@@V?$allocator@_W@2@@std@@U?$less@V?$basic_string@_WU?$char_traits@_W@std@@V?$allocator@_W@2@@std@@@2@V?$allocator@V?$basic_string@_WU?$char_traits@_W@std@@V?$allocator@_W@2@@std@@@2@$0A@@std@@@std@@@std@@_N@2@AEBV?$basic_string@_WU?$char_traits@_W@std@@V?$allocator@_W@2@@2@_N@Z 0000000064020380 f i plugin.obj
 0001:0001f5b0       ?_Insert@?$_Tree@V?$_Tset_traits@V?$basic_string@_WU?$char_traits@_W@std@@V?$allocator@_W@2@@std@@U?$less@V?$basic_string@_WU?$char_traits@_W@std@@V?$allocator@_W@2@@std@@@2@V?$allocator@V?$basic_string@_WU?$char_traits@_W@std@@V?$allocator@_W@2@@std@@@2@$0A@@std@@@std@@IEAA?AV?$_Tree_const_iterator@V?$_Tree_val@V?$_Tset_traits@V?$basic_string@_WU?$char_traits@_W@std@@V?$allocator@_W@2@@std@@U?$less@V?$basic_string@_WU?$char_traits@_W@std@@V?$allocator@_W@2@@std@@@2@V?$allocator@V?$basic_string@_WU?$char_traits@_W@std@@V?$allocator@_W@2@@std@@@2@$0A@@std@@@std@@@2@_NPEAU_Node@?$_Tree_nod@V?$_Tset_traits@V?$basic_string@_WU?$char_traits@_W@std@@V?$allocator@_W@2@@std@@U?$less@V?$basic_string@_WU?$char_traits@_W@std@@V?$allocator@_W@2@@std@@@2@V?$allocator@V?$basic_string@_WU?$char_traits@_W@std@@V?$allocator@_W@2@@std@@@2@$0A@@std@@@2@AEBV?$basic_string@_WU?$char_traits@_W@std@@V?$allocator@_W@2@@2@@Z 00000000640205b0 f i plugin.obj
 0001:0001f610       ?_Insert@?$_Tree@V?$_Tset_traits@V?$basic_string@_WU?$char_traits@_W@std@@V?$allocator@_W@2@@std@@UItemCompare@?1??show@MultiSelectDialog@@QEAA_NXZ@V?$allocator@V?$basic_string@_WU?$char_traits@_W@std@@V?$allocator@_W@2@@std@@@2@$0A@@std@@@std@@IEAA?AV?$_Tree_const_iterator@V?$_Tree_val@V?$_Tset_traits@V?$basic_string@_WU?$char_traits@_W@std@@V?$allocator@_W@2@@std@@UItemCompare@?1??show@MultiSelectDialog@@QEAA_NXZ@V?$allocator@V?$basic_string@_WU?$char_traits@_W@std@@V?$allocator@_W@2@@std@@@2@$0A@@std@@@std@@@2@_NPEAU_Node@?$_Tree_nod@V?$_Tset_traits@V?$basic_string@_WU?$char_traits@_W@std@@V?$allocator@_W@2@@std@@UItemCompare@?1??show@MultiSelectDialog@@QEAA_NXZ@V?$allocator@V?$basic_string@_WU?$char_traits@_W@std@@V?$allocator@_W@2@@std@@@2@$0A@@std@@@2@1@Z 0000000064020610 f i ui.obj
 0001:0001f610       ?_Insert@?$_Tree@V?$_Tset_traits@V?$basic_string@_WU?$char_traits@_W@std@@V?$allocator@_W@2@@std@@U?$less@V?$basic_string@_WU?$char_traits@_W@std@@V?$allocator@_W@2@@std@@@2@V?$allocator@V?$basic_string@_WU?$char_traits@_W@std@@V?$allocator@_W@2@@std@@@2@$0A@@std@@@std@@IEAA?AV?$_Tree_const_iterator@V?$_Tree_val@V?$_Tset_traits@V?$basic_string@_WU?$char_traits@_W@std@@V?$allocator@_W@2@@std@@U?$less@V?$basic_string@_WU?$char_traits@_W@std@@V?$allocator@_W@2@@std@@@2@V?$allocator@V?$basic_string@_WU?$char_traits@_W@std@@V?$allocator@_W@2@@std@@@2@$0A@@std@@@std@@@2@_NPEAU_Node@?$_Tree_nod@V?$_Tset_traits@V?$basic_string@_WU?$char_traits@_W@std@@V?$allocator@_W@2@@std@@U?$less@V?$basic_string@_WU?$char_traits@_W@std@@V?$allocator@_W@2@@std@@@2@V?$allocator@V?$basic_string@_WU?$char_traits@_W@std@@V?$allocator@_W@2@@std@@@2@$0A@@std@@@2@1@Z 0000000064020610 f i plugin.obj
 0001:0001f8d0       ?_Buynode@?$_Tree_val@V?$_Tset_traits@V?$basic_string@_WU?$char_traits@_W@std@@V?$allocator@_W@2@@std@@U?$less@V?$basic_string@_WU?$char_traits@_W@std@@V?$allocator@_W@2@@std@@@2@V?$allocator@V?$basic_string@_WU?$char_traits@_W@std@@V?$allocator@_W@2@@std@@@2@$0A@@std@@@std@@QEAAPEAU_Node@?$_Tree_nod@V?$_Tset_traits@V?$basic_string@_WU?$char_traits@_W@std@@V?$allocator@_W@2@@std@@U?$less@V?$basic_string@_WU?$char_traits@_W@std@@V?$allocator@_W@2@@std@@@2@V?$allocator@V?$basic_string@_WU?$char_traits@_W@std@@V?$allocator@_W@2@@std@@@2@$0A@@std@@@2@AEBV?$basic_string@_WU?$char_traits@_W@std@@V?$allocator@_W@2@@2@@Z 00000000640208d0 f i plugin.obj
 0001:0001f8d0       ?_Buynode@?$_Tree_val@V?$_Tset_traits@V?$basic_string@_WU?$char_traits@_W@std@@V?$allocator@_W@2@@std@@UItemCompare@?1??show@MultiSelectDialog@@QEAA_NXZ@V?$allocator@V?$basic_string@_WU?$char_traits@_W@std@@V?$allocator@_W@2@@std@@@2@$0A@@std@@@std@@QEAAPEAU_Node@?$_Tree_nod@V?$_Tset_traits@V?$basic_string@_WU?$char_traits@_W@std@@V?$allocator@_W@2@@std@@UItemCompare@?1??show@MultiSelectDialog@@QEAA_NXZ@V?$allocator@V?$basic_string@_WU?$char_traits@_W@std@@V?$allocator@_W@2@@std@@@2@$0A@@std@@@2@AEBV?$basic_string@_WU?$char_traits@_W@std@@V?$allocator@_W@2@@2@@Z 00000000640208d0 f i ui.obj
 0001:0001f8d0       ??$_Buynode@AEAV?$basic_string@_WU?$char_traits@_W@std@@V?$allocator@_W@2@@std@@@?$_Tree_val@V?$_Tset_traits@V?$basic_string@_WU?$char_traits@_W@std@@V?$allocator@_W@2@@std@@U?$less@V?$basic_string@_WU?$char_traits@_W@std@@V?$allocator@_W@2@@std@@@2@V?$allocator@V?$basic_string@_WU?$char_traits@_W@std@@V?$allocator@_W@2@@std@@@2@$0A@@std@@@std@@QEAAPEAU_Node@?$_Tree_nod@V?$_Tset_traits@V?$basic_string@_WU?$char_traits@_W@std@@V?$allocator@_W@2@@std@@U?$less@V?$basic_string@_WU?$char_traits@_W@std@@V?$allocator@_W@2@@std@@@2@V?$allocator@V?$basic_string@_WU?$char_traits@_W@std@@V?$allocator@_W@2@@std@@@2@$0A@@std@@@1@AEAV?$basic_string@_WU?$char_traits@_W@std@@V?$allocator@_W@2@@1@@Z 00000000640208d0 f i open.obj
 0001:0001f940       ?_Buynode@?$_Tree_val@V?$_Tset_traits@V?$basic_string@_WU?$char_traits@_W@std@@V?$allocator@_W@2@@std@@U?$less@V?$basic_string@_WU?$char_traits@_W@std@@V?$allocator@_W@2@@std@@@2@V?$allocator@V?$basic_string@_WU?$char_traits@_W@std@@V?$allocator@_W@2@@std@@@2@$0A@@std@@@std@@QEAAPEAU_Node@?$_Tree_nod@V?$_Tset_traits@V?$basic_string@_WU?$char_traits@_W@std@@V?$allocator@_W@2@@std@@U?$less@V?$basic_string@_WU?$char_traits@_W@std@@V?$allocator@_W@2@@std@@@2@V?$allocator@V?$basic_string@_WU?$char_traits@_W@std@@V?$allocator@_W@2@@std@@@2@$0A@@std@@@2@XZ 0000000064020940 f i plugin.obj
 0001:0001f940       ?_Buynode@?$_Tree_val@V?$_Tset_traits@V?$basic_string@_WU?$char_traits@_W@std@@V?$allocator@_W@2@@std@@UItemCompare@?1??show@MultiSelectDialog@@QEAA_NXZ@V?$allocator@V?$basic_string@_WU?$char_traits@_W@std@@V?$allocator@_W@2@@std@@@2@$0A@@std@@@std@@QEAAPEAU_Node@?$_Tree_nod@V?$_Tset_traits@V?$basic_string@_WU?$char_traits@_W@std@@V?$allocator@_W@2@@std@@UItemCompare@?1??show@MultiSelectDialog@@QEAA_NXZ@V?$allocator@V?$basic_string@_WU?$char_traits@_W@std@@V?$allocator@_W@2@@std@@@2@$0A@@std@@@2@XZ 0000000064020940 f i ui.obj
 0001:0001f9c0       ??$_Insert@V?$_List_const_iterator@V?$_List_val@UAttr@@V?$allocator@UAttr@@@std@@@std@@@std@@@?$list@UAttr@@V?$allocator@UAttr@@@std@@@std@@QEAAXV?$_List_const_iterator@V?$_List_val@UAttr@@V?$allocator@UAttr@@@std@@@std@@@1@00Uforward_iterator_tag@1@@Z 00000000640209c0 f i plugin.obj
 0001:0001fa70       ?_Buynode@?$_List_val@UAttr@@V?$allocator@UAttr@@@std@@@std@@QEAAPEAU_Node@?$_List_nod@UAttr@@V?$allocator@UAttr@@@std@@@2@PEAU342@0AEBUAttr@@@Z 0000000064020a70 f i plugin.obj
 0001:0001fb30       ?what@bad_weak_ptr@tr1@std@@UEBAPEBDXZ 0000000064020b30 f i plugin.obj
 0001:0001fb40       ?assign@?$basic_string@DU?$char_traits@D@std@@V?$allocator@D@2@@std@@QEAAAEAV12@$$QEAV12@@Z 0000000064020b40 f i plugin.obj
 0001:0001fbd0       ??1DisableEvents@Dialog@Far@@QEAA@XZ 0000000064020bd0 f i ui.obj
 0001:0001fc10       ?get_path@TempFile@@QEBA?AV?$basic_string@_WU?$char_traits@_W@std@@V?$allocator@_W@2@@std@@XZ 0000000064020c10 f i ui.obj
 0001:0001fc50       ??1ProgressSuspend@@QEAA@XZ 0000000064020c50 f i ui.obj
 0001:0001fc60       ?get_error_dlg_title@@YA?AV?$basic_string@_WU?$char_traits@_W@std@@V?$allocator@_W@2@@std@@XZ 0000000064020c60 f   ui.obj
 0001:0001fc90       ??0ProgressMonitor@@QEAA@AEBV?$basic_string@_WU?$char_traits@_W@std@@V?$allocator@_W@2@@std@@_N1@Z 0000000064020c90 f   ui.obj
 0001:0001fe30       ??1ProgressMonitor@@UEAA@XZ 0000000064020e30 f   ui.obj
 0001:0001ff30       ?display@ProgressMonitor@@AEAAXXZ 0000000064020f30 f   ui.obj
 0001:000202b0       ?update_ui@ProgressMonitor@@QEAAX_N@Z 00000000640212b0 f   ui.obj
 0001:000204b0       ?handle_esc@ProgressMonitor@@IEAAXXZ 00000000640214b0 f   ui.obj
 0001:000206b0       ?clean@ProgressMonitor@@QEAAXXZ 00000000640216b0 f   ui.obj
 0001:00020720       ?get_suffixes@@YAPEAPEB_WH@Z 0000000064021720 f   ui.obj
 0001:000209d0       ?dialog_proc@PasswordDialog@@EEAA_J_J0PEAX@Z 00000000640219d0 f i ui.obj
 0001:00020a80       ??0PasswordDialog@@QEAA@AEAV?$basic_string@_WU?$char_traits@_W@std@@V?$allocator@_W@2@@std@@AEBV12@@Z 0000000064021a80 f i ui.obj
 0001:00020ba0       ?show@PasswordDialog@@QEAA_NXZ 0000000064021ba0 f i ui.obj
 0001:00020d70       ?password_dialog@@YA_NAEAV?$basic_string@_WU?$char_traits@_W@std@@V?$allocator@_W@2@@std@@AEBV12@@Z 0000000064021d70 f   ui.obj
 0001:00020e50       ??1OverwriteDialog@@QEAA@XZ 0000000064021e50 f i ui.obj
 0001:00020e50       ??1PasswordDialog@@QEAA@XZ 0000000064021e50 f i ui.obj
 0001:00020ec0       ?dialog_proc@OverwriteDialog@@EEAA_J_J0PEAX@Z 0000000064021ec0 f i ui.obj
 0001:00021000       ?show@OverwriteDialog@@QEAA_NXZ 0000000064022000 f i ui.obj
 0001:00021710       ?read_controls@ExtractDialog@@AEAAXAEAUExtractOptions@@@Z 0000000064022710 f i ui.obj
 0001:00021b60       ?dialog_proc@ExtractDialog@@EEAA_J_J0PEAX@Z 0000000064022b60 f i ui.obj
 0001:00021dc0       ?show@ExtractDialog@@QEAA_NXZ 0000000064022dc0 f i ui.obj
 0001:000224a0       ??1SettingsDialog@@QEAA@XZ 00000000640234a0 f i ui.obj
 0001:000224a0       ??1Dialog@Far@@QEAA@XZ     00000000640234a0 f i ui.obj
 0001:000224a0       ??1ExtractDialog@@QEAA@XZ  00000000640234a0 f i ui.obj
 0001:000224a0       ??1AttrDialog@@QEAA@XZ     00000000640234a0 f i ui.obj
 0001:000224e0       ?retry_or_ignore_error@@YAXAEBUError@@AEA_N1AEAV?$list@UError@@V?$allocator@UError@@@std@@@std@@AEAVProgressMonitor@@_N4@Z 00000000640234e0 f   ui.obj
 0001:00022ad0       ??_D?$basic_ostringstream@_WU?$char_traits@_W@std@@V?$allocator@_W@2@@std@@QEAAXXZ 0000000064023ad0 f i ui.obj
 0001:00022b00       ?show_error_log@@YAXAEBV?$list@UError@@V?$allocator@UError@@@std@@@std@@@Z 0000000064023b00 f   ui.obj
 0001:00023340       ??8@YA_NAEBUSfxOptions@@0@Z 0000000064024340 f   ui.obj
 0001:00023520       ??8@YA_NAEBUProfileOptions@@0@Z 0000000064024520 f   ui.obj
 0001:00023710       ?get_default_ext@UpdateDialog@@AEBA?AV?$basic_string@_WU?$char_traits@_W@std@@V?$allocator@_W@2@@std@@XZ 0000000064024710 f i ui.obj
 0001:00023880       ?change_extension@UpdateDialog@@AEAA_NXZ 0000000064024880 f i ui.obj
 0001:00023e30       ?update_level_list@UpdateDialog@@AEAAXXZ 0000000064024e30 f i ui.obj
 0001:00024160       ?set_control_state@UpdateDialog@@AEAAXXZ 0000000064025160 f i ui.obj
 0001:000246c0       ?eval_arc_path@UpdateDialog@@AEAA?AV?$basic_string@_WU?$char_traits@_W@std@@V?$allocator@_W@2@@std@@XZ 00000000640256c0 f i ui.obj
 0001:00024a80       ?read_controls@UpdateDialog@@AEAAXAEAUUpdateOptions@@@Z 0000000064025a80 f i ui.obj
 0001:000256a0       ?write_controls@UpdateDialog@@AEAAXAEBUProfileOptions@@@Z 00000000640266a0 f i ui.obj
 0001:00025df0       ?populate_profile_list@UpdateDialog@@AEAAXXZ 0000000064026df0 f i ui.obj
 0001:00026290       ?dialog_proc@UpdateDialog@@EEAA_J_J0PEAX@Z 0000000064027290 f i ui.obj
 0001:00027470       ??0UpdateDialog@@QEAA@_NAEAUUpdateOptions@@AEAUUpdateProfiles@@@Z 0000000064028470 f i ui.obj
 0001:00027620       ?show@UpdateDialog@@QEAA_NXZ 0000000064028620 f i ui.obj
 0001:00028ee0       ??1UpdateDialog@@QEAA@XZ   0000000064029ee0 f i ui.obj
 0001:00028fc0       ?estimate_column_widths@MultiSelectDialog@@AEAA?AV?$vector@_KV?$allocator@_K@std@@@std@@AEBV?$vector@V?$basic_string@_WU?$char_traits@_W@std@@V?$allocator@_W@2@@std@@V?$allocator@V?$basic_string@_WU?$char_traits@_W@std@@V?$allocator@_W@2@@std@@@2@@3@@Z 0000000064029fc0 f i ui.obj
 0001:000292a0       ?dialog_proc@MultiSelectDialog@@EEAA_J_J0PEAX@Z 000000006402a2a0 f i ui.obj
 0001:00029540       ??0MultiSelectDialog@@QEAA@AEBV?$basic_string@_WU?$char_traits@_W@std@@V?$allocator@_W@2@@std@@0AEAV12@@Z 000000006402a540 f i ui.obj
 0001:00029630       ??0MultiSelectDialog@@QEAA@AEBV?$basic_string@_WU?$char_traits@_W@std@@V?$allocator@_W@2@@std@@0@Z 000000006402a630 f i ui.obj
 0001:00029710       ?show@MultiSelectDialog@@QEAA_NXZ 000000006402a710 f i ui.obj
 0001:0002a110       ??1?$set@V?$basic_string@_WU?$char_traits@_W@std@@V?$allocator@_W@2@@std@@UItemCompare@?1??show@MultiSelectDialog@@QEAA_NXZ@V?$allocator@V?$basic_string@_WU?$char_traits@_W@std@@V?$allocator@_W@2@@std@@@2@@std@@QEAA@XZ 000000006402b110 f i ui.obj
 0001:0002a110       ??1?$set@V?$basic_string@_WU?$char_traits@_W@std@@V?$allocator@_W@2@@std@@U?$less@V?$basic_string@_WU?$char_traits@_W@std@@V?$allocator@_W@2@@std@@@2@V?$allocator@V?$basic_string@_WU?$char_traits@_W@std@@V?$allocator@_W@2@@std@@@2@@std@@QEAA@XZ 000000006402b110 f i plugin.obj
 0001:0002a150       ?get_masks@FormatLibraryInfoDialog@@AEAA?AV?$basic_string@_WU?$char_traits@_W@std@@V?$allocator@_W@2@@std@@_K@Z 000000006402b150 f i ui.obj
 0001:0002a2d0       ?get_formats@FormatLibraryInfoDialog@@AEAA?AV?$basic_string@_WU?$char_traits@_W@std@@V?$allocator@_W@2@@std@@_K@Z 000000006402b2d0 f i ui.obj
 0001:0002a440       ?dialog_proc@FormatLibraryInfoDialog@@EEAA_J_J0PEAX@Z 000000006402b440 f i ui.obj
 0001:0002a810       ??0FormatLibraryInfoDialog@@QEAA@XZ 000000006402b810 f i ui.obj
 0001:0002a910       ?show@FormatLibraryInfoDialog@@QEAAXXZ 000000006402b910 f i ui.obj
 0001:0002afe0       ??1MultiSelectDialog@@QEAA@XZ 000000006402bfe0 f i ui.obj
 0001:0002b060       ??1?$map@_J_KU?$less@_J@std@@V?$allocator@U?$pair@$$CB_J_K@std@@@2@@std@@QEAA@XZ 000000006402c060 f i ui.obj
 0001:0002b0a0       ?dialog_proc@SettingsDialog@@EEAA_J_J0PEAX@Z 000000006402c0a0 f i ui.obj
 0001:0002bc70       ?generate_masks@SettingsDialog@@AEAAXXZ 000000006402cc70 f i ui.obj
 0001:0002bdd0       ?default_masks@SettingsDialog@@AEAAXXZ 000000006402cdd0 f i ui.obj
 0001:0002be50       ?get_available_formats@SettingsDialog@@AEAA?AV?$basic_string@_WU?$char_traits@_W@std@@V?$allocator@_W@2@@std@@XZ 000000006402ce50 f i ui.obj
 0001:0002bf80       ?show@SettingsDialog@@QEAA_NXZ 000000006402cf80 f i ui.obj
 0001:0002c810       ??R<lambda4>@?A0x80a7ab2d@@QEBA_NAEBV?$basic_string@_WU?$char_traits@_W@std@@V?$allocator@_W@2@@std@@0@Z 000000006402d810 f i ui.obj
 0001:0002c810       ??R<lambda1>@?A0xc33845b5@@QEBA_NAEBUUpdateProfile@@0@Z 000000006402d810 f i options.obj
 0001:0002c8d0       ??1FormatLibraryInfoDialog@@QEAA@XZ 000000006402d8d0 f i ui.obj
 0001:0002c980       ??1Options@@QEAA@XZ        000000006402d980 f i ui.obj
 0001:0002cb00       ?dialog_proc@AttrDialog@@EEAA_J_J0PEAX@Z 000000006402db00 f i ui.obj
 0001:0002cd20       ?show@AttrDialog@@QEAAXXZ  000000006402dd20 f i ui.obj
 0001:0002ce70       ??6?$basic_ostream@_WU?$char_traits@_W@std@@@std@@QEAAAEAV01@H@Z 000000006402de70 f i ui.obj
 0001:0002d050       ?reset@?$shared_ptr@VFileFilter@Far@@@tr1@std@@QEAAXXZ 000000006402e050 f i ui.obj
 0001:0002d0b0       ?erase@?$vector@UUpdateProfile@@V?$allocator@UUpdateProfile@@@std@@@std@@QEAA?AV?$_Vector_iterator@V?$_Vector_val@UUpdateProfile@@V?$allocator@UUpdateProfile@@@std@@@std@@@2@V?$_Vector_const_iterator@V?$_Vector_val@UUpdateProfile@@V?$allocator@UUpdateProfile@@@std@@@std@@@2@@Z 000000006402e0b0 f i ui.obj
 0001:0002d150       ??0?$basic_ostringstream@_WU?$char_traits@_W@std@@V?$allocator@_W@2@@std@@QEAA@H@Z 000000006402e150 f i ui.obj
 0001:0002d1f0       ??1?$basic_ostringstream@_WU?$char_traits@_W@std@@V?$allocator@_W@2@@std@@UEAA@XZ 000000006402e1f0 f i ui.obj
 0001:0002d2a0       ?str@?$basic_ostringstream@_WU?$char_traits@_W@std@@V?$allocator@_W@2@@std@@QEBA?AV?$basic_string@_WU?$char_traits@_W@std@@V?$allocator@_W@2@@2@XZ 000000006402e2a0 f i ui.obj
 0001:0002d2d0       ?overflow@?$basic_stringbuf@_WU?$char_traits@_W@std@@V?$allocator@_W@2@@std@@MEAAGG@Z 000000006402e2d0 f i ui.obj
 0001:0002d590       ?pbackfail@?$basic_stringbuf@_WU?$char_traits@_W@std@@V?$allocator@_W@2@@std@@MEAAGG@Z 000000006402e590 f i ui.obj
 0001:0002d5f0       ?underflow@?$basic_stringbuf@_WU?$char_traits@_W@std@@V?$allocator@_W@2@@std@@MEAAGXZ 000000006402e5f0 f i ui.obj
 0001:0002d690       ?seekoff@?$basic_stringbuf@_WU?$char_traits@_W@std@@V?$allocator@_W@2@@std@@MEAA?AV?$fpos@H@2@_JHH@Z 000000006402e690 f i ui.obj
 0001:0002d850       ?seekpos@?$basic_stringbuf@_WU?$char_traits@_W@std@@V?$allocator@_W@2@@std@@MEAA?AV?$fpos@H@2@V32@H@Z 000000006402e850 f i ui.obj
 0001:0002d980       ??4?$vector@_KV?$allocator@_K@std@@@std@@QEAAAEAV01@AEBV01@@Z 000000006402e980 f i ui.obj
 0001:0002dae0       ??_E?$basic_ostringstream@_WU?$char_traits@_W@std@@V?$allocator@_W@2@@std@@UEAAPEAXI@Z 000000006402eae0 f i  CIL library: CIL module
 0001:0002dae0       ??_G?$basic_ostringstream@_WU?$char_traits@_W@std@@V?$allocator@_W@2@@std@@UEAAPEAXI@Z 000000006402eae0 f i ui.obj
 0001:0002db40       ??_G?$basic_stringbuf@_WU?$char_traits@_W@std@@V?$allocator@_W@2@@std@@UEAAPEAXI@Z 000000006402eb40 f i ui.obj
 0001:0002db40       ??_E?$basic_stringbuf@_WU?$char_traits@_W@std@@V?$allocator@_W@2@@std@@UEAAPEAXI@Z 000000006402eb40 f i  CIL library: CIL module
 0001:0002dbd0       ??0?$basic_ostream@_WU?$char_traits@_W@std@@@std@@QEAA@PEAV?$basic_streambuf@_WU?$char_traits@_W@std@@@1@_N@Z 000000006402ebd0 f i ui.obj
 0001:0002dc60       ?rfind@?$basic_string@_WU?$char_traits@_W@std@@V?$allocator@_W@2@@std@@QEBA_KPEB_W_K1@Z 000000006402ec60 f i ui.obj
 0001:0002dd30       ?_Destroy@?$vector@UUpdateProfile@@V?$allocator@UUpdateProfile@@@std@@@std@@IEAAXPEAUUpdateProfile@@0@Z 000000006402ed30 f i ui.obj
 0001:0002dda0       ?str@?$basic_stringbuf@_WU?$char_traits@_W@std@@V?$allocator@_W@2@@std@@QEBA?AV?$basic_string@_WU?$char_traits@_W@std@@V?$allocator@_W@2@@2@XZ 000000006402eda0 f i ui.obj
 0001:0002e040       ?_Construct_n@?$vector@_KV?$allocator@_K@std@@@std@@QEAAX_KPEB_K@Z 000000006402f040 f i ui.obj
 0001:0002e0e0       ?_Buy@?$vector@_KV?$allocator@_K@std@@@std@@IEAA_N_K@Z 000000006402f0e0 f i ui.obj
 0001:0002e150       ??0?$_Tree@V?$_Tmap_traits@_J_KU?$less@_J@std@@V?$allocator@U?$pair@$$CB_J_K@std@@@2@$0A@@std@@@std@@QEAA@AEBU?$less@_J@1@AEBV?$allocator@U?$pair@$$CB_J_K@std@@@1@@Z 000000006402f150 f i ui.obj
 0001:0002e1e0       ?do_put@?$num_put@_WV?$ostreambuf_iterator@_WU?$char_traits@_W@std@@@std@@@std@@MEBA?AV?$ostreambuf_iterator@_WU?$char_traits@_W@std@@@2@V32@AEAVios_base@2@_W_N@Z 000000006402f1e0 f i ui.obj
 0001:0002e5b0       ?do_put@?$num_put@_WV?$ostreambuf_iterator@_WU?$char_traits@_W@std@@@std@@@std@@MEBA?AV?$ostreambuf_iterator@_WU?$char_traits@_W@std@@@2@V32@AEAVios_base@2@_WJ@Z 000000006402f5b0 f i ui.obj
 0001:0002e6b0       ?do_put@?$num_put@_WV?$ostreambuf_iterator@_WU?$char_traits@_W@std@@@std@@@std@@MEBA?AV?$ostreambuf_iterator@_WU?$char_traits@_W@std@@@2@V32@AEAVios_base@2@_WK@Z 000000006402f6b0 f i ui.obj
 0001:0002e7b0       ?do_put@?$num_put@_WV?$ostreambuf_iterator@_WU?$char_traits@_W@std@@@std@@@std@@MEBA?AV?$ostreambuf_iterator@_WU?$char_traits@_W@std@@@2@V32@AEAVios_base@2@_W_J@Z 000000006402f7b0 f i ui.obj
 0001:0002e8b0       ?do_put@?$num_put@_WV?$ostreambuf_iterator@_WU?$char_traits@_W@std@@@std@@@std@@MEBA?AV?$ostreambuf_iterator@_WU?$char_traits@_W@std@@@2@V32@AEAVios_base@2@_W_K@Z 000000006402f8b0 f i ui.obj
 0001:0002e9b0       ?do_put@?$num_put@_WV?$ostreambuf_iterator@_WU?$char_traits@_W@std@@@std@@@std@@MEBA?AV?$ostreambuf_iterator@_WU?$char_traits@_W@std@@@2@V32@AEAVios_base@2@_WN@Z 000000006402f9b0 f i ui.obj
 0001:0002ebc0       ?do_put@?$num_put@_WV?$ostreambuf_iterator@_WU?$char_traits@_W@std@@@std@@@std@@MEBA?AV?$ostreambuf_iterator@_WU?$char_traits@_W@std@@@2@V32@AEAVios_base@2@_WO@Z 000000006402fbc0 f i ui.obj
 0001:0002edc0       ?do_put@?$num_put@_WV?$ostreambuf_iterator@_WU?$char_traits@_W@std@@@std@@@std@@MEBA?AV?$ostreambuf_iterator@_WU?$char_traits@_W@std@@@2@V32@AEAVios_base@2@_WPEBX@Z 000000006402fdc0 f i ui.obj
 0001:0002ee60       ??0?$basic_streambuf@_WU?$char_traits@_W@std@@@std@@IEAA@XZ 000000006402fe60 f i ui.obj
 0001:0002ef50       ?reserve@?$vector@UFarListItem@@V?$allocator@UFarListItem@@@std@@@std@@QEAAX_K@Z 000000006402ff50 f i ui.obj
 0001:0002f050       ?allocate@?$allocator@_K@std@@QEAAPEA_K_K@Z 0000000064030050 f i ui.obj
 0001:0002f0c0       ?erase@?$_Tree@V?$_Tset_traits@V?$basic_string@_WU?$char_traits@_W@std@@V?$allocator@_W@2@@std@@UItemCompare@?1??show@MultiSelectDialog@@QEAA_NXZ@V?$allocator@V?$basic_string@_WU?$char_traits@_W@std@@V?$allocator@_W@2@@std@@@2@$0A@@std@@@std@@QEAA?AV?$_Tree_const_iterator@V?$_Tree_val@V?$_Tset_traits@V?$basic_string@_WU?$char_traits@_W@std@@V?$allocator@_W@2@@std@@UItemCompare@?1??show@MultiSelectDialog@@QEAA_NXZ@V?$allocator@V?$basic_string@_WU?$char_traits@_W@std@@V?$allocator@_W@2@@std@@@2@$0A@@std@@@std@@@2@V32@0@Z 00000000640300c0 f i ui.obj
 0001:0002f0c0       ?erase@?$_Tree@V?$_Tset_traits@V?$basic_string@_WU?$char_traits@_W@std@@V?$allocator@_W@2@@std@@U?$less@V?$basic_string@_WU?$char_traits@_W@std@@V?$allocator@_W@2@@std@@@2@V?$allocator@V?$basic_string@_WU?$char_traits@_W@std@@V?$allocator@_W@2@@std@@@2@$0A@@std@@@std@@QEAA?AV?$_Tree_const_iterator@V?$_Tree_val@V?$_Tset_traits@V?$basic_string@_WU?$char_traits@_W@std@@V?$allocator@_W@2@@std@@U?$less@V?$basic_string@_WU?$char_traits@_W@std@@V?$allocator@_W@2@@std@@@2@V?$allocator@V?$basic_string@_WU?$char_traits@_W@std@@V?$allocator@_W@2@@std@@@2@$0A@@std@@@std@@@2@V32@0@Z 00000000640300c0 f i plugin.obj
 0001:0002f1c0       ?erase@?$_Tree@V?$_Tmap_traits@_J_KU?$less@_J@std@@V?$allocator@U?$pair@$$CB_J_K@std@@@2@$0A@@std@@@std@@QEAA?AV?$_Tree_iterator@V?$_Tree_val@V?$_Tmap_traits@_J_KU?$less@_J@std@@V?$allocator@U?$pair@$$CB_J_K@std@@@2@$0A@@std@@@std@@@2@V?$_Tree_const_iterator@V?$_Tree_val@V?$_Tmap_traits@_J_KU?$less@_J@std@@V?$allocator@U?$pair@$$CB_J_K@std@@@2@$0A@@std@@@std@@@2@0@Z 00000000640301c0 f i ui.obj
 0001:0002f2a0       ?_Fput@?$num_put@_WV?$ostreambuf_iterator@_WU?$char_traits@_W@std@@@std@@@std@@AEBA?AV?$ostreambuf_iterator@_WU?$char_traits@_W@std@@@2@V32@AEAVios_base@2@_WPEBD_K444@Z 00000000640302a0 f i ui.obj
 0001:0002fdd0       ?_Iput@?$num_put@_WV?$ostreambuf_iterator@_WU?$char_traits@_W@std@@@std@@@std@@AEBA?AV?$ostreambuf_iterator@_WU?$char_traits@_W@std@@@2@V32@AEAVios_base@2@_WPEAD_K@Z 0000000064030dd0 f i ui.obj
 0001:000301a0       ?falsename@?$numpunct@_W@std@@QEBA?AV?$basic_string@_WU?$char_traits@_W@std@@V?$allocator@_W@2@@2@XZ 00000000640311a0 f i ui.obj
 0001:000301c0       ?truename@?$numpunct@_W@std@@QEBA?AV?$basic_string@_WU?$char_traits@_W@std@@V?$allocator@_W@2@@2@XZ 00000000640311c0 f i ui.obj
 0001:000301e0       ?do_decimal_point@?$numpunct@_W@std@@MEBA_WXZ 00000000640311e0 f i ui.obj
 0001:000301f0       ?do_thousands_sep@?$numpunct@_W@std@@MEBA_WXZ 00000000640311f0 f i ui.obj
 0001:00030200       ?do_grouping@?$numpunct@_W@std@@MEBA?AV?$basic_string@DU?$char_traits@D@std@@V?$allocator@D@2@@2@XZ 0000000064031200 f i ui.obj
 0001:00030250       ?do_falsename@?$numpunct@_W@std@@MEBA?AV?$basic_string@_WU?$char_traits@_W@std@@V?$allocator@_W@2@@2@XZ 0000000064031250 f i ui.obj
 0001:000302a0       ?do_truename@?$numpunct@_W@std@@MEBA?AV?$basic_string@_WU?$char_traits@_W@std@@V?$allocator@_W@2@@2@XZ 00000000640312a0 f i ui.obj
 0001:000302f0       ??_G?$numpunct@_W@std@@MEAAPEAXI@Z 00000000640312f0 f i ui.obj
 0001:000302f0       ??_E?$numpunct@_W@std@@MEAAPEAXI@Z 00000000640312f0 f i  CIL library: CIL module
 0001:00030350       ?append@?$basic_string@DU?$char_traits@D@std@@V?$allocator@D@2@@std@@QEAAAEAV12@_KD@Z 0000000064031350 f i ui.obj
 0001:00030470       ?widen@?$basic_ios@_WU?$char_traits@_W@std@@@std@@QEBA_WD@Z 0000000064031470 f i ui.obj
 0001:00030510       ?erase@?$_Tree@V?$_Tset_traits@V?$basic_string@_WU?$char_traits@_W@std@@V?$allocator@_W@2@@std@@U?$less@V?$basic_string@_WU?$char_traits@_W@std@@V?$allocator@_W@2@@std@@@2@V?$allocator@V?$basic_string@_WU?$char_traits@_W@std@@V?$allocator@_W@2@@std@@@2@$0A@@std@@@std@@QEAA?AV?$_Tree_const_iterator@V?$_Tree_val@V?$_Tset_traits@V?$basic_string@_WU?$char_traits@_W@std@@V?$allocator@_W@2@@std@@U?$less@V?$basic_string@_WU?$char_traits@_W@std@@V?$allocator@_W@2@@std@@@2@V?$allocator@V?$basic_string@_WU?$char_traits@_W@std@@V?$allocator@_W@2@@std@@@2@$0A@@std@@@std@@@2@V32@@Z 0000000064031510 f i plugin.obj
 0001:00030510       ?erase@?$_Tree@V?$_Tset_traits@V?$basic_string@_WU?$char_traits@_W@std@@V?$allocator@_W@2@@std@@UItemCompare@?1??show@MultiSelectDialog@@QEAA_NXZ@V?$allocator@V?$basic_string@_WU?$char_traits@_W@std@@V?$allocator@_W@2@@std@@@2@$0A@@std@@@std@@QEAA?AV?$_Tree_const_iterator@V?$_Tree_val@V?$_Tset_traits@V?$basic_string@_WU?$char_traits@_W@std@@V?$allocator@_W@2@@std@@UItemCompare@?1??show@MultiSelectDialog@@QEAA_NXZ@V?$allocator@V?$basic_string@_WU?$char_traits@_W@std@@V?$allocator@_W@2@@std@@@2@$0A@@std@@@std@@@2@V32@@Z 0000000064031510 f i ui.obj
 0001:00030890       ?erase@?$_Tree@V?$_Tmap_traits@_J_KU?$less@_J@std@@V?$allocator@U?$pair@$$CB_J_K@std@@@2@$0A@@std@@@std@@QEAA?AV?$_Tree_iterator@V?$_Tree_val@V?$_Tmap_traits@_J_KU?$less@_J@std@@V?$allocator@U?$pair@$$CB_J_K@std@@@2@$0A@@std@@@std@@@2@V?$_Tree_const_iterator@V?$_Tree_val@V?$_Tmap_traits@_J_KU?$less@_J@std@@V?$allocator@U?$pair@$$CB_J_K@std@@@2@$0A@@std@@@std@@@2@@Z 0000000064031890 f i ui.obj
 0001:00030bf0       ?clear@?$_Tree@V?$_Tmap_traits@_J_KU?$less@_J@std@@V?$allocator@U?$pair@$$CB_J_K@std@@@2@$0A@@std@@@std@@QEAAXXZ 0000000064031bf0 f i ui.obj
 0001:00030c70       ?_Putc@?$num_put@_WV?$ostreambuf_iterator@_WU?$char_traits@_W@std@@@std@@@std@@AEBA?AV?$ostreambuf_iterator@_WU?$char_traits@_W@std@@@2@V32@PEBD_K@Z 0000000064031c70 f i ui.obj
 0001:00030d70       ?_Putgrouped@?$num_put@_WV?$ostreambuf_iterator@_WU?$char_traits@_W@std@@@std@@@std@@AEBA?AV?$ostreambuf_iterator@_WU?$char_traits@_W@std@@@2@V32@PEBD_K_W@Z 0000000064031d70 f i ui.obj
 0001:00030f60       ?grouping@?$numpunct@_W@std@@QEBA?AV?$basic_string@DU?$char_traits@D@std@@V?$allocator@D@2@@2@XZ 0000000064031f60 f i ui.obj
 0001:00030f80       ?_Erase@?$_Tree@V?$_Tset_traits@V?$basic_string@_WU?$char_traits@_W@std@@V?$allocator@_W@2@@std@@U?$less@V?$basic_string@_WU?$char_traits@_W@std@@V?$allocator@_W@2@@std@@@2@V?$allocator@V?$basic_string@_WU?$char_traits@_W@std@@V?$allocator@_W@2@@std@@@2@$0A@@std@@@std@@IEAAXPEAU_Node@?$_Tree_nod@V?$_Tset_traits@V?$basic_string@_WU?$char_traits@_W@std@@V?$allocator@_W@2@@std@@U?$less@V?$basic_string@_WU?$char_traits@_W@std@@V?$allocator@_W@2@@std@@@2@V?$allocator@V?$basic_string@_WU?$char_traits@_W@std@@V?$allocator@_W@2@@std@@@2@$0A@@std@@@2@@Z 0000000064031f80 f i plugin.obj
 0001:00030f80       ?_Erase@?$_Tree@V?$_Tset_traits@V?$basic_string@_WU?$char_traits@_W@std@@V?$allocator@_W@2@@std@@UItemCompare@?1??show@MultiSelectDialog@@QEAA_NXZ@V?$allocator@V?$basic_string@_WU?$char_traits@_W@std@@V?$allocator@_W@2@@std@@@2@$0A@@std@@@std@@IEAAXPEAU_Node@?$_Tree_nod@V?$_Tset_traits@V?$basic_string@_WU?$char_traits@_W@std@@V?$allocator@_W@2@@std@@UItemCompare@?1??show@MultiSelectDialog@@QEAA_NXZ@V?$allocator@V?$basic_string@_WU?$char_traits@_W@std@@V?$allocator@_W@2@@std@@@2@$0A@@std@@@2@@Z 0000000064031f80 f i ui.obj
 0001:00031010       ?_Erase@?$_Tree@V?$_Tmap_traits@_J_KU?$less@_J@std@@V?$allocator@U?$pair@$$CB_J_K@std@@@2@$0A@@std@@@std@@IEAAXPEAU_Node@?$_Tree_nod@V?$_Tmap_traits@_J_KU?$less@_J@std@@V?$allocator@U?$pair@$$CB_J_K@std@@@2@$0A@@std@@@2@@Z 0000000064032010 f i ui.obj
 0001:00031060       ?_Lrotate@?$_Tree@V?$_Tmap_traits@_J_KU?$less@_J@std@@V?$allocator@U?$pair@$$CB_J_K@std@@@2@$0A@@std@@@std@@IEAAXPEAU_Node@?$_Tree_nod@V?$_Tmap_traits@_J_KU?$less@_J@std@@V?$allocator@U?$pair@$$CB_J_K@std@@@2@$0A@@std@@@2@@Z 0000000064032060 f i ui.obj
 0001:000310c0       ?_Rrotate@?$_Tree@V?$_Tmap_traits@_J_KU?$less@_J@std@@V?$allocator@U?$pair@$$CB_J_K@std@@@2@$0A@@std@@@std@@IEAAXPEAU_Node@?$_Tree_nod@V?$_Tmap_traits@_J_KU?$less@_J@std@@V?$allocator@U?$pair@$$CB_J_K@std@@@2@$0A@@std@@@2@@Z 00000000640320c0 f i ui.obj
 0001:00031120       ??$?H_WU?$char_traits@_W@std@@V?$allocator@_W@1@@std@@YA?AV?$basic_string@_WU?$char_traits@_W@std@@V?$allocator@_W@2@@0@AEBV10@_W@Z 0000000064032120 f i ui.obj
 0001:000311e0       ??$?6_WU?$char_traits@_W@std@@V?$allocator@_W@1@@std@@YAAEAV?$basic_ostream@_WU?$char_traits@_W@std@@@0@AEAV10@AEBV?$basic_string@_WU?$char_traits@_W@std@@V?$allocator@_W@2@@0@@Z 00000000640321e0 f i ui.obj
 0001:00031430       ??$?6_WU?$char_traits@_W@std@@@std@@YAAEAV?$basic_ostream@_WU?$char_traits@_W@std@@@0@AEAV10@_W@Z 0000000064032430 f i ui.obj
 0001:000316a0       ??$?H_WU?$char_traits@_W@std@@V?$allocator@_W@1@@std@@YA?AV?$basic_string@_WU?$char_traits@_W@std@@V?$allocator@_W@2@@0@$$QEAV10@_W@Z 00000000640326a0 f i ui.obj
 0001:000316f0       ??$?H_WU?$char_traits@_W@std@@V?$allocator@_W@1@@std@@YA?AV?$basic_string@_WU?$char_traits@_W@std@@V?$allocator@_W@2@@0@AEBV10@$$QEAV10@@Z 00000000640326f0 f i ui.obj
 0001:00031750       ??$?H_WU?$char_traits@_W@std@@V?$allocator@_W@1@@std@@YA?AV?$basic_string@_WU?$char_traits@_W@std@@V?$allocator@_W@2@@0@AEBV10@0@Z 0000000064032750 f i ui.obj
 0001:00031810       ??$insert@V?$_List_const_iterator@V?$_List_val@V?$basic_string@_WU?$char_traits@_W@std@@V?$allocator@_W@2@@std@@V?$allocator@V?$basic_string@_WU?$char_traits@_W@std@@V?$allocator@_W@2@@std@@@2@@std@@@std@@@?$_Tree@V?$_Tset_traits@V?$basic_string@_WU?$char_traits@_W@std@@V?$allocator@_W@2@@std@@UItemCompare@?1??show@MultiSelectDialog@@QEAA_NXZ@V?$allocator@V?$basic_string@_WU?$char_traits@_W@std@@V?$allocator@_W@2@@std@@@2@$0A@@std@@@std@@QEAAXV?$_List_const_iterator@V?$_List_val@V?$basic_string@_WU?$char_traits@_W@std@@V?$allocator@_W@2@@std@@V?$allocator@V?$basic_string@_WU?$char_traits@_W@std@@V?$allocator@_W@2@@std@@@2@@std@@@1@0@Z 0000000064032810 f i ui.obj
 0001:00031900       ??$use_facet@V?$num_put@_WV?$ostreambuf_iterator@_WU?$char_traits@_W@std@@@std@@@std@@@std@@YAAEBV?$num_put@_WV?$ostreambuf_iterator@_WU?$char_traits@_W@std@@@std@@@0@AEBVlocale@0@@Z 0000000064032900 f i ui.obj
 0001:00031a50       ??$_Move@PEAUUpdateProfile@@PEAU1@@std@@YAPEAUUpdateProfile@@PEAU1@00@Z 0000000064032a50 f i ui.obj
 0001:00031ae0       ??$use_facet@V?$numpunct@_W@std@@@std@@YAAEBV?$numpunct@_W@0@AEBVlocale@0@@Z 0000000064032ae0 f i ui.obj
 0001:00031c30       ?_Insert@?$_Tree@V?$_Tmap_traits@_J_KU?$less@_J@std@@V?$allocator@U?$pair@$$CB_J_K@std@@@2@$0A@@std@@@std@@QEAA?AV?$_Tree_iterator@V?$_Tree_val@V?$_Tmap_traits@_J_KU?$less@_J@std@@V?$allocator@U?$pair@$$CB_J_K@std@@@2@$0A@@std@@@std@@@2@V?$_Tree_const_iterator@V?$_Tree_val@V?$_Tmap_traits@_J_KU?$less@_J@std@@V?$allocator@U?$pair@$$CB_J_K@std@@@2@$0A@@std@@@std@@@2@PEAU_Node@?$_Tree_nod@V?$_Tmap_traits@_J_KU?$less@_J@std@@V?$allocator@U?$pair@$$CB_J_K@std@@@2@$0A@@std@@@2@@Z 0000000064032c30 f i ui.obj
 0001:00031e40       ?_Getcat@?$num_put@_WV?$ostreambuf_iterator@_WU?$char_traits@_W@std@@@std@@@std@@SA_KPEAPEBVfacet@locale@2@PEBV42@@Z 0000000064032e40 f i ui.obj
 0001:00031f60       ?_Getcat@?$numpunct@_W@std@@SA_KPEAPEBVfacet@locale@2@PEBV42@@Z 0000000064032f60 f i ui.obj
 0001:00032080       ?insert@?$_Tree@V?$_Tset_traits@V?$basic_string@_WU?$char_traits@_W@std@@V?$allocator@_W@2@@std@@UItemCompare@?1??show@MultiSelectDialog@@QEAA_NXZ@V?$allocator@V?$basic_string@_WU?$char_traits@_W@std@@V?$allocator@_W@2@@std@@@2@$0A@@std@@@std@@QEAA?AU?$pair@V?$_Tree_const_iterator@V?$_Tree_val@V?$_Tset_traits@V?$basic_string@_WU?$char_traits@_W@std@@V?$allocator@_W@2@@std@@UItemCompare@?1??show@MultiSelectDialog@@QEAA_NXZ@V?$allocator@V?$basic_string@_WU?$char_traits@_W@std@@V?$allocator@_W@2@@std@@@2@$0A@@std@@@std@@@std@@_N@2@AEBV?$basic_string@_WU?$char_traits@_W@std@@V?$allocator@_W@2@@2@_N@Z 0000000064033080 f i ui.obj
 0001:00032200       ?_Linsert@?$_Tree@V?$_Tmap_traits@_J_KU?$less@_J@std@@V?$allocator@U?$pair@$$CB_J_K@std@@@2@$0A@@std@@@std@@QEAA?AU?$pair@V?$_Tree_iterator@V?$_Tree_val@V?$_Tmap_traits@_J_KU?$less@_J@std@@V?$allocator@U?$pair@$$CB_J_K@std@@@2@$0A@@std@@@std@@@std@@_N@2@PEAU_Node@?$_Tree_nod@V?$_Tmap_traits@_J_KU?$less@_J@std@@V?$allocator@U?$pair@$$CB_J_K@std@@@2@$0A@@std@@@2@_N@Z 0000000064033200 f i ui.obj
 0001:00032320       ?_Insert@?$_Tree@V?$_Tmap_traits@_J_KU?$less@_J@std@@V?$allocator@U?$pair@$$CB_J_K@std@@@2@$0A@@std@@@std@@IEAA?AV?$_Tree_iterator@V?$_Tree_val@V?$_Tmap_traits@_J_KU?$less@_J@std@@V?$allocator@U?$pair@$$CB_J_K@std@@@2@$0A@@std@@@std@@@2@_NPEAU_Node@?$_Tree_nod@V?$_Tmap_traits@_J_KU?$less@_J@std@@V?$allocator@U?$pair@$$CB_J_K@std@@@2@$0A@@std@@@2@1@Z 0000000064033320 f i ui.obj
 0001:000325c0       ?_Init@?$numpunct@_W@std@@IEAAXAEBV_Locinfo@2@_N@Z 00000000640335c0 f i ui.obj
 0001:00032830       ??$_Assign@V?$_List_const_iterator@V?$_List_val@V?$basic_string@_WU?$char_traits@_W@std@@V?$allocator@_W@2@@std@@V?$allocator@V?$basic_string@_WU?$char_traits@_W@std@@V?$allocator@_W@2@@std@@@2@@std@@@std@@@?$vector@V?$basic_string@_WU?$char_traits@_W@std@@V?$allocator@_W@2@@std@@V?$allocator@V?$basic_string@_WU?$char_traits@_W@std@@V?$allocator@_W@2@@std@@@2@@std@@QEAAXV?$_List_const_iterator@V?$_List_val@V?$basic_string@_WU?$char_traits@_W@std@@V?$allocator@_W@2@@std@@V?$allocator@V?$basic_string@_WU?$char_traits@_W@std@@V?$allocator@_W@2@@std@@@2@@std@@@1@0Uinput_iterator_tag@1@@Z 0000000064033830 f i ui.obj
 0001:000328f0       ??$_Sort@PEAV?$basic_string@_WU?$char_traits@_W@std@@V?$allocator@_W@2@@std@@_JUItemCompare@?1??show@MultiSelectDialog@@QEAA_NXZ@@std@@YAXPEAV?$basic_string@_WU?$char_traits@_W@std@@V?$allocator@_W@2@@0@0_JUItemCompare@?1??show@MultiSelectDialog@@QEAA_NXZ@@Z 00000000640338f0 f i ui.obj
 0001:00032aa0       ??$_For_each@V?$_List_unchecked_const_iterator@V?$_List_val@V?$basic_string@_WU?$char_traits@_W@std@@V?$allocator@_W@2@@std@@V?$allocator@V?$basic_string@_WU?$char_traits@_W@std@@V?$allocator@_W@2@@std@@@2@@std@@U_Iterator_base0@2@@std@@V<lambda1>@?A0x80a7ab2d@@@std@@YA?AV<lambda1>@?A0x80a7ab2d@@V?$_List_unchecked_const_iterator@V?$_List_val@V?$basic_string@_WU?$char_traits@_W@std@@V?$allocator@_W@2@@std@@V?$allocator@V?$basic_string@_WU?$char_traits@_W@std@@V?$allocator@_W@2@@std@@@2@@std@@U_Iterator_base0@2@@0@0V12@@Z 0000000064033aa0 f i ui.obj
 0001:00032aa0       ??$_For_each@V?$_List_unchecked_const_iterator@V?$_List_val@V?$basic_string@_WU?$char_traits@_W@std@@V?$allocator@_W@2@@std@@V?$allocator@V?$basic_string@_WU?$char_traits@_W@std@@V?$allocator@_W@2@@std@@@2@@std@@U_Iterator_base0@2@@std@@V<lambda6>@?A0x80a7ab2d@@@std@@YA?AV<lambda6>@?A0x80a7ab2d@@V?$_List_unchecked_const_iterator@V?$_List_val@V?$basic_string@_WU?$char_traits@_W@std@@V?$allocator@_W@2@@std@@V?$allocator@V?$basic_string@_WU?$char_traits@_W@std@@V?$allocator@_W@2@@std@@@2@@std@@U_Iterator_base0@2@@0@0V12@@Z 0000000064033aa0 f i ui.obj
 0001:00032bb0       ??$_For_each@V?$_Tree_unchecked_const_iterator@V?$_Tree_val@V?$_Tmap_traits@V?$vector@EV?$allocator@E@std@@@std@@UArcFormat@@U?$less@V?$vector@EV?$allocator@E@std@@@std@@@2@V?$allocator@U?$pair@$$CBV?$vector@EV?$allocator@E@std@@@std@@UArcFormat@@@std@@@2@$0A@@std@@@std@@U_Iterator_base0@2@@std@@V<lambda2>@?A0x80a7ab2d@@@std@@YA?AV<lambda2>@?A0x80a7ab2d@@V?$_Tree_unchecked_const_iterator@V?$_Tree_val@V?$_Tmap_traits@V?$vector@EV?$allocator@E@std@@@std@@UArcFormat@@U?$less@V?$vector@EV?$allocator@E@std@@@std@@@2@V?$allocator@U?$pair@$$CBV?$vector@EV?$allocator@E@std@@@std@@UArcFormat@@@std@@@2@$0A@@std@@@std@@U_Iterator_base0@2@@0@0V12@@Z 0000000064033bb0 f i ui.obj
 0001:00032c90       ??$_For_each@V?$_Tree_unchecked_const_iterator@V?$_Tree_val@V?$_Tmap_traits@V?$vector@EV?$allocator@E@std@@@std@@UArcFormat@@U?$less@V?$vector@EV?$allocator@E@std@@@std@@@2@V?$allocator@U?$pair@$$CBV?$vector@EV?$allocator@E@std@@@std@@UArcFormat@@@std@@@2@$0A@@std@@@std@@U_Iterator_base0@2@@std@@V<lambda3>@?A0x80a7ab2d@@@std@@YA?AV<lambda3>@?A0x80a7ab2d@@V?$_Tree_unchecked_const_iterator@V?$_Tree_val@V?$_Tmap_traits@V?$vector@EV?$allocator@E@std@@@std@@UArcFormat@@U?$less@V?$vector@EV?$allocator@E@std@@@std@@@2@V?$allocator@U?$pair@$$CBV?$vector@EV?$allocator@E@std@@@std@@UArcFormat@@@std@@@2@$0A@@std@@@std@@U_Iterator_base0@2@@0@0V12@@Z 0000000064033c90 f i ui.obj
 0001:00032d70       ??$_Sort@PEAV?$basic_string@_WU?$char_traits@_W@std@@V?$allocator@_W@2@@std@@_JV<lambda4>@?A0x80a7ab2d@@@std@@YAXPEAV?$basic_string@_WU?$char_traits@_W@std@@V?$allocator@_W@2@@0@0_JV<lambda4>@?A0x80a7ab2d@@@Z 0000000064033d70 f i ui.obj
 0001:00032f20       ??$_For_each@PEAV?$basic_string@_WU?$char_traits@_W@std@@V?$allocator@_W@2@@std@@V<lambda5>@?A0x80a7ab2d@@@std@@YA?AV<lambda5>@?A0x80a7ab2d@@PEAV?$basic_string@_WU?$char_traits@_W@std@@V?$allocator@_W@2@@0@0V12@@Z 0000000064033f20 f i ui.obj
 0001:00033070       ??$_Buynode@U?$pair@_J_K@std@@@?$_Tree_val@V?$_Tmap_traits@_J_KU?$less@_J@std@@V?$allocator@U?$pair@$$CB_J_K@std@@@2@$0A@@std@@@std@@QEAAPEAU_Node@?$_Tree_nod@V?$_Tmap_traits@_J_KU?$less@_J@std@@V?$allocator@U?$pair@$$CB_J_K@std@@@2@$0A@@std@@@1@$$QEAU?$pair@_J_K@1@@Z 0000000064034070 f i ui.obj
 0001:000330b0       ??4ProfileOptions@@QEAAAEAU0@AEBU0@@Z 00000000640340b0 f i ui.obj
 0001:000331b0       ?_Buynode@?$_Tree_val@V?$_Tmap_traits@_J_KU?$less@_J@std@@V?$allocator@U?$pair@$$CB_J_K@std@@@2@$0A@@std@@@std@@QEAAPEAU_Node@?$_Tree_nod@V?$_Tmap_traits@_J_KU?$less@_J@std@@V?$allocator@U?$pair@$$CB_J_K@std@@@2@$0A@@std@@@2@XZ 00000000640341b0 f i ui.obj
 0001:00033230       ??$_Resetp@VFileFilter@Far@@@?$shared_ptr@VFileFilter@Far@@@tr1@std@@AEAAXPEAVFileFilter@Far@@@Z 0000000064034230 f i ui.obj
 0001:000332a0       ??$_Unguarded_partition@PEAV?$basic_string@_WU?$char_traits@_W@std@@V?$allocator@_W@2@@std@@UItemCompare@?1??show@MultiSelectDialog@@QEAA_NXZ@@std@@YA?AU?$pair@PEAV?$basic_string@_WU?$char_traits@_W@std@@V?$allocator@_W@2@@std@@PEAV12@@0@PEAV?$basic_string@_WU?$char_traits@_W@std@@V?$allocator@_W@2@@0@0UItemCompare@?1??show@MultiSelectDialog@@QEAA_NXZ@@Z 00000000640342a0 f i ui.obj
 0001:00033650       ??$_Unguarded_partition@PEAV?$basic_string@_WU?$char_traits@_W@std@@V?$allocator@_W@2@@std@@V<lambda4>@?A0x80a7ab2d@@@std@@YA?AU?$pair@PEAV?$basic_string@_WU?$char_traits@_W@std@@V?$allocator@_W@2@@std@@PEAV12@@0@PEAV?$basic_string@_WU?$char_traits@_W@std@@V?$allocator@_W@2@@0@0V<lambda4>@?A0x80a7ab2d@@@Z 0000000064034650 f i ui.obj
 0001:00033a00       ??$_Dest_val@V?$allocator@UUpdateProfile@@@std@@UUpdateProfile@@@std@@YAXAEAV?$allocator@UUpdateProfile@@@0@PEAUUpdateProfile@@@Z 0000000064034a00 f i ui.obj
 0001:00033a00       ??1UpdateProfile@@QEAA@XZ  0000000064034a00 f i ui.obj
 0001:00033a40       ??$_Uninit_move@PEAUFarListItem@@PEAU1@V?$allocator@UFarListItem@@@std@@U1@@std@@YAPEAUFarListItem@@PEAU1@00AEAV?$allocator@UFarListItem@@@0@0U_Nonscalar_ptr_iterator_tag@0@@Z 0000000064034a40 f i ui.obj
 0001:00033a90       ??_GFileFilter@Far@@QEAAPEAXI@Z 0000000064034a90 f i ui.obj
 0001:00033ad0       ?_Destroy@?$_Ref_count@VFileFilter@Far@@@tr1@std@@EEAAXXZ 0000000064034ad0 f i ui.obj
 0001:00033b10       ??$_Insert@V?$_List_const_iterator@V?$_List_val@V?$basic_string@_WU?$char_traits@_W@std@@V?$allocator@_W@2@@std@@V?$allocator@V?$basic_string@_WU?$char_traits@_W@std@@V?$allocator@_W@2@@std@@@2@@std@@@std@@@?$vector@V?$basic_string@_WU?$char_traits@_W@std@@V?$allocator@_W@2@@std@@V?$allocator@V?$basic_string@_WU?$char_traits@_W@std@@V?$allocator@_W@2@@std@@@2@@std@@QEAAXV?$_Vector_const_iterator@V?$_Vector_val@V?$basic_string@_WU?$char_traits@_W@std@@V?$allocator@_W@2@@std@@V?$allocator@V?$basic_string@_WU?$char_traits@_W@std@@V?$allocator@_W@2@@std@@@2@@std@@@1@V?$_List_const_iterator@V?$_List_val@V?$basic_string@_WU?$char_traits@_W@std@@V?$allocator@_W@2@@std@@V?$allocator@V?$basic_string@_WU?$char_traits@_W@std@@V?$allocator@_W@2@@std@@@2@@std@@@1@1Uforward_iterator_tag@1@@Z 0000000064034b10 f i ui.obj
 0001:00033ce0       ??$_Median@PEAV?$basic_string@_WU?$char_traits@_W@std@@V?$allocator@_W@2@@std@@UItemCompare@?1??show@MultiSelectDialog@@QEAA_NXZ@@std@@YAXPEAV?$basic_string@_WU?$char_traits@_W@std@@V?$allocator@_W@2@@0@00UItemCompare@?1??show@MultiSelectDialog@@QEAA_NXZ@@Z 0000000064034ce0 f i ui.obj
 0001:00033de0       ??$iter_swap@PEAV?$basic_string@_WU?$char_traits@_W@std@@V?$allocator@_W@2@@std@@PEAV12@@std@@YAXPEAV?$basic_string@_WU?$char_traits@_W@std@@V?$allocator@_W@2@@0@0@Z 0000000064034de0 f i ui.obj
 0001:00033e60       ??$_Make_heap@PEAV?$basic_string@_WU?$char_traits@_W@std@@V?$allocator@_W@2@@std@@_JV12@UItemCompare@?1??show@MultiSelectDialog@@QEAA_NXZ@@std@@YAXPEAV?$basic_string@_WU?$char_traits@_W@std@@V?$allocator@_W@2@@0@0UItemCompare@?1??show@MultiSelectDialog@@QEAA_NXZ@PEA_J0@Z 0000000064034e60 f i ui.obj
 0001:00033fc0       ??$_Sort_heap@PEAV?$basic_string@_WU?$char_traits@_W@std@@V?$allocator@_W@2@@std@@UItemCompare@?1??show@MultiSelectDialog@@QEAA_NXZ@@std@@YAXPEAV?$basic_string@_WU?$char_traits@_W@std@@V?$allocator@_W@2@@0@0UItemCompare@?1??show@MultiSelectDialog@@QEAA_NXZ@@Z 0000000064034fc0 f i ui.obj
 0001:00034060       ??$_Median@PEAV?$basic_string@_WU?$char_traits@_W@std@@V?$allocator@_W@2@@std@@V<lambda4>@?A0x80a7ab2d@@@std@@YAXPEAV?$basic_string@_WU?$char_traits@_W@std@@V?$allocator@_W@2@@0@00V<lambda4>@?A0x80a7ab2d@@@Z 0000000064035060 f i ui.obj
 0001:00034160       ??$_Make_heap@PEAV?$basic_string@_WU?$char_traits@_W@std@@V?$allocator@_W@2@@std@@_JV12@V<lambda4>@?A0x80a7ab2d@@@std@@YAXPEAV?$basic_string@_WU?$char_traits@_W@std@@V?$allocator@_W@2@@0@0V<lambda4>@?A0x80a7ab2d@@PEA_J0@Z 0000000064035160 f i ui.obj
 0001:000342c0       ??$_Sort_heap@PEAV?$basic_string@_WU?$char_traits@_W@std@@V?$allocator@_W@2@@std@@V<lambda4>@?A0x80a7ab2d@@@std@@YAXPEAV?$basic_string@_WU?$char_traits@_W@std@@V?$allocator@_W@2@@0@0V<lambda4>@?A0x80a7ab2d@@@Z 00000000640352c0 f i ui.obj
 0001:00034360       ??$_Insertion_sort1@PEAV?$basic_string@_WU?$char_traits@_W@std@@V?$allocator@_W@2@@std@@V<lambda4>@?A0x80a7ab2d@@V12@@std@@YAXPEAV?$basic_string@_WU?$char_traits@_W@std@@V?$allocator@_W@2@@0@0V<lambda4>@?A0x80a7ab2d@@0@Z 0000000064035360 f i ui.obj
 0001:00034360       ??$_Insertion_sort1@PEAV?$basic_string@_WU?$char_traits@_W@std@@V?$allocator@_W@2@@std@@UItemCompare@?1??show@MultiSelectDialog@@QEAA_NXZ@V12@@std@@YAXPEAV?$basic_string@_WU?$char_traits@_W@std@@V?$allocator@_W@2@@0@0UItemCompare@?1??show@MultiSelectDialog@@QEAA_NXZ@0@Z 0000000064035360 f i ui.obj
 0001:000347b0       ??$_Move@PEAV?$basic_string@_WU?$char_traits@_W@std@@V?$allocator@_W@2@@std@@PEAV12@@std@@YAPEAV?$basic_string@_WU?$char_traits@_W@std@@V?$allocator@_W@2@@0@PEAV10@00U_Nonscalar_ptr_iterator_tag@0@@Z 00000000640357b0 f i ui.obj
 0001:00034880       ??$_Med3@PEAV?$basic_string@_WU?$char_traits@_W@std@@V?$allocator@_W@2@@std@@UItemCompare@?1??show@MultiSelectDialog@@QEAA_NXZ@@std@@YAXPEAV?$basic_string@_WU?$char_traits@_W@std@@V?$allocator@_W@2@@0@00UItemCompare@?1??show@MultiSelectDialog@@QEAA_NXZ@@Z 0000000064035880 f i ui.obj
 0001:00034900       ??$_Adjust_heap@PEAV?$basic_string@_WU?$char_traits@_W@std@@V?$allocator@_W@2@@std@@_JV12@UItemCompare@?1??show@MultiSelectDialog@@QEAA_NXZ@@std@@YAXPEAV?$basic_string@_WU?$char_traits@_W@std@@V?$allocator@_W@2@@0@_J1$$QEAV10@UItemCompare@?1??show@MultiSelectDialog@@QEAA_NXZ@@Z 0000000064035900 f i ui.obj
 0001:00034aa0       ??$_Med3@PEAV?$basic_string@_WU?$char_traits@_W@std@@V?$allocator@_W@2@@std@@V<lambda4>@?A0x80a7ab2d@@@std@@YAXPEAV?$basic_string@_WU?$char_traits@_W@std@@V?$allocator@_W@2@@0@00V<lambda4>@?A0x80a7ab2d@@@Z 0000000064035aa0 f i ui.obj
 0001:00034b20       ??$_Adjust_heap@PEAV?$basic_string@_WU?$char_traits@_W@std@@V?$allocator@_W@2@@std@@_JV12@V<lambda4>@?A0x80a7ab2d@@@std@@YAXPEAV?$basic_string@_WU?$char_traits@_W@std@@V?$allocator@_W@2@@0@_J1$$QEAV10@V<lambda4>@?A0x80a7ab2d@@@Z 0000000064035b20 f i ui.obj
 0001:00034cc0       ??$_Push_heap@PEAV?$basic_string@_WU?$char_traits@_W@std@@V?$allocator@_W@2@@std@@_JV12@UItemCompare@?1??show@MultiSelectDialog@@QEAA_NXZ@@std@@YAXPEAV?$basic_string@_WU?$char_traits@_W@std@@V?$allocator@_W@2@@0@_J1$$QEAV10@UItemCompare@?1??show@MultiSelectDialog@@QEAA_NXZ@@Z 0000000064035cc0 f i ui.obj
 0001:00034e40       ??$_Pop_heap_0@PEAV?$basic_string@_WU?$char_traits@_W@std@@V?$allocator@_W@2@@std@@V12@UItemCompare@?1??show@MultiSelectDialog@@QEAA_NXZ@@std@@YAXPEAV?$basic_string@_WU?$char_traits@_W@std@@V?$allocator@_W@2@@0@0UItemCompare@?1??show@MultiSelectDialog@@QEAA_NXZ@0@Z 0000000064035e40 f i ui.obj
 0001:00034f60       ??$_Move_backward@PEAV?$basic_string@_WU?$char_traits@_W@std@@V?$allocator@_W@2@@std@@PEAV12@@std@@YAPEAV?$basic_string@_WU?$char_traits@_W@std@@V?$allocator@_W@2@@0@PEAV10@00U_Nonscalar_ptr_iterator_tag@0@@Z 0000000064035f60 f i ui.obj
 0001:00035020       ??$_Push_heap@PEAV?$basic_string@_WU?$char_traits@_W@std@@V?$allocator@_W@2@@std@@_JV12@V<lambda4>@?A0x80a7ab2d@@@std@@YAXPEAV?$basic_string@_WU?$char_traits@_W@std@@V?$allocator@_W@2@@0@_J1$$QEAV10@V<lambda4>@?A0x80a7ab2d@@@Z 0000000064036020 f i ui.obj
 0001:000351a0       ??$_Pop_heap_0@PEAV?$basic_string@_WU?$char_traits@_W@std@@V?$allocator@_W@2@@std@@V12@V<lambda4>@?A0x80a7ab2d@@@std@@YAXPEAV?$basic_string@_WU?$char_traits@_W@std@@V?$allocator@_W@2@@0@0V<lambda4>@?A0x80a7ab2d@@0@Z 00000000640361a0 f i ui.obj
 0001:000352c0       ??$_Uninit_copy@V?$_List_const_iterator@V?$_List_val@V?$basic_string@_WU?$char_traits@_W@std@@V?$allocator@_W@2@@std@@V?$allocator@V?$basic_string@_WU?$char_traits@_W@std@@V?$allocator@_W@2@@std@@@2@@std@@@std@@PEAV?$basic_string@_WU?$char_traits@_W@std@@V?$allocator@_W@2@@2@V?$allocator@V?$basic_string@_WU?$char_traits@_W@std@@V?$allocator@_W@2@@std@@@2@@std@@YAPEAV?$basic_string@_WU?$char_traits@_W@std@@V?$allocator@_W@2@@0@V?$_List_const_iterator@V?$_List_val@V?$basic_string@_WU?$char_traits@_W@std@@V?$allocator@_W@2@@std@@V?$allocator@V?$basic_string@_WU?$char_traits@_W@std@@V?$allocator@_W@2@@std@@@2@@std@@@0@0PEAV10@AEAV?$allocator@V?$basic_string@_WU?$char_traits@_W@std@@V?$allocator@_W@2@@std@@@0@U_Nonscalar_ptr_iterator_tag@0@@Z 00000000640362c0 f i ui.obj
 0001:00035350       ??$_Rotate@PEAV?$basic_string@_WU?$char_traits@_W@std@@V?$allocator@_W@2@@std@@_JV12@@std@@YAXPEAV?$basic_string@_WU?$char_traits@_W@std@@V?$allocator@_W@2@@0@00PEA_J0@Z 0000000064036350 f i ui.obj
 0001:000354d0       ??$_Maklocstr@_W@std@@YAPEA_WPEBDPEA_WAEBU_Cvtvec@@@Z 00000000640364d0 f i ui.obj
 0001:000355d0       ??_E?$ctype@_W@std@@MEAAPEAXI@Z 00000000640365d0 f i  CIL library: CIL module
 0001:000355d0       ??_G?$ctype@_W@std@@MEAAPEAXI@Z 00000000640365d0 f i ui.obj
 0001:00035620       ?do_is@?$ctype@_W@std@@MEBAPEB_WPEB_W0PEAF@Z 0000000064036620 f i ui.obj
 0001:00035640       ?do_scan_is@?$ctype@_W@std@@MEBAPEB_WFPEB_W0@Z 0000000064036640 f i ui.obj
 0001:000356b0       ?do_is@?$ctype@_W@std@@MEBA_NF_W@Z 00000000640366b0 f i ui.obj
 0001:000356e0       ?do_scan_not@?$ctype@_W@std@@MEBAPEB_WFPEB_W0@Z 00000000640366e0 f i ui.obj
 0001:00035750       ?do_tolower@?$ctype@_W@std@@MEBAPEB_WPEA_WPEB_W@Z 0000000064036750 f i ui.obj
 0001:000357a0       ?do_tolower@?$ctype@_W@std@@MEBA_W_W@Z 00000000640367a0 f i ui.obj
 0001:000357b0       ?do_toupper@?$ctype@_W@std@@MEBAPEB_WPEA_WPEB_W@Z 00000000640367b0 f i ui.obj
 0001:00035800       ?do_toupper@?$ctype@_W@std@@MEBA_W_W@Z 0000000064036800 f i ui.obj
 0001:00035810       ?do_widen@?$ctype@_W@std@@MEBAPEBDPEBD0PEA_W@Z 0000000064036810 f i ui.obj
 0001:000358b0       ?do_widen@?$ctype@_W@std@@MEBA_WD@Z 00000000640368b0 f i ui.obj
 0001:00035900       ?do_narrow@?$ctype@_W@std@@MEBAPEB_WPEB_W0DPEAD@Z 0000000064036900 f i ui.obj
 0001:000359b0       ?do_narrow@?$ctype@_W@std@@MEBAD_WD@Z 00000000640369b0 f i ui.obj
 0001:00035a10       ??0_Locinfo@std@@QEAA@PEBD@Z 0000000064036a10 f i ui.obj
 0001:00035ab0       ??1?$_Yarn@D@std@@QEAA@XZ  0000000064036ab0 f i ui.obj
 0001:00035ae0       ??1_Locinfo@std@@QEAA@XZ   0000000064036ae0 f i ui.obj
 0001:00035b60       ?_Getcat@?$ctype@_W@std@@SA_KPEAPEBVfacet@locale@2@PEBV42@@Z 0000000064036b60 f i ui.obj
 0001:00035ca0       ??$use_facet@V?$ctype@_W@std@@@std@@YAAEBV?$ctype@_W@0@AEBVlocale@0@@Z 0000000064036ca0 f i ui.obj
 0001:00035df0       ?insert@?$basic_string@DU?$char_traits@D@std@@V?$allocator@D@2@@std@@QEAAAEAV12@_K0D@Z 0000000064036df0 f i ui.obj
 0001:00035f50       ?_Init@ios_base@std@@IEAAXXZ 0000000064036f50 f i ui.obj
 0001:00036010       ??_E?$basic_streambuf@_WU?$char_traits@_W@std@@@std@@UEAAPEAXI@Z 0000000064037010 f i  CIL library: CIL module
 0001:00036010       ??_G?$basic_streambuf@_WU?$char_traits@_W@std@@@std@@UEAAPEAXI@Z 0000000064037010 f i ui.obj
 0001:00036040       ?_Gnavail@?$basic_streambuf@_WU?$char_traits@_W@std@@@std@@IEBA_JXZ 0000000064037040 f i ui.obj
 0001:00036060       ?uflow@?$basic_streambuf@_WU?$char_traits@_W@std@@@std@@MEAAGXZ 0000000064037060 f i ui.obj
 0001:000360a0       ?xsgetn@?$basic_streambuf@_WU?$char_traits@_W@std@@@std@@MEAA_JPEA_W_J@Z 00000000640370a0 f i ui.obj
 0001:00036180       ?_Pnavail@?$basic_streambuf@_WU?$char_traits@_W@std@@@std@@IEBA_JXZ 0000000064037180 f i ui.obj
 0001:000361a0       ?overflow@?$basic_streambuf@_WU?$char_traits@_W@std@@@std@@MEAAGG@Z 00000000640371a0 f i ui.obj
 0001:000361a0       ?underflow@?$basic_streambuf@_WU?$char_traits@_W@std@@@std@@MEAAGXZ 00000000640371a0 f i ui.obj
 0001:000361a0       ?pbackfail@?$basic_streambuf@_WU?$char_traits@_W@std@@@std@@MEAAGG@Z 00000000640371a0 f i ui.obj
 0001:000361b0       ?xsputn@?$basic_streambuf@_WU?$char_traits@_W@std@@@std@@MEAA_JPEB_W_J@Z 00000000640371b0 f i ui.obj
 0001:00036290       ?seekpos@?$basic_streambuf@_WU?$char_traits@_W@std@@@std@@MEAA?AV?$fpos@H@2@V32@H@Z 0000000064037290 f i ui.obj
 0001:00036290       ?seekoff@?$basic_streambuf@_WU?$char_traits@_W@std@@@std@@MEAA?AV?$fpos@H@2@_JHH@Z 0000000064037290 f i ui.obj
 0001:000362b0       ?setbuf@?$basic_streambuf@_WU?$char_traits@_W@std@@@std@@MEAAPEAV12@PEA_W_J@Z 00000000640372b0 f i ui.obj
 0001:000362c0       ??1?$basic_streambuf@_WU?$char_traits@_W@std@@@std@@UEAA@XZ 00000000640372c0 f i ui.obj
 0001:00036360       ??_E?$basic_ostream@_WU?$char_traits@_W@std@@@std@@UEAAPEAXI@Z 0000000064037360 f i  CIL library: CIL module
 0001:00036360       ??_G?$basic_ostream@_WU?$char_traits@_W@std@@@std@@UEAAPEAXI@Z 0000000064037360 f i ui.obj
 0001:000363c0       ??1?$basic_ostream@_WU?$char_traits@_W@std@@@std@@UEAA@XZ 00000000640373c0 f i ui.obj
 0001:000363e0       ??_E?$num_put@_WV?$ostreambuf_iterator@_WU?$char_traits@_W@std@@@std@@@std@@MEAAPEAXI@Z 00000000640373e0 f i  CIL library: CIL module
 0001:000363e0       ??_Gfacet@locale@std@@UEAAPEAXI@Z 00000000640373e0 f i ui.obj
 0001:000363e0       ??_Efacet@locale@std@@UEAAPEAXI@Z 00000000640373e0 f i  CIL library: CIL module
 0001:000363e0       ??_G?$num_put@_WV?$ostreambuf_iterator@_WU?$char_traits@_W@std@@@std@@@std@@MEAAPEAXI@Z 00000000640373e0 f i ui.obj
 0001:00036410       ??1facet@locale@std@@UEAA@XZ 0000000064037410 f i ui.obj
 0001:00036420       ??1locale@std@@QEAA@XZ     0000000064037420 f i ui.obj
 0001:00036490       ?getloc@ios_base@std@@QEBA?AVlocale@2@XZ 0000000064037490 f i ui.obj
 0001:000364e0       ?_Osfx@?$basic_ostream@_WU?$char_traits@_W@std@@@std@@QEAAXXZ 00000000640374e0 f i ui.obj
 0001:00036510       ??1sentry@?$basic_ostream@_WU?$char_traits@_W@std@@@std@@QEAA@XZ 0000000064037510 f i ui.obj
 0001:00036560       ?_Lock@?$basic_streambuf@_WU?$char_traits@_W@std@@@std@@UEAAXXZ 0000000064037560 f i ui.obj
 0001:00036570       ?_Unlock@?$basic_streambuf@_WU?$char_traits@_W@std@@@std@@UEAAXXZ 0000000064037570 f i ui.obj
 0001:00036580       ??1_Sentry_base@?$basic_ostream@_WU?$char_traits@_W@std@@@std@@QEAA@XZ 0000000064037580 f i ui.obj
 0001:000365b0       ?showmanyc@?$basic_streambuf@_WU?$char_traits@_W@std@@@std@@MEAA_JXZ 00000000640375b0 f i ui.obj
 0001:000365b0       ?_Get_deleter@_Ref_count_base@tr1@std@@UEBAPEAXAEBVtype_info@@@Z 00000000640375b0 f i plugin.obj
 0001:000365b0       ?sync@?$basic_streambuf@_WU?$char_traits@_W@std@@@std@@MEAAHXZ 00000000640375b0 f i ui.obj
 0001:000365c0       ??1runtime_error@std@@UEAA@XZ 00000000640375c0 f i ui.obj
 0001:000365c0       ??1failure@ios_base@std@@UEAA@XZ 00000000640375c0 f i ui.obj
 0001:000365c0       ??1bad_weak_ptr@tr1@std@@UEAA@XZ 00000000640375c0 f i plugin.obj
 0001:000365d0       ??0failure@ios_base@std@@QEAA@AEBV012@@Z 00000000640375d0 f i ui.obj
 0001:00036620       ??_Eruntime_error@std@@UEAAPEAXI@Z 0000000064037620 f i  CIL library: CIL module
 0001:00036620       ??_Ebad_weak_ptr@tr1@std@@UEAAPEAXI@Z 0000000064037620 f i  CIL library: CIL module
 0001:00036620       ??_Gruntime_error@std@@UEAAPEAXI@Z 0000000064037620 f i ui.obj
 0001:00036620       ??_Esystem_error@std@@UEAAPEAXI@Z 0000000064037620 f i  CIL library: CIL module
 0001:00036620       ??_Efailure@ios_base@std@@UEAAPEAXI@Z 0000000064037620 f i  CIL library: CIL module
 0001:00036620       ??_Gfailure@ios_base@std@@UEAAPEAXI@Z 0000000064037620 f i ui.obj
 0001:00036620       ??_Gsystem_error@std@@UEAAPEAXI@Z 0000000064037620 f i ui.obj
 0001:00036620       ??_Gbad_weak_ptr@tr1@std@@UEAAPEAXI@Z 0000000064037620 f i plugin.obj
 0001:00036650       ??0system_error@std@@QEAA@AEBV01@@Z 0000000064037650 f i ui.obj
 0001:00036690       ??0runtime_error@std@@QEAA@AEBV01@@Z 0000000064037690 f i ui.obj
 0001:000366c0       ?clear@ios_base@std@@QEAAXH_N@Z 00000000640376c0 f i ui.obj
 0001:000367e0       ?flush@?$basic_ostream@_WU?$char_traits@_W@std@@@std@@QEAAAEAV12@XZ 00000000640377e0 f i ui.obj
 0001:00036850       ??_Eios_base@std@@UEAAPEAXI@Z 0000000064037850 f i  CIL library: CIL module
 0001:00036850       ??_E?$basic_ios@_WU?$char_traits@_W@std@@@std@@UEAAPEAXI@Z 0000000064037850 f i  CIL library: CIL module
 0001:00036850       ??_G?$basic_ios@_WU?$char_traits@_W@std@@@std@@UEAAPEAXI@Z 0000000064037850 f i ui.obj
 0001:00036850       ??_Gios_base@std@@UEAAPEAXI@Z 0000000064037850 f i ui.obj
 0001:00036890       ??1?$basic_ios@_WU?$char_traits@_W@std@@@std@@UEAA@XZ 0000000064037890 f i ui.obj
 0001:000368a0       ??1DisableSleepMode@@QEAA@XZ 00000000640378a0 f i extract.obj
 0001:000368c0       ??1ComBase@@UEAA@XZ        00000000640378c0 f i extract.obj
 0001:000368d0       ??_GComBase@@UEAAPEAXI@Z   00000000640378d0 f i extract.obj
 0001:000368d0       ??_EComBase@@UEAAPEAXI@Z   00000000640378d0 f i  CIL library: CIL module
 0001:00036900       ??1BStr@@QEAA@XZ           0000000064037900 f i extract.obj
 0001:00036930       ?get_progress_bar_str@@YA?AV?$basic_string@_WU?$char_traits@_W@std@@V?$allocator@_W@2@@std@@III@Z 0000000064037930 f   extract.obj
 0001:00036a70       ?do_update_ui@ExtractProgress@@EEAAXXZ 0000000064037a70 f i extract.obj
 0001:000371f0       ??0ExtractProgress@@QEAA@AEBV?$basic_string@_WU?$char_traits@_W@std@@V?$allocator@_W@2@@std@@@Z 00000000640381f0 f i extract.obj
 0001:00037310       ??_EExtractProgress@@UEAAPEAXI@Z 0000000064038310 f i  CIL library: CIL module
 0001:00037310       ??_GExtractProgress@@UEAAPEAXI@Z 0000000064038310 f i extract.obj
 0001:00037340       ??1ExtractProgress@@UEAA@XZ 0000000064038340 f i extract.obj
 0001:000373f0       ?create_file@FileWriteCache@@AEAAXXZ 00000000640383f0 f i extract.obj
 0001:000376d0       ?allocate_file@FileWriteCache@@AEAAXXZ 00000000640386d0 f i extract.obj
 0001:000377a0       ?write_file@FileWriteCache@@AEAAXXZ 00000000640387a0 f i extract.obj
 0001:000378a0       ?close_file@FileWriteCache@@AEAAXXZ 00000000640388a0 f i extract.obj
 0001:000379c0       ?write@FileWriteCache@@AEAAXXZ 00000000640389c0 f i extract.obj
 0001:00037a80       ?store@FileWriteCache@@AEAAXPEBE_K@Z 0000000064038a80 f i extract.obj
 0001:00037b90       ??0FileWriteCache@@QEAA@V?$shared_ptr@VArchive@@@tr1@std@@V?$shared_ptr@_N@23@V?$shared_ptr@V?$list@UError@@V?$allocator@UError@@@std@@@std@@@23@V?$shared_ptr@VExtractProgress@@@23@@Z 0000000064038b90 f i extract.obj
 0001:00037f20       ??1FileWriteCache@@QEAA@XZ 0000000064038f20 f i extract.obj
 0001:000380a0       ?store_file@FileWriteCache@@QEAAXAEBV?$basic_string@_WU?$char_traits@_W@std@@V?$allocator@_W@2@@std@@IW4OverwriteAction@@@Z 00000000640390a0 f i extract.obj
 0001:00038190       ?store_data@FileWriteCache@@QEAAXPEBE_K@Z 0000000064039190 f i extract.obj
 0001:00038350       ??0CachedFileExtractStream@@QEAA@V?$shared_ptr@VFileWriteCache@@@tr1@std@@@Z 0000000064039350 f i extract.obj
 0001:00038420       ?QueryInterface@CachedFileExtractStream@@UEAAJAEBU_GUID@@PEAPEAX@Z 0000000064039420 f i extract.obj
 0001:000384c0       ?Write@CachedFileExtractStream@@UEAAJPEBXIPEAI@Z 00000000640394c0 f i extract.obj
 0001:00038520       ??_ECachedFileExtractStream@@UEAAPEAXI@Z 0000000064039520 f i  CIL library: CIL module
 0001:00038520       ??_GCachedFileExtractStream@@UEAAPEAXI@Z 0000000064039520 f i extract.obj
 0001:000385a0       ??4Error@@QEAAAEAU0@AEBU0@@Z 00000000640395a0 f i extract.obj
 0001:00038620       ??0ArchiveExtractor@@QEAA@IAEBV?$basic_string@_WU?$char_traits@_W@std@@V?$allocator@_W@2@@std@@V?$shared_ptr@VArchive@@@tr1@2@V?$shared_ptr@W4OverwriteAction@@@42@V?$shared_ptr@_N@42@V?$shared_ptr@V?$list@UError@@V?$allocator@UError@@@std@@@std@@@42@V?$shared_ptr@VFileWriteCache@@@42@V?$shared_ptr@VExtractProgress@@@42@V?$shared_ptr@V?$set@IU?$less@I@std@@V?$allocator@I@2@@std@@@42@@Z 0000000064039620 f i extract.obj
 0001:00038a20       ?QueryInterface@ArchiveExtractor@@UEAAJAEBU_GUID@@PEAPEAX@Z 0000000064039a20 f i extract.obj
 0001:00038a20       ?QueryInterface@ArchiveTester@@UEAAJAEBU_GUID@@PEAPEAX@Z 0000000064039a20 f i test.obj
 0001:00038b20       ?SetTotal@ArchiveExtractor@@UEAAJ_K@Z 0000000064039b20 f i extract.obj
 0001:00038b50       ?SetCompleted@ArchiveExtractor@@UEAAJPEB_K@Z 0000000064039b50 f i extract.obj
 0001:00038b90       ?GetStream@ArchiveExtractor@@UEAAJIPEAPEAUISequentialOutStream@@H@Z 0000000064039b90 f i extract.obj
 0001:000391c0       ?SetOperationResult@ArchiveExtractor@@UEAAJH@Z 000000006403a1c0 f i extract.obj
 0001:00039570       ?CryptoGetTextPassword@ArchiveExtractor@@UEAAJPEAPEA_W@Z 000000006403a570 f i extract.obj
 0001:000396d0       ??_GArchiveExtractor@@UEAAPEAXI@Z 000000006403a6d0 f i extract.obj
 0001:000396d0       ??_EArchiveExtractor@@UEAAPEAXI@Z 000000006403a6d0 f i  CIL library: CIL module
 0001:00039700       ??1ArchiveExtractor@@UEAA@XZ 000000006403a700 f i extract.obj
 0001:000398e0       ?prepare_dst_dir@Archive@@AEAAXAEBV?$basic_string@_WU?$char_traits@_W@std@@V?$allocator@_W@2@@std@@@Z 000000006403a8e0 f   extract.obj
 0001:000399a0       ?do_update_ui@PrepareExtract@@EEAAXXZ 000000006403a9a0 f i extract.obj
 0001:00039b60       ??R<lambda1>@?A0xd401d377@@QEBAXI@Z 000000006403ab60 f i extract.obj
 0001:00039e60       ?do_update_ui@SetDirAttr@@EEAAXXZ 000000006403ae60 f i extract.obj
 0001:0003a020       ??R<lambda2>@?A0xd401d377@@QEBAXI@Z 000000006403b020 f i extract.obj
 0001:0003a750       ?extract@Archive@@QEAAXIAEBV?$vector@IV?$allocator@I@std@@@std@@AEBUExtractOptions@@V?$shared_ptr@V?$list@UError@@V?$allocator@UError@@@std@@@std@@@tr1@3@PEAV23@@Z 000000006403b750 f   extract.obj
 0001:0003b2a0       ?delete_archive@Archive@@QEAAXXZ 000000006403c2a0 f   extract.obj
 0001:0003b350       ??R<lambda3>@?A0xd401d377@@QEBAXAEBV?$basic_string@_WU?$char_traits@_W@std@@V?$allocator@_W@2@@std@@@Z 000000006403c350 f i extract.obj
 0001:0003b430       ??0?$vector@IV?$allocator@I@std@@@std@@QEAA@AEBV01@@Z 000000006403c430 f i extract.obj
 0001:0003b4e0       ?shrink_to_fit@?$vector@IV?$allocator@I@std@@@std@@QEAAXXZ 000000006403c4e0 f i extract.obj
 0001:0003b570       ?shared_from_this@?$enable_shared_from_this@VArchive@@@tr1@std@@QEAA?AV?$shared_ptr@VArchive@@@23@XZ 000000006403c570 f i extract.obj
 0001:0003b5a0       ??1?$shared_ptr@VProgressMonitor@@@tr1@std@@QEAA@XZ 000000006403c5a0 f i delete.obj
 0001:0003b5a0       ??1?$shared_ptr@VArchiveUpdateProgress@@@tr1@std@@QEAA@XZ 000000006403c5a0 f i update.obj
 0001:0003b5a0       ??$_Dest_val@V?$allocator@V?$shared_ptr@VArchive@@@tr1@std@@@std@@V?$shared_ptr@VArchive@@@tr1@2@@std@@YAXAEAV?$allocator@V?$shared_ptr@VArchive@@@tr1@std@@@0@PEAV?$shared_ptr@VArchive@@@tr1@0@@Z 000000006403c5a0 f i plugin.obj
 0001:0003b5a0       ??1?$shared_ptr@_N@tr1@std@@QEAA@XZ 000000006403c5a0 f i extract.obj
 0001:0003b5a0       ??1?$shared_ptr@V?$map@IUFileIndexInfo@@U?$less@I@std@@V?$allocator@U?$pair@$$CBIUFileIndexInfo@@@std@@@3@@std@@@tr1@std@@QEAA@XZ 000000006403c5a0 f i update.obj
 0001:0003b5a0       ??1?$shared_ptr@VExtractProgress@@@tr1@std@@QEAA@XZ 000000006403c5a0 f i extract.obj
 0001:0003b5a0       ??1?$shared_ptr@V?$set@IU?$less@I@std@@V?$allocator@I@2@@std@@@tr1@std@@QEAA@XZ 000000006403c5a0 f i extract.obj
 0001:0003b5a0       ??1?$shared_ptr@X@tr1@std@@QEAA@XZ 000000006403c5a0 f i plugin.obj
 0001:0003b5a0       ??1?$shared_ptr@VArchiveFileDeleterProgress@@@tr1@std@@QEAA@XZ 000000006403c5a0 f i delete.obj
 0001:0003b5a0       ??1?$shared_ptr@W4OverwriteAction@@@tr1@std@@QEAA@XZ 000000006403c5a0 f i extract.obj
 0001:0003b5a0       ??1?$shared_ptr@V?$list@UError@@V?$allocator@UError@@@std@@@std@@@tr1@std@@QEAA@XZ 000000006403c5a0 f i plugin.obj
 0001:0003b5a0       ??1?$shared_ptr@VArchive@@@tr1@std@@QEAA@XZ 000000006403c5a0 f i plugin.obj
 0001:0003b5a0       ??1?$shared_ptr@VFileWriteCache@@@tr1@std@@QEAA@XZ 000000006403c5a0 f i extract.obj
 0001:0003b5e0       ?_Assign_n@?$list@UCacheRecord@FileWriteCache@@V?$allocator@UCacheRecord@FileWriteCache@@@std@@@std@@QEAAX_KAEBUCacheRecord@FileWriteCache@@@Z 000000006403c5e0 f i extract.obj
 0001:0003b6a0       ?_Insert_n@?$list@UCacheRecord@FileWriteCache@@V?$allocator@UCacheRecord@FileWriteCache@@@std@@@std@@QEAAXV?$_List_const_iterator@V?$_List_val@UCacheRecord@FileWriteCache@@V?$allocator@UCacheRecord@FileWriteCache@@@std@@@std@@@2@_KAEBUCacheRecord@FileWriteCache@@@Z 000000006403c6a0 f i extract.obj
 0001:0003b740       ?_Buynode@?$_List_val@UCacheRecord@FileWriteCache@@V?$allocator@UCacheRecord@FileWriteCache@@@std@@@std@@QEAAPEAU_Node@?$_List_nod@UCacheRecord@FileWriteCache@@V?$allocator@UCacheRecord@FileWriteCache@@@std@@@2@PEAU342@0AEBUCacheRecord@FileWriteCache@@@Z 000000006403c740 f i extract.obj
 0001:0003b830       ?_Buynode@?$_List_val@IV?$allocator@I@std@@@std@@QEAAPEAU_Node@?$_List_nod@IV?$allocator@I@std@@@2@PEAU342@0AEBI@Z 000000006403c830 f i extract.obj
 0001:0003b8d0       ??$?6_WU?$char_traits@_W@std@@@std@@YAAEAV?$basic_ostream@_WU?$char_traits@_W@std@@@0@AEAV10@PEB_W@Z 000000006403c8d0 f i extract.obj
 0001:0003bb30       ??$?0VArchive@@@?$shared_ptr@VArchive@@@tr1@std@@QEAA@AEBV?$weak_ptr@VArchive@@@12@_N@Z 000000006403cb30 f i extract.obj
 0001:0003bbb0       ?_Reset0@?$_Ptr_base@VArchiveFileDeleterProgress@@@tr1@std@@QEAAXPEAVArchiveFileDeleterProgress@@PEAV_Ref_count_base@23@@Z 000000006403cbb0 f i delete.obj
 0001:0003bbb0       ?_Reset0@?$_Ptr_base@V?$set@IU?$less@I@std@@V?$allocator@I@2@@std@@@tr1@std@@QEAAXPEAV?$set@IU?$less@I@std@@V?$allocator@I@2@@3@PEAV_Ref_count_base@23@@Z 000000006403cbb0 f i extract.obj
 0001:0003bbb0       ?_Reset0@?$_Ptr_base@V?$list@UError@@V?$allocator@UError@@@std@@@std@@@tr1@std@@QEAAXPEAV?$list@UError@@V?$allocator@UError@@@std@@@3@PEAV_Ref_count_base@23@@Z 000000006403cbb0 f i plugin.obj
 0001:0003bbb0       ?_Reset0@?$_Ptr_base@VExtractProgress@@@tr1@std@@QEAAXPEAVExtractProgress@@PEAV_Ref_count_base@23@@Z 000000006403cbb0 f i extract.obj
 0001:0003bbb0       ?_Reset0@?$_Ptr_base@VProgressMonitor@@@tr1@std@@QEAAXPEAVProgressMonitor@@PEAV_Ref_count_base@23@@Z 000000006403cbb0 f i delete.obj
 0001:0003bbb0       ?_Reset0@?$_Ptr_base@_N@tr1@std@@QEAAXPEA_NPEAV_Ref_count_base@23@@Z 000000006403cbb0 f i extract.obj
 0001:0003bbb0       ?_Reset0@?$_Ptr_base@VFileWriteCache@@@tr1@std@@QEAAXPEAVFileWriteCache@@PEAV_Ref_count_base@23@@Z 000000006403cbb0 f i extract.obj
 0001:0003bbb0       ?_Reset0@?$_Ptr_base@VArchive@@@tr1@std@@QEAAXPEAVArchive@@PEAV_Ref_count_base@23@@Z 000000006403cbb0 f i plugin.obj
 0001:0003bbb0       ?_Reset0@?$_Ptr_base@VFileFilter@Far@@@tr1@std@@QEAAXPEAVFileFilter@Far@@PEAV_Ref_count_base@23@@Z 000000006403cbb0 f i plugin.obj
 0001:0003bbb0       ?_Reset0@?$_Ptr_base@V?$map@IUFileIndexInfo@@U?$less@I@std@@V?$allocator@U?$pair@$$CBIUFileIndexInfo@@@std@@@3@@std@@@tr1@std@@QEAAXPEAV?$map@IUFileIndexInfo@@U?$less@I@std@@V?$allocator@U?$pair@$$CBIUFileIndexInfo@@@std@@@3@@3@PEAV_Ref_count_base@23@@Z 000000006403cbb0 f i update.obj
 0001:0003bbb0       ?_Reset0@?$_Ptr_base@W4OverwriteAction@@@tr1@std@@QEAAXPEAW4OverwriteAction@@PEAV_Ref_count_base@23@@Z 000000006403cbb0 f i extract.obj
 0001:0003bbb0       ?_Reset0@?$_Ptr_base@VArchiveUpdateProgress@@@tr1@std@@QEAAXPEAVArchiveUpdateProgress@@PEAV_Ref_count_base@23@@Z 000000006403cbb0 f i update.obj
 0001:0003bc30       ??$_For_each@V?$_List_unchecked_iterator@V?$_List_val@UCacheRecord@FileWriteCache@@V?$allocator@UCacheRecord@FileWriteCache@@@std@@@std@@@std@@V<lambda0>@?A0xd401d377@@@std@@YA?AV<lambda0>@?A0xd401d377@@V?$_List_unchecked_iterator@V?$_List_val@UCacheRecord@FileWriteCache@@V?$allocator@UCacheRecord@FileWriteCache@@@std@@@std@@@0@0V12@@Z 000000006403cc30 f i extract.obj
 0001:0003bd80       ??$_Buynode@AEBH@?$_Tree_val@V?$_Tset_traits@IU?$less@I@std@@V?$allocator@I@2@$0A@@std@@@std@@QEAAPEAU_Node@?$_Tree_nod@V?$_Tset_traits@IU?$less@I@std@@V?$allocator@I@2@$0A@@std@@@1@AEBH@Z 000000006403cd80 f i archive.obj
 0001:0003bd80       ??$_Buynode@AEAI@?$_Tree_val@V?$_Tset_traits@IU?$less@I@std@@V?$allocator@I@2@$0A@@std@@@std@@QEAAPEAU_Node@?$_Tree_nod@V?$_Tset_traits@IU?$less@I@std@@V?$allocator@I@2@$0A@@std@@@1@AEAI@Z 000000006403cd80 f i extract.obj
 0001:0003bdb0       ??$_For_each@PEBIV<lambda1>@?A0xd401d377@@@std@@YA?AV<lambda1>@?A0xd401d377@@PEBI0V12@@Z 000000006403cdb0 f i extract.obj
 0001:0003be10       ??$_For_each@PEBIV<lambda2>@?A0xd401d377@@@std@@YA?AV<lambda2>@?A0xd401d377@@PEBI0V12@@Z 000000006403ce10 f i extract.obj
 0001:0003be70       ??$_Resetp@_N@?$shared_ptr@_N@tr1@std@@AEAAXPEA_N@Z 000000006403ce70 f i extract.obj
 0001:0003bee0       ??$_Resetp@W4OverwriteAction@@@?$shared_ptr@W4OverwriteAction@@@tr1@std@@AEAAXPEAW4OverwriteAction@@@Z 000000006403cee0 f i extract.obj
 0001:0003bf50       ??$_Sort@PEAI_J@std@@YAXPEAI0_J@Z 000000006403cf50 f i extract.obj
 0001:0003c060       ??$_Resetp@VExtractProgress@@@?$shared_ptr@VExtractProgress@@@tr1@std@@AEAAXPEAVExtractProgress@@@Z 000000006403d060 f i extract.obj
 0001:0003c0d0       ??$_Resetp@VFileWriteCache@@@?$shared_ptr@VFileWriteCache@@@tr1@std@@AEAAXPEAVFileWriteCache@@@Z 000000006403d0d0 f i extract.obj
 0001:0003c140       ??$_Set_difference@PEAIV?$_Tree_unchecked_const_iterator@V?$_Tree_val@V?$_Tset_traits@IU?$less@I@std@@V?$allocator@I@2@$0A@@std@@@std@@U_Iterator_base0@2@@std@@V?$back_insert_iterator@V?$vector@IV?$allocator@I@std@@@std@@@2@@std@@YA?AV?$back_insert_iterator@V?$vector@IV?$allocator@I@std@@@std@@@0@PEAI0V?$_Tree_unchecked_const_iterator@V?$_Tree_val@V?$_Tset_traits@IU?$less@I@std@@V?$allocator@I@2@$0A@@std@@@std@@U_Iterator_base0@2@@0@1V10@@Z 000000006403d140 f i extract.obj
 0001:0003c310       ?_Destroy@?$_Ref_count@_N@tr1@std@@EEAAXXZ 000000006403d310 f i extract.obj
 0001:0003c310       ?_Destroy@?$_Ref_count@W4OverwriteAction@@@tr1@std@@EEAAXXZ 000000006403d310 f i extract.obj
 0001:0003c320       ?_Delete_this@?$_Ref_count@W4OverwriteAction@@@tr1@std@@EEAAXXZ 000000006403d320 f i extract.obj
 0001:0003c320       ?_Delete_this@?$_Ref_count@VFileFilter@Far@@@tr1@std@@EEAAXXZ 000000006403d320 f i ui.obj
 0001:0003c320       ?_Delete_this@?$_Ref_count@V?$set@IU?$less@I@std@@V?$allocator@I@2@@std@@@tr1@std@@EEAAXXZ 000000006403d320 f i extract.obj
 0001:0003c320       ?_Delete_this@?$_Ref_count@VArchiveFileDeleterProgress@@@tr1@std@@EEAAXXZ 000000006403d320 f i delete.obj
 0001:0003c320       ?_Delete_this@?$_Ref_count@_N@tr1@std@@EEAAXXZ 000000006403d320 f i extract.obj
 0001:0003c320       ?_Delete_this@?$_Ref_count@VFileWriteCache@@@tr1@std@@EEAAXXZ 000000006403d320 f i extract.obj
 0001:0003c320       ?_Delete_this@?$_Ref_count@VArchive@@@tr1@std@@EEAAXXZ 000000006403d320 f i plugin.obj
 0001:0003c320       ?_Delete_this@?$_Ref_count@VExtractProgress@@@tr1@std@@EEAAXXZ 000000006403d320 f i extract.obj
 0001:0003c320       ?_Delete_this@?$_Ref_count_del@XV<lambda11>@?A0xc5e9a1c5@@@tr1@std@@EEAAXXZ 000000006403d320 f i plugin.obj
 0001:0003c320       ?_Delete_this@?$_Ref_count@V?$list@UError@@V?$allocator@UError@@@std@@@std@@@tr1@std@@EEAAXXZ 000000006403d320 f i plugin.obj
 0001:0003c320       ?_Delete_this@?$_Ref_count@V?$map@IUFileIndexInfo@@U?$less@I@std@@V?$allocator@U?$pair@$$CBIUFileIndexInfo@@@std@@@3@@std@@@tr1@std@@EEAAXXZ 000000006403d320 f i update.obj
 0001:0003c320       ?_Delete_this@?$_Ref_count@VArchiveUpdateProgress@@@tr1@std@@EEAAXXZ 000000006403d320 f i update.obj
 0001:0003c340       ?_Destroy@?$_Ref_count@VArchiveFileDeleterProgress@@@tr1@std@@EEAAXXZ 000000006403d340 f i delete.obj
 0001:0003c340       ?_Destroy@?$_Ref_count@VExtractProgress@@@tr1@std@@EEAAXXZ 000000006403d340 f i extract.obj
 0001:0003c340       ?_Destroy@?$_Ref_count@VArchiveUpdateProgress@@@tr1@std@@EEAAXXZ 000000006403d340 f i update.obj
 0001:0003c360       ?_Destroy@?$_Ref_count@VFileWriteCache@@@tr1@std@@EEAAXXZ 000000006403d360 f i extract.obj
 0001:0003c390       ??$_Copy_impl@V?$_List_unchecked_iterator@V?$_List_val@IV?$allocator@I@std@@@std@@@std@@V?$back_insert_iterator@V?$vector@IV?$allocator@I@std@@@std@@@2@@std@@YA?AV?$back_insert_iterator@V?$vector@IV?$allocator@I@std@@@std@@@0@V?$_List_unchecked_iterator@V?$_List_val@IV?$allocator@I@std@@@std@@@0@0V10@U_Nonscalar_ptr_iterator_tag@0@@Z 000000006403d390 f i extract.obj
 0001:0003c460       ??$_Unguarded_partition@PEAI@std@@YA?AU?$pair@PEAIPEAI@0@PEAI0@Z 000000006403d460 f i extract.obj
 0001:0003c5f0       ??$_Resetp@V?$set@IU?$less@I@std@@V?$allocator@I@2@@std@@@?$shared_ptr@V?$set@IU?$less@I@std@@V?$allocator@I@2@@std@@@tr1@std@@AEAAXPEAV?$set@IU?$less@I@std@@V?$allocator@I@2@@2@@Z 000000006403d5f0 f i extract.obj
 0001:0003c660       ??$_Uninit_copy@V?$_Vector_const_iterator@V?$_Vector_val@IV?$allocator@I@std@@@std@@@std@@PEAIV?$allocator@I@2@@std@@YAPEAIV?$_Vector_const_iterator@V?$_Vector_val@IV?$allocator@I@std@@@std@@@0@0PEAIAEAV?$allocator@I@0@U_Nonscalar_ptr_iterator_tag@0@@Z 000000006403d660 f i extract.obj
 0001:0003c6a0       ??_G?$set@IU?$less@I@std@@V?$allocator@I@2@@std@@QEAAPEAXI@Z 000000006403d6a0 f i extract.obj
 0001:0003c6f0       ?_Destroy@?$_Ref_count@V?$set@IU?$less@I@std@@V?$allocator@I@2@@std@@@tr1@std@@EEAAXXZ 000000006403d6f0 f i extract.obj
 0001:0003c740       ??_G_Ref_count_base@tr1@std@@UEAAPEAXI@Z 000000006403d740 f i plugin.obj
 0001:0003c740       ??_G?$_Ref_count@VArchiveUpdateProgress@@@tr1@std@@UEAAPEAXI@Z 000000006403d740 f i update.obj
 0001:0003c740       ??_G?$_Ref_count_del@XV<lambda11>@?A0xc5e9a1c5@@@tr1@std@@UEAAPEAXI@Z 000000006403d740 f i plugin.obj
 0001:0003c740       ??_E?$_Ref_count@_N@tr1@std@@UEAAPEAXI@Z 000000006403d740 f i  CIL library: CIL module
 0001:0003c740       ??_G?$_Ref_count@VFileWriteCache@@@tr1@std@@UEAAPEAXI@Z 000000006403d740 f i extract.obj
 0001:0003c740       ??_G?$_Ref_count@W4OverwriteAction@@@tr1@std@@UEAAPEAXI@Z 000000006403d740 f i extract.obj
 0001:0003c740       ??_E?$_Ref_count@V?$map@IUFileIndexInfo@@U?$less@I@std@@V?$allocator@U?$pair@$$CBIUFileIndexInfo@@@std@@@3@@std@@@tr1@std@@UEAAPEAXI@Z 000000006403d740 f i  CIL library: CIL module
 0001:0003c740       ??_E?$_Ref_count@VArchiveFileDeleterProgress@@@tr1@std@@UEAAPEAXI@Z 000000006403d740 f i  CIL library: CIL module
 0001:0003c740       ??_G?$_Ref_count@V?$set@IU?$less@I@std@@V?$allocator@I@2@@std@@@tr1@std@@UEAAPEAXI@Z 000000006403d740 f i extract.obj
 0001:0003c740       ??_E?$_Ref_count@V?$list@UError@@V?$allocator@UError@@@std@@@std@@@tr1@std@@UEAAPEAXI@Z 000000006403d740 f i  CIL library: CIL module
 0001:0003c740       ??_E_Ref_count_base@tr1@std@@UEAAPEAXI@Z 000000006403d740 f i  CIL library: CIL module
 0001:0003c740       ??_E?$_Ref_count@VFileWriteCache@@@tr1@std@@UEAAPEAXI@Z 000000006403d740 f i  CIL library: CIL module
 0001:0003c740       ??_E?$_Ref_count@VExtractProgress@@@tr1@std@@UEAAPEAXI@Z 000000006403d740 f i  CIL library: CIL module
 0001:0003c740       ??_E?$_Ref_count_del@XV<lambda11>@?A0xc5e9a1c5@@@tr1@std@@UEAAPEAXI@Z 000000006403d740 f i  CIL library: CIL module
 0001:0003c740       ??_G?$_Ref_count@VArchive@@@tr1@std@@UEAAPEAXI@Z 000000006403d740 f i plugin.obj
 0001:0003c740       ??_E?$_Ref_count@VArchiveUpdateProgress@@@tr1@std@@UEAAPEAXI@Z 000000006403d740 f i  CIL library: CIL module
 0001:0003c740       ??_E?$_Ref_count@VFileFilter@Far@@@tr1@std@@UEAAPEAXI@Z 000000006403d740 f i  CIL library: CIL module
 0001:0003c740       ??_G?$_Ref_count@_N@tr1@std@@UEAAPEAXI@Z 000000006403d740 f i extract.obj
 0001:0003c740       ??_G?$_Ref_count@V?$map@IUFileIndexInfo@@U?$less@I@std@@V?$allocator@U?$pair@$$CBIUFileIndexInfo@@@std@@@3@@std@@@tr1@std@@UEAAPEAXI@Z 000000006403d740 f i update.obj
 0001:0003c740       ??_G?$_Ref_count@V?$list@UError@@V?$allocator@UError@@@std@@@std@@@tr1@std@@UEAAPEAXI@Z 000000006403d740 f i plugin.obj
 0001:0003c740       ??_G?$_Ref_count@VExtractProgress@@@tr1@std@@UEAAPEAXI@Z 000000006403d740 f i extract.obj
 0001:0003c740       ??_E?$_Ref_count@W4OverwriteAction@@@tr1@std@@UEAAPEAXI@Z 000000006403d740 f i  CIL library: CIL module
 0001:0003c740       ??_G?$_Ref_count@VArchiveFileDeleterProgress@@@tr1@std@@UEAAPEAXI@Z 000000006403d740 f i delete.obj
 0001:0003c740       ??_E?$_Ref_count@V?$set@IU?$less@I@std@@V?$allocator@I@2@@std@@@tr1@std@@UEAAPEAXI@Z 000000006403d740 f i  CIL library: CIL module
 0001:0003c740       ??_E?$_Ref_count@VArchive@@@tr1@std@@UEAAPEAXI@Z 000000006403d740 f i  CIL library: CIL module
 0001:0003c740       ??_G?$_Ref_count@VFileFilter@Far@@@tr1@std@@UEAAPEAXI@Z 000000006403d740 f i ui.obj
 0001:0003c770       ??$_Median@PEAI@std@@YAXPEAI00@Z 000000006403d770 f i extract.obj
 0001:0003c8d0       ??$_Make_heap@PEAI_JI@std@@YAXPEAI0PEA_J0@Z 000000006403d8d0 f i extract.obj
 0001:0003c9b0       ??$_Sort_heap@PEAI@std@@YAXPEAI0@Z 000000006403d9b0 f i extract.obj
 0001:0003caa0       ??$_Insertion_sort1@PEAII@std@@YAXPEAI00@Z 000000006403daa0 f i extract.obj
 0001:0003cb60       ??$_Copy_impl@PEAIV?$back_insert_iterator@V?$vector@IV?$allocator@I@std@@@std@@@std@@@std@@YA?AV?$back_insert_iterator@V?$vector@IV?$allocator@I@std@@@std@@@0@PEAI0V10@U_Nonscalar_ptr_iterator_tag@0@@Z 000000006403db60 f i extract.obj
 0001:0003cc30       ?Release@ArchiveExtractor@@W7EAAKXZ 000000006403dc30 f i extract.obj
 0001:0003cc30       ?Release@ArchiveUpdater@@W7EAAKXZ 000000006403dc30 f i update.obj
 0001:0003cc30       ?Release@ArchiveTester@@W7EAAKXZ 000000006403dc30 f i test.obj
 0001:0003cc40       ??_ECachedFileExtractStream@@W7EAAPEAXI@Z 000000006403dc40 f i extract.obj
 0001:0003cc50       ?Release@ArchiveFileDeleter@@W7EAAKXZ 000000006403dc50 f i delete.obj
 0001:0003cc50       ?Release@ArchiveFileDeleterStream@@W7EAAKXZ 000000006403dc50 f i delete.obj
 0001:0003cc50       ?Release@ArchiveSubStream@@W7EAAKXZ 000000006403dc50 f i open.obj
 0001:0003cc50       ?Release@FileReadStream@@W7EAAKXZ 000000006403dc50 f i update.obj
 0001:0003cc50       ?Release@ArchiveOpenStream@@W7EAAKXZ 000000006403dc50 f i open.obj
 0001:0003cc50       ?Release@CachedFileExtractStream@@W7EAAKXZ 000000006403dc50 f i extract.obj
 0001:0003cc60       ??_EArchiveExtractor@@WBA@EAAPEAXI@Z 000000006403dc60 f i extract.obj
 0001:0003cc70       ?QueryInterface@CachedFileExtractStream@@W7EAAJAEBU_GUID@@PEAPEAX@Z 000000006403dc70 f i extract.obj
 0001:0003cc80       ?QueryInterface@ArchiveTester@@WBA@EAAJAEBU_GUID@@PEAPEAX@Z 000000006403dc80 f i test.obj
 0001:0003cc80       ?QueryInterface@ArchiveExtractor@@WBA@EAAJAEBU_GUID@@PEAPEAX@Z 000000006403dc80 f i extract.obj
 0001:0003cc90       ??4PropVariant@@QEAAAEAV0@PEB_W@Z 000000006403dc90 f i open.obj
 0001:0003cd70       ??4PropVariant@@QEAAAEAV0@AEBU_FILETIME@@@Z 000000006403dd70 f i open.obj
 0001:0003cdf0       ??0OpenOptions@@QEAA@XZ    000000006403ddf0 f   open.obj
 0001:0003ce50       ?Read@ArchiveSubStream@@UEAAJPEAXIPEAI@Z 000000006403de50 f i open.obj
 0001:0003ce60       ?Seek@ArchiveSubStream@@UEAAJ_JIPEA_K@Z 000000006403de60 f i open.obj
 0001:0003cec0       ??_GArchiveSubStream@@UEAAPEAXI@Z 000000006403dec0 f i open.obj
 0001:0003cec0       ??_EArchiveSubStream@@UEAAPEAXI@Z 000000006403dec0 f i  CIL library: CIL module
 0001:0003cf20       ?check_device_file@ArchiveOpenStream@@AEAAXXZ 000000006403df20 f i open.obj
 0001:0003d0a0       ??0ArchiveOpenStream@@QEAA@AEBV?$basic_string@_WU?$char_traits@_W@std@@V?$allocator@_W@2@@std@@@Z 000000006403e0a0 f i open.obj
 0001:0003d1b0       ?Read@ArchiveOpenStream@@UEAAJPEAXIPEAI@Z 000000006403e1b0 f i open.obj
 0001:0003d370       ?Seek@ArchiveOpenStream@@UEAAJ_JIPEA_K@Z 000000006403e370 f i open.obj
 0001:0003d450       ?get_info@ArchiveOpenStream@@QEAA?AUFindData@@XZ 000000006403e450 f i open.obj
 0001:0003d570       ??_EArchiveOpenStream@@UEAAPEAXI@Z 000000006403e570 f i  CIL library: CIL module
 0001:0003d570       ??_GArchiveOpenStream@@UEAAPEAXI@Z 000000006403e570 f i open.obj
 0001:0003d5e0       ?do_update_ui@ArchiveOpener@@EEAAXXZ 000000006403e5e0 f i open.obj
 0001:0003d960       ??0ArchiveOpener@@QEAA@V?$shared_ptr@VArchive@@@tr1@std@@@Z 000000006403e960 f i open.obj
 0001:0003db00       ?QueryInterface@ArchiveOpener@@UEAAJAEBU_GUID@@PEAPEAX@Z 000000006403eb00 f i open.obj
 0001:0003dc20       ?Release@ArchiveOpener@@UEAAKXZ 000000006403ec20 f i open.obj
 0001:0003dc50       ?SetTotal@ArchiveOpener@@UEAAJPEB_K0@Z 000000006403ec50 f i open.obj
 0001:0003dca0       ?SetCompleted@ArchiveOpener@@UEAAJPEB_K0@Z 000000006403eca0 f i open.obj
 0001:0003dcf0       ?GetProperty@ArchiveOpener@@UEAAJKPEAUtagPROPVARIANT@@@Z 000000006403ecf0 f i open.obj
 0001:0003e0f0       ?GetStream@ArchiveOpener@@UEAAJPEB_WPEAPEAUIInStream@@@Z 000000006403f0f0 f i open.obj
 0001:0003e360       ?CryptoGetTextPassword@ArchiveOpener@@UEAAJPEAPEA_W@Z 000000006403f360 f i open.obj
 0001:0003e4d0       ??_GArchiveOpener@@UEAAPEAXI@Z 000000006403f4d0 f i open.obj
 0001:0003e4d0       ??_EArchiveOpener@@UEAAPEAXI@Z 000000006403f4d0 f i  CIL library: CIL module
 0001:0003e560       ?get_stream@Archive@@QEAA_NIPEAPEAUIInStream@@@Z 000000006403f560 f   open.obj
 0001:0003e690       ?open@Archive@@AEAA_NPEAUIInStream@@AEBV?$vector@EV?$allocator@E@std@@@std@@@Z 000000006403f690 f   open.obj
 0001:0003e8b0       ?prioritize@@YAXAEAV?$list@UArcEntry@@V?$allocator@UArcEntry@@@std@@@std@@AEBV?$vector@EV?$allocator@E@std@@@2@1@Z 000000006403f8b0 f   open.obj
 0001:0003ea10       ?detect@Archive@@CA?AV?$list@UArcEntry@@V?$allocator@UArcEntry@@@std@@@std@@PEAEI_NAEBV?$basic_string@_WU?$char_traits@_W@std@@V?$allocator@_W@2@@3@AEBV?$list@V?$vector@EV?$allocator@E@std@@@std@@V?$allocator@V?$vector@EV?$allocator@E@std@@@std@@@2@@3@@Z 000000006403fa10 f   open.obj
 0001:0003edd0       ??1?$set@V?$vector@EV?$allocator@E@std@@@std@@U?$less@V?$vector@EV?$allocator@E@std@@@std@@@2@V?$allocator@V?$vector@EV?$allocator@E@std@@@std@@@2@@std@@QEAA@XZ 000000006403fdd0 f i open.obj
 0001:0003ee10       ?open@Archive@@CAXAEBUOpenOptions@@AEAV?$vector@V?$shared_ptr@VArchive@@@tr1@std@@V?$allocator@V?$shared_ptr@VArchive@@@tr1@std@@@3@@std@@@Z 000000006403fe10 f   open.obj
 0001:0003f460       ?open@Archive@@SA?AV?$unique_ptr@V?$vector@V?$shared_ptr@VArchive@@@tr1@std@@V?$allocator@V?$shared_ptr@VArchive@@@tr1@std@@@3@@std@@U?$default_delete@V?$vector@V?$shared_ptr@VArchive@@@tr1@std@@V?$allocator@V?$shared_ptr@VArchive@@@tr1@std@@@3@@std@@@2@@std@@AEBUOpenOptions@@@Z 0000000064040460 f   open.obj
 0001:0003f540       ?reopen@Archive@@QEAAXXZ   0000000064040540 f   open.obj
 0001:0003f8d0       ?close@Archive@@QEAAXXZ    00000000640408d0 f   open.obj
 0001:0003f970       ??6?$basic_ostream@_WU?$char_traits@_W@std@@@std@@QEAAAEAV01@_K@Z 0000000064040970 f i open.obj
 0001:0003fb50       ??1?$ComObject@UIArchiveUpdateCallback@@@@QEAA@XZ 0000000064040b50 f i update.obj
 0001:0003fb50       ??1?$ComObject@UIOutArchive@@@@QEAA@XZ 0000000064040b50 f i update.obj
 0001:0003fb50       ??1?$ComObject@UIInStream@@@@QEAA@XZ 0000000064040b50 f i open.obj
 0001:0003fb50       ??1?$ComObject@UIInArchive@@@@QEAA@XZ 0000000064040b50 f i plugin.obj
 0001:0003fb50       ??1?$ComObject@UIInArchiveGetStream@@@@QEAA@XZ 0000000064040b50 f i open.obj
 0001:0003fb50       ??1?$ComObject@UISetProperties@@@@QEAA@XZ 0000000064040b50 f i update.obj
 0001:0003fb50       ??1?$ComObject@UIArchiveExtractCallback@@@@QEAA@XZ 0000000064040b50 f i extract.obj
 0001:0003fb50       ??1?$ComObject@UIArchiveOpenCallback@@@@QEAA@XZ 0000000064040b50 f i open.obj
 0001:0003fb50       ??1?$ComObject@UIOutStream@@@@QEAA@XZ 0000000064040b50 f i update.obj
 0001:0003fb50       ??1?$ComObject@UISequentialInStream@@@@QEAA@XZ 0000000064040b50 f i open.obj
 0001:0003fb80       ?reserve@?$vector@USigData@@V?$allocator@USigData@@@std@@@std@@QEAAX_K@Z 0000000064040b80 f i open.obj
 0001:0003fc80       ?push_back@?$vector@V?$shared_ptr@VArchive@@@tr1@std@@V?$allocator@V?$shared_ptr@VArchive@@@tr1@std@@@3@@std@@QEAAXAEBV?$shared_ptr@VArchive@@@tr1@2@@Z 0000000064040c80 f i open.obj
 0001:0003fd80       ?insert@?$_Tree@V?$_Tset_traits@V?$vector@EV?$allocator@E@std@@@std@@U?$less@V?$vector@EV?$allocator@E@std@@@std@@@2@V?$allocator@V?$vector@EV?$allocator@E@std@@@std@@@2@$0A@@std@@@std@@QEAA?AU?$pair@V?$_Tree_const_iterator@V?$_Tree_val@V?$_Tset_traits@V?$vector@EV?$allocator@E@std@@@std@@U?$less@V?$vector@EV?$allocator@E@std@@@std@@@2@V?$allocator@V?$vector@EV?$allocator@E@std@@@std@@@2@$0A@@std@@@std@@@std@@_N@2@AEBV?$vector@EV?$allocator@E@std@@@2@_N@Z 0000000064040d80 f i open.obj
 0001:0003ff20       ?_Reserve@?$vector@V?$shared_ptr@VArchive@@@tr1@std@@V?$allocator@V?$shared_ptr@VArchive@@@tr1@std@@@3@@std@@IEAAX_K@Z 0000000064040f20 f i open.obj
 0001:0003ffb0       ?_Buynode@?$_List_val@UArcEntry@@V?$allocator@UArcEntry@@@std@@@std@@QEAAPEAU_Node@?$_List_nod@UArcEntry@@V?$allocator@UArcEntry@@@std@@@2@PEAU342@0AEBUArcEntry@@@Z 0000000064040fb0 f i open.obj
 0001:0003ffb0       ??$_Buynode@AEAUArcEntry@@@?$_List_val@UArcEntry@@V?$allocator@UArcEntry@@@std@@@std@@QEAAPEAU_Node@?$_List_nod@UArcEntry@@V?$allocator@UArcEntry@@@std@@@1@PEAU231@0AEAUArcEntry@@@Z 0000000064040fb0 f i open.obj
 0001:0003ffb0       ??$_Buynode@UArcEntry@@@?$_List_val@UArcEntry@@V?$allocator@UArcEntry@@@std@@@std@@QEAAPEAU_Node@?$_List_nod@UArcEntry@@V?$allocator@UArcEntry@@@std@@@1@PEAU231@0$$QEAUArcEntry@@@Z 0000000064040fb0 f i open.obj
 0001:00040070       ?_Copy@?$_Tree@V?$_Tset_traits@V?$basic_string@_WU?$char_traits@_W@std@@V?$allocator@_W@2@@std@@U?$less@V?$basic_string@_WU?$char_traits@_W@std@@V?$allocator@_W@2@@std@@@2@V?$allocator@V?$basic_string@_WU?$char_traits@_W@std@@V?$allocator@_W@2@@std@@@2@$0A@@std@@@std@@IEAAXAEBV12@@Z 0000000064041070 f i open.obj
 0001:00040120       ?erase@?$_Tree@V?$_Tset_traits@V?$vector@EV?$allocator@E@std@@@std@@U?$less@V?$vector@EV?$allocator@E@std@@@std@@@2@V?$allocator@V?$vector@EV?$allocator@E@std@@@std@@@2@$0A@@std@@@std@@QEAA?AV?$_Tree_const_iterator@V?$_Tree_val@V?$_Tset_traits@V?$vector@EV?$allocator@E@std@@@std@@U?$less@V?$vector@EV?$allocator@E@std@@@std@@@2@V?$allocator@V?$vector@EV?$allocator@E@std@@@std@@@2@$0A@@std@@@std@@@2@V32@0@Z 0000000064041120 f i open.obj
 0001:00040220       ?_Eqrange@?$_Tree@V?$_Tset_traits@V?$vector@EV?$allocator@E@std@@@std@@U?$less@V?$vector@EV?$allocator@E@std@@@std@@@2@V?$allocator@V?$vector@EV?$allocator@E@std@@@std@@@2@$0A@@std@@@std@@IEBA?AU?$pair@V?$_Tree_const_iterator@V?$_Tree_val@V?$_Tset_traits@V?$vector@EV?$allocator@E@std@@@std@@U?$less@V?$vector@EV?$allocator@E@std@@@std@@@2@V?$allocator@V?$vector@EV?$allocator@E@std@@@std@@@2@$0A@@std@@@std@@@std@@V12@@2@AEBV?$vector@EV?$allocator@E@std@@@2@@Z 0000000064041220 f i open.obj
 0001:000403a0       ?reserve@?$vector@V?$shared_ptr@VArchive@@@tr1@std@@V?$allocator@V?$shared_ptr@VArchive@@@tr1@std@@@3@@std@@QEAAX_K@Z 00000000640413a0 f i open.obj
 0001:000404b0       ?_Copy@?$_Tree@V?$_Tset_traits@V?$basic_string@_WU?$char_traits@_W@std@@V?$allocator@_W@2@@std@@U?$less@V?$basic_string@_WU?$char_traits@_W@std@@V?$allocator@_W@2@@std@@@2@V?$allocator@V?$basic_string@_WU?$char_traits@_W@std@@V?$allocator@_W@2@@std@@@2@$0A@@std@@@std@@IEAAPEAU_Node@?$_Tree_nod@V?$_Tset_traits@V?$basic_string@_WU?$char_traits@_W@std@@V?$allocator@_W@2@@std@@U?$less@V?$basic_string@_WU?$char_traits@_W@std@@V?$allocator@_W@2@@std@@@2@V?$allocator@V?$basic_string@_WU?$char_traits@_W@std@@V?$allocator@_W@2@@std@@@2@$0A@@std@@@2@PEAU342@0@Z 00000000640414b0 f i open.obj
 0001:00040550       ?erase@?$_Tree@V?$_Tset_traits@V?$vector@EV?$allocator@E@std@@@std@@U?$less@V?$vector@EV?$allocator@E@std@@@std@@@2@V?$allocator@V?$vector@EV?$allocator@E@std@@@std@@@2@$0A@@std@@@std@@QEAA?AV?$_Tree_const_iterator@V?$_Tree_val@V?$_Tset_traits@V?$vector@EV?$allocator@E@std@@@std@@U?$less@V?$vector@EV?$allocator@E@std@@@std@@@2@V?$allocator@V?$vector@EV?$allocator@E@std@@@std@@@2@$0A@@std@@@std@@@2@V32@@Z 0000000064041550 f i open.obj
 0001:000408d0       ?_Insert@?$_Tree@V?$_Tset_traits@V?$vector@EV?$allocator@E@std@@@std@@U?$less@V?$vector@EV?$allocator@E@std@@@std@@@2@V?$allocator@V?$vector@EV?$allocator@E@std@@@std@@@2@$0A@@std@@@std@@IEAA?AV?$_Tree_const_iterator@V?$_Tree_val@V?$_Tset_traits@V?$vector@EV?$allocator@E@std@@@std@@U?$less@V?$vector@EV?$allocator@E@std@@@std@@@2@V?$allocator@V?$vector@EV?$allocator@E@std@@@std@@@2@$0A@@std@@@std@@@2@_NPEAU_Node@?$_Tree_nod@V?$_Tset_traits@V?$vector@EV?$allocator@E@std@@@std@@U?$less@V?$vector@EV?$allocator@E@std@@@std@@@2@V?$allocator@V?$vector@EV?$allocator@E@std@@@std@@@2@$0A@@std@@@2@1@Z 00000000640418d0 f i open.obj
 0001:00040b90       ?_Erase@?$_Tree@V?$_Tset_traits@V?$vector@EV?$allocator@E@std@@@std@@U?$less@V?$vector@EV?$allocator@E@std@@@std@@@2@V?$allocator@V?$vector@EV?$allocator@E@std@@@std@@@2@$0A@@std@@@std@@IEAAXPEAU_Node@?$_Tree_nod@V?$_Tset_traits@V?$vector@EV?$allocator@E@std@@@std@@U?$less@V?$vector@EV?$allocator@E@std@@@std@@@2@V?$allocator@V?$vector@EV?$allocator@E@std@@@std@@@2@$0A@@std@@@2@@Z 0000000064041b90 f i open.obj
 0001:00040c10       ?_Lrotate@?$_Tree@V?$_Tset_traits@V?$vector@EV?$allocator@E@std@@@std@@U?$less@V?$vector@EV?$allocator@E@std@@@std@@@2@V?$allocator@V?$vector@EV?$allocator@E@std@@@std@@@2@$0A@@std@@@std@@IEAAXPEAU_Node@?$_Tree_nod@V?$_Tset_traits@V?$vector@EV?$allocator@E@std@@@std@@U?$less@V?$vector@EV?$allocator@E@std@@@std@@@2@V?$allocator@V?$vector@EV?$allocator@E@std@@@std@@@2@$0A@@std@@@2@@Z 0000000064041c10 f i open.obj
 0001:00040c70       ?_Rrotate@?$_Tree@V?$_Tset_traits@V?$vector@EV?$allocator@E@std@@@std@@U?$less@V?$vector@EV?$allocator@E@std@@@std@@@2@V?$allocator@V?$vector@EV?$allocator@E@std@@@std@@@2@$0A@@std@@@std@@IEAAXPEAU_Node@?$_Tree_nod@V?$_Tset_traits@V?$vector@EV?$allocator@E@std@@@std@@U?$less@V?$vector@EV?$allocator@E@std@@@std@@@2@V?$allocator@V?$vector@EV?$allocator@E@std@@@std@@@2@$0A@@std@@@2@@Z 0000000064041c70 f i open.obj
 0001:00040cd0       ?_Buynode@?$_Tree_val@V?$_Tset_traits@V?$vector@EV?$allocator@E@std@@@std@@U?$less@V?$vector@EV?$allocator@E@std@@@std@@@2@V?$allocator@V?$vector@EV?$allocator@E@std@@@std@@@2@$0A@@std@@@std@@QEAAPEAU_Node@?$_Tree_nod@V?$_Tset_traits@V?$vector@EV?$allocator@E@std@@@std@@U?$less@V?$vector@EV?$allocator@E@std@@@std@@@2@V?$allocator@V?$vector@EV?$allocator@E@std@@@std@@@2@$0A@@std@@@2@XZ 0000000064041cd0 f i open.obj
 0001:00040d50       ?_Linsert@?$_Tree@V?$_Tset_traits@V?$basic_string@_WU?$char_traits@_W@std@@V?$allocator@_W@2@@std@@U?$less@V?$basic_string@_WU?$char_traits@_W@std@@V?$allocator@_W@2@@std@@@2@V?$allocator@V?$basic_string@_WU?$char_traits@_W@std@@V?$allocator@_W@2@@std@@@2@$0A@@std@@@std@@QEAA?AU?$pair@V?$_Tree_const_iterator@V?$_Tree_val@V?$_Tset_traits@V?$basic_string@_WU?$char_traits@_W@std@@V?$allocator@_W@2@@std@@U?$less@V?$basic_string@_WU?$char_traits@_W@std@@V?$allocator@_W@2@@std@@@2@V?$allocator@V?$basic_string@_WU?$char_traits@_W@std@@V?$allocator@_W@2@@std@@@2@$0A@@std@@@std@@@std@@_N@2@PEAU_Node@?$_Tree_nod@V?$_Tset_traits@V?$basic_string@_WU?$char_traits@_W@std@@V?$allocator@_W@2@@std@@U?$less@V?$basic_string@_WU?$char_traits@_W@std@@V?$allocator@_W@2@@std@@@2@V?$allocator@V?$basic_string@_WU?$char_traits@_W@std@@V?$allocator@_W@2@@std@@@2@$0A@@std@@@2@_N@Z 0000000064041d50 f i open.obj
 0001:00040f70       ?_Linsert@?$_Tree@V?$_Tset_traits@V?$vector@EV?$allocator@E@std@@@std@@U?$less@V?$vector@EV?$allocator@E@std@@@std@@@2@V?$allocator@V?$vector@EV?$allocator@E@std@@@std@@@2@$0A@@std@@@std@@QEAA?AU?$pair@V?$_Tree_const_iterator@V?$_Tree_val@V?$_Tset_traits@V?$vector@EV?$allocator@E@std@@@std@@U?$less@V?$vector@EV?$allocator@E@std@@@std@@@2@V?$allocator@V?$vector@EV?$allocator@E@std@@@std@@@2@$0A@@std@@@std@@@std@@_N@2@PEAU_Node@?$_Tree_nod@V?$_Tset_traits@V?$vector@EV?$allocator@E@std@@@std@@U?$less@V?$vector@EV?$allocator@E@std@@@std@@@2@V?$allocator@V?$vector@EV?$allocator@E@std@@@std@@@2@$0A@@std@@@2@_N@Z 0000000064041f70 f i open.obj
 0001:00041110       ??$_Buynode@AEAPEB_W@?$_Tree_val@V?$_Tset_traits@V?$basic_string@_WU?$char_traits@_W@std@@V?$allocator@_W@2@@std@@U?$less@V?$basic_string@_WU?$char_traits@_W@std@@V?$allocator@_W@2@@std@@@2@V?$allocator@V?$basic_string@_WU?$char_traits@_W@std@@V?$allocator@_W@2@@std@@@2@$0A@@std@@@std@@QEAAPEAU_Node@?$_Tree_nod@V?$_Tset_traits@V?$basic_string@_WU?$char_traits@_W@std@@V?$allocator@_W@2@@std@@U?$less@V?$basic_string@_WU?$char_traits@_W@std@@V?$allocator@_W@2@@std@@@2@V?$allocator@V?$basic_string@_WU?$char_traits@_W@std@@V?$allocator@_W@2@@std@@@2@$0A@@std@@@1@AEAPEB_W@Z 0000000064042110 f i open.obj
 0001:00041190       ??$_For_each@V?$_List_unchecked_const_iterator@V?$_List_val@V?$vector@EV?$allocator@E@std@@@std@@V?$allocator@V?$vector@EV?$allocator@E@std@@@std@@@2@@std@@U_Iterator_base0@2@@std@@V<lambda0>@?A0x0922b246@@@std@@YA?AV<lambda0>@?A0x0922b246@@V?$_List_unchecked_const_iterator@V?$_List_val@V?$vector@EV?$allocator@E@std@@@std@@V?$allocator@V?$vector@EV?$allocator@E@std@@@std@@@2@@std@@U_Iterator_base0@2@@0@0V12@@Z 0000000064042190 f i open.obj
 0001:00041460       ?_Buynode@?$_Tree_val@V?$_Tset_traits@V?$vector@EV?$allocator@E@std@@@std@@U?$less@V?$vector@EV?$allocator@E@std@@@std@@@2@V?$allocator@V?$vector@EV?$allocator@E@std@@@std@@@2@$0A@@std@@@std@@QEAAPEAU_Node@?$_Tree_nod@V?$_Tset_traits@V?$vector@EV?$allocator@E@std@@@std@@U?$less@V?$vector@EV?$allocator@E@std@@@std@@@2@V?$allocator@V?$vector@EV?$allocator@E@std@@@std@@@2@$0A@@std@@@2@AEBV?$vector@EV?$allocator@E@std@@@2@@Z 0000000064042460 f i open.obj
 0001:00041460       ??$_Buynode@AEAV?$vector@EV?$allocator@E@std@@@std@@@?$_Tree_val@V?$_Tset_traits@V?$vector@EV?$allocator@E@std@@@std@@U?$less@V?$vector@EV?$allocator@E@std@@@std@@@2@V?$allocator@V?$vector@EV?$allocator@E@std@@@std@@@2@$0A@@std@@@std@@QEAAPEAU_Node@?$_Tree_nod@V?$_Tset_traits@V?$vector@EV?$allocator@E@std@@@std@@U?$less@V?$vector@EV?$allocator@E@std@@@std@@@2@V?$allocator@V?$vector@EV?$allocator@E@std@@@std@@@2@$0A@@std@@@1@AEAV?$vector@EV?$allocator@E@std@@@1@@Z 0000000064042460 f i open.obj
 0001:000414b0       ??$_For_each@PEAUStrPos@@V<lambda1>@?A0x0922b246@@@std@@YA?AV<lambda1>@?A0x0922b246@@PEAUStrPos@@0V12@@Z 00000000640424b0 f i open.obj
 0001:00041830       ??$_For_each@V?$_List_unchecked_iterator@V?$_List_val@V?$vector@EV?$allocator@E@std@@@std@@V?$allocator@V?$vector@EV?$allocator@E@std@@@std@@@2@@std@@@std@@V<lambda2>@?A0x0922b246@@@std@@YA?AV<lambda2>@?A0x0922b246@@V?$_List_unchecked_iterator@V?$_List_val@V?$vector@EV?$allocator@E@std@@@std@@V?$allocator@V?$vector@EV?$allocator@E@std@@@std@@@2@@std@@@0@0V12@@Z 0000000064042830 f i open.obj
 0001:00041a50       ??$_For_each@V?$_List_unchecked_const_iterator@V?$_List_val@V?$vector@EV?$allocator@E@std@@@std@@V?$allocator@V?$vector@EV?$allocator@E@std@@@std@@@2@@std@@U_Iterator_base0@2@@std@@V<lambda3>@?A0x0922b246@@@std@@YA?AV<lambda3>@?A0x0922b246@@V?$_List_unchecked_const_iterator@V?$_List_val@V?$vector@EV?$allocator@E@std@@@std@@V?$allocator@V?$vector@EV?$allocator@E@std@@@std@@@2@@std@@U_Iterator_base0@2@@0@0V12@@Z 0000000064042a50 f i open.obj
 0001:00041be0       ??$_Move@PEAV?$shared_ptr@VArchive@@@tr1@std@@PEAV123@@std@@YAPEAV?$shared_ptr@VArchive@@@tr1@0@PEAV120@00U_Nonscalar_ptr_iterator_tag@0@@Z 0000000064042be0 f i open.obj
 0001:00041ca0       ??$_Uninit_move@PEAV?$shared_ptr@VArchive@@@tr1@std@@PEAV123@V?$allocator@V?$shared_ptr@VArchive@@@tr1@std@@@3@V123@@std@@YAPEAV?$shared_ptr@VArchive@@@tr1@0@PEAV120@00AEAV?$allocator@V?$shared_ptr@VArchive@@@tr1@std@@@0@0U_Nonscalar_ptr_iterator_tag@0@@Z 0000000064042ca0 f i open.obj
 0001:00041d10       ??$_Insert@V?$_List_iterator@V?$_List_val@UArcEntry@@V?$allocator@UArcEntry@@@std@@@std@@@std@@@?$list@UArcEntry@@V?$allocator@UArcEntry@@@std@@@std@@QEAAXV?$_List_const_iterator@V?$_List_val@UArcEntry@@V?$allocator@UArcEntry@@@std@@@std@@@1@V?$_List_iterator@V?$_List_val@UArcEntry@@V?$allocator@UArcEntry@@@std@@@std@@@1@1Uforward_iterator_tag@1@@Z 0000000064042d10 f i open.obj
 0001:00041dc0       ?QueryInterface@ArchiveOpener@@WBA@EAAJAEBU_GUID@@PEAPEAX@Z 0000000064042dc0 f i open.obj
 0001:00041dd0       ??_EArchiveOpener@@WCI@EAAPEAXI@Z 0000000064042dd0 f i open.obj
 0001:00041de0       ?QueryInterface@ArchiveOpener@@WBI@EAAJAEBU_GUID@@PEAPEAX@Z 0000000064042de0 f i open.obj
 0001:00041df0       ?Release@ArchiveOpener@@W7EAAKXZ 0000000064042df0 f i open.obj
 0001:00041e00       ??_EArchiveSubStream@@W7EAAPEAXI@Z 0000000064042e00 f i open.obj
 0001:00041e10       ??_EArchiveOpenStream@@W7EAAPEAXI@Z 0000000064042e10 f i open.obj
 0001:00041e20       ?Release@ArchiveOpener@@WBA@EAAKXZ 0000000064042e20 f i open.obj
 0001:00041e30       ?AddRef@ArchiveOpener@@W7EAAKXZ 0000000064042e30 f i open.obj
 0001:00041e40       ??_EArchiveOpener@@WBI@EAAPEAXI@Z 0000000064042e40 f i open.obj
 0001:00041e50       ?QueryInterface@ArchiveOpener@@W7EAAJAEBU_GUID@@PEAPEAX@Z 0000000064042e50 f i open.obj
 0001:00041e60       ?Release@ArchiveOpener@@WBI@EAAKXZ 0000000064042e60 f i open.obj
 0001:00041e70       ?AddRef@ArchiveOpener@@WBA@EAAKXZ 0000000064042e70 f i open.obj
 0001:00041e80       ??_ECriticalSection@@UEAAPEAXI@Z 0000000064042e80 f i  CIL library: CIL module
 0001:00041e80       ??_GCriticalSection@@UEAAPEAXI@Z 0000000064042e80 f i update.obj
 0001:00041ec0       ??1CriticalSectionLock@@QEAA@XZ 0000000064042ec0 f i update.obj
 0001:00041ee0       ??4PropVariant@@QEAAAEAV0@AEBV?$basic_string@_WU?$char_traits@_W@std@@V?$allocator@_W@2@@std@@@Z 0000000064042ee0 f i update.obj
 0001:00041fb0       ?format_time@@YA?AV?$basic_string@_WU?$char_traits@_W@std@@V?$allocator@_W@2@@std@@_K@Z 0000000064042fb0 f   update.obj
 0001:000421e0       ?do_update_ui@ArchiveUpdateProgress@@EEAAXXZ 00000000640431e0 f i update.obj
 0001:000429f0       ??0ArchiveUpdateProgress@@QEAA@_NAEBV?$basic_string@_WU?$char_traits@_W@std@@V?$allocator@_W@2@@std@@@Z 00000000640439f0 f i update.obj
 0001:00042b30       ?on_read_file@ArchiveUpdateProgress@@QEAAXI@Z 0000000064043b30 f i update.obj
 0001:00042bc0       ?on_write_archive@ArchiveUpdateProgress@@QEAAXI@Z 0000000064043bc0 f i update.obj
 0001:00042c40       ?on_total_update@ArchiveUpdateProgress@@QEAAX_K@Z 0000000064043c40 f i update.obj
 0001:00042cc0       ?on_completed_update@ArchiveUpdateProgress@@QEAAX_K@Z 0000000064043cc0 f i update.obj
 0001:00042d40       ??_GArchiveUpdateProgress@@UEAAPEAXI@Z 0000000064043d40 f i update.obj
 0001:00042d40       ??_EArchiveUpdateProgress@@UEAAPEAXI@Z 0000000064043d40 f i  CIL library: CIL module
 0001:00042d70       ??1ArchiveUpdateProgress@@UEAA@XZ 0000000064043d70 f i update.obj
 0001:00042e10       ?translate_seek_method@@YAKI@Z 0000000064043e10 f   update.obj
 0001:00042e80       ??0UpdateStream@@QEAA@V?$shared_ptr@VArchiveUpdateProgress@@@tr1@std@@@Z 0000000064043e80 f i update.obj
 0001:00042f30       ??1UpdateStream@@UEAA@XZ   0000000064043f30 f i update.obj
 0001:00042f80       ??_GUpdateStream@@UEAAPEAXI@Z 0000000064043f80 f i update.obj
 0001:00042f80       ??_EUpdateStream@@UEAAPEAXI@Z 0000000064043f80 f i  CIL library: CIL module
 0001:00042ff0       ??0SimpleUpdateStream@@QEAA@AEBV?$basic_string@_WU?$char_traits@_W@std@@V?$allocator@_W@2@@std@@V?$shared_ptr@VArchiveUpdateProgress@@@tr1@2@@Z 0000000064043ff0 f i update.obj
 0001:000431b0       ?QueryInterface@SimpleUpdateStream@@UEAAJAEBU_GUID@@PEAPEAX@Z 00000000640441b0 f i update.obj
 0001:000431b0       ?QueryInterface@MultiVolumeUpdateStream@@UEAAJAEBU_GUID@@PEAPEAX@Z 00000000640441b0 f i update.obj
 0001:000431b0       ?QueryInterface@SfxUpdateStream@@UEAAJAEBU_GUID@@PEAPEAX@Z 00000000640441b0 f i update.obj
 0001:00043270       ?Seek@SimpleUpdateStream@@UEAAJ_JIPEA_K@Z 0000000064044270 f i update.obj
 0001:00043310       ?SetSize@SimpleUpdateStream@@UEAAJ_K@Z 0000000064044310 f i update.obj
 0001:00043380       ?clean_files@SfxUpdateStream@@UEAAXXZ 0000000064044380 f i update.obj
 0001:00043380       ?clean_files@SimpleUpdateStream@@UEAAXXZ 0000000064044380 f i update.obj
 0001:000433b0       ??_GSimpleUpdateStream@@UEAAPEAXI@Z 00000000640443b0 f i update.obj
 0001:000433b0       ??_GSfxUpdateStream@@UEAAPEAXI@Z 00000000640443b0 f i update.obj
 0001:000433b0       ??_ESfxUpdateStream@@UEAAPEAXI@Z 00000000640443b0 f i  CIL library: CIL module
 0001:000433b0       ??_ESimpleUpdateStream@@UEAAPEAXI@Z 00000000640443b0 f i  CIL library: CIL module
 0001:000433e0       ??1SimpleUpdateStream@@UEAA@XZ 00000000640443e0 f i update.obj
 0001:000433e0       ??1SfxUpdateStream@@UEAA@XZ 00000000640443e0 f i update.obj
 0001:00043470       ??0SfxUpdateStream@@QEAA@AEBV?$basic_string@_WU?$char_traits@_W@std@@V?$allocator@_W@2@@std@@AEBUSfxOptions@@V?$shared_ptr@VArchiveUpdateProgress@@@tr1@2@@Z 0000000064044470 f i update.obj
 0001:00043650       ?AddRef@ArchiveOpener@@UEAAKXZ 0000000064044650 f i open.obj
 0001:00043650       ?AddRef@SimpleUpdateStream@@UEAAKXZ 0000000064044650 f i update.obj
 0001:00043650       ?AddRef@SfxUpdateStream@@UEAAKXZ 0000000064044650 f i update.obj
 0001:00043650       ?AddRef@MultiVolumeUpdateStream@@UEAAKXZ 0000000064044650 f i update.obj
 0001:00043660       ?Write@SfxUpdateStream@@UEAAJPEBXIPEAI@Z 0000000064044660 f i update.obj
 0001:00043660       ?Write@SimpleUpdateStream@@UEAAJPEBXIPEAI@Z 0000000064044660 f i update.obj
 0001:00043700       ?Seek@SfxUpdateStream@@UEAAJ_JIPEA_K@Z 0000000064044700 f i update.obj
 0001:00043820       ?SetSize@SfxUpdateStream@@UEAAJ_K@Z 0000000064044820 f i update.obj
 0001:000438a0       ?get_volume_path@MultiVolumeUpdateStream@@AEAA?AV?$basic_string@_WU?$char_traits@_W@std@@V?$allocator@_W@2@@std@@_K@Z 00000000640448a0 f i update.obj
 0001:00043a40       ?get_last_volume_idx@MultiVolumeUpdateStream@@AEAA_KXZ 0000000064044a40 f i update.obj
 0001:00043a60       ??0MultiVolumeUpdateStream@@QEAA@AEBV?$basic_string@_WU?$char_traits@_W@std@@V?$allocator@_W@2@@std@@_KV?$shared_ptr@VArchiveUpdateProgress@@@tr1@2@@Z 0000000064044a60 f i update.obj
 0001:00043cd0       ?Release@SimpleUpdateStream@@UEAAKXZ 0000000064044cd0 f i update.obj
 0001:00043cd0       ?Release@SfxUpdateStream@@UEAAKXZ 0000000064044cd0 f i update.obj
 0001:00043cd0       ?Release@MultiVolumeUpdateStream@@UEAAKXZ 0000000064044cd0 f i update.obj
 0001:00043cf0       ?Write@MultiVolumeUpdateStream@@UEAAJPEBXIPEAI@Z 0000000064044cf0 f i update.obj
 0001:00044400       ?Seek@MultiVolumeUpdateStream@@UEAAJ_JIPEA_K@Z 0000000064045400 f i update.obj
 0001:00044500       ?SetSize@MultiVolumeUpdateStream@@UEAAJ_K@Z 0000000064045500 f i update.obj
 0001:00044900       ?clean_files@MultiVolumeUpdateStream@@UEAAXXZ 0000000064045900 f i update.obj
 0001:00044a00       ??_GMultiVolumeUpdateStream@@UEAAPEAXI@Z 0000000064045a00 f i update.obj
 0001:00044a00       ??_EMultiVolumeUpdateStream@@UEAAPEAXI@Z 0000000064045a00 f i  CIL library: CIL module
 0001:00044a30       ??1MultiVolumeUpdateStream@@UEAA@XZ 0000000064045a30 f i update.obj
 0001:00044b00       ??0FileReadStream@@QEAA@AEBV?$basic_string@_WU?$char_traits@_W@std@@V?$allocator@_W@2@@std@@_NV?$shared_ptr@VArchiveUpdateProgress@@@tr1@2@@Z 0000000064045b00 f i update.obj
 0001:00044c80       ?QueryInterface@FileReadStream@@UEAAJAEBU_GUID@@PEAPEAX@Z 0000000064045c80 f i update.obj
 0001:00044c80       ?QueryInterface@ArchiveOpenStream@@UEAAJAEBU_GUID@@PEAPEAX@Z 0000000064045c80 f i open.obj
 0001:00044c80       ?QueryInterface@ArchiveSubStream@@UEAAJAEBU_GUID@@PEAPEAX@Z 0000000064045c80 f i open.obj
 0001:00044d40       ?Read@FileReadStream@@UEAAJPEAXIPEAI@Z 0000000064045d40 f i update.obj
 0001:00044db0       ?do_update_ui@PrepareUpdate@@EEAAXXZ 0000000064045db0 f i update.obj
 0001:00044f70       ?process_file@PrepareUpdate@@AEAA_NAEBV?$basic_string@_WU?$char_traits@_W@std@@V?$allocator@_W@2@@std@@AEBUFindData@@IAEAI@Z 0000000064045f70 f i update.obj
 0001:00045540       ?process_file_enum@PrepareUpdate@@AEAA_NAEAVFileEnum@@AEBV?$basic_string@_WU?$char_traits@_W@std@@V?$allocator@_W@2@@std@@I@Z 0000000064046540 f i update.obj
 0001:000458e0       ??0PrepareUpdate@@QEAA@AEBV?$basic_string@_WU?$char_traits@_W@std@@V?$allocator@_W@2@@std@@AEBV?$vector@V?$basic_string@_WU?$char_traits@_W@std@@V?$allocator@_W@2@@std@@V?$allocator@V?$basic_string@_WU?$char_traits@_W@std@@V?$allocator@_W@2@@std@@@2@@2@IAEAVArchive@@AEAV?$map@IUFileIndexInfo@@U?$less@I@std@@V?$allocator@U?$pair@$$CBIUFileIndexInfo@@@std@@@3@@2@AEAIW4OverwriteAction@@AEA_NAEAV?$list@UError@@V?$allocator@UError@@@std@@@2@PEAVFileFilter@Far@@6@Z 00000000640468e0 f i update.obj
 0001:00045c50       ??R<lambda0>@?A0x98363e99@@QEBA_NII@Z 0000000064046c50 f i update.obj
 0001:00045cf0       ??1FileEnum@@QEAA@XZ       0000000064046cf0 f i sysutils.obj
 0001:00045cf0       ??1DirList@@QEAA@XZ        0000000064046cf0 f i update.obj
 0001:00045d30       ??_GPrepareUpdate@@UEAAPEAXI@Z 0000000064046d30 f i update.obj
 0001:00045d30       ??_EAttachSfxModuleProgress@@UEAAPEAXI@Z 0000000064046d30 f i  CIL library: CIL module
 0001:00045d30       ??_GAttachSfxModuleProgress@@UEAAPEAXI@Z 0000000064046d30 f i sfx.obj
 0001:00045d30       ??_EPrepareUpdate@@UEAAPEAXI@Z 0000000064046d30 f i  CIL library: CIL module
 0001:00045da0       ??0ArchiveUpdater@@QEAA@AEBV?$basic_string@_WU?$char_traits@_W@std@@V?$allocator@_W@2@@std@@0IV?$shared_ptr@V?$map@IUFileIndexInfo@@U?$less@I@std@@V?$allocator@U?$pair@$$CBIUFileIndexInfo@@@std@@@3@@std@@@tr1@2@AEBUUpdateOptions@@V?$shared_ptr@_N@42@V?$shared_ptr@V?$list@UError@@V?$allocator@UError@@@std@@@std@@@42@V?$shared_ptr@VArchiveUpdateProgress@@@42@@Z 0000000064046da0 f i update.obj
 0001:00046040       ?QueryInterface@ArchiveUpdater@@UEAAJAEBU_GUID@@PEAPEAX@Z 0000000064047040 f i update.obj
 0001:00046140       ?AddRef@ArchiveExtractor@@UEAAKXZ 0000000064047140 f i extract.obj
 0001:00046140       ?AddRef@ArchiveTester@@UEAAKXZ 0000000064047140 f i test.obj
 0001:00046140       ?AddRef@ArchiveUpdater@@UEAAKXZ 0000000064047140 f i update.obj
 0001:00046150       ?SetTotal@ArchiveUpdater@@UEAAJ_K@Z 0000000064047150 f i update.obj
 0001:00046180       ?SetCompleted@ArchiveUpdater@@UEAAJPEB_K@Z 0000000064047180 f i update.obj
 0001:000461c0       ?GetUpdateItemInfo@ArchiveUpdater@@UEAAJIPEAH0PEAI@Z 00000000640471c0 f i update.obj
 0001:00046270       ?GetProperty@ArchiveUpdater@@UEAAJIKPEAUtagPROPVARIANT@@@Z 0000000064047270 f i update.obj
 0001:000466e0       ?GetStream@ArchiveUpdater@@UEAAJIPEAPEAUISequentialInStream@@@Z 00000000640476e0 f i update.obj
 0001:00046a10       ?SetOperationResult@ArchiveUpdater@@UEAAJH@Z 0000000064047a10 f i update.obj
 0001:00046ac0       ?CryptoGetTextPassword2@ArchiveUpdater@@UEAAJPEAHPEAPEA_W@Z 0000000064047ac0 f i update.obj
 0001:00046b70       ??_GArchiveUpdater@@UEAAPEAXI@Z 0000000064047b70 f i update.obj
 0001:00046b70       ??_EArchiveUpdater@@UEAAPEAXI@Z 0000000064047b70 f i  CIL library: CIL module
 0001:00046ba0       ??1ArchiveUpdater@@UEAA@XZ 0000000064047ba0 f i update.obj
 0001:00046cd0       ?set_properties@Archive@@AEAAXPEAUIOutArchive@@AEBUUpdateOptions@@@Z 0000000064047cd0 f   update.obj
 0001:000478d0       ?do_update_ui@DeleteSrcFiles@@EEAAXXZ 00000000640488d0 f i update.obj
 0001:00047a90       ?delete_src_file@DeleteSrcFiles@@AEAAXAEBV?$basic_string@_WU?$char_traits@_W@std@@V?$allocator@_W@2@@std@@@Z 0000000064048a90 f i update.obj
 0001:00047ae0       ?delete_src_dir@DeleteSrcFiles@@AEAAXAEBV?$basic_string@_WU?$char_traits@_W@std@@V?$allocator@_W@2@@std@@@Z 0000000064048ae0 f i update.obj
 0001:00047e20       ??0DeleteSrcFiles@@QEAA@AEBV?$basic_string@_WU?$char_traits@_W@std@@V?$allocator@_W@2@@std@@AEBV?$vector@V?$basic_string@_WU?$char_traits@_W@std@@V?$allocator@_W@2@@std@@V?$allocator@V?$basic_string@_WU?$char_traits@_W@std@@V?$allocator@_W@2@@std@@@2@@2@AEA_NAEAV?$list@UError@@V?$allocator@UError@@@std@@@2@@Z 0000000064048e20 f i update.obj
 0001:000480e0       ??_EPrepareExtract@@UEAAPEAXI@Z 00000000640490e0 f i  CIL library: CIL module
 0001:000480e0       ??_EDeleteSrcFiles@@UEAAPEAXI@Z 00000000640490e0 f i  CIL library: CIL module
 0001:000480e0       ??_GDeleteSrcFiles@@UEAAPEAXI@Z 00000000640490e0 f i update.obj
 0001:000480e0       ??_EArchiveFileDeleterProgress@@UEAAPEAXI@Z 00000000640490e0 f i  CIL library: CIL module
 0001:000480e0       ??_GPrepareExtract@@UEAAPEAXI@Z 00000000640490e0 f i extract.obj
 0001:000480e0       ??_EProgressMonitor@@UEAAPEAXI@Z 00000000640490e0 f i  CIL library: CIL module
 0001:000480e0       ??_ESetDirAttr@@UEAAPEAXI@Z 00000000640490e0 f i  CIL library: CIL module
 0001:000480e0       ??_GArchiveFileDeleterProgress@@UEAAPEAXI@Z 00000000640490e0 f i delete.obj
 0001:000480e0       ??_GProgressMonitor@@UEAAPEAXI@Z 00000000640490e0 f i ui.obj
 0001:000480e0       ??_GSetDirAttr@@UEAAPEAXI@Z 00000000640490e0 f i extract.obj
 0001:00048110       ?create@Archive@@QEAAXAEBV?$basic_string@_WU?$char_traits@_W@std@@V?$allocator@_W@2@@std@@AEBV?$vector@V?$basic_string@_WU?$char_traits@_W@std@@V?$allocator@_W@2@@std@@V?$allocator@V?$basic_string@_WU?$char_traits@_W@std@@V?$allocator@_W@2@@std@@@2@@3@AEBUUpdateOptions@@V?$shared_ptr@V?$list@UError@@V?$allocator@UError@@@std@@@std@@@tr1@3@@Z 0000000064049110 f   update.obj
 0001:00048b70       ?update@Archive@@QEAAXAEBV?$basic_string@_WU?$char_traits@_W@std@@V?$allocator@_W@2@@std@@AEBV?$vector@V?$basic_string@_WU?$char_traits@_W@std@@V?$allocator@_W@2@@std@@V?$allocator@V?$basic_string@_WU?$char_traits@_W@std@@V?$allocator@_W@2@@std@@@2@@3@0AEBUUpdateOptions@@V?$shared_ptr@V?$list@UError@@V?$allocator@UError@@@std@@@std@@@tr1@3@@Z 0000000064049b70 f   update.obj
 0001:00049450       ?create_dir@Archive@@QEAAXAEBV?$basic_string@_WU?$char_traits@_W@std@@V?$allocator@_W@2@@std@@0@Z 000000006404a450 f   update.obj
 0001:00049e20       ??6?$basic_ostream@_WU?$char_traits@_W@std@@@std@@QEAAAEAV01@I@Z 000000006404ae20 f i update.obj
 0001:0004a000       ?find@?$basic_string@_WU?$char_traits@_W@std@@V?$allocator@_W@2@@std@@QEBA_K_W_K@Z 000000006404b000 f i update.obj
 0001:0004a0f0       ??0?$shared_ptr@VArchiveUpdateProgress@@@tr1@std@@QEAA@AEBV012@@Z 000000006404b0f0 f i update.obj
 0001:0004a0f0       ??0?$shared_ptr@V?$list@UError@@V?$allocator@UError@@@std@@@std@@@tr1@std@@QEAA@AEBV012@@Z 000000006404b0f0 f i plugin.obj
 0001:0004a150       ??A?$map@IUFileIndexInfo@@U?$less@I@std@@V?$allocator@U?$pair@$$CBIUFileIndexInfo@@@std@@@3@@std@@QEAAAEAUFileIndexInfo@@AEBI@Z 000000006404b150 f i update.obj
 0001:0004a2c0       ?erase@?$_Tree@V?$_Tmap_traits@IUFileIndexInfo@@U?$less@I@std@@V?$allocator@U?$pair@$$CBIUFileIndexInfo@@@std@@@3@$0A@@std@@@std@@QEAA_KAEBI@Z 000000006404b2c0 f i update.obj
 0001:0004a3f0       ??1?$vector@VPropVariant@@V?$allocator@VPropVariant@@@std@@@std@@QEAA@XZ 000000006404b3f0 f i update.obj
 0001:0004a430       ?push_back@?$vector@VPropVariant@@V?$allocator@VPropVariant@@@std@@@std@@QEAAXAEBVPropVariant@@@Z 000000006404b430 f i update.obj
 0001:0004a430       ?push_back@?$vector@VPropVariant@@V?$allocator@VPropVariant@@@std@@@std@@QEAAX$$QEAVPropVariant@@@Z 000000006404b430 f i update.obj
 0001:0004a570       ?reserve@?$vector@PEB_WV?$allocator@PEB_W@std@@@std@@QEAAX_K@Z 000000006404b570 f i update.obj
 0001:0004a680       ?find@?$basic_string@_WU?$char_traits@_W@std@@V?$allocator@_W@2@@std@@QEBA_KPEB_W_K1@Z 000000006404b680 f i update.obj
 0001:0004a790       ??0?$_Tree@V?$_Tmap_traits@IUFileIndexInfo@@U?$less@I@std@@V?$allocator@U?$pair@$$CBIUFileIndexInfo@@@std@@@3@$0A@@std@@@std@@QEAA@AEBU?$less@I@1@AEBV?$allocator@U?$pair@$$CBIUFileIndexInfo@@@std@@@1@@Z 000000006404b790 f i update.obj
 0001:0004a820       ?erase@?$_Tree@V?$_Tmap_traits@IUFileIndexInfo@@U?$less@I@std@@V?$allocator@U?$pair@$$CBIUFileIndexInfo@@@std@@@3@$0A@@std@@@std@@QEAA?AV?$_Tree_iterator@V?$_Tree_val@V?$_Tmap_traits@IUFileIndexInfo@@U?$less@I@std@@V?$allocator@U?$pair@$$CBIUFileIndexInfo@@@std@@@3@$0A@@std@@@std@@@2@V?$_Tree_const_iterator@V?$_Tree_val@V?$_Tmap_traits@IUFileIndexInfo@@U?$less@I@std@@V?$allocator@U?$pair@$$CBIUFileIndexInfo@@@std@@@3@$0A@@std@@@std@@@2@0@Z 000000006404b820 f i update.obj
 0001:0004a940       ?_Reserve@?$vector@VPropVariant@@V?$allocator@VPropVariant@@@std@@@std@@IEAAX_K@Z 000000006404b940 f i update.obj
 0001:0004aa00       ?erase@?$_Tree@V?$_Tmap_traits@IUFileIndexInfo@@U?$less@I@std@@V?$allocator@U?$pair@$$CBIUFileIndexInfo@@@std@@@3@$0A@@std@@@std@@QEAA?AV?$_Tree_iterator@V?$_Tree_val@V?$_Tmap_traits@IUFileIndexInfo@@U?$less@I@std@@V?$allocator@U?$pair@$$CBIUFileIndexInfo@@@std@@@3@$0A@@std@@@std@@@2@V?$_Tree_const_iterator@V?$_Tree_val@V?$_Tmap_traits@IUFileIndexInfo@@U?$less@I@std@@V?$allocator@U?$pair@$$CBIUFileIndexInfo@@@std@@@3@$0A@@std@@@std@@@2@@Z 000000006404ba00 f i update.obj
 0001:0004ae10       ?reserve@?$vector@VPropVariant@@V?$allocator@VPropVariant@@@std@@@std@@QEAAX_K@Z 000000006404be10 f i update.obj
 0001:0004af50       ?_Erase@?$_Tree@V?$_Tmap_traits@IUFileIndexInfo@@U?$less@I@std@@V?$allocator@U?$pair@$$CBIUFileIndexInfo@@@std@@@3@$0A@@std@@@std@@IEAAXPEAU_Node@?$_Tree_nod@V?$_Tmap_traits@IUFileIndexInfo@@U?$less@I@std@@V?$allocator@U?$pair@$$CBIUFileIndexInfo@@@std@@@3@$0A@@std@@@2@@Z 000000006404bf50 f i update.obj
 0001:0004afe0       ?_Lrotate@?$_Tree@V?$_Tmap_traits@IUFileIndexInfo@@U?$less@I@std@@V?$allocator@U?$pair@$$CBIUFileIndexInfo@@@std@@@3@$0A@@std@@@std@@IEAAXPEAU_Node@?$_Tree_nod@V?$_Tmap_traits@IUFileIndexInfo@@U?$less@I@std@@V?$allocator@U?$pair@$$CBIUFileIndexInfo@@@std@@@3@$0A@@std@@@2@@Z 000000006404bfe0 f i update.obj
 0001:0004b040       ?_Rrotate@?$_Tree@V?$_Tmap_traits@IUFileIndexInfo@@U?$less@I@std@@V?$allocator@U?$pair@$$CBIUFileIndexInfo@@@std@@@3@$0A@@std@@@std@@IEAAXPEAU_Node@?$_Tree_nod@V?$_Tmap_traits@IUFileIndexInfo@@U?$less@I@std@@V?$allocator@U?$pair@$$CBIUFileIndexInfo@@@std@@@3@$0A@@std@@@2@@Z 000000006404c040 f i update.obj
 0001:0004b0a0       ?_Insert@?$_Tree@V?$_Tmap_traits@IUFileIndexInfo@@U?$less@I@std@@V?$allocator@U?$pair@$$CBIUFileIndexInfo@@@std@@@3@$0A@@std@@@std@@QEAA?AV?$_Tree_iterator@V?$_Tree_val@V?$_Tmap_traits@IUFileIndexInfo@@U?$less@I@std@@V?$allocator@U?$pair@$$CBIUFileIndexInfo@@@std@@@3@$0A@@std@@@std@@@2@V?$_Tree_const_iterator@V?$_Tree_val@V?$_Tmap_traits@IUFileIndexInfo@@U?$less@I@std@@V?$allocator@U?$pair@$$CBIUFileIndexInfo@@@std@@@3@$0A@@std@@@std@@@2@PEAU_Node@?$_Tree_nod@V?$_Tmap_traits@IUFileIndexInfo@@U?$less@I@std@@V?$allocator@U?$pair@$$CBIUFileIndexInfo@@@std@@@3@$0A@@std@@@2@@Z 000000006404c0a0 f i update.obj
 0001:0004b2d0       ?_Linsert@?$_Tree@V?$_Tmap_traits@IUFileIndexInfo@@U?$less@I@std@@V?$allocator@U?$pair@$$CBIUFileIndexInfo@@@std@@@3@$0A@@std@@@std@@QEAA?AU?$pair@V?$_Tree_iterator@V?$_Tree_val@V?$_Tmap_traits@IUFileIndexInfo@@U?$less@I@std@@V?$allocator@U?$pair@$$CBIUFileIndexInfo@@@std@@@3@$0A@@std@@@std@@@std@@_N@2@PEAU_Node@?$_Tree_nod@V?$_Tmap_traits@IUFileIndexInfo@@U?$less@I@std@@V?$allocator@U?$pair@$$CBIUFileIndexInfo@@@std@@@3@$0A@@std@@@2@_N@Z 000000006404c2d0 f i update.obj
 0001:0004b440       ?_Insert@?$_Tree@V?$_Tmap_traits@IUFileIndexInfo@@U?$less@I@std@@V?$allocator@U?$pair@$$CBIUFileIndexInfo@@@std@@@3@$0A@@std@@@std@@IEAA?AV?$_Tree_iterator@V?$_Tree_val@V?$_Tmap_traits@IUFileIndexInfo@@U?$less@I@std@@V?$allocator@U?$pair@$$CBIUFileIndexInfo@@@std@@@3@$0A@@std@@@std@@@2@_NPEAU_Node@?$_Tree_nod@V?$_Tmap_traits@IUFileIndexInfo@@U?$less@I@std@@V?$allocator@U?$pair@$$CBIUFileIndexInfo@@@std@@@3@$0A@@std@@@2@1@Z 000000006404c440 f i update.obj
 0001:0004b720       ??$_Equal_range@PEAIH_JV<lambda0>@?A0x98363e99@@@std@@YA?AU?$pair@PEAIPEAI@0@PEAI0AEBHV<lambda0>@?A0x98363e99@@PEA_J@Z 000000006404c720 f i update.obj
 0001:0004b8a0       ??$_For_each@V?$_List_unchecked_iterator@V?$_List_val@V?$basic_string@_WU?$char_traits@_W@std@@V?$allocator@_W@2@@std@@V?$allocator@V?$basic_string@_WU?$char_traits@_W@std@@V?$allocator@_W@2@@std@@@2@@std@@@std@@V<lambda1>@?A0x98363e99@@@std@@YA?AV<lambda1>@?A0x98363e99@@V?$_List_unchecked_iterator@V?$_List_val@V?$basic_string@_WU?$char_traits@_W@std@@V?$allocator@_W@2@@std@@V?$allocator@V?$basic_string@_WU?$char_traits@_W@std@@V?$allocator@_W@2@@std@@@2@@std@@@0@0V12@@Z 000000006404c8a0 f i update.obj
 0001:0004bd30       ??$_Resetp@V?$map@IUFileIndexInfo@@U?$less@I@std@@V?$allocator@U?$pair@$$CBIUFileIndexInfo@@@std@@@3@@std@@@?$shared_ptr@V?$map@IUFileIndexInfo@@U?$less@I@std@@V?$allocator@U?$pair@$$CBIUFileIndexInfo@@@std@@@3@@std@@@tr1@std@@AEAAXPEAV?$map@IUFileIndexInfo@@U?$less@I@std@@V?$allocator@U?$pair@$$CBIUFileIndexInfo@@@std@@@3@@2@@Z 000000006404cd30 f i update.obj
 0001:0004bda0       ??$_Resetp@VArchiveUpdateProgress@@@?$shared_ptr@VArchiveUpdateProgress@@@tr1@std@@AEAAXPEAVArchiveUpdateProgress@@@Z 000000006404cda0 f i update.obj
 0001:0004be10       ??$_Buynode@U?$pair@$$CBIUFileIndexInfo@@@std@@@?$_Tree_val@V?$_Tmap_traits@IUFileIndexInfo@@U?$less@I@std@@V?$allocator@U?$pair@$$CBIUFileIndexInfo@@@std@@@3@$0A@@std@@@std@@QEAAPEAU_Node@?$_Tree_nod@V?$_Tmap_traits@IUFileIndexInfo@@U?$less@I@std@@V?$allocator@U?$pair@$$CBIUFileIndexInfo@@@std@@@3@$0A@@std@@@1@$$QEAU?$pair@$$CBIUFileIndexInfo@@@1@@Z 000000006404ce10 f i update.obj
 0001:0004beb0       ??$_Destroy_range@V?$allocator@VPropVariant@@@std@@@std@@YAXPEAVPropVariant@@0AEAV?$allocator@VPropVariant@@@0@U_Nonscalar_ptr_iterator_tag@0@@Z 000000006404ceb0 f i update.obj
 0001:0004bf80       ??_G?$map@IUFileIndexInfo@@U?$less@I@std@@V?$allocator@U?$pair@$$CBIUFileIndexInfo@@@std@@@3@@std@@QEAAPEAXI@Z 000000006404cf80 f i update.obj
 0001:0004bfd0       ?_Buynode@?$_Tree_val@V?$_Tmap_traits@IUFileIndexInfo@@U?$less@I@std@@V?$allocator@U?$pair@$$CBIUFileIndexInfo@@@std@@@3@$0A@@std@@@std@@QEAAPEAU_Node@?$_Tree_nod@V?$_Tmap_traits@IUFileIndexInfo@@U?$less@I@std@@V?$allocator@U?$pair@$$CBIUFileIndexInfo@@@std@@@3@$0A@@std@@@2@XZ 000000006404cfd0 f i update.obj
 0001:0004c050       ?_Destroy@?$_Ref_count@V?$map@IUFileIndexInfo@@U?$less@I@std@@V?$allocator@U?$pair@$$CBIUFileIndexInfo@@@std@@@3@@std@@@tr1@std@@EEAAXXZ 000000006404d050 f i update.obj
 0001:0004c0a0       ??$_Uninit_move@PEAVPropVariant@@PEAV1@V?$allocator@VPropVariant@@@std@@V1@@std@@YAPEAVPropVariant@@PEAV1@00AEAV?$allocator@VPropVariant@@@0@0U_Nonscalar_ptr_iterator_tag@0@@Z 000000006404d0a0 f i update.obj
 0001:0004c1a0       ??$_Lower_bound@PEAIH_JV<lambda0>@?A0x98363e99@@@std@@YAPEAIPEAI0AEBHV<lambda0>@?A0x98363e99@@PEA_J@Z 000000006404d1a0 f i update.obj
 0001:0004c2c0       ??$_Upper_bound@PEAIH_JV<lambda0>@?A0x98363e99@@@std@@YAPEAIPEAI0AEBHV<lambda0>@?A0x98363e99@@PEA_J@Z 000000006404d2c0 f i update.obj
 0001:0004c3e0       ?QueryInterface@ArchiveUpdater@@WBA@EAAJAEBU_GUID@@PEAPEAX@Z 000000006404d3e0 f i update.obj
 0001:0004c3f0       ?Release@MultiVolumeUpdateStream@@WBI@EAAKXZ 000000006404d3f0 f i update.obj
 0001:0004c3f0       ?Release@SimpleUpdateStream@@WBI@EAAKXZ 000000006404d3f0 f i update.obj
 0001:0004c3f0       ?Release@SfxUpdateStream@@WBI@EAAKXZ 000000006404d3f0 f i update.obj
 0001:0004c400       ??_EMultiVolumeUpdateStream@@WBI@EAAPEAXI@Z 000000006404d400 f i update.obj
 0001:0004c410       ?QueryInterface@SimpleUpdateStream@@WBI@EAAJAEBU_GUID@@PEAPEAX@Z 000000006404d410 f i update.obj
 0001:0004c410       ?QueryInterface@MultiVolumeUpdateStream@@WBI@EAAJAEBU_GUID@@PEAPEAX@Z 000000006404d410 f i update.obj
 0001:0004c410       ?QueryInterface@SfxUpdateStream@@WBI@EAAJAEBU_GUID@@PEAPEAX@Z 000000006404d410 f i update.obj
 0001:0004c420       ?AddRef@ArchiveOpener@@WBI@EAAKXZ 000000006404d420 f i open.obj
 0001:0004c420       ?AddRef@SfxUpdateStream@@WBI@EAAKXZ 000000006404d420 f i update.obj
 0001:0004c420       ?AddRef@SimpleUpdateStream@@WBI@EAAKXZ 000000006404d420 f i update.obj
 0001:0004c420       ?AddRef@MultiVolumeUpdateStream@@WBI@EAAKXZ 000000006404d420 f i update.obj
 0001:0004c430       ??_EArchiveUpdater@@WBA@EAAPEAXI@Z 000000006404d430 f i update.obj
 0001:0004c440       ?QueryInterface@ArchiveUpdater@@W7EAAJAEBU_GUID@@PEAPEAX@Z 000000006404d440 f i update.obj
 0001:0004c450       ?QueryInterface@ArchiveOpenStream@@W7EAAJAEBU_GUID@@PEAPEAX@Z 000000006404d450 f i open.obj
 0001:0004c450       ?QueryInterface@ArchiveSubStream@@W7EAAJAEBU_GUID@@PEAPEAX@Z 000000006404d450 f i open.obj
 0001:0004c450       ?QueryInterface@FileReadStream@@W7EAAJAEBU_GUID@@PEAPEAX@Z 000000006404d450 f i update.obj
 0001:0004c460       ??_ESimpleUpdateStream@@WBI@EAAPEAXI@Z 000000006404d460 f i update.obj
 0001:0004c460       ??_ESfxUpdateStream@@WBI@EAAPEAXI@Z 000000006404d460 f i update.obj
 0001:0004c470       ?do_update_ui@ArchiveFileDeleterProgress@@EEAAXXZ 000000006404d470 f i delete.obj
 0001:0004c910       ??0ArchiveFileDeleterProgress@@QEAA@XZ 000000006404d910 f i delete.obj
 0001:0004c9a0       ??0ArchiveFileDeleterStream@@QEAA@AEBV?$basic_string@_WU?$char_traits@_W@std@@V?$allocator@_W@2@@std@@V?$shared_ptr@VProgressMonitor@@@tr1@2@@Z 000000006404d9a0 f i delete.obj
 0001:0004cb40       ?QueryInterface@ArchiveFileDeleterStream@@UEAAJAEBU_GUID@@PEAPEAX@Z 000000006404db40 f i delete.obj
 0001:0004cc00       ?AddRef@ArchiveOpenStream@@UEAAKXZ 000000006404dc00 f i open.obj
 0001:0004cc00       ?AddRef@ArchiveFileDeleter@@UEAAKXZ 000000006404dc00 f i delete.obj
 0001:0004cc00       ?AddRef@FileReadStream@@UEAAKXZ 000000006404dc00 f i update.obj
 0001:0004cc00       ?AddRef@CachedFileExtractStream@@UEAAKXZ 000000006404dc00 f i extract.obj
 0001:0004cc00       ?AddRef@ArchiveSubStream@@UEAAKXZ 000000006404dc00 f i open.obj
 0001:0004cc00       ?AddRef@ArchiveFileDeleterStream@@UEAAKXZ 000000006404dc00 f i delete.obj
 0001:0004cc10       ?Release@ArchiveSubStream@@UEAAKXZ 000000006404dc10 f i open.obj
 0001:0004cc10       ?Release@ArchiveFileDeleterStream@@UEAAKXZ 000000006404dc10 f i delete.obj
 0001:0004cc10       ?Release@FileReadStream@@UEAAKXZ 000000006404dc10 f i update.obj
 0001:0004cc10       ?Release@ArchiveOpenStream@@UEAAKXZ 000000006404dc10 f i open.obj
 0001:0004cc10       ?Release@CachedFileExtractStream@@UEAAKXZ 000000006404dc10 f i extract.obj
 0001:0004cc10       ?Release@ArchiveFileDeleter@@UEAAKXZ 000000006404dc10 f i delete.obj
 0001:0004cc40       ?Write@ArchiveFileDeleterStream@@UEAAJPEBXIPEAI@Z 000000006404dc40 f i delete.obj
 0001:0004ccd0       ?Seek@ArchiveFileDeleterStream@@UEAAJ_JIPEA_K@Z 000000006404dcd0 f i delete.obj
 0001:0004ccd0       ?Seek@FileReadStream@@UEAAJ_JIPEA_K@Z 000000006404dcd0 f i update.obj
 0001:0004cd70       ?SetSize@ArchiveFileDeleterStream@@UEAAJ_K@Z 000000006404dd70 f i delete.obj
 0001:0004cde0       ??_EArchiveFileDeleterStream@@UEAAPEAXI@Z 000000006404dde0 f i  CIL library: CIL module
 0001:0004cde0       ??_EFileReadStream@@UEAAPEAXI@Z 000000006404dde0 f i  CIL library: CIL module
 0001:0004cde0       ??_GArchiveFileDeleterStream@@UEAAPEAXI@Z 000000006404dde0 f i delete.obj
 0001:0004cde0       ??_GFileReadStream@@UEAAPEAXI@Z 000000006404dde0 f i update.obj
 0001:0004ce10       ??1FileReadStream@@UEAA@XZ 000000006404de10 f i update.obj
 0001:0004ce10       ??1ArchiveFileDeleterStream@@UEAA@XZ 000000006404de10 f i delete.obj
 0001:0004ceb0       ??0ArchiveFileDeleter@@QEAA@AEBV?$vector@IV?$allocator@I@std@@@std@@V?$shared_ptr@VArchiveFileDeleterProgress@@@tr1@2@@Z 000000006404deb0 f i delete.obj
 0001:0004cf80       ?QueryInterface@ArchiveFileDeleter@@UEAAJAEBU_GUID@@PEAPEAX@Z 000000006404df80 f i delete.obj
 0001:0004d040       ?SetTotal@ArchiveFileDeleter@@UEAAJ_K@Z 000000006404e040 f i delete.obj
 0001:0004d070       ?SetCompleted@ArchiveFileDeleter@@UEAAJPEB_K@Z 000000006404e070 f i delete.obj
 0001:0004d0b0       ?GetUpdateItemInfo@ArchiveFileDeleter@@UEAAJIPEAH0PEAI@Z 000000006404e0b0 f i delete.obj
 0001:0004d0f0       ?GetProperty@ArchiveFileDeleter@@UEAAJIKPEAUtagPROPVARIANT@@@Z 000000006404e0f0 f i delete.obj
 0001:0004d1a0       ?GetStream@ArchiveFileDeleter@@UEAAJIPEAPEAUISequentialInStream@@@Z 000000006404e1a0 f i delete.obj
 0001:0004d1d0       ?PrepareOperation@ArchiveExtractor@@UEAAJH@Z 000000006404e1d0 f i extract.obj
 0001:0004d1d0       ?SetOperationResult@ArchiveFileDeleter@@UEAAJH@Z 000000006404e1d0 f i delete.obj
 0001:0004d1d0       ?PrepareOperation@ArchiveTester@@UEAAJH@Z 000000006404e1d0 f i test.obj
 0001:0004d1f0       ??_EArchiveFileDeleter@@UEAAPEAXI@Z 000000006404e1f0 f i  CIL library: CIL module
 0001:0004d1f0       ??_GArchiveFileDeleter@@UEAAPEAXI@Z 000000006404e1f0 f i delete.obj
 0001:0004d220       ??1ArchiveFileDeleter@@UEAA@XZ 000000006404e220 f i delete.obj
 0001:0004d2a0       ?enum_deleted_indices@Archive@@AEAAXIAEAV?$vector@IV?$allocator@I@std@@@std@@@Z 000000006404e2a0 f   delete.obj
 0001:0004d390       ?delete_files@Archive@@QEAAXAEBV?$vector@IV?$allocator@I@std@@@std@@@Z 000000006404e390 f   delete.obj
 0001:0004dc80       ??$_Set_difference@PEAIPEAIV?$back_insert_iterator@V?$vector@IV?$allocator@I@std@@@std@@@std@@@std@@YA?AV?$back_insert_iterator@V?$vector@IV?$allocator@I@std@@@std@@@0@PEAI000V10@@Z 000000006404ec80 f i delete.obj
 0001:0004dd90       ??$_Resetp@VArchiveFileDeleterProgress@@@?$shared_ptr@VArchiveFileDeleterProgress@@@tr1@std@@AEAAXPEAVArchiveFileDeleterProgress@@@Z 000000006404ed90 f i delete.obj
 0001:0004de00       ?QueryInterface@ArchiveFileDeleter@@W7EAAJAEBU_GUID@@PEAPEAX@Z 000000006404ee00 f i delete.obj
 0001:0004de10       ?QueryInterface@ArchiveFileDeleterStream@@W7EAAJAEBU_GUID@@PEAPEAX@Z 000000006404ee10 f i delete.obj
 0001:0004de20       ??_EArchiveFileDeleter@@W7EAAPEAXI@Z 000000006404ee20 f i delete.obj
 0001:0004de30       ?AddRef@ArchiveOpenStream@@W7EAAKXZ 000000006404ee30 f i open.obj
 0001:0004de30       ?AddRef@FileReadStream@@W7EAAKXZ 000000006404ee30 f i update.obj
 0001:0004de30       ?AddRef@ArchiveFileDeleterStream@@W7EAAKXZ 000000006404ee30 f i delete.obj
 0001:0004de30       ?AddRef@CachedFileExtractStream@@W7EAAKXZ 000000006404ee30 f i extract.obj
 0001:0004de30       ?AddRef@ArchiveSubStream@@W7EAAKXZ 000000006404ee30 f i open.obj
 0001:0004de30       ?AddRef@ArchiveFileDeleter@@W7EAAKXZ 000000006404ee30 f i delete.obj
 0001:0004de40       ??_EArchiveFileDeleterStream@@W7EAAPEAXI@Z 000000006404ee40 f i delete.obj
 0001:0004de40       ??_EFileReadStream@@W7EAAPEAXI@Z 000000006404ee40 f i update.obj
 0001:0004de50       ?get_str@OptionsKey@@QEAA?AV?$basic_string@_WU?$char_traits@_W@std@@V?$allocator@_W@2@@std@@PEB_WAEBV23@@Z 000000006404ee50 f i options.obj
 0001:0004dfe0       ?get_binary@OptionsKey@@QEAA?AV?$vector@EV?$allocator@E@std@@@std@@PEB_WAEBV23@@Z 000000006404efe0 f i options.obj
 0001:0004e0a0       ?set_str@OptionsKey@@QEAAXPEB_WAEBV?$basic_string@_WU?$char_traits@_W@std@@V?$allocator@_W@2@@std@@1@Z 000000006404f0a0 f i options.obj
 0001:0004e170       ?set_binary@OptionsKey@@QEAAXPEB_WAEBV?$vector@EV?$allocator@E@std@@@std@@1@Z 000000006404f170 f i options.obj
 0001:0004e240       ??0Options@@QEAA@XZ        000000006404f240 f   options.obj
 0001:0004e3f0       ?load_sfx_options@@YAXAEAVOptionsKey@@AEAUSfxOptions@@@Z 000000006404f3f0 f   options.obj
 0001:0004e9b0       ?save_sfx_options@@YAXAEAVOptionsKey@@AEBUSfxOptions@@@Z 000000006404f9b0 f   options.obj
 0001:0004fe70       ?load@Options@@QEAAXXZ     0000000064050e70 f   options.obj
 0001:00050b70       ?save@Options@@QEBAXXZ     0000000064051b70 f   options.obj
 0001:000522b0       ?get_profile_key_name@@YA?AV?$basic_string@_WU?$char_traits@_W@std@@V?$allocator@_W@2@@std@@AEBV12@@Z 00000000640532b0 f   options.obj
 0001:00052390       ??0ProfileOptions@@QEAA@XZ 0000000064053390 f   options.obj
 0001:00052440       ??0SfxOptions@@QEAA@XZ     0000000064053440 f   options.obj
 0001:000525b0       ?load@UpdateProfiles@@QEAAXXZ 00000000640535b0 f   options.obj
 0001:00052f20       ?save@UpdateProfiles@@QEBAXXZ 0000000064053f20 f   options.obj
 0001:00053220       ??R<lambda0>@?A0xc33845b5@@QEBAXAEBUUpdateProfile@@@Z 0000000064054220 f i options.obj
 0001:000537c0       ?find_by_name@UpdateProfiles@@QEAAIAEBV?$basic_string@_WU?$char_traits@_W@std@@V?$allocator@_W@2@@std@@@Z 00000000640547c0 f   options.obj
 0001:000539c0       ?find_by_options@UpdateProfiles@@QEAAIAEBUUpdateOptions@@@Z 00000000640549c0 f   options.obj
 0001:00053a70       ?update@UpdateProfiles@@QEAAXAEBV?$basic_string@_WU?$char_traits@_W@std@@V?$allocator@_W@2@@std@@AEBUUpdateOptions@@@Z 0000000064054a70 f   options.obj
 0001:00053d50       ?get_app_option@@YA_N_KPEB_WAEA_N@Z 0000000064054d50 f   options.obj
 0001:00053e60       ?push_back@?$vector@UUpdateProfile@@V?$allocator@UUpdateProfile@@@std@@@std@@QEAAXAEBUUpdateProfile@@@Z 0000000064054e60 f i options.obj
 0001:00053f90       ?_Reserve@?$vector@UUpdateProfile@@V?$allocator@UUpdateProfile@@@std@@@std@@IEAAX_K@Z 0000000064054f90 f i options.obj
 0001:00054050       ?reserve@?$vector@UUpdateProfile@@V?$allocator@UUpdateProfile@@@std@@@std@@QEAAX_K@Z 0000000064055050 f i options.obj
 0001:000541a0       ??$_Sort@PEAUUpdateProfile@@_JV<lambda1>@?A0xc33845b5@@@std@@YAXPEAUUpdateProfile@@0_JV<lambda1>@?A0xc33845b5@@@Z 00000000640551a0 f i options.obj
 0001:00054350       ??$_Unguarded_partition@PEAUUpdateProfile@@V<lambda1>@?A0xc33845b5@@@std@@YA?AU?$pair@PEAUUpdateProfile@@PEAU1@@0@PEAUUpdateProfile@@0V<lambda1>@?A0xc33845b5@@@Z 0000000064055350 f i options.obj
 0001:00054590       ??$_Uninit_move@PEAUUpdateProfile@@PEAU1@V?$allocator@UUpdateProfile@@@std@@U1@@std@@YAPEAUUpdateProfile@@PEAU1@00AEAV?$allocator@UUpdateProfile@@@0@0U_Nonscalar_ptr_iterator_tag@0@@Z 0000000064055590 f i options.obj
 0001:00054630       ??$_Median@PEAUUpdateProfile@@V<lambda1>@?A0xc33845b5@@@std@@YAXPEAUUpdateProfile@@00V<lambda1>@?A0xc33845b5@@@Z 0000000064055630 f i options.obj
 0001:00054730       ??$_Make_heap@PEAUUpdateProfile@@_JU1@V<lambda1>@?A0xc33845b5@@@std@@YAXPEAUUpdateProfile@@0V<lambda1>@?A0xc33845b5@@PEA_J0@Z 0000000064055730 f i options.obj
 0001:00054860       ??$_Sort_heap@PEAUUpdateProfile@@V<lambda1>@?A0xc33845b5@@@std@@YAXPEAUUpdateProfile@@0V<lambda1>@?A0xc33845b5@@@Z 0000000064055860 f i options.obj
 0001:00054900       ??$_Insertion_sort1@PEAUUpdateProfile@@V<lambda1>@?A0xc33845b5@@U1@@std@@YAXPEAUUpdateProfile@@0V<lambda1>@?A0xc33845b5@@0@Z 0000000064055900 f i options.obj
 0001:00054c40       ??$_Med3@PEAUUpdateProfile@@V<lambda1>@?A0xc33845b5@@@std@@YAXPEAUUpdateProfile@@00V<lambda1>@?A0xc33845b5@@@Z 0000000064055c40 f i options.obj
 0001:00054cc0       ??$swap@UUpdateProfile@@@std@@YAXAEAUUpdateProfile@@0@Z 0000000064055cc0 f i options.obj
 0001:00054db0       ??$_Adjust_heap@PEAUUpdateProfile@@_JU1@V<lambda1>@?A0xc33845b5@@@std@@YAXPEAUUpdateProfile@@_J1$$QEAU1@V<lambda1>@?A0xc33845b5@@@Z 0000000064055db0 f i options.obj
 0001:00054ee0       ??$_Move_backward@PEAUUpdateProfile@@PEAU1@@std@@YAPEAUUpdateProfile@@PEAU1@00@Z 0000000064055ee0 f i options.obj
 0001:00054f70       ??$_Push_heap@PEAUUpdateProfile@@_JU1@V<lambda1>@?A0xc33845b5@@@std@@YAXPEAUUpdateProfile@@_J1$$QEAU1@V<lambda1>@?A0xc33845b5@@@Z 0000000064055f70 f i options.obj
 0001:00055050       ??$_Pop_heap_0@PEAUUpdateProfile@@U1@V<lambda1>@?A0xc33845b5@@@std@@YAXPEAUUpdateProfile@@0V<lambda1>@?A0xc33845b5@@0@Z 0000000064056050 f i options.obj
 0001:00055160       ?create_state_matrix@@YAPEAVStateMatrix@@AEBV?$vector@USigData@@V?$allocator@USigData@@@std@@@std@@@Z 0000000064056160 f   msearch.obj
 0001:000552f0       ?msearch@@YA?AV?$vector@UStrPos@@V?$allocator@UStrPos@@@std@@@std@@PEAE_KAEBV?$vector@USigData@@V?$allocator@USigData@@@std@@@2@_N@Z 00000000640562f0 f   msearch.obj
 0001:00055a10       ?reserve@?$vector@UStrPos@@V?$allocator@UStrPos@@@std@@@std@@QEAAX_K@Z 0000000064056a10 f i msearch.obj
 0001:00055ad0       ??1?$auto_ptr@VStateMatrix@@@std@@QEAA@XZ 0000000064056ad0 f i msearch.obj
 0001:00055b00       ??1?$vector@_NV?$allocator@_N@std@@@std@@QEAA@XZ 0000000064056b00 f i msearch.obj
 0001:00055b40       ??0?$vector@UStrPos@@V?$allocator@UStrPos@@@std@@@std@@QEAA@AEBV01@@Z 0000000064056b40 f i msearch.obj
 0001:00055bf0       ?allocate@?$allocator@UStrPos@@@std@@QEAAPEAUStrPos@@_K@Z 0000000064056bf0 f i msearch.obj
 0001:00055c60       ?_Trim@?$vector@_NV?$allocator@_N@std@@@std@@QEAAX_K@Z 0000000064056c60 f i msearch.obj
 0001:00055d20       ?_Construct_n@?$vector@IV?$allocator@I@std@@@std@@QEAAX_KPEBI@Z 0000000064056d20 f i msearch.obj
 0001:00055dc0       ??$_Sort@PEAUStrPos@@_J@std@@YAXPEAUStrPos@@0_J@Z 0000000064056dc0 f i msearch.obj
 0001:00055ed0       ??$_Unguarded_partition@PEAUStrPos@@@std@@YA?AU?$pair@PEAUStrPos@@PEAU1@@0@PEAUStrPos@@0@Z 0000000064056ed0 f i msearch.obj
 0001:00056110       ??$_Uninit_move@PEAUSigData@@PEAU1@V?$allocator@USigData@@@std@@U1@@std@@YAPEAUSigData@@PEAU1@00AEAV?$allocator@USigData@@@0@0U_Nonscalar_ptr_iterator_tag@0@@Z 0000000064057110 f i open.obj
 0001:00056110       ??$_Uninit_move@PEAUStrPos@@PEAU1@V?$allocator@UStrPos@@@std@@U1@@std@@YAPEAUStrPos@@PEAU1@00AEAV?$allocator@UStrPos@@@0@0U_Nonscalar_ptr_iterator_tag@0@@Z 0000000064057110 f i msearch.obj
 0001:00056150       ??$_Uninit_copy@V?$_Vector_const_iterator@V?$_Vector_val@UStrPos@@V?$allocator@UStrPos@@@std@@@std@@@std@@PEAUStrPos@@V?$allocator@UStrPos@@@2@@std@@YAPEAUStrPos@@V?$_Vector_const_iterator@V?$_Vector_val@UStrPos@@V?$allocator@UStrPos@@@std@@@std@@@0@0PEAU1@AEAV?$allocator@UStrPos@@@0@U_Nonscalar_ptr_iterator_tag@0@@Z 0000000064057150 f i msearch.obj
 0001:000561a0       ??$_Median@PEAUStrPos@@@std@@YAXPEAUStrPos@@00@Z 00000000640571a0 f i msearch.obj
 0001:00056270       ??$_Make_heap@PEAUStrPos@@_JU1@@std@@YAXPEAUStrPos@@0PEA_J0@Z 0000000064057270 f i msearch.obj
 0001:000563d0       ??$_Sort_heap@PEAUStrPos@@@std@@YAXPEAUStrPos@@0@Z 00000000640573d0 f i msearch.obj
 0001:00056520       ??$_Insertion_sort1@PEAUStrPos@@U1@@std@@YAXPEAUStrPos@@00@Z 0000000064057520 f i msearch.obj
 0001:000565e0       ??$_Med3@PEAUStrPos@@@std@@YAXPEAUStrPos@@00@Z 00000000640575e0 f i msearch.obj
 0001:00056670       ?get_int@PropVariant@@QEBA_JXZ 0000000064057670 f i attr.obj
 0001:000566f0       ?get_int_size@PropVariant@@QEBAIXZ 00000000640576f0 f i attr.obj
 0001:000567d0       ?uint_to_hex_str@@YA?AV?$basic_string@_WU?$char_traits@_W@std@@V?$allocator@_W@2@@std@@_KI@Z 00000000640577d0 f   attr.obj
 0001:00056890       ?format_str_prop@@YA?AV?$basic_string@_WU?$char_traits@_W@std@@V?$allocator@_W@2@@std@@AEBVPropVariant@@@Z 0000000064057890 f   attr.obj
 0001:00056920       ?format_int_prop@@YA?AV?$basic_string@_WU?$char_traits@_W@std@@V?$allocator@_W@2@@std@@AEBVPropVariant@@@Z 0000000064057920 f   attr.obj
 0001:00056a50       ?format_uint_prop@@YA?AV?$basic_string@_WU?$char_traits@_W@std@@V?$allocator@_W@2@@std@@AEBVPropVariant@@@Z 0000000064057a50 f   attr.obj
 0001:00056b80       ?format_size_prop@@YA?AV?$basic_string@_WU?$char_traits@_W@std@@V?$allocator@_W@2@@std@@AEBVPropVariant@@@Z 0000000064057b80 f   attr.obj
 0001:00056df0       ?format_filetime_prop@@YA?AV?$basic_string@_WU?$char_traits@_W@std@@V?$allocator@_W@2@@std@@AEBVPropVariant@@@Z 0000000064057df0 f   attr.obj
 0001:000570c0       ?format_crc_prop@@YA?AV?$basic_string@_WU?$char_traits@_W@std@@V?$allocator@_W@2@@std@@AEBVPropVariant@@@Z 00000000640580c0 f   attr.obj
 0001:00057150       ?format_attrib_prop@@YA?AV?$basic_string@_WU?$char_traits@_W@std@@V?$allocator@_W@2@@std@@AEBVPropVariant@@@Z 0000000064058150 f   attr.obj
 0001:00057280       ?format_posix_attrib_prop@@YA?AV?$basic_string@_WU?$char_traits@_W@std@@V?$allocator@_W@2@@std@@AEBVPropVariant@@@Z 0000000064058280 f   attr.obj
 0001:00057580       ?get_attr_list@Archive@@QEAA?AV?$list@UAttr@@V?$allocator@UAttr@@@std@@@std@@I@Z 0000000064058580 f   attr.obj
 0001:00057f30       ?load_arc_attr@Archive@@AEAAXXZ 0000000064058f30 f   attr.obj
 0001:00059610       ??R<lambda0>@?A0xf01732b4@@QEBAXAEBV?$basic_string@_WU?$char_traits@_W@std@@V?$allocator@_W@2@@std@@@Z 000000006405a610 f i attr.obj
 0001:00059770       ?load_update_props@Archive@@QEAAXXZ 000000006405a770 f   attr.obj
 0001:00059c00       ??0?$list@UAttr@@V?$allocator@UAttr@@@std@@@std@@QEAA@$$QEAV01@@Z 000000006405ac00 f i attr.obj
 0001:00059cd0       ??$?H_WU?$char_traits@_W@std@@V?$allocator@_W@1@@std@@YA?AV?$basic_string@_WU?$char_traits@_W@std@@V?$allocator@_W@2@@0@AEBV10@PEB_W@Z 000000006405acd0 f i attr.obj
 0001:00059db0       ?do_update_ui@ArchiveTester@@EEAAXXZ 000000006405adb0 f i test.obj
 0001:0005a1f0       ??0ArchiveTester@@QEAA@IV?$shared_ptr@VArchive@@@tr1@std@@@Z 000000006405b1f0 f i test.obj
 0001:0005a390       ?Release@ArchiveUpdater@@UEAAKXZ 000000006405b390 f i update.obj
 0001:0005a390       ?Release@ArchiveTester@@UEAAKXZ 000000006405b390 f i test.obj
 0001:0005a390       ?Release@ArchiveExtractor@@UEAAKXZ 000000006405b390 f i extract.obj
 0001:0005a3c0       ?SetTotal@ArchiveTester@@UEAAJ_K@Z 000000006405b3c0 f i test.obj
 0001:0005a3f0       ?SetCompleted@ArchiveTester@@UEAAJPEB_K@Z 000000006405b3f0 f i test.obj
 0001:0005a430       ?GetStream@ArchiveTester@@UEAAJIPEAPEAUISequentialOutStream@@H@Z 000000006405b430 f i test.obj
 0001:0005a500       ?SetOperationResult@ArchiveTester@@UEAAJH@Z 000000006405b500 f i test.obj
 0001:0005a830       ?CryptoGetTextPassword@ArchiveTester@@UEAAJPEAPEA_W@Z 000000006405b830 f i test.obj
 0001:0005a9a0       ??_EArchiveTester@@UEAAPEAXI@Z 000000006405b9a0 f i  CIL library: CIL module
 0001:0005a9a0       ??_GArchiveTester@@UEAAPEAXI@Z 000000006405b9a0 f i test.obj
 0001:0005a9d0       ??1ArchiveTester@@UEAA@XZ  000000006405b9d0 f i test.obj
 0001:0005aa70       ?prepare_test@Archive@@AEAAXIAEAV?$list@IV?$allocator@I@std@@@std@@@Z 000000006405ba70 f   test.obj
 0001:0005ab50       ?test@Archive@@QEAAXIAEBV?$vector@IV?$allocator@I@std@@@std@@@Z 000000006405bb50 f   test.obj
 0001:0005b110       ??_EArchiveTester@@WCA@EAAPEAXI@Z 000000006405c110 f i test.obj
 0001:0005b120       ??_EArchiveTester@@WBA@EAAPEAXI@Z 000000006405c120 f i test.obj
 0001:0005b130       ?Release@ArchiveUpdater@@WBA@EAAKXZ 000000006405c130 f i update.obj
 0001:0005b130       ?Release@ArchiveTester@@WBA@EAAKXZ 000000006405c130 f i test.obj
 0001:0005b130       ?Release@ArchiveExtractor@@WBA@EAAKXZ 000000006405c130 f i extract.obj
 0001:0005b140       ?AddRef@ArchiveExtractor@@W7EAAKXZ 000000006405c140 f i extract.obj
 0001:0005b140       ?AddRef@ArchiveUpdater@@W7EAAKXZ 000000006405c140 f i update.obj
 0001:0005b140       ?AddRef@ArchiveTester@@W7EAAKXZ 000000006405c140 f i test.obj
 0001:0005b150       ?QueryInterface@ArchiveTester@@W7EAAJAEBU_GUID@@PEAPEAX@Z 000000006405c150 f i test.obj
 0001:0005b150       ?QueryInterface@ArchiveExtractor@@W7EAAJAEBU_GUID@@PEAPEAX@Z 000000006405c150 f i extract.obj
 0001:0005b160       ?AddRef@ArchiveTester@@WBA@EAAKXZ 000000006405c160 f i test.obj
 0001:0005b160       ?AddRef@ArchiveUpdater@@WBA@EAAKXZ 000000006405c160 f i update.obj
 0001:0005b160       ?AddRef@ArchiveExtractor@@WBA@EAAKXZ 000000006405c160 f i extract.obj
 0001:0005b170       ?calc_percent@@YAI_K0@Z    000000006405c170 f   common.obj
 0001:0005b1f0       ?parse_size_string@@YA_KAEBV?$basic_string@_WU?$char_traits@_W@std@@V?$allocator@_W@2@@std@@@Z 000000006405c1f0 f   common.obj
 0001:0005b330       ?expand_macros@@YA?AV?$basic_string@_WU?$char_traits@_W@std@@V?$allocator@_W@2@@std@@AEBV12@@Z 000000006405c330 f   common.obj
 0001:0005b620       ?load_file@@YA?AV?$basic_string@_WU?$char_traits@_W@std@@V?$allocator@_W@2@@std@@AEBV12@PEAI@Z 000000006405c620 f   common.obj
 0001:0005b960       ?auto_rename@@YA?AV?$basic_string@_WU?$char_traits@_W@std@@V?$allocator@_W@2@@std@@AEBV12@@Z 000000006405c960 f   common.obj
 0001:0005bb50       ?do_update_ui@AttachSfxModuleProgress@@EEAAXXZ 000000006405cb50 f i sfx.obj
 0001:0005bd30       ??0AttachSfxModuleProgress@@QEAA@AEBV?$basic_string@_WU?$char_traits@_W@std@@V?$allocator@_W@2@@std@@@Z 000000006405cd30 f i sfx.obj
 0001:0005be10       ??1AttachSfxModuleProgress@@UEAA@XZ 000000006405ce10 f i sfx.obj
 0001:0005be60       ?generate_install_config@@YA?AV?$vector@EV?$allocator@E@std@@@std@@AEBUSfxInstallConfig@@@Z 000000006405ce60 f   sfx.obj
 0001:0005c2b0       ?create_sfx_module@@YAXAEBV?$basic_string@_WU?$char_traits@_W@std@@V?$allocator@_W@2@@std@@AEBUSfxOptions@@@Z 000000006405d2b0 f   sfx.obj
 0001:0005c9b0       ?attach_sfx_module@@YAXAEBV?$basic_string@_WU?$char_traits@_W@std@@V?$allocator@_W@2@@std@@AEBUSfxOptions@@@Z 000000006405d9b0 f   sfx.obj
 0001:0005d5c0       ?set_control_state@SfxOptionsDialog@@AEAAXXZ 000000006405e5c0 f i sfx.obj
 0001:0005d920       ?read_controls@SfxOptionsDialog@@AEAA?AUSfxOptions@@XZ 000000006405e920 f i sfx.obj
 0001:0005e050       ?write_controls@SfxOptionsDialog@@AEAAXAEBUSfxOptions@@@Z 000000006405f050 f i sfx.obj
 0001:0005e4c0       ?dialog_proc@SfxOptionsDialog@@EEAA_J_J0PEAX@Z 000000006405f4c0 f i sfx.obj
 0001:0005e980       ??0SfxOptionsDialog@@QEAA@AEAUSfxOptions@@AEBUUpdateProfiles@@@Z 000000006405f980 f i sfx.obj
 0001:0005eaa0       ?show@SfxOptionsDialog@@QEAA_NXZ 000000006405faa0 f i sfx.obj
 0001:0005fcc0       ?sfx_options_dialog@@YA_NAEAUSfxOptions@@AEBUUpdateProfiles@@@Z 0000000064060cc0 f   sfx.obj
 0001:0005fd80       ??1SfxOptionsDialog@@QEAA@XZ 0000000064060d80 f i sfx.obj
 0001:0005fe00       ?clear@?$vector@V?$basic_string@_WU?$char_traits@_W@std@@V?$allocator@_W@2@@std@@V?$allocator@V?$basic_string@_WU?$char_traits@_W@std@@V?$allocator@_W@2@@std@@@2@@std@@QEAAXXZ 0000000064060e00 f i sfx.obj
 0001:0005fe90       ??1?$vector@USfxProfile@@V?$allocator@USfxProfile@@@std@@@std@@QEAA@XZ 0000000064060e90 f i sfx.obj
 0001:0005fed0       ?push_back@?$vector@USfxProfile@@V?$allocator@USfxProfile@@@std@@@std@@QEAAXAEBUSfxProfile@@@Z 0000000064060ed0 f i sfx.obj
 0001:00060000       ?_Reserve@?$vector@USfxProfile@@V?$allocator@USfxProfile@@@std@@@std@@IEAAX_K@Z 0000000064061000 f i sfx.obj
 0001:000600c0       ?reserve@?$vector@USfxProfile@@V?$allocator@USfxProfile@@@std@@@std@@QEAAX_K@Z 00000000640610c0 f i sfx.obj
 0001:00060210       ??$_Construct@V?$_String_iterator@DU?$char_traits@D@std@@V?$allocator@D@2@@std@@@?$vector@EV?$allocator@E@std@@@std@@QEAAXV?$_String_iterator@DU?$char_traits@D@std@@V?$allocator@D@2@@1@0Uinput_iterator_tag@1@@Z 0000000064061210 f i sfx.obj
 0001:00060240       ??$_For_each@PEBUUpdateProfile@@V<lambda0>@?A0x0c4375f2@@@std@@YA?AV<lambda0>@?A0x0c4375f2@@PEBUUpdateProfile@@0V12@@Z 0000000064061240 f i sfx.obj
 0001:00060410       ??$_Destroy_range@V?$allocator@USfxProfile@@@std@@@std@@YAXPEAUSfxProfile@@0AEAV?$allocator@USfxProfile@@@0@U_Nonscalar_ptr_iterator_tag@0@@Z 0000000064061410 f i sfx.obj
 0001:000604d0       ??$_Uninit_move@PEAUSfxProfile@@PEAU1@V?$allocator@USfxProfile@@@std@@U1@@std@@YAPEAUSfxProfile@@PEAU1@00AEAV?$allocator@USfxProfile@@@0@0U_Nonscalar_ptr_iterator_tag@0@@Z 00000000640614d0 f i sfx.obj
 0001:00060570       ??$_Dest_val@V?$allocator@USfxProfile@@@std@@USfxProfile@@@std@@YAXAEAV?$allocator@USfxProfile@@@0@PEAUSfxProfile@@@Z 0000000064061570 f i sfx.obj
 0001:00060570       ??1SfxProfile@@QEAA@XZ     0000000064061570 f i sfx.obj
 0001:000605b0       ??$_Insert@V?$_String_iterator@DU?$char_traits@D@std@@V?$allocator@D@2@@std@@@?$vector@EV?$allocator@E@std@@@std@@QEAAXV?$_Vector_const_iterator@V?$_Vector_val@EV?$allocator@E@std@@@std@@@1@V?$_String_iterator@DU?$char_traits@D@std@@V?$allocator@D@2@@1@1Uforward_iterator_tag@1@@Z 00000000640615b0 f i sfx.obj
 0001:000606f0       ?lc@@YA?AV?$basic_string@_WU?$char_traits@_W@std@@V?$allocator@_W@2@@std@@AEBV12@@Z 00000000640616f0 f   cmdline.obj
 0001:00060880       ?parse_command@@YA?AUCommandArgs@@AEBV?$basic_string@_WU?$char_traits@_W@std@@V?$allocator@_W@2@@std@@@Z 0000000064061880 f   cmdline.obj
 0001:00060e40       ?parse_param@@YA?AUParam@@AEBV?$basic_string@_WU?$char_traits@_W@std@@V?$allocator@_W@2@@std@@@Z 0000000064061e40 f   cmdline.obj
 0001:00061010       ?parse_bool_value@@YA_NAEBV?$basic_string@_WU?$char_traits@_W@std@@V?$allocator@_W@2@@std@@@Z 0000000064062010 f   cmdline.obj
 0001:000611d0       ?parse_tri_state_value@@YA?AW4TriState@@AEBV?$basic_string@_WU?$char_traits@_W@std@@V?$allocator@_W@2@@std@@@Z 00000000640621d0 f   cmdline.obj
 0001:00061410       ?parse_listfile@@YA?AV?$list@V?$basic_string@_WU?$char_traits@_W@std@@V?$allocator@_W@2@@std@@V?$allocator@V?$basic_string@_WU?$char_traits@_W@std@@V?$allocator@_W@2@@std@@@2@@std@@AEBV?$basic_string@_WU?$char_traits@_W@std@@V?$allocator@_W@2@@2@@Z 0000000064062410 f   cmdline.obj
 0001:000615c0       ?parse_open_command@@YA?AUOpenCommand@@AEBUCommandArgs@@@Z 00000000640625c0 f   cmdline.obj
 0001:00061d20       ?parse_update_command@@YA?AUUpdateCommand@@AEBUCommandArgs@@@Z 0000000064062d20 f   cmdline.obj
 0001:00063290       ??0UpdateCommand@@QEAA@XZ  0000000064064290 f i cmdline.obj
 0001:00063320       ?parse_extract_command@@YA?AUExtractCommand@@AEBUCommandArgs@@@Z 0000000064064320 f   cmdline.obj
 0001:00063eb0       ?parse_test_command@@YA?AUTestCommand@@AEBUCommandArgs@@@Z 0000000064064eb0 f   cmdline.obj
 0001:00064090       ??0?$vector@V?$basic_string@_WU?$char_traits@_W@std@@V?$allocator@_W@2@@std@@V?$allocator@V?$basic_string@_WU?$char_traits@_W@std@@V?$allocator@_W@2@@std@@@2@@std@@QEAA@AEBV01@@Z 0000000064065090 f i cmdline.obj
 0001:00064150       ??$_Find@PEAPEB_WV?$basic_string@_WU?$char_traits@_W@std@@V?$allocator@_W@2@@std@@@std@@YAPEAPEB_WPEAPEB_W0AEBV?$basic_string@_WU?$char_traits@_W@std@@V?$allocator@_W@2@@0@@Z 0000000064065150 f i cmdline.obj
 0001:00064250       ??$_Uninit_copy@V?$_Vector_const_iterator@V?$_Vector_val@V?$basic_string@_WU?$char_traits@_W@std@@V?$allocator@_W@2@@std@@V?$allocator@V?$basic_string@_WU?$char_traits@_W@std@@V?$allocator@_W@2@@std@@@2@@std@@@std@@PEAV?$basic_string@_WU?$char_traits@_W@std@@V?$allocator@_W@2@@2@V?$allocator@V?$basic_string@_WU?$char_traits@_W@std@@V?$allocator@_W@2@@std@@@2@@std@@YAPEAV?$basic_string@_WU?$char_traits@_W@std@@V?$allocator@_W@2@@0@V?$_Vector_const_iterator@V?$_Vector_val@V?$basic_string@_WU?$char_traits@_W@std@@V?$allocator@_W@2@@std@@V?$allocator@V?$basic_string@_WU?$char_traits@_W@std@@V?$allocator@_W@2@@std@@@2@@std@@@0@0PEAV10@AEAV?$allocator@V?$basic_string@_WU?$char_traits@_W@std@@V?$allocator@_W@2@@std@@@0@U_Nonscalar_ptr_iterator_tag@0@@Z 0000000064065250 f i cmdline.obj
 0001:000642e0       ??BRsrcId@@QEBAPEB_WXZ     00000000640652e0 f i rsrc.obj
 0001:00064300       ?load_icon_file@@YA?AV?$list@UIconImage@@V?$allocator@UIconImage@@@std@@@std@@AEBV?$basic_string@_WU?$char_traits@_W@std@@V?$allocator@_W@2@@2@@Z 0000000064065300 f   rsrc.obj
 0001:00064ac0       ??1IconImage@@QEAA@XZ      0000000064065ac0 f i rsrc.obj
 0001:00064af0       ?load_icon_rsrc@@YA?AUIconRsrc@@PEAUHINSTANCE__@@PEB_WG@Z 0000000064065af0 f   rsrc.obj
 0001:00064ed0       ??1IconRsrc@@QEAA@XZ       0000000064065ed0 f i rsrc.obj
 0001:00064f20       ??1IconImageRsrc@@QEAA@XZ  0000000064065f20 f i rsrc.obj
 0001:00064f50       ??0IconRsrc@@QEAA@AEBU0@@Z 0000000064065f50 f i rsrc.obj
 0001:00064fc0       ?enum_names_proc@@YAHPEAUHINSTANCE__@@PEB_WPEA_W_J@Z 0000000064065fc0 f   rsrc.obj
 0001:000650c0       ?enum_rsrc_names@@YA?AV?$list@VRsrcId@@V?$allocator@VRsrcId@@@std@@@std@@PEAUHINSTANCE__@@PEB_W@Z 00000000640660c0 f   rsrc.obj
 0001:00065110       ?enum_langs_proc@@YAHPEAUHINSTANCE__@@PEB_W1G_J@Z 0000000064066110 f   rsrc.obj
 0001:00065190       ?enum_rsrc_langs@@YA?AV?$list@GV?$allocator@G@std@@@std@@PEAUHINSTANCE__@@PEB_W1@Z 0000000064066190 f   rsrc.obj
 0001:000651f0       ??1RsrcModule@@QEAA@XZ     00000000640661f0 f i rsrc.obj
 0001:00065220       ??0ResourceUpdate@@QEAA@AEBV?$basic_string@_WU?$char_traits@_W@std@@V?$allocator@_W@2@@std@@@Z 0000000064066220 f i rsrc.obj
 0001:000652a0       ??1ResourceUpdate@@QEAA@XZ 00000000640662a0 f i rsrc.obj
 0001:000652c0       ?replace_icon@@YAXAEBV?$basic_string@_WU?$char_traits@_W@std@@V?$allocator@_W@2@@std@@0@Z 00000000640662c0 f   rsrc.obj
 0001:000658e0       ?replace_ver_info@@YAXAEBV?$basic_string@_WU?$char_traits@_W@std@@V?$allocator@_W@2@@std@@AEBUSfxVersionInfo@@@Z 00000000640668e0 f   rsrc.obj
 0001:000668b0       ??R<lambda10>@?A0xc4c5a11d@@QEBAXAEBU?$pair@V?$basic_string@_WU?$char_traits@_W@std@@V?$allocator@_W@2@@std@@V12@@std@@@Z 00000000640678b0 f i rsrc.obj
 0001:00066a00       ??1CacheRecord@FileWriteCache@@QEAA@XZ 0000000064067a00 f i extract.obj
 0001:00066a00       ??1SfxModule@@QEAA@XZ      0000000064067a00 f i archive.obj
 0001:00066a00       ??1?$basic_string@_WU?$char_traits@_W@std@@V?$allocator@_W@2@@std@@QEAA@XZ 0000000064067a00 f i archive.obj
 0001:00066a00       ??$_Dest_val@V?$allocator@V?$basic_string@_WU?$char_traits@_W@std@@V?$allocator@_W@2@@std@@@std@@V?$basic_string@_WU?$char_traits@_W@std@@V?$allocator@_W@2@@2@@std@@YAXAEAV?$allocator@V?$basic_string@_WU?$char_traits@_W@std@@V?$allocator@_W@2@@std@@@0@PEAV?$basic_string@_WU?$char_traits@_W@std@@V?$allocator@_W@2@@0@@Z 0000000064067a00 f i plugin.obj
 0001:00066a00       ??1IdLang@@QEAA@XZ         0000000064067a00 f i rsrc.obj
 0001:00066a00       ??1FileIndexInfo@@QEAA@XZ  0000000064067a00 f i update.obj
 0001:00066a00       ??1RsrcId@@QEAA@XZ         0000000064067a00 f i rsrc.obj
 0001:00066a30       ??6?$basic_ostream@_WU?$char_traits@_W@std@@@std@@QEAAAEAV01@G@Z 0000000064067a30 f i rsrc.obj
 0001:00066c10       ??1?$list@UIconImage@@V?$allocator@UIconImage@@@std@@@std@@QEAA@XZ 0000000064067c10 f i rsrc.obj
 0001:00066c30       ??0?$list@UIconImageRsrc@@V?$allocator@UIconImageRsrc@@@std@@@std@@QEAA@AEBV01@@Z 0000000064067c30 f i rsrc.obj
 0001:00066cd0       ??1?$list@IV?$allocator@I@std@@@std@@QEAA@XZ 0000000064067cd0 f i extract.obj
 0001:00066cd0       ??1?$list@GV?$allocator@G@std@@@std@@QEAA@XZ 0000000064067cd0 f i rsrc.obj
 0001:00066d30       ??1?$list@UIconRsrc@@V?$allocator@UIconRsrc@@@std@@@std@@QEAA@XZ 0000000064067d30 f i rsrc.obj
 0001:00066d50       ??A?$map@V?$basic_string@_WU?$char_traits@_W@std@@V?$allocator@_W@2@@std@@V12@U?$less@V?$basic_string@_WU?$char_traits@_W@std@@V?$allocator@_W@2@@std@@@2@V?$allocator@U?$pair@$$CBV?$basic_string@_WU?$char_traits@_W@std@@V?$allocator@_W@2@@std@@V12@@std@@@2@@std@@QEAAAEAV?$basic_string@_WU?$char_traits@_W@std@@V?$allocator@_W@2@@1@AEBV21@@Z 0000000064067d50 f i rsrc.obj
 0001:00066ea0       ?_Insert_n@?$vector@EV?$allocator@E@std@@@std@@IEAAXV?$_Vector_const_iterator@V?$_Vector_val@EV?$allocator@E@std@@@std@@@2@_KAEBE@Z 0000000064067ea0 f i rsrc.obj
 0001:000670a0       ??0?$_List_val@UIconImageRsrc@@V?$allocator@UIconImageRsrc@@@std@@@std@@QEAA@V?$allocator@UIconImageRsrc@@@1@@Z 00000000640680a0 f i rsrc.obj
 0001:000670a0       ??0?$_List_val@VRsrcId@@V?$allocator@VRsrcId@@@std@@@std@@QEAA@V?$allocator@VRsrcId@@@1@@Z 00000000640680a0 f i rsrc.obj
 0001:000670a0       ??0?$list@UError@@V?$allocator@UError@@@std@@@std@@QEAA@XZ 00000000640680a0 f i plugin.obj
 0001:00067110       ??1?$_List_val@V?$basic_string@_WU?$char_traits@_W@std@@V?$allocator@_W@2@@std@@V?$allocator@V?$basic_string@_WU?$char_traits@_W@std@@V?$allocator@_W@2@@std@@@2@@std@@QEAA@XZ 0000000064068110 f i archive.obj
 0001:00067110       ??1?$_List_val@UAttr@@V?$allocator@UAttr@@@std@@@std@@QEAA@XZ 0000000064068110 f i plugin.obj
 0001:00067110       ??1?$_List_val@V?$vector@EV?$allocator@E@std@@@std@@V?$allocator@V?$vector@EV?$allocator@E@std@@@std@@@2@@std@@QEAA@XZ 0000000064068110 f i archive.obj
 0001:00067110       ??1?$_List_val@UIconImageRsrc@@V?$allocator@UIconImageRsrc@@@std@@@std@@QEAA@XZ 0000000064068110 f i rsrc.obj
 0001:00067120       ??0?$_List_val@GV?$allocator@G@std@@@std@@QEAA@V?$allocator@G@1@@Z 0000000064068120 f i rsrc.obj
 0001:00067190       ?clear@?$list@UIconImage@@V?$allocator@UIconImage@@@std@@@std@@QEAAXXZ 0000000064068190 f i rsrc.obj
 0001:00067210       ?_Buynode@?$_List_val@UIconImage@@V?$allocator@UIconImage@@@std@@@std@@QEAAPEAU_Node@?$_List_nod@UIconImage@@V?$allocator@UIconImage@@@std@@@2@PEAU342@0AEBUIconImage@@@Z 0000000064068210 f i rsrc.obj
 0001:00067300       ?clear@?$list@UIconImageRsrc@@V?$allocator@UIconImageRsrc@@@std@@@std@@QEAAXXZ 0000000064068300 f i rsrc.obj
 0001:00067380       ?_Buynode@?$_List_val@UIconImageRsrc@@V?$allocator@UIconImageRsrc@@@std@@@std@@QEAAPEAU_Node@?$_List_nod@UIconImageRsrc@@V?$allocator@UIconImageRsrc@@@std@@@2@PEAU342@0AEBUIconImageRsrc@@@Z 0000000064068380 f i rsrc.obj
 0001:00067480       ?_Buynode@?$_List_val@VRsrcId@@V?$allocator@VRsrcId@@@std@@@std@@QEAAPEAU_Node@?$_List_nod@VRsrcId@@V?$allocator@VRsrcId@@@std@@@2@PEAU342@0AEBVRsrcId@@@Z 0000000064068480 f i rsrc.obj
 0001:00067550       ?_Buynode@?$_List_val@GV?$allocator@G@std@@@std@@QEAAPEAU_Node@?$_List_nod@GV?$allocator@G@std@@@2@PEAU342@0AEBG@Z 0000000064068550 f i rsrc.obj
 0001:000675f0       ?clear@?$list@UIconRsrc@@V?$allocator@UIconRsrc@@@std@@@std@@QEAAXXZ 00000000640685f0 f i rsrc.obj
 0001:000676e0       ?_Buynode@?$_List_val@UIdLang@@V?$allocator@UIdLang@@@std@@@std@@QEAAPEAU_Node@?$_List_nod@UIdLang@@V?$allocator@UIdLang@@@std@@@2@PEAU342@0AEBUIdLang@@@Z 00000000640686e0 f i rsrc.obj
 0001:000677c0       ??$_For_each@V?$_List_unchecked_const_iterator@V?$_List_val@VRsrcId@@V?$allocator@VRsrcId@@@std@@@std@@U_Iterator_base0@2@@std@@V<lambda0>@?A0xc4c5a11d@@@std@@YA?AV<lambda0>@?A0xc4c5a11d@@V?$_List_unchecked_const_iterator@V?$_List_val@VRsrcId@@V?$allocator@VRsrcId@@@std@@@std@@U_Iterator_base0@2@@0@0V12@@Z 00000000640687c0 f i rsrc.obj
 0001:00067900       ??$_For_each@V?$_List_unchecked_const_iterator@V?$_List_val@UIconRsrc@@V?$allocator@UIconRsrc@@@std@@@std@@U_Iterator_base0@2@@std@@V<lambda1>@?A0xc4c5a11d@@@std@@YA?AV<lambda1>@?A0xc4c5a11d@@V?$_List_unchecked_const_iterator@V?$_List_val@UIconRsrc@@V?$allocator@UIconRsrc@@@std@@@std@@U_Iterator_base0@2@@0@0V12@@Z 0000000064068900 f i rsrc.obj
 0001:00067a60       ??$_For_each@V?$_List_unchecked_const_iterator@V?$_List_val@UIconImage@@V?$allocator@UIconImage@@@std@@@std@@U_Iterator_base0@2@@std@@V<lambda2>@?A0xc4c5a11d@@@std@@YA?AV<lambda2>@?A0xc4c5a11d@@V?$_List_unchecked_const_iterator@V?$_List_val@UIconImage@@V?$allocator@UIconImage@@@std@@@std@@U_Iterator_base0@2@@0@0V12@@Z 0000000064068a60 f i rsrc.obj
 0001:00067bb0       ??$_For_each@V?$_List_unchecked_iterator@V?$_List_val@UIconRsrc@@V?$allocator@UIconRsrc@@@std@@@std@@@std@@V<lambda3>@?A0xc4c5a11d@@@std@@YA?AV<lambda3>@?A0xc4c5a11d@@V?$_List_unchecked_iterator@V?$_List_val@UIconRsrc@@V?$allocator@UIconRsrc@@@std@@@std@@@0@0V12@@Z 0000000064068bb0 f i rsrc.obj
 0001:00067cc0       ??$_For_each@V?$_List_unchecked_const_iterator@V?$_List_val@UIconRsrc@@V?$allocator@UIconRsrc@@@std@@@std@@U_Iterator_base0@2@@std@@V<lambda4>@?A0xc4c5a11d@@@std@@YA?AV<lambda4>@?A0xc4c5a11d@@V?$_List_unchecked_const_iterator@V?$_List_val@UIconRsrc@@V?$allocator@UIconRsrc@@@std@@@std@@U_Iterator_base0@2@@0@0V12@@Z 0000000064068cc0 f i rsrc.obj
 0001:00067ea0       ??$_For_each@V?$_List_unchecked_const_iterator@V?$_List_val@GV?$allocator@G@std@@@std@@U_Iterator_base0@2@@std@@V<lambda5>@?A0xc4c5a11d@@@std@@YA?AV<lambda5>@?A0xc4c5a11d@@V?$_List_unchecked_const_iterator@V?$_List_val@GV?$allocator@G@std@@@std@@U_Iterator_base0@2@@0@0V12@@Z 0000000064068ea0 f i rsrc.obj
 0001:00068050       ??$_For_each@V?$_List_unchecked_const_iterator@V?$_List_val@UIconImageRsrc@@V?$allocator@UIconImageRsrc@@@std@@@std@@U_Iterator_base0@2@@std@@V<lambda6>@?A0xc4c5a11d@@@std@@YA?AV<lambda6>@?A0xc4c5a11d@@V?$_List_unchecked_const_iterator@V?$_List_val@UIconImageRsrc@@V?$allocator@UIconImageRsrc@@@std@@@std@@U_Iterator_base0@2@@0@0V12@@Z 0000000064069050 f i rsrc.obj
 0001:00068180       ??$_For_each@V?$_List_unchecked_const_iterator@V?$_List_val@UIconImageRsrc@@V?$allocator@UIconImageRsrc@@@std@@@std@@U_Iterator_base0@2@@std@@V<lambda8>@?A0xc4c5a11d@@@std@@YA?AV<lambda8>@?A0xc4c5a11d@@V?$_List_unchecked_const_iterator@V?$_List_val@UIconImageRsrc@@V?$allocator@UIconImageRsrc@@@std@@@std@@U_Iterator_base0@2@@0@0V12@@Z 0000000064069180 f i rsrc.obj
 0001:00068320       ??$_For_each@V?$_List_unchecked_iterator@V?$_List_val@VRsrcId@@V?$allocator@VRsrcId@@@std@@@std@@@std@@V<lambda9>@?A0xc4c5a11d@@@std@@YA?AV<lambda9>@?A0xc4c5a11d@@V?$_List_unchecked_iterator@V?$_List_val@VRsrcId@@V?$allocator@VRsrcId@@@std@@@std@@@0@0V12@@Z 0000000064069320 f i rsrc.obj
 0001:00068460       ??$_For_each@V?$_Tree_unchecked_const_iterator@V?$_Tree_val@V?$_Tmap_traits@V?$basic_string@_WU?$char_traits@_W@std@@V?$allocator@_W@2@@std@@V12@U?$less@V?$basic_string@_WU?$char_traits@_W@std@@V?$allocator@_W@2@@std@@@2@V?$allocator@U?$pair@$$CBV?$basic_string@_WU?$char_traits@_W@std@@V?$allocator@_W@2@@std@@V12@@std@@@2@$0A@@std@@@std@@U_Iterator_base0@2@@std@@V<lambda10>@?A0xc4c5a11d@@@std@@YA?AV<lambda10>@?A0xc4c5a11d@@V?$_Tree_unchecked_const_iterator@V?$_Tree_val@V?$_Tmap_traits@V?$basic_string@_WU?$char_traits@_W@std@@V?$allocator@_W@2@@std@@V12@U?$less@V?$basic_string@_WU?$char_traits@_W@std@@V?$allocator@_W@2@@std@@@2@V?$allocator@U?$pair@$$CBV?$basic_string@_WU?$char_traits@_W@std@@V?$allocator@_W@2@@std@@V12@@std@@@2@$0A@@std@@@std@@U_Iterator_base0@2@@0@0V12@@Z 0000000064069460 f i rsrc.obj
 0001:000685d0       ??$_For_each@V?$_List_unchecked_const_iterator@V?$_List_val@UIdLang@@V?$allocator@UIdLang@@@std@@@std@@U_Iterator_base0@2@@std@@V<lambda11>@?A0xc4c5a11d@@@std@@YA?AV<lambda11>@?A0xc4c5a11d@@V?$_List_unchecked_const_iterator@V?$_List_val@UIdLang@@V?$allocator@UIdLang@@@std@@@std@@U_Iterator_base0@2@@0@0V12@@Z 00000000640695d0 f i rsrc.obj
 0001:00068710       ??$_For_each@V?$_List_unchecked_iterator@V?$_List_val@GV?$allocator@G@std@@@std@@@std@@V<lambda12>@?A0xc4c5a11d@@@std@@YA?AV<lambda12>@?A0xc4c5a11d@@V?$_List_unchecked_iterator@V?$_List_val@GV?$allocator@G@std@@@std@@@0@0V12@@Z 0000000064069710 f i rsrc.obj
 0001:00068860       ??$_Insert@V?$_List_const_iterator@V?$_List_val@UIconImageRsrc@@V?$allocator@UIconImageRsrc@@@std@@@std@@@std@@@?$list@UIconImageRsrc@@V?$allocator@UIconImageRsrc@@@std@@@std@@QEAAXV?$_List_const_iterator@V?$_List_val@UIconImageRsrc@@V?$allocator@UIconImageRsrc@@@std@@@std@@@1@00Uforward_iterator_tag@1@@Z 0000000064069860 f i rsrc.obj
 0001:00068910       ?_Buynode@?$_List_val@UIconRsrc@@V?$allocator@UIconRsrc@@@std@@@std@@QEAAPEAU_Node@?$_List_nod@UIconRsrc@@V?$allocator@UIconRsrc@@@std@@@2@PEAU342@0AEBUIconRsrc@@@Z 0000000064069910 f i rsrc.obj
 0001:00068910       ??$_Buynode@UIconRsrc@@@?$_List_val@UIconRsrc@@V?$allocator@UIconRsrc@@@std@@@std@@QEAAPEAU_Node@?$_List_nod@UIconRsrc@@V?$allocator@UIconRsrc@@@std@@@1@PEAU231@0$$QEAUIconRsrc@@@Z 0000000064069910 f i rsrc.obj
 0001:000689d0       ??$_Buynode@U?$pair@$$CBV?$basic_string@_WU?$char_traits@_W@std@@V?$allocator@_W@2@@std@@V12@@std@@@?$_Tree_val@V?$_Tmap_traits@V?$basic_string@_WU?$char_traits@_W@std@@V?$allocator@_W@2@@std@@V12@U?$less@V?$basic_string@_WU?$char_traits@_W@std@@V?$allocator@_W@2@@std@@@2@V?$allocator@U?$pair@$$CBV?$basic_string@_WU?$char_traits@_W@std@@V?$allocator@_W@2@@std@@V12@@std@@@2@$0A@@std@@@std@@QEAAPEAU_Node@?$_Tree_nod@V?$_Tmap_traits@V?$basic_string@_WU?$char_traits@_W@std@@V?$allocator@_W@2@@std@@V12@U?$less@V?$basic_string@_WU?$char_traits@_W@std@@V?$allocator@_W@2@@std@@@2@V?$allocator@U?$pair@$$CBV?$basic_string@_WU?$char_traits@_W@std@@V?$allocator@_W@2@@std@@V12@@std@@@2@$0A@@std@@@1@$$QEAU?$pair@$$CBV?$basic_string@_WU?$char_traits@_W@std@@V?$allocator@_W@2@@std@@V12@@1@@Z 00000000640699d0 f i rsrc.obj
 0001:00068a20       ??$?0$$CBV?$basic_string@_WU?$char_traits@_W@std@@V?$allocator@_W@2@@std@@V01@@?$pair@$$CBV?$basic_string@_WU?$char_traits@_W@std@@V?$allocator@_W@2@@std@@V12@@std@@QEAA@$$QEAU01@@Z 0000000064069a20 f i rsrc.obj
 0001:00068aa0       ?dialog_proc@Dialog@Far@@MEAA_J_J0PEAX@Z 0000000064069aa0 f i farutils.obj
 0001:00068ab0       ?get_plugin_module_path@Far@@YA?AV?$basic_string@_WU?$char_traits@_W@std@@V?$allocator@_W@2@@std@@XZ 0000000064069ab0 f   farutils.obj
 0001:00068b50       ?get_msg@Far@@YA?AV?$basic_string@_WU?$char_traits@_W@std@@V?$allocator@_W@2@@std@@H@Z 0000000064069b50 f   farutils.obj
 0001:00068bb0       ?get_optimal_msg_width@Far@@YAIXZ 0000000064069bb0 f   farutils.obj
 0001:00068c00       ?menu@Far@@YA_JAEBU_GUID@@AEBV?$basic_string@_WU?$char_traits@_W@std@@V?$allocator@_W@2@@std@@AEBVMenuItems@1@PEB_W@Z 0000000064069c00 f   farutils.obj
 0001:00068ee0       ?get_progress_bar_str@Far@@YA?AV?$basic_string@_WU?$char_traits@_W@std@@V?$allocator@_W@2@@std@@I_K0@Z 0000000064069ee0 f   farutils.obj
 0001:00068fa0       ?post_macro@Far@@YA_NAEBV?$basic_string@_WU?$char_traits@_W@std@@V?$allocator@_W@2@@std@@@Z 0000000064069fa0 f   farutils.obj
 0001:00069020       ?get_panel_dir@Far@@YA?AV?$basic_string@_WU?$char_traits@_W@std@@V?$allocator@_W@2@@std@@PEAX@Z 000000006406a020 f   farutils.obj
 0001:000691e0       ?get_panel_item@Far@@YAXPEAXW4FILE_CONTROL_COMMANDS@@_KAEAV?$Buffer@E@@@Z 000000006406a1e0 f   farutils.obj
 0001:00069330       ?get_panel_item@Far@@YA?AUPanelItem@1@PEAXW4FILE_CONTROL_COMMANDS@@_K@Z 000000006406a330 f   farutils.obj
 0001:00069460       ?get_current_panel_item@Far@@YA?AUPanelItem@1@PEAX@Z 000000006406a460 f   farutils.obj
 0001:00069490       ?get_selected_panel_item@Far@@YA?AUPanelItem@1@PEAX_K@Z 000000006406a490 f   farutils.obj
 0001:000694c0       ?error_dlg@Far@@YAXAEBV?$basic_string@_WU?$char_traits@_W@std@@V?$allocator@_W@2@@std@@AEBUError@@@Z 000000006406a4c0 f   farutils.obj
 0001:00069880       ?info_dlg@Far@@YAXAEBU_GUID@@AEBV?$basic_string@_WU?$char_traits@_W@std@@V?$allocator@_W@2@@std@@1@Z 000000006406a880 f   farutils.obj
 0001:00069970       ?input_dlg@Far@@YA_NAEBU_GUID@@AEBV?$basic_string@_WU?$char_traits@_W@std@@V?$allocator@_W@2@@std@@1AEAV34@_K@Z 000000006406a970 f   farutils.obj
 0001:00069a90       ?frame@Dialog@Far@@AEAAXAEBV?$basic_string@_WU?$char_traits@_W@std@@V?$allocator@_W@2@@std@@@Z 000000006406aa90 f   farutils.obj
 0001:00069c10       ?internal_dialog_proc@Dialog@Far@@CA_JPEAX_J10@Z 000000006406ac10 f   farutils.obj
 0001:00069cb0       ?separator@Dialog@Far@@QEAAIXZ 000000006406acb0 f   farutils.obj
 0001:00069d20       ?separator@Dialog@Far@@QEAAIAEBV?$basic_string@_WU?$char_traits@_W@std@@V?$allocator@_W@2@@std@@@Z 000000006406ad20 f   farutils.obj
 0001:00069eb0       ?label@Dialog@Far@@QEAAIAEBV?$basic_string@_WU?$char_traits@_W@std@@V?$allocator@_W@2@@std@@_K1@Z 000000006406aeb0 f   farutils.obj
 0001:0006a0c0       ?edit_box@Dialog@Far@@QEAAIAEBV?$basic_string@_WU?$char_traits@_W@std@@V?$allocator@_W@2@@std@@_K1@Z 000000006406b0c0 f   farutils.obj
 0001:0006a290       ?pwd_edit_box@Dialog@Far@@QEAAIAEBV?$basic_string@_WU?$char_traits@_W@std@@V?$allocator@_W@2@@std@@_K1@Z 000000006406b290 f   farutils.obj
 0001:0006a450       ?button@Dialog@Far@@QEAAIAEBV?$basic_string@_WU?$char_traits@_W@std@@V?$allocator@_W@2@@std@@_K@Z 000000006406b450 f   farutils.obj
 0001:0006a630       ?check_box@Dialog@Far@@QEAAIAEBV?$basic_string@_WU?$char_traits@_W@std@@V?$allocator@_W@2@@std@@H_K@Z 000000006406b630 f   farutils.obj
 0001:0006a830       ?radio_button@Dialog@Far@@QEAAIAEBV?$basic_string@_WU?$char_traits@_W@std@@V?$allocator@_W@2@@std@@_N_K@Z 000000006406b830 f   farutils.obj
 0001:0006aa40       ?combo_box@Dialog@Far@@QEAAIAEBV?$vector@V?$basic_string@_WU?$char_traits@_W@std@@V?$allocator@_W@2@@std@@V?$allocator@V?$basic_string@_WU?$char_traits@_W@std@@V?$allocator@_W@2@@std@@@2@@std@@_K11@Z 000000006406ba40 f   farutils.obj
 0001:0006ad00       ?show@Dialog@Far@@QEAA_JXZ 000000006406bd00 f   farutils.obj
 0001:0006b150       ?get_text@Dialog@Far@@QEBA?AV?$basic_string@_WU?$char_traits@_W@std@@V?$allocator@_W@2@@std@@I@Z 000000006406c150 f   farutils.obj
 0001:0006b250       ?set_list_pos@Dialog@Far@@QEAAXI_K@Z 000000006406c250 f   farutils.obj
 0001:0006b2b0       ?get_absolute_path@Far@@YA?AV?$basic_string@_WU?$char_traits@_W@std@@V?$allocator@_W@2@@std@@AEBV23@@Z 000000006406c2b0 f   farutils.obj
 0001:0006b3d0       ?panel_go_to_dir@Far@@YA_NPEAXAEBV?$basic_string@_WU?$char_traits@_W@std@@V?$allocator@_W@2@@std@@@Z 000000006406c3d0 f   farutils.obj
 0001:0006b450       ?panel_go_to_file@Far@@YA_NPEAXAEBV?$basic_string@_WU?$char_traits@_W@std@@V?$allocator@_W@2@@std@@@Z 000000006406c450 f   farutils.obj
 0001:0006b7d0       ?get_lang_id@Far@@YAKXZ    000000006406c7d0 f   farutils.obj
 0001:0006b8b0       ??1OptionsKey@@QEAA@XZ     000000006406c8b0 f   options.obj
 0001:0006b8b0       ??1Settings@Far@@QEAA@XZ   000000006406c8b0 f   farutils.obj
 0001:0006b8f0       ?create@Settings@Far@@QEAA_N_N@Z 000000006406c8f0 f   farutils.obj
 0001:0006b9c0       ?set_dir@Settings@Far@@QEAA_NAEBV?$basic_string@_WU?$char_traits@_W@std@@V?$allocator@_W@2@@std@@@Z 000000006406c9c0 f   farutils.obj
 0001:0006bb50       ?list_dir@Settings@Far@@QEAA_NAEAV?$vector@V?$basic_string@_WU?$char_traits@_W@std@@V?$allocator@_W@2@@std@@V?$allocator@V?$basic_string@_WU?$char_traits@_W@std@@V?$allocator@_W@2@@std@@@2@@std@@@Z 000000006406cb50 f   farutils.obj
 0001:0006bc80       ?get@Settings@Far@@QEAA_N_KPEB_WAEAV?$vector@EV?$allocator@E@std@@@std@@@Z 000000006406cc80 f   farutils.obj
 0001:0006bd60       ?shrink_to_fit@?$vector@V?$basic_string@_WU?$char_traits@_W@std@@V?$allocator@_W@2@@std@@V?$allocator@V?$basic_string@_WU?$char_traits@_W@std@@V?$allocator@_W@2@@std@@@2@@std@@QEAAXXZ 000000006406cd60 f i farutils.obj
 0001:0006be80       ?reserve@?$vector@UFarMenuItem@@V?$allocator@UFarMenuItem@@@std@@@std@@QEAAX_K@Z 000000006406ce80 f i farutils.obj
 0001:0006bfc0       ??1?$unique_ptr@$$BY0A@EU?$default_delete@$$BY0A@E@std@@@std@@QEAA@XZ 000000006406cfc0 f i farutils.obj
 0001:0006bfc0       ??1?$Buffer@UFarListItem@@@@QEAA@XZ 000000006406cfc0 f i farutils.obj
 0001:0006bfc0       ??1?$Buffer@UFarDialogItem@@@@QEAA@XZ 000000006406cfc0 f i farutils.obj
 0001:0006bfc0       ??1?$Buffer@E@@QEAA@XZ     000000006406cfc0 f i plugin.obj
 0001:0006bfc0       ??1?$unique_ptr@$$BY0A@UPluginPanelItem@@U?$default_delete@$$BY0A@UPluginPanelItem@@@std@@@std@@QEAA@XZ 000000006406cfc0 f i plugin.obj
 0001:0006bfc0       ??1?$Buffer@D@@QEAA@XZ     000000006406cfc0 f i archive.obj
 0001:0006bfc0       ??1?$Buffer@UFarList@@@@QEAA@XZ 000000006406cfc0 f i farutils.obj
 0001:0006bfc0       ??1?$Buffer@_W@@QEAA@XZ    000000006406cfc0 f i farutils.obj
 0001:0006bfd0       ?_Reserve@?$vector@UDialogItem@Far@@V?$allocator@UDialogItem@Far@@@std@@@std@@IEAAX_K@Z 000000006406cfd0 f i farutils.obj
 0001:0006c090       ?_Reserve@?$vector@UFarMenuItem@@V?$allocator@UFarMenuItem@@@std@@@std@@IEAAX_K@Z 000000006406d090 f i farutils.obj
 0001:0006c150       ?reserve@?$vector@UDialogItem@Far@@V?$allocator@UDialogItem@Far@@@std@@@std@@QEAAX_K@Z 000000006406d150 f i farutils.obj
 0001:0006c280       ??$_Uninit_move@PEAUFarMenuItem@@PEAU1@V?$allocator@UFarMenuItem@@@std@@U1@@std@@YAPEAUFarMenuItem@@PEAU1@00AEAV?$allocator@UFarMenuItem@@@0@0U_Nonscalar_ptr_iterator_tag@0@@Z 000000006406d280 f i farutils.obj
 0001:0006c2e0       ??$_Uninit_move@PEAUDialogItem@Far@@PEAU12@V?$allocator@UDialogItem@Far@@@std@@U12@@std@@YAPEAUDialogItem@Far@@PEAU12@00AEAV?$allocator@UDialogItem@Far@@@0@0U_Nonscalar_ptr_iterator_tag@0@@Z 000000006406d2e0 f i farutils.obj
 0001:0006c340       ?long_path@@YA?AV?$basic_string@_WU?$char_traits@_W@std@@V?$allocator@_W@2@@std@@AEBV12@@Z 000000006406d340 f   pathutils.obj
 0001:0006c5b0       ?add_trailing_slash@@YA?AV?$basic_string@_WU?$char_traits@_W@std@@V?$allocator@_W@2@@std@@AEBV12@@Z 000000006406d5b0 f   pathutils.obj
 0001:0006c620       ?locate_path_root@@YAXAEBV?$basic_string@_WU?$char_traits@_W@std@@V?$allocator@_W@2@@std@@AEA_KAEA_N@Z 000000006406d620 f   pathutils.obj
 0001:0006c870       ?extract_file_name@@YA?AV?$basic_string@_WU?$char_traits@_W@std@@V?$allocator@_W@2@@std@@AEBV12@@Z 000000006406d870 f   pathutils.obj
 0001:0006c920       ?extract_file_path@@YA?AV?$basic_string@_WU?$char_traits@_W@std@@V?$allocator@_W@2@@std@@AEBV12@@Z 000000006406d920 f   pathutils.obj
 0001:0006ca30       ?extract_file_ext@@YA?AV?$basic_string@_WU?$char_traits@_W@std@@V?$allocator@_W@2@@std@@AEBV12@@Z 000000006406da30 f   pathutils.obj
 0001:0006cb00       ?is_absolute_path@@YA_NAEBV?$basic_string@_WU?$char_traits@_W@std@@V?$allocator@_W@2@@std@@@Z 000000006406db00 f   pathutils.obj
 0001:0006cbd0       ?remove_path_root@@YA?AV?$basic_string@_WU?$char_traits@_W@std@@V?$allocator@_W@2@@std@@AEBV12@@Z 000000006406dbd0 f   pathutils.obj
 0001:0006cc40       ?replace@?$basic_string@_WU?$char_traits@_W@std@@V?$allocator@_W@2@@std@@QEAAAEAV12@_K0PEB_W0@Z 000000006406dc40 f i pathutils.obj
 0001:0006ce70       ?word_wrap@@YA?AV?$basic_string@_WU?$char_traits@_W@std@@V?$allocator@_W@2@@std@@AEBV12@_K@Z 000000006406de70 f   strutils.obj
 0001:0006d070       ?fit_str@@YA?AV?$basic_string@_WU?$char_traits@_W@std@@V?$allocator@_W@2@@std@@AEBV12@_K@Z 000000006406e070 f   strutils.obj
 0001:0006d170       ?strip@@YA?AV?$basic_string@_WU?$char_traits@_W@std@@V?$allocator@_W@2@@std@@AEBV12@@Z 000000006406e170 f   strutils.obj
 0001:0006d190       ?int_to_str@@YA?AV?$basic_string@_WU?$char_traits@_W@std@@V?$allocator@_W@2@@std@@H@Z 000000006406e190 f   strutils.obj
 0001:0006d230       ?uint_to_str@@YA?AV?$basic_string@_WU?$char_traits@_W@std@@V?$allocator@_W@2@@std@@_K@Z 000000006406e230 f   strutils.obj
 0001:0006d330       ?widen@@YA?AV?$basic_string@_WU?$char_traits@_W@std@@V?$allocator@_W@2@@std@@AEBV?$basic_string@DU?$char_traits@D@std@@V?$allocator@D@2@@2@@Z 000000006406e330 f   strutils.obj
 0001:0006d380       ?split@@YA?AV?$list@V?$basic_string@_WU?$char_traits@_W@std@@V?$allocator@_W@2@@std@@V?$allocator@V?$basic_string@_WU?$char_traits@_W@std@@V?$allocator@_W@2@@std@@@2@@std@@AEBV?$basic_string@_WU?$char_traits@_W@std@@V?$allocator@_W@2@@2@_W@Z 000000006406e380 f   strutils.obj
 0001:0006d4a0       ?format_data_size@@YA?AV?$basic_string@_WU?$char_traits@_W@std@@V?$allocator@_W@2@@std@@_KQEAPEB_W@Z 000000006406e4a0 f   strutils.obj
 0001:0006d6c0       ?unquote@@YA?AV?$basic_string@_WU?$char_traits@_W@std@@V?$allocator@_W@2@@std@@AEBV12@@Z 000000006406e6c0 f   strutils.obj
 0001:0006d760       ?search_and_replace@@YA?AV?$basic_string@_WU?$char_traits@_W@std@@V?$allocator@_W@2@@std@@AEBV12@00@Z 000000006406e760 f   strutils.obj
 0001:0006d9b0       ??$strip@_W@@YA?AV?$basic_string@_WU?$char_traits@_W@std@@V?$allocator@_W@2@@std@@AEBV01@@Z 000000006406e9b0 f i strutils.obj
 0001:0006da60       ?get_system_message@@YA?AV?$basic_string@_WU?$char_traits@_W@std@@V?$allocator@_W@2@@std@@JK@Z 000000006406ea60 f   sysutils.obj
 0001:0006dec0       ?get_console_title@@YA?AV?$basic_string@_WU?$char_traits@_W@std@@V?$allocator@_W@2@@std@@XZ 000000006406eec0 f   sysutils.obj
 0001:0006df60       ?ansi_to_unicode@@YA?AV?$basic_string@_WU?$char_traits@_W@std@@V?$allocator@_W@2@@std@@AEBV?$basic_string@DU?$char_traits@D@std@@V?$allocator@D@2@@2@I@Z 000000006406ef60 f   sysutils.obj
 0001:0006e0d0       ?unicode_to_ansi@@YA?AV?$basic_string@DU?$char_traits@D@std@@V?$allocator@D@2@@std@@AEBV?$basic_string@_WU?$char_traits@_W@std@@V?$allocator@_W@2@@2@I@Z 000000006406f0d0 f   sysutils.obj
 0001:0006e230       ?expand_env_vars@@YA?AV?$basic_string@_WU?$char_traits@_W@std@@V?$allocator@_W@2@@std@@AEBV12@@Z 000000006406f230 f   sysutils.obj
 0001:0006e390       ??1File@@QEAA@XZ           000000006406f390 f   sysutils.obj
 0001:0006e3e0       ?open@File@@QEAAXAEBV?$basic_string@_WU?$char_traits@_W@std@@V?$allocator@_W@2@@std@@KKKK@Z 000000006406f3e0 f   sysutils.obj
 0001:0006e480       ?open_nt@File@@QEAA_NAEBV?$basic_string@_WU?$char_traits@_W@std@@V?$allocator@_W@2@@std@@KKKK@Z 000000006406f480 f   sysutils.obj
 0001:0006e590       ?size@File@@QEAA_KXZ       000000006406f590 f   sysutils.obj
 0001:0006e620       ?read@File@@QEAA_KPEAX_K@Z 000000006406f620 f   sysutils.obj
 0001:0006e6d0       ?write@File@@QEAA_KPEBX_K@Z 000000006406f6d0 f   sysutils.obj
 0001:0006e780       ?set_time@File@@QEAAXAEBU_FILETIME@@00@Z 000000006406f780 f   sysutils.obj
 0001:0006e810       ?set_pos@File@@QEAA_K_JK@Z 000000006406f810 f   sysutils.obj
 0001:0006e8b0       ?set_end@File@@QEAAXXZ     000000006406f8b0 f   sysutils.obj
 0001:0006e940       ?exists@File@@SA_NAEBV?$basic_string@_WU?$char_traits@_W@std@@V?$allocator@_W@2@@std@@@Z 000000006406f940 f   sysutils.obj
 0001:0006e9d0       ?set_attr@File@@SAXAEBV?$basic_string@_WU?$char_traits@_W@std@@V?$allocator@_W@2@@std@@K@Z 000000006406f9d0 f   sysutils.obj
 0001:0006ea60       ?set_attr_nt@File@@SA_NAEBV?$basic_string@_WU?$char_traits@_W@std@@V?$allocator@_W@2@@std@@K@Z 000000006406fa60 f   sysutils.obj
 0001:0006eaf0       ?delete_file@File@@SAXAEBV?$basic_string@_WU?$char_traits@_W@std@@V?$allocator@_W@2@@std@@@Z 000000006406faf0 f   sysutils.obj
 0001:0006eb70       ?delete_file_nt@File@@SA_NAEBV?$basic_string@_WU?$char_traits@_W@std@@V?$allocator@_W@2@@std@@@Z 000000006406fb70 f   sysutils.obj
 0001:0006ebf0       ?create_dir_nt@File@@SA_NAEBV?$basic_string@_WU?$char_traits@_W@std@@V?$allocator@_W@2@@std@@@Z 000000006406fbf0 f   sysutils.obj
 0001:0006ec80       ?remove_dir@File@@SAXAEBV?$basic_string@_WU?$char_traits@_W@std@@V?$allocator@_W@2@@std@@@Z 000000006406fc80 f   sysutils.obj
 0001:0006ed00       ?remove_dir_nt@File@@SA_NAEBV?$basic_string@_WU?$char_traits@_W@std@@V?$allocator@_W@2@@std@@@Z 000000006406fd00 f   sysutils.obj
 0001:0006ed80       ?move_file_nt@File@@SA_NAEBV?$basic_string@_WU?$char_traits@_W@std@@V?$allocator@_W@2@@std@@0K@Z 000000006406fd80 f   sysutils.obj
 0001:0006ee90       ??1Key@@QEAA@XZ            000000006406fe90 f   sysutils.obj
 0001:0006eec0       ?query_str_nt@Key@@QEAA_NAEAV?$basic_string@_WU?$char_traits@_W@std@@V?$allocator@_W@2@@std@@PEB_W@Z 000000006406fec0 f   sysutils.obj
 0001:0006efc0       ?next@FileEnum@@QEAA_NXZ   000000006406ffc0 f   sysutils.obj
 0001:0006f050       ?next_nt@FileEnum@@QEAA_NAEA_N@Z 0000000064070050 f   sysutils.obj
 0001:0006f140       ??0DirList@@QEAA@AEBV?$basic_string@_WU?$char_traits@_W@std@@V?$allocator@_W@2@@std@@@Z 0000000064070140 f   sysutils.obj
 0001:0006f210       ?get_temp_path@@YA?AV?$basic_string@_WU?$char_traits@_W@std@@V?$allocator@_W@2@@std@@XZ 0000000064070210 f   sysutils.obj
 0001:0006f3b0       ??0TempFile@@QEAA@XZ       00000000640703b0 f   sysutils.obj
 0001:0006f530       ??1TempFile@@QEAA@XZ       0000000064070530 f   sysutils.obj
 0001:0006f570       ?format_file_time@@YA?AV?$basic_string@_WU?$char_traits@_W@std@@V?$allocator@_W@2@@std@@AEBU_FILETIME@@@Z 0000000064070570 f   sysutils.obj
 0001:0006f870       ?upcase@@YA?AV?$basic_string@_WU?$char_traits@_W@std@@V?$allocator@_W@2@@std@@AEBV12@@Z 0000000064070870 f   sysutils.obj
 0001:0006f930       ?search_path@@YA?AV?$basic_string@_WU?$char_traits@_W@std@@V?$allocator@_W@2@@std@@AEBV12@@Z 0000000064070930 f   sysutils.obj
 0001:0006fb40       ??6?$basic_ostream@_WU?$char_traits@_W@std@@@std@@QEAAAEAV01@J@Z 0000000064070b40 f i sysutils.obj
 0001:0006fd14       ??1length_error@std@@UEAA@XZ 0000000064070d14 f i libcpmt:xthrow.obj
 0001:0006fd14       ??1out_of_range@std@@UEAA@XZ 0000000064070d14 f i libcpmt:xthrow.obj
 0001:0006fd1c       ??0logic_error@std@@QEAA@AEBV01@@Z 0000000064070d1c f i libcpmt:xthrow.obj
 0001:0006fd40       ?_Xlength_error@std@@YAXPEBD@Z 0000000064070d40 f   libcpmt:xthrow.obj
 0001:0006fd78       ??0length_error@std@@QEAA@AEBV01@@Z 0000000064070d78 f i libcpmt:xthrow.obj
 0001:0006fd9c       ?_Xout_of_range@std@@YAXPEBD@Z 0000000064070d9c f   libcpmt:xthrow.obj
 0001:0006fdd4       ??0out_of_range@std@@QEAA@AEBV01@@Z 0000000064070dd4 f i libcpmt:xthrow.obj
 0001:0006fdf8       ??_Eout_of_range@std@@UEAAPEAXI@Z 0000000064070df8 f i libcpmt:xthrow.obj
 0001:0006fdf8       ??_Gout_of_range@std@@UEAAPEAXI@Z 0000000064070df8 f i libcpmt:xthrow.obj
 0001:0006fdf8       ??_Elogic_error@std@@UEAAPEAXI@Z 0000000064070df8 f i libcpmt:xthrow.obj
 0001:0006fdf8       ??_Elength_error@std@@UEAAPEAXI@Z 0000000064070df8 f i libcpmt:xthrow.obj
 0001:0006fdf8       ??_Glength_error@std@@UEAAPEAXI@Z 0000000064070df8 f i libcpmt:xthrow.obj
 0001:0006fdf8       ??_Glogic_error@std@@UEAAPEAXI@Z 0000000064070df8 f i libcpmt:xthrow.obj
 0001:0006fe28       ??_U@YAPEAX_K@Z            0000000064070e28 f   libcpmt:newaop.obj
 0001:0006fe30       ?_Tidy@ios_base@std@@AEAAXXZ 0000000064070e30 f i libcpmt:ios.obj
 0001:0006fea0       ?_Ios_base_dtor@ios_base@std@@CAXPEAV12@@Z 0000000064070ea0 f   libcpmt:ios.obj
 0001:0006feec       ?equivalent@error_category@std@@UEBA_NHAEBVerror_condition@2@@Z 0000000064070eec f i libcpmt:syserror.obj
 0001:0006ff24       ?equivalent@error_category@std@@UEBA_NAEBVerror_code@2@H@Z 0000000064070f24 f i libcpmt:syserror.obj
 0001:0006ff38       ?name@_Generic_error_category@std@@UEBAPEBDXZ 0000000064070f38 f i libcpmt:syserror.obj
 0001:0006ff38       ?name@_Iostream_error_category@std@@UEBAPEBDXZ 0000000064070f38 f i libcpmt:syserror.obj
 0001:0006ff40       ?name@_System_error_category@std@@UEBAPEBDXZ 0000000064070f40 f i libcpmt:syserror.obj
 0001:0006ff48       ?default_error_condition@error_category@std@@UEBA?AVerror_condition@2@H@Z 0000000064070f48 f i libcpmt:syserror.obj
 0001:0006ff48       ?default_error_condition@_System_error_category@std@@UEBA?AVerror_condition@2@H@Z 0000000064070f48 f i libcpmt:syserror.obj
 0001:0006ff54       ?iostream_category@std@@YAAEBVerror_category@1@XZ 0000000064070f54 f   libcpmt:syserror.obj
 0001:0006ff5c       ??_G_Generic_error_category@std@@UEAAPEAXI@Z 0000000064070f5c f i libcpmt:syserror.obj
 0001:0006ff5c       ??_E_Generic_error_category@std@@UEAAPEAXI@Z 0000000064070f5c f i libcpmt:syserror.obj
 0001:0006ff5c       ??_E_System_error_category@std@@UEAAPEAXI@Z 0000000064070f5c f i libcpmt:syserror.obj
 0001:0006ff5c       ??_E_Iostream_error_category@std@@UEAAPEAXI@Z 0000000064070f5c f i libcpmt:syserror.obj
 0001:0006ff5c       ??_Eerror_category@std@@UEAAPEAXI@Z 0000000064070f5c f i libcpmt:syserror.obj
 0001:0006ff5c       ??_G_System_error_category@std@@UEAAPEAXI@Z 0000000064070f5c f i libcpmt:syserror.obj
 0001:0006ff5c       ??_Gerror_category@std@@UEAAPEAXI@Z 0000000064070f5c f i libcpmt:syserror.obj
 0001:0006ff5c       ??_G_Iostream_error_category@std@@UEAAPEAXI@Z 0000000064070f5c f i libcpmt:syserror.obj
 0001:0006ff84       ?message@_Generic_error_category@std@@UEBA?AV?$basic_string@DU?$char_traits@D@std@@V?$allocator@D@2@@2@H@Z 0000000064070f84 f i libcpmt:syserror.obj
 0001:0006ffd8       ?message@_Iostream_error_category@std@@UEBA?AV?$basic_string@DU?$char_traits@D@std@@V?$allocator@D@2@@2@H@Z 0000000064070fd8 f i libcpmt:syserror.obj
 0001:00070054       ??0_Mutex@std@@QEAA@XZ     0000000064071054 f   libcpmt:xmutex.obj
 0001:0007007c       ??1_Mutex@std@@QEAA@XZ     000000006407107c f   libcpmt:xmutex.obj
 0001:0007009c       ?_Lock@_Mutex@std@@QEAAXXZ 000000006407109c f   libcpmt:xmutex.obj
 0001:000700a4       ?_Unlock@_Mutex@std@@QEAAXXZ 00000000640710a4 f   libcpmt:xmutex.obj
 0001:000700ac       ?uncaught_exception@std@@YA_NXZ 00000000640710ac f   libcpmt:uncaught.obj
 0001:000700b4       ??0_Init_locks@std@@QEAA@XZ 00000000640710b4 f   libcpmt:xlock.obj
 0001:00070100       ??1_Init_locks@std@@QEAA@XZ 0000000064071100 f   libcpmt:xlock.obj
 0001:0007013c       ??0_Lockit@std@@QEAA@H@Z   000000006407113c f   libcpmt:xlock.obj
 0001:0007016c       ??1_Lockit@std@@QEAA@XZ    000000006407116c f   libcpmt:xlock.obj
 0001:00070194       ??1_Fac_node@std@@QEAA@XZ  0000000064071194 f i libcpmt:locale0.obj
 0001:000701f8       ?_Facet_Register@facet@locale@std@@CAXPEAV123@@Z 00000000640711f8 f   libcpmt:locale0.obj
 0001:0007022c       _Deletegloballocale        000000006407122c f   libcpmt:locale0.obj
 0001:000702c8       ?_Getgloballocale@locale@std@@CAPEAV_Locimp@12@XZ 00000000640712c8 f   libcpmt:locale0.obj
 0001:000702d0       ?_Setgloballocale@locale@std@@CAXPEAX@Z 00000000640712d0 f   libcpmt:locale0.obj
 0001:00070304       ?_Locimp_dtor@_Locimp@locale@std@@CAXPEAV123@@Z 0000000064071304 f   libcpmt:locale0.obj
 0001:000703b0       ?_Locinfo_dtor@_Locinfo@std@@SAXPEAV12@@Z 00000000640713b0 f   libcpmt:locale0.obj
 0001:000703cc       ??4?$_Yarn@D@std@@QEAAAEAV01@PEBD@Z 00000000640713cc f i libcpmt:locale0.obj
 0001:00070444       ?_Locinfo_ctor@_Locinfo@std@@SAXPEAV12@PEBD@Z 0000000064071444 f   libcpmt:locale0.obj
 0001:000704b0       ??_G_Locimp@locale@std@@MEAAPEAXI@Z 00000000640714b0 f i libcpmt:locale0.obj
 0001:000704b0       ??_E_Locimp@locale@std@@MEAAPEAXI@Z 00000000640714b0 f i libcpmt:locale0.obj
 0001:00070518       ?_Init@locale@std@@CAPEAV_Locimp@12@XZ 0000000064071518 f   libcpmt:locale0.obj
 0001:00070660       _GetLocaleForCP            0000000064071660 f   libcpmt:xmbtowc.obj
 0001:000707c0       _Mbrtowc                   00000000640717c0 f   libcpmt:xmbtowc.obj
 0001:000709ac       _Wcrtomb                   00000000640719ac f   libcpmt:xwctomb.obj
 0001:00070a68       _Getcvt                    0000000064071a68 f   libcpmt:xwctomb.obj
 0001:00070a8c       _Getctype                  0000000064071a8c f   libcpmt:_tolower.obj
 0001:00070af8       _Towupper                  0000000064071af8 f   libcpmt:xtowupper.obj
 0001:00070b6c       _Towlower                  0000000064071b6c f   libcpmt:xtowlower.obj
 0001:00070bdc       _Getwctype                 0000000064071bdc f   libcpmt:xgetwctype.obj
 0001:00070c10       _Getwctypes                0000000064071c10 f   libcpmt:xgetwctype.obj
 0001:00070c48       ?setw@std@@YA?AU?$_Smanip@_J@1@_J@Z 0000000064071c48 f   libcpmt:iomanip.obj
 0001:00070c5c       _Mtxinit                   0000000064071c5c f   libcpmt:xmtx.obj
 0001:00070c64       _Mtxdst                    0000000064071c64 f   libcpmt:xmtx.obj
 0001:00070c6c       _Mtxlock                   0000000064071c6c f   libcpmt:xmtx.obj
 0001:00070c74       _Mtxunlock                 0000000064071c74 f   libcpmt:xmtx.obj
 0001:00070c7c       ?_Atexit@@YAXP6AXXZ@Z      0000000064071c7c f   libcpmt:iosptrs.obj
 0001:00070cd0       __security_check_cookie    0000000064071cd0 f   LIBCMT:amdsecgs.obj
 0001:00070cf0       ??0exception@std@@QEAA@XZ  0000000064071cf0 f   LIBCMT:stdexcpt.obj
 0001:00070d08       ??0exception@std@@QEAA@AEBQEBDH@Z 0000000064071d08 f   LIBCMT:stdexcpt.obj
 0001:00070d24       ?what@exception@std@@UEBAPEBDXZ 0000000064071d24 f   LIBCMT:stdexcpt.obj
 0001:00070d38       ?_Copy_str@exception@std@@AEAAXPEBD@Z 0000000064071d38 f   LIBCMT:stdexcpt.obj
 0001:00070d94       ?_Tidy@exception@std@@AEAAXXZ 0000000064071d94 f   LIBCMT:stdexcpt.obj
 0001:00070dbc       ??0exception@std@@QEAA@AEBQEBD@Z 0000000064071dbc f   LIBCMT:stdexcpt.obj
 0001:00070dec       ??4exception@std@@QEAAAEAV01@AEBV01@@Z 0000000064071dec f   LIBCMT:stdexcpt.obj
 0001:00070e30       ??0bad_cast@std@@QEAA@PEBD@Z 0000000064071e30 f   LIBCMT:stdexcpt.obj
 0001:00070e5c       ??0bad_typeid@std@@QEAA@PEBD@Z 0000000064071e5c f   LIBCMT:stdexcpt.obj
 0001:00070e88       ??1__non_rtti_object@std@@UEAA@XZ 0000000064071e88 f   LIBCMT:stdexcpt.obj
 0001:00070e88       ??1bad_typeid@std@@UEAA@XZ 0000000064071e88 f   LIBCMT:stdexcpt.obj
 0001:00070e88       ??1bad_cast@std@@UEAA@XZ   0000000064071e88 f   LIBCMT:stdexcpt.obj
 0001:00070e88       ??1exception@std@@UEAA@XZ  0000000064071e88 f   LIBCMT:stdexcpt.obj
 0001:00070e98       ??0__non_rtti_object@std@@QEAA@PEBD@Z 0000000064071e98 f   LIBCMT:stdexcpt.obj
 0001:00070ebc       ??0exception@std@@QEAA@AEBV01@@Z 0000000064071ebc f   LIBCMT:stdexcpt.obj
 0001:00070ee8       ??_Gexception@std@@UEAAPEAXI@Z 0000000064071ee8 f i LIBCMT:stdexcpt.obj
 0001:00070ee8       ??_E__non_rtti_object@std@@UEAAPEAXI@Z 0000000064071ee8 f i LIBCMT:stdexcpt.obj
 0001:00070ee8       ??_Ebad_typeid@std@@UEAAPEAXI@Z 0000000064071ee8 f i LIBCMT:stdexcpt.obj
 0001:00070ee8       ??_Ebad_cast@std@@UEAAPEAXI@Z 0000000064071ee8 f i LIBCMT:stdexcpt.obj
 0001:00070ee8       ??_Gbad_cast@std@@UEAAPEAXI@Z 0000000064071ee8 f i LIBCMT:stdexcpt.obj
 0001:00070ee8       ??_G__non_rtti_object@std@@UEAAPEAXI@Z 0000000064071ee8 f i LIBCMT:stdexcpt.obj
 0001:00070ee8       ??_Eexception@std@@UEAAPEAXI@Z 0000000064071ee8 f i LIBCMT:stdexcpt.obj
 0001:00070ee8       ??_Gbad_typeid@std@@UEAAPEAXI@Z 0000000064071ee8 f i LIBCMT:stdexcpt.obj
 0001:00070f24       ??0bad_cast@std@@QEAA@AEBV01@@Z 0000000064071f24 f   LIBCMT:stdexcpt.obj
 0001:00070f48       ??0bad_typeid@std@@QEAA@AEBV01@@Z 0000000064071f48 f   LIBCMT:stdexcpt.obj
 0001:00070f6c       ??0__non_rtti_object@std@@QEAA@AEBV01@@Z 0000000064071f6c f   LIBCMT:stdexcpt.obj
 0001:00070f90       ??3@YAXPEAX@Z              0000000064071f90 f   LIBCMT:delete.obj
 0001:00070f98       ?name@type_info@@QEBAPEBDPEAU__type_info_node@@@Z 0000000064071f98 f   LIBCMT:typinfo.obj
 0001:00070fa0       ??_Etype_info@@UEAAPEAXI@Z 0000000064071fa0 f i LIBCMT:typinfo.obj
 0001:00070fa0       ??_Gtype_info@@UEAAPEAXI@Z 0000000064071fa0 f i LIBCMT:typinfo.obj
 0001:00070fdc       ??8type_info@@QEBA_NAEBV0@@Z 0000000064071fdc f   LIBCMT:typinfo.obj
 0001:00070ffc       ??2@YAPEAX_K@Z             0000000064071ffc f   LIBCMT:new.obj
 0001:000710b0       memmove                    00000000640720b0     LIBCMT:memcpy.obj
 0001:000710b0       memcpy                     00000000640720b0 f   LIBCMT:memcpy.obj
 0001:000713e4       __onexitinit               00000000640723e4 f   LIBCMT:onexit.obj
 0001:00071428       _onexit                    0000000064072428 f   LIBCMT:onexit.obj
 0001:00071534       atexit                     0000000064072534 f   LIBCMT:onexit.obj
 0001:0007154c       ??_V@YAXPEAX@Z             000000006407254c f   LIBCMT:delete2.obj
 0001:00071554       __RTtypeid                 0000000064072554 f   LIBCMT:rtti.obj
 0001:00071600       _purecall                  0000000064072600 f   LIBCMT:purevirt.obj
 0001:00071638       ??_L@YAXPEAX_KHP6AX0@Z2@Z  0000000064072638 f   LIBCMT:ehvecctr.obj
 0001:0007169c       ?__ArrayUnwind@@YAXPEAX_KHP6AX0@Z@Z 000000006407269c f   LIBCMT:ehvecdtr.obj
 0001:000716e8       ??_M@YAXPEAX_KHP6AX0@Z@Z   00000000640726e8 f   LIBCMT:ehvecdtr.obj
 0001:00071748       ??0_LocaleUpdate@@QEAA@PEAUlocaleinfo_struct@@@Z 0000000064072748 f i LIBCMT:wcsicmp.obj
 0001:000717ec       _wcsicmp_l                 00000000640727ec f   LIBCMT:wcsicmp.obj
 0001:000718f0       _wcsicmp                   00000000640728f0 f   LIBCMT:wcsicmp.obj
 0001:00071978       sprintf_s                  0000000064072978 f   LIBCMT:sprintf.obj
 0001:0007199c       localeconv                 000000006407299c f   LIBCMT:lconv.obj
 0001:000719d4       memchr                     00000000640729d4 f   LIBCMT:memchr.obj
 0001:000719f0       strcspn                    00000000640729f0 f   LIBCMT:strcspn.obj
 0001:00071a84       memmove_s                  0000000064072a84 f   LIBCMT:memmove_s.obj
 0001:00071ad8       free                       0000000064072ad8 f   LIBCMT:free.obj
 0001:00071c24       _itow_s                    0000000064072c24 f   LIBCMT:xtows.obj
 0001:00071d60       _i64tow_s                  0000000064072d60 f   LIBCMT:xtows.obj
 0001:00071d84       _ui64tow_s                 0000000064072d84 f   LIBCMT:xtows.obj
 0001:00071d98       _tolower_l                 0000000064072d98 f   LIBCMT:tolower.obj
 0001:00071ee8       tolower                    0000000064072ee8 f   LIBCMT:tolower.obj
 0001:00071f08       atol                       0000000064072f08 f   LIBCMT:atox.obj
 0001:00071f14       _wtoi                      0000000064072f14 f   LIBCMT:wtox.obj
 0001:00071f20       _heap_init                 0000000064072f20 f   LIBCMT:heapinit.obj
 0001:00071f78       _heap_term                 0000000064072f78 f   LIBCMT:heapinit.obj
 0001:00071f98       _get_heap_handle           0000000064072f98 f   LIBCMT:heapinit.obj
 0001:00071fa0       _CRT_INIT                  0000000064072fa0 f   LIBCMT:dllcrt0.obj
 0001:00072210       _DllMainCRTStartup         0000000064073210 f   LIBCMT:dllcrt0.obj
 0001:00072250       _CxxThrowException         0000000064073250 f   LIBCMT:throw.obj
 0001:00072300       strlen                     0000000064073300 f   LIBCMT:strlen.obj
 0001:000723a8       ?_GetEstablisherFrame@@YAPEA_KPEA_KPEAU_xDISPATCHER_CONTEXT@@PEBU_s_FuncInfo@@0@Z 00000000640733a8 f   LIBCMT:trnsctrl.obj
 0001:00072494       _GetImageBase              0000000064073494 f   LIBCMT:trnsctrl.obj
 0001:000724ac       _GetThrowImageBase         00000000640734ac f   LIBCMT:trnsctrl.obj
 0001:000724c4       _SetImageBase              00000000640734c4 f   LIBCMT:trnsctrl.obj
 0001:000724e0       _SetThrowImageBase         00000000640734e0 f   LIBCMT:trnsctrl.obj
 0001:000724fc       ?__FrameUnwindToEmptyState@@YAXPEA_KPEAU_xDISPATCHER_CONTEXT@@PEBU_s_FuncInfo@@@Z 00000000640734fc f   LIBCMT:trnsctrl.obj
 0001:000725a8       __CxxFrameHandler3         00000000640735a8 f   LIBCMT:trnsctrl.obj
 0001:00072630       ?__SehTransFilter@@YAHPEAU_EXCEPTION_POINTERS@@PEAUEHExceptionRecord@@PEA_KPEAU_CONTEXT@@PEAU_xDISPATCHER_CONTEXT@@PEBU_s_FuncInfo@@PEAH@Z 0000000064073630 f   LIBCMT:trnsctrl.obj
 0001:000726d4       _CallSETranslator          00000000640736d4 f   LIBCMT:trnsctrl.obj
 0001:00072728       ?_GetRangeOfTrysToCheck@@YAPEBU_s_TryBlockMapEntry@@PEA_KPEBU_s_FuncInfo@@HHPEAI2PEAU_xDISPATCHER_CONTEXT@@@Z 0000000064073728 f   LIBCMT:trnsctrl.obj
 0001:00072854       _CreateFrameInfo           0000000064073854 f   LIBCMT:trnsctrl.obj
 0001:00072898       _IsExceptionObjectToBeDestroyed 0000000064073898 f   LIBCMT:trnsctrl.obj
 0001:000728cc       _FindAndUnlinkFrame        00000000640738cc f   LIBCMT:trnsctrl.obj
 0001:0007292c       _UnwindNestedFrames        000000006407392c f   LIBCMT:trnsctrl.obj
 0001:00072a1c       strerror                   0000000064073a1c f   LIBCMT:strerror.obj
 0001:00072ab8       ??1bad_exception@std@@UEAA@XZ 0000000064073ab8 f i LIBCMT:frame.obj
 0001:00072ac8       ??_Ebad_exception@std@@UEAAPEAXI@Z 0000000064073ac8 f i LIBCMT:frame.obj
 0001:00072ac8       ??_Gbad_exception@std@@UEAAPEAXI@Z 0000000064073ac8 f i LIBCMT:frame.obj
 0001:00072b04       __TypeMatch                0000000064073b04 f   LIBCMT:frame.obj
 0001:00072c28       __FrameUnwindFilter        0000000064073c28 f   LIBCMT:frame.obj
 0001:00072c7c       __FrameUnwindToState       0000000064073c7c f   LIBCMT:frame.obj
 0001:00072e08       __DestructExceptionObject  0000000064073e08 f   LIBCMT:frame.obj
 0001:00072e4c       __AdjustPointer            0000000064073e4c f   LIBCMT:frame.obj
 0001:00072e70       ?__uncaught_exception@@YA_NXZ 0000000064073e70 f   LIBCMT:frame.obj
 0001:00072f60       __CxxCallCatchBlock        0000000064073f60 f   LIBCMT:frame.obj
 0001:00073174       __BuildCatchObjectHelper   0000000064074174 f   LIBCMT:frame.obj
 0001:00073378       __BuildCatchObject         0000000064074378 f   LIBCMT:frame.obj
 0001:00073bf4       ??0bad_exception@std@@QEAA@AEBV01@@Z 0000000064074bf4 f i LIBCMT:frame.obj
 0001:00073c18       __InternalCxxFrameHandler  0000000064074c18 f   LIBCMT:frame.obj
 0001:00073e40       _free_locale               0000000064074e40 f   LIBCMT:setlocal.obj
 0001:00073ee8       __init_collate             0000000064074ee8 f   LIBCMT:initcoll.obj
 0001:00073ee8       __set_flsgetvalue          0000000064074ee8 f   LIBCMT:tidtable.obj
 0001:00073ee8       __init_dummy               0000000064074ee8 f   LIBCMT:setlocal.obj
 0001:00073eec       _strcats                   0000000064074eec f   LIBCMT:setlocal.obj
 0001:00073f54       __lc_strtolc               0000000064074f54 f   LIBCMT:setlocal.obj
 0001:00074104       __lc_lctostr               0000000064075104 f   LIBCMT:setlocal.obj
 0001:00074378       _expandlocale              0000000064075378 f   LIBCMT:setlocal.obj
 0001:00074ae8       _create_locale             0000000064075ae8 f   LIBCMT:setlocal.obj
 0001:00074c20       setlocale                  0000000064075c20 f   LIBCMT:setlocal.obj
 0001:00074ddc       malloc                     0000000064075ddc f   LIBCMT:malloc.obj
 0001:00074e94       __GSHandlerCheckCommon     0000000064075e94 f   LIBCMT:gshandler.obj
 0001:00074ef8       __GSHandlerCheck           0000000064075ef8 f   LIBCMT:gshandler.obj
 0001:0007500c       _itoa_s                    000000006407600c f   LIBCMT:xtoas.obj
 0001:0007512c       _ui64toa_s                 000000006407612c f   LIBCMT:xtoas.obj
 0001:00075140       _malloc_crt                0000000064076140 f   LIBCMT:crtheap.obj
 0001:000751c0       _calloc_crt                00000000640761c0 f   LIBCMT:crtheap.obj
 0001:00075244       _realloc_crt               0000000064076244 f   LIBCMT:crtheap.obj
 0001:000752cc       __pctype_func              00000000640762cc f   LIBCMT:ctype.obj
 0001:00075308       _get_errno_from_oserr      0000000064076308 f   LIBCMT:dosmap.obj
 0001:00075350       _errno                     0000000064076350 f   LIBCMT:dosmap.obj
 0001:00075370       __doserrno                 0000000064076370 f   LIBCMT:dosmap.obj
 0001:00075390       _dosmaperr                 0000000064076390 f   LIBCMT:dosmap.obj
 0001:000753d8       __init_ctype               00000000640763d8 f   LIBCMT:initctyp.obj
 0001:000757f8       ___mb_cur_max_func         00000000640767f8 f   LIBCMT:initctyp.obj
 0001:00075834       ___mb_cur_max_l_func       0000000064076834 f   LIBCMT:initctyp.obj
 0001:00075848       ___lc_codepage_func        0000000064076848 f   LIBCMT:initctyp.obj
 0001:00075880       ___lc_handle_func          0000000064076880 f   LIBCMT:initctyp.obj
 0001:00075b84       __crtLCMapStringA          0000000064076b84 f   LIBCMT:a_map.obj
 0001:00075c1c       isdigit                    0000000064076c1c f i LIBCMT:_ctype.obj
 0001:00075c9c       __crtLCMapStringW          0000000064076c9c f   LIBCMT:w_map.obj
 0001:00075cfc       abort                      0000000064076cfc f   LIBCMT:abort.obj
 0001:00075d3c       _set_abort_behavior        0000000064076d3c f   LIBCMT:abort.obj
 0001:00075d58       __report_gsfailure         0000000064076d58 f   LIBCMT:gs_report.obj
 0001:00075ea4       strcpy_s                   0000000064076ea4 f   LIBCMT:strcpy_s.obj
 0001:00075f08       ?_Type_info_dtor@type_info@@CAXPEAV1@@Z 0000000064076f08 f   LIBCMT:typname.obj
 0001:00075f74       ?_Name_base@type_info@@CAPEBDPEBV1@PEAU__type_info_node@@@Z 0000000064076f74 f   LIBCMT:typname.obj
 0001:000760c0       strcmp                     00000000640770c0 f   LIBCMT:strcmp.obj
 0001:00076170       _initp_heap_handler        0000000064077170 f   LIBCMT:handler.obj
 0001:00076178       _callnewh                  0000000064077178 f   LIBCMT:handler.obj
 0001:000761ac       _msize                     00000000640771ac f   LIBCMT:msize.obj
 0001:000761e8       __crtCorExitProcess        00000000640771e8 f   LIBCMT:crt0dat.obj
 0001:00076224       __crtExitProcess           0000000064077224 f   LIBCMT:crt0dat.obj
 0001:0007623c       _lockexit                  000000006407723c f   LIBCMT:crt0dat.obj
 0001:00076248       _unlockexit                0000000064077248 f   LIBCMT:crt0dat.obj
 0001:00076254       _init_pointers             0000000064077254 f   LIBCMT:crt0dat.obj
 0001:000762cc       _initterm_e                00000000640772cc f   LIBCMT:crt0dat.obj
 0001:00076308       _cinit                     0000000064077308 f   LIBCMT:crt0dat.obj
 0001:00076548       _exit                      0000000064077548 f   LIBCMT:crt0dat.obj
 0001:00076554       _cexit                     0000000064077554 f   LIBCMT:crt0dat.obj
 0001:00076564       _amsg_exit                 0000000064077564 f   LIBCMT:crt0dat.obj
 0001:0007658c       __C_specific_handler       000000006407758c f   LIBCMT:chandler.obj
 0001:0007678c       _GET_RTERRMSG              000000006407778c f   LIBCMT:crt0msg.obj
 0001:000767b8       _NMSG_WRITE                00000000640777b8 f   LIBCMT:crt0msg.obj
 0001:00076a18       _FF_MSGBANNER              0000000064077a18 f   LIBCMT:crt0msg.obj
 0001:00076a5c       __getlocaleinfo            0000000064077a5c f   LIBCMT:inithelp.obj
 0001:00076c38       _initp_misc_purevirt       0000000064077c38 f   LIBCMT:inithelp.obj
 0001:00076c40       ?terminate@@YAXXZ          0000000064077c40 f   LIBCMT:hooks.obj
 0001:00076c64       ?_inconsistency@@YAXXZ     0000000064077c64 f   LIBCMT:hooks.obj
 0001:00076c8c       _initp_eh_hooks            0000000064077c8c f   LIBCMT:hooks.obj
 0001:00076f28       __updatetmbcinfo           0000000064077f28 f   LIBCMT:mbctype.obj
 0001:00077074       _setmbcp_nolock            0000000064078074 f   LIBCMT:mbctype.obj
 0001:000772ec       _setmbcp                   00000000640782ec f   LIBCMT:mbctype.obj
 0001:000774cc       __initmbctable             00000000640784cc f   LIBCMT:mbctype.obj
 0001:000774f4       __addlocaleref             00000000640784f4 f   LIBCMT:localref.obj
 0001:00077580       __removelocaleref          0000000064078580 f   LIBCMT:localref.obj
 0001:00077624       __freetlocinfo             0000000064078624 f   LIBCMT:localref.obj
 0001:000777a0       _updatetlocinfoEx_nolock   00000000640787a0 f   LIBCMT:localref.obj
 0001:000777f8       __updatetlocinfo           00000000640787f8 f   LIBCMT:localref.obj
 0001:00077870       _encoded_null              0000000064078870 f   LIBCMT:tidtable.obj
 0001:0007787c       _mtterm                    000000006407887c f   LIBCMT:tidtable.obj
 0001:000778a4       _initptd                   00000000640788a4 f   LIBCMT:tidtable.obj
 0001:0007795c       _getptd_noexit             000000006407895c f   LIBCMT:tidtable.obj
 0001:000779e0       _getptd                    00000000640789e0 f   LIBCMT:tidtable.obj
 0001:00077a04       _freefls                   0000000064078a04 f   LIBCMT:tidtable.obj
 0001:00077b38       _freeptd                   0000000064078b38 f   LIBCMT:tidtable.obj
 0001:00077b78       _mtinit                    0000000064078b78 f   LIBCMT:tidtable.obj
 0001:00077bfc       _towlower_l                0000000064078bfc f   LIBCMT:towlower.obj
 0001:00077cd4       _initp_misc_invarg         0000000064078cd4 f   LIBCMT:invarg.obj
 0001:00077cdc       _call_reportfault          0000000064078cdc f   LIBCMT:invarg.obj
 0001:00077e28       _invoke_watson             0000000064078e28 f   LIBCMT:invarg.obj
 0001:00077e5c       _invalid_parameter         0000000064078e5c f   LIBCMT:invarg.obj
 0001:00077ecc       _invalid_parameter_noinfo  0000000064078ecc f   LIBCMT:invarg.obj
 0001:00077eec       _flsbuf                    0000000064078eec f   LIBCMT:_flsbuf.obj
 0001:00078090       memset                     0000000064079090 f   LIBCMT:memset.obj
 0001:0007817c       _vsnprintf_helper          000000006407917c f   LIBCMT:vsnprnc.obj
 0001:00078264       _vsprintf_s_l              0000000064079264 f   LIBCMT:vsnprnc.obj
 0001:000782d4       _isleadbyte_l              00000000640792d4 f i LIBCMT:_wctype.obj
 0001:0007831c       isleadbyte                 000000006407931c f i LIBCMT:_wctype.obj
 0001:00078364       _isctype_l                 0000000064079364 f   LIBCMT:isctype.obj
 0001:000786b8       strtol                     00000000640796b8 f   LIBCMT:strtol.obj
 0001:000788d0       wcstol                     00000000640798d0 f   LIBCMT:wcstol.obj
 0001:000788d8       _ioinit                    00000000640798d8 f   LIBCMT:ioinit.obj
 0001:00078bac       _ioterm                    0000000064079bac f   LIBCMT:ioinit.obj
 0001:00078c20       _setenvp                   0000000064079c20 f   LIBCMT:stdenvp.obj
 0001:00078f20       _setargv                   0000000064079f20 f   LIBCMT:stdargv.obj
 0001:00079018       __crtGetEnvironmentStringsA 000000006407a018 f   LIBCMT:a_env.obj
 0001:0007910c       _RTC_Initialize            000000006407a10c f   LIBCMT:_initsect_.obj
 0001:00079144       _RTC_Terminate             000000006407a144 f   LIBCMT:_initsect_.obj
 0001:0007917c       _XcptFilter                000000006407a17c f   LIBCMT:winxfltr.obj
 0001:0007934c       __CppXcptFilter            000000006407a34c f   LIBCMT:winxfltr.obj
 0001:00079360       DllMain                    000000006407a360 f   LIBCMT:dllmain.obj
 0001:00079360       ?length@charNode@@UEBAHXZ  000000006407a360 f   LIBCMT:undname.obj
 0001:00079368       __security_init_cookie     000000006407a368 f   LIBCMT:gs_support.obj
 0001:0007941c       ?__StateFromIp@@YAHPEBU_s_FuncInfo@@PEAU_xDISPATCHER_CONTEXT@@_J@Z 000000006407a41c f   LIBCMT:ehstate.obj
 0001:000794a8       ?__StateFromControlPc@@YAHPEBU_s_FuncInfo@@PEAU_xDISPATCHER_CONTEXT@@@Z 000000006407a4a8 f   LIBCMT:ehstate.obj
 0001:000794b0       ?__GetCurrentState@@YAHPEA_KPEAU_xDISPATCHER_CONTEXT@@PEBU_s_FuncInfo@@@Z 000000006407a4b0 f   LIBCMT:ehstate.obj
 0001:000794d8       ?__SetState@@YAXPEA_KPEAU_xDISPATCHER_CONTEXT@@PEBU_s_FuncInfo@@H@Z 000000006407a4d8 f   LIBCMT:ehstate.obj
 0001:000794e4       ?__SetUnwindTryBlock@@YAXPEA_KPEAU_xDISPATCHER_CONTEXT@@PEBU_s_FuncInfo@@H@Z 000000006407a4e4 f   LIBCMT:ehstate.obj
 0001:00079520       ?__GetUnwindTryBlock@@YAHPEA_KPEAU_xDISPATCHER_CONTEXT@@PEBU_s_FuncInfo@@@Z 000000006407a520 f   LIBCMT:ehstate.obj
 0001:0007954c       __sys_nerr                 000000006407a54c f   LIBCMT:syserr.obj
 0001:00079554       __sys_errlist              000000006407a554 f   LIBCMT:syserr.obj
 0001:0007955c       strncpy_s                  000000006407a55c f   LIBCMT:strncpy_s.obj
 0001:00079630       _CallSettingFrame          000000006407a630 f   LIBCMT:handlers.obj
 0001:00079670       _GetNextInstrOffset        000000006407a670 f   LIBCMT:handlers.obj
 0001:00079678       ?_ValidateWrite@@YAHPEAXI@Z 000000006407a678 f   LIBCMT:validate.obj
 0001:00079678       ?_ValidateRead@@YAHPEBXI@Z 000000006407a678 f   LIBCMT:validate.obj
 0001:00079678       ?_ValidateExecute@@YAHP6A_JXZ@Z 000000006407a678 f   LIBCMT:validate.obj
 0001:000796a0       _local_unwind              000000006407a6a0 f   LIBCMT:jmpuwind.obj
 0001:000796d0       _NLG_Notify                000000006407a6d0 f   LIBCMT:jmpuwind.obj
 0001:000796f0       __NLG_Dispatch2            000000006407a6f0 f   LIBCMT:jmpuwind.obj
 0001:00079700       __NLG_Return2              000000006407a700 f   LIBCMT:jmpuwind.obj
 0001:0007a274       __free_lc_time             000000006407b274 f   LIBCMT:inittime.obj
 0001:0007a664       __init_time                000000006407b664 f   LIBCMT:inittime.obj
 0001:0007a700       __free_lconv_num           000000006407b700 f   LIBCMT:initnum.obj
 0001:0007a76c       __init_numeric             000000006407b76c f   LIBCMT:initnum.obj
 0001:0007a9d4       __free_lconv_mon           000000006407b9d4 f   LIBCMT:initmon.obj
 0001:0007aae0       __init_monetary            000000006407bae0 f   LIBCMT:initmon.obj
 0001:0007af94       _mtinitlocks               000000006407bf94 f   LIBCMT:mlock.obj
 0001:0007b018       _mtdeletelocks             000000006407c018 f   LIBCMT:mlock.obj
 0001:0007b0a0       _unlock                    000000006407c0a0 f   LIBCMT:mlock.obj
 0001:0007b0b8       _mtinitlocknum             000000006407c0b8 f   LIBCMT:mlock.obj
 0001:0007b1a0       _lock                      000000006407c1a0 f   LIBCMT:mlock.obj
 0001:0007b1e4       strcat_s                   000000006407c1e4 f   LIBCMT:strcat_s.obj
 0001:0007b9b0       __get_qualified_locale     000000006407c9b0 f   LIBCMT:getqloc.obj
 0001:0007bca0       memcmp                     000000006407cca0 f   LIBCMT:memcmp.obj
 0001:0007bec8       __crtGetStringTypeA        000000006407cec8 f   LIBCMT:a_str.obj
 0001:0007bf60       strncmp                    000000006407cf60 f   LIBCMT:strncmp.obj
 0001:0007c018       strpbrk                    000000006407d018 f   LIBCMT:strpbrk.obj
 0001:0007c0b4       _calloc_impl               000000006407d0b4 f   LIBCMT:calloc_impl.obj
 0001:0007c150       realloc                    000000006407d150 f   LIBCMT:realloc.obj
 0001:0007c240       _alloca_probe              000000006407d240     LIBCMT:chkstk.obj
 0001:0007c240       __chkstk                   000000006407d240 f   LIBCMT:chkstk.obj
 0001:0007c290       wcsnlen                    000000006407d290 f   LIBCMT:wcslen_s.obj
 0001:0007c2b0       _initp_misc_winsig         000000006407d2b0 f   LIBCMT:winsig.obj
 0001:0007c2d0       __get_sigabrt              000000006407d2d0 f   LIBCMT:winsig.obj
 0001:0007c2e0       raise                      000000006407d2e0 f   LIBCMT:winsig.obj
 0001:0007c514       __crt_debugger_hook        000000006407d514 f   LIBCMT:dbghook.obj
 0001:0007c51c       ?getNumberOfDimensions@UnDecorator@@CAHXZ 000000006407d51c f   LIBCMT:undname.obj
 0001:0007c58c       ?getTypeEncoding@UnDecorator@@CAHXZ 000000006407d58c f i LIBCMT:undname.obj
 0001:0007ca8c       ?getMemory@_HeapManager@@QEAAPEAX_KH@Z 000000006407da8c f   LIBCMT:undname.obj
 0001:0007cb40       ??0DName@@QEAA@AEBV0@@Z    000000006407db40 f i LIBCMT:undname.obj
 0001:0007cb4c       ?getLastChar@charNode@@UEBADXZ 000000006407db4c f i LIBCMT:undname.obj
 0001:0007cb50       ?getString@charNode@@UEBAPEADPEAD0@Z 000000006407db50 f i LIBCMT:undname.obj
 0001:0007cb64       ?length@pDNameNode@@UEBAHXZ 000000006407db64 f i LIBCMT:undname.obj
 0001:0007cb88       ?getLastChar@pDNameNode@@UEBADXZ 000000006407db88 f i LIBCMT:undname.obj
 0001:0007cbac       ?getString@pDNameNode@@UEBAPEADPEAD0@Z 000000006407dbac f i LIBCMT:undname.obj
 0001:0007cbd4       ?length@DNameStatusNode@@UEBAHXZ 000000006407dbd4 f i LIBCMT:undname.obj
 0001:0007cbd8       ?getLastChar@DNameStatusNode@@UEBADXZ 000000006407dbd8 f i LIBCMT:undname.obj
 0001:0007cbe4       ?make@DNameStatusNode@@SAPEAV1@W4DNameStatus@@@Z 000000006407dbe4 f i LIBCMT:undname.obj
 0001:0007cc6c       ?length@pairNode@@UEBAHXZ  000000006407dc6c f i LIBCMT:undname.obj
 0001:0007ccb4       ?getLastChar@pairNode@@UEBADXZ 000000006407dcb4 f i LIBCMT:undname.obj
 0001:0007ccdc       ?getString@pairNode@@UEBAPEADPEAD0@Z 000000006407dcdc f i LIBCMT:undname.obj
 0001:0007cd18       ??0UnDecorator@@QEAA@PEADPEBDHP6APEADJ@ZK@Z 000000006407dd18 f i LIBCMT:undname.obj
 0001:0007cd8c       ??0DName@@QEAA@PEAV0@@Z    000000006407dd8c f   LIBCMT:undname.obj
 0001:0007ce04       ??0DName@@QEAA@W4DNameStatus@@@Z 000000006407de04 f   LIBCMT:undname.obj
 0001:0007ce50       ?getString@DName@@QEBAPEADPEADH@Z 000000006407de50 f i LIBCMT:undname.obj
 0001:0007ced8       ?append@DName@@AEAAXPEAVDNameNode@@@Z 000000006407ded8 f   LIBCMT:undname.obj
 0001:0007cf3c       ??4DName@@QEAAAEAV0@W4DNameStatus@@@Z 000000006407df3c f   LIBCMT:undname.obj
 0001:0007cf78       ??YReplicator@@QEAAAEAV0@AEBVDName@@@Z 000000006407df78 f   LIBCMT:undname.obj
 0001:0007cfd8       ??AReplicator@@QEBA?AVDName@@H@Z 000000006407dfd8 f   LIBCMT:undname.obj
 0001:0007d01c       ??0pcharNode@@QEAA@PEBDH@Z 000000006407e01c f   LIBCMT:undname.obj
 0001:0007d0a0       ?length@pcharNode@@UEBAHXZ 000000006407e0a0 f i LIBCMT:undname.obj
 0001:0007d0a4       ?getLastChar@pcharNode@@UEBADXZ 000000006407e0a4 f i LIBCMT:undname.obj
 0001:0007d0b8       ?getString@pcharNode@@UEBAPEADPEAD0@Z 000000006407e0b8 f i LIBCMT:undname.obj
 0001:0007d0f0       ?getString@DNameStatusNode@@UEBAPEADPEAD0@Z 000000006407e0f0 f i LIBCMT:undname.obj
 0001:0007d134       ?getReturnType@UnDecorator@@CA?AVDName@@PEAV2@@Z 000000006407e134 f   LIBCMT:undname.obj
 0001:0007d168       ??YDName@@QEAAAEAV0@W4DNameStatus@@@Z 000000006407e168 f   LIBCMT:undname.obj
 0001:0007d1b0       ?doPchar@DName@@AEAAXPEBDH@Z 000000006407e1b0 f   LIBCMT:undname.obj
 0001:0007d25c       ??0DName@@QEAA@D@Z         000000006407e25c f   LIBCMT:undname.obj
 0001:0007d294       ??0DName@@QEAA@PEBD@Z      000000006407e294 f   LIBCMT:undname.obj
 0001:0007d2dc       ??0DName@@QEAA@AEAPEBDD@Z  000000006407e2dc f   LIBCMT:undname.obj
 0001:0007d3cc       ??0DName@@QEAA@_K@Z        000000006407e3cc f   LIBCMT:undname.obj
 0001:0007d45c       ??0DName@@QEAA@_J@Z        000000006407e45c f   LIBCMT:undname.obj
 0001:0007d508       ??YDName@@QEAAAEAV0@AEBV0@@Z 000000006407e508 f   LIBCMT:undname.obj
 0001:0007d548       ??4DName@@QEAAAEAV0@PEBD@Z 000000006407e548 f   LIBCMT:undname.obj
 0001:0007d588       ?getCallingConvention@UnDecorator@@CA?AVDName@@XZ 000000006407e588 f   LIBCMT:undname.obj
 0001:0007d688       ??YDName@@QEAAAEAV0@D@Z    000000006407e688 f   LIBCMT:undname.obj
 0001:0007d70c       ??YDName@@QEAAAEAV0@PEBD@Z 000000006407e70c f   LIBCMT:undname.obj
 0001:0007d798       ?getArgumentList@UnDecorator@@CA?AVDName@@XZ 000000006407e798 f   LIBCMT:undname.obj
 0001:0007d900       ?getDimension@UnDecorator@@CA?AVDName@@_N@Z 000000006407e900 f   LIBCMT:undname.obj
 0001:0007da68       ?getEnumType@UnDecorator@@CA?AVDName@@XZ 000000006407ea68 f i LIBCMT:undname.obj
 0001:0007db68       ?getArgumentTypes@UnDecorator@@CA?AVDName@@XZ 000000006407eb68 f   LIBCMT:undname.obj
 0001:0007dc70       ?getThrowTypes@UnDecorator@@CA?AVDName@@XZ 000000006407ec70 f   LIBCMT:undname.obj
 0001:0007dd64       ?getExtendedDataIndirectType@UnDecorator@@CA?AVDName@@AEAPEBDAEA_NH@Z 000000006407ed64 f   LIBCMT:undname.obj
 0001:0007dfcc       ?getArrayType@UnDecorator@@CA?AVDName@@AEBV2@@Z 000000006407efcc f i LIBCMT:undname.obj
 0001:0007e2b0       ?getVfTableType@UnDecorator@@CA?AVDName@@AEBV2@@Z 000000006407f2b0 f i LIBCMT:undname.obj
 0001:0007e4a4       ?getStringEncoding@UnDecorator@@CA?AVDName@@PEADH@Z 000000006407f4a4 f   LIBCMT:undname.obj
 0001:0007e578       ?getSignedDimension@UnDecorator@@CA?AVDName@@XZ 000000006407f578 f   LIBCMT:undname.obj
 0001:0007e5f4       ?getTemplateConstant@UnDecorator@@CA?AVDName@@XZ 000000006407f5f4 f   LIBCMT:undname.obj
 0001:0007e95c       ?getPtrRefDataType@UnDecorator@@CA?AVDName@@AEBV2@H@Z 000000006407f95c f i LIBCMT:undname.obj
 0001:0007ea64       ?getTemplateArgumentList@UnDecorator@@CA?AVDName@@XZ 000000006407fa64 f   LIBCMT:undname.obj
 0001:0007ecd8       ?getOperatorName@UnDecorator@@CA?AVDName@@_NPEA_N@Z 000000006407fcd8 f i LIBCMT:undname.obj
 0001:0007f414       ?getTemplateName@UnDecorator@@CA?AVDName@@_N@Z 0000000064080414 f   LIBCMT:undname.obj
 0001:0007f5e8       ?getZName@UnDecorator@@CA?AVDName@@_N0@Z 00000000640805e8 f   LIBCMT:undname.obj
 0001:0007f860       ?getScopedName@UnDecorator@@CA?AVDName@@XZ 0000000064080860 f   LIBCMT:undname.obj
 0001:0007f978       ?getECSUDataType@UnDecorator@@CA?AVDName@@XZ 0000000064080978 f   LIBCMT:undname.obj
 0001:0007fad8       ?getSymbolName@UnDecorator@@CA?AVDName@@XZ 0000000064080ad8 f i LIBCMT:undname.obj
 0001:0007fb24       ?getBasedType@UnDecorator@@CA?AVDName@@XZ 0000000064080b24 f   LIBCMT:undname.obj
 0001:0007fc10       ?composeDeclaration@UnDecorator@@CA?AVDName@@AEBV2@@Z 0000000064080c10 f i LIBCMT:undname.obj
 0001:0008092c       ?getDecoratedName@UnDecorator@@CA?AVDName@@XZ 000000006408192c f   LIBCMT:undname.obj
 0001:00080bbc       ?getScope@UnDecorator@@CA?AVDName@@XZ 0000000064081bbc f   LIBCMT:undname.obj
 0001:00080fa8       ?getFunctionIndirectType@UnDecorator@@CA?AVDName@@AEBV2@@Z 0000000064081fa8 f   LIBCMT:undname.obj
 0001:00081494       ?getDataIndirectType@UnDecorator@@CA?AVDName@@AEBV2@PEBD0H@Z 0000000064082494 f   LIBCMT:undname.obj
 0001:00081bd4       ??BUnDecorator@@QEAAPEADXZ 0000000064082bd4 f i LIBCMT:undname.obj
 0001:00081d7c       ?getPtrRefType@UnDecorator@@CA?AVDName@@AEBV2@0PEBD@Z 0000000064082d7c f   LIBCMT:undname.obj
 0001:00081eb4       __unDName                  0000000064082eb4 f   LIBCMT:undname.obj
 0001:00081fbc       ?getBasicDataType@UnDecorator@@CA?AVDName@@AEBV2@@Z 0000000064082fbc f   LIBCMT:undname.obj
 0001:000823f8       ?getPrimaryDataType@UnDecorator@@CA?AVDName@@AEBV2@@Z 00000000640833f8 f   LIBCMT:undname.obj
 0001:00082608       ?getDataType@UnDecorator@@CA?AVDName@@PEAV2@@Z 0000000064083608 f   LIBCMT:undname.obj
 0001:000826f0       ?getExternalDataType@UnDecorator@@CA?AVDName@@AEBV2@@Z 00000000640836f0 f i LIBCMT:undname.obj
 0001:000827c4       _initp_misc_rand_s         00000000640837c4 f   LIBCMT:rand_s.obj
 0001:000827cc       _initp_misc_cfltcvt_tab    00000000640837cc f   LIBCMT:cmiscdat.obj
 0001:00082810       _ValidateImageBase         0000000064083810 f   LIBCMT:pesect.obj
 0001:00082840       _FindPESection             0000000064083840 f   LIBCMT:pesect.obj
 0001:00082890       _IsNonwritableInCurrentImage 0000000064083890 f   LIBCMT:pesect.obj
 0001:000828d4       __crtMessageBoxW           00000000640838d4 f   LIBCMT:crtmboxw.obj
 0001:00082adc       wcscat_s                   0000000064083adc f   LIBCMT:wcscat_s.obj
 0001:00082b64       wcsncpy_s                  0000000064083b64 f   LIBCMT:wcsncpy_s.obj
 0001:00082c34       wcslen                     0000000064083c34 f   LIBCMT:wcslen.obj
 0001:00082c50       wcscpy_s                   0000000064083c50 f   LIBCMT:wcscpy_s.obj
 0001:00082cbc       _set_error_mode            0000000064083cbc f   LIBCMT:errmode.obj
 0001:00082e54       __crtGetLocaleInfoA        0000000064083e54 f   LIBCMT:a_loc.obj
 0001:00082ebc       iswctype                   0000000064083ebc f   LIBCMT:iswctype.obj
 0001:00082f24       _lseeki64_nolock           0000000064083f24 f   LIBCMT:lseeki64.obj
 0001:00082fbc       _lseeki64                  0000000064083fbc f   LIBCMT:lseeki64.obj
 0001:000830a0       _write_nolock              00000000640840a0 f   LIBCMT:write.obj
 0001:00083800       _write                     0000000064084800 f   LIBCMT:write.obj
 0001:000838e0       _getbuf                    00000000640848e0 f   LIBCMT:_getbuf.obj
 0001:00083934       _isatty                    0000000064084934 f   LIBCMT:isatty.obj
 0001:00083994       __iob_func                 0000000064084994 f   LIBCMT:_file.obj
 0001:0008399c       __initstdio                000000006408499c f   LIBCMT:_file.obj
 0001:00083a7c       __endstdio                 0000000064084a7c f   LIBCMT:_file.obj
 0001:00083aa4       _lock_file                 0000000064084aa4 f   LIBCMT:_file.obj
 0001:00083b08       _lock_file2                0000000064084b08 f   LIBCMT:_file.obj
 0001:00083b3c       _unlock_file               0000000064084b3c f   LIBCMT:_file.obj
 0001:00083b88       _unlock_file2              0000000064084b88 f   LIBCMT:_file.obj
 0001:00083ba8       _fileno                    0000000064084ba8 f   LIBCMT:fileno.obj
 0001:00083bd0       _get_printf_count_output   0000000064084bd0 f   LIBCMT:printf.obj
 0001:00083be8       _wctomb_s_l                0000000064084be8 f   LIBCMT:wctomb.obj
 0001:00083dac       wctomb_s                   0000000064084dac f   LIBCMT:wctomb.obj
 0001:00083f04       _output_s_l                0000000064084f04 f   LIBCMT:outputs.obj
 0001:000849b0       _wchartodigit              00000000640859b0 f   LIBCMT:wchtodig.obj
 0001:00084bc4       _ismbblead                 0000000064085bc4 f   LIBCMT:ismbbyte.obj
 0001:00084bd8       __ascii_stricmp            0000000064085bd8 f   LIBCMT:stricmp.obj
 0001:00084c14       _stricmp_l                 0000000064085c14 f   LIBCMT:stricmp.obj
 0001:00084cec       _stricmp                   0000000064085cec f   LIBCMT:stricmp.obj
 0001:00084d34       __ascii_strnicmp           0000000064085d34 f   LIBCMT:strnicmp.obj
 0001:00084d7c       _strnicmp_l                0000000064085d7c f   LIBCMT:strnicmp.obj
 0001:00084e80       _strnicmp                  0000000064085e80 f   LIBCMT:strnicmp.obj
 0001:00084ed0       _fptrap                    0000000064085ed0 f   LIBCMT:crt0fp.obj
 0001:00084edc       _free_osfhnd               0000000064085edc f   LIBCMT:osfinfo.obj
 0001:00084f88       _get_osfhandle             0000000064085f88 f   LIBCMT:osfinfo.obj
 0001:00084ffc       __lock_fhandle             0000000064085ffc f   LIBCMT:osfinfo.obj
 0001:000850a4       _unlock_fhandle            00000000640860a4 f   LIBCMT:osfinfo.obj
 0001:000850cc       _putwch_nolock             00000000640860cc f   LIBCMT:putwch.obj
 0001:00085128       _mbtowc_l                  0000000064086128 f   LIBCMT:mbtowc.obj
 0001:000852a0       mbtowc                     00000000640862a0 f   LIBCMT:mbtowc.obj
 0001:000852a8       _fcloseall                 00000000640862a8 f   LIBCMT:closeall.obj
 0001:00085354       _flush                     0000000064086354 f   LIBCMT:fflush.obj
 0001:000853d0       _fflush_nolock             00000000640863d0 f   LIBCMT:fflush.obj
 0001:00085508       _flushall                  0000000064086508 f   LIBCMT:fflush.obj
 0001:00085514       __initconout               0000000064086514 f   LIBCMT:initcon.obj
 0001:00085550       __termconout               0000000064086550 f   LIBCMT:initcon.obj
 0001:00085574       _fclose_nolock             0000000064086574 f   LIBCMT:fclose.obj
 0001:000855f0       fclose                     00000000640865f0 f   LIBCMT:fclose.obj
 0001:00085658       _commit                    0000000064086658 f   LIBCMT:commit.obj
 0001:00085730       _close_nolock              0000000064086730 f   LIBCMT:close.obj
 0001:000857ec       _close                     00000000640867ec f   LIBCMT:close.obj
 0001:000858b0       _freebuf                   00000000640868b0 f   LIBCMT:_freebuf.obj
 0001:000858e8       RtlPcToFileHeader          00000000640868e8 f   kernel32:KERNEL32.dll
 0001:000858ee       RtlLookupFunctionEntry     00000000640868ee f   kernel32:KERNEL32.dll
 0001:000858f4       RtlUnwindEx                00000000640868f4 f   kernel32:KERNEL32.dll
 0001:000858fa       RtlVirtualUnwind           00000000640868fa f   kernel32:KERNEL32.dll
 0001:00085900       _cfltcvt_init              0000000064086900 f   LIBCMT:_fpinit_.obj
 0001:00085988       _fpmath                    0000000064086988 f   LIBCMT:_fpinit_.obj
 0001:00085990       __GSHandlerCheck_EH        0000000064086990 f   LIBCMT:gshandlereh.obj
 0001:00085a20       _forcdecpt_l               0000000064086a20 f   LIBCMT:cvt.obj
 0001:00085aa0       _cropzeros_l               0000000064086aa0 f   LIBCMT:cvt.obj
 0001:00085b40       _positive                  0000000064086b40 f   LIBCMT:cvt.obj
 0001:00085b58       _fassign_l                 0000000064086b58 f   LIBCMT:cvt.obj
 0001:00085b9c       _fassign                   0000000064086b9c f   LIBCMT:cvt.obj
 0001:00085ba4       _forcdecpt                 0000000064086ba4 f   LIBCMT:cvt.obj
 0001:00085bac       _cropzeros                 0000000064086bac f   LIBCMT:cvt.obj
 0001:00085de8       _cftoe_l                   0000000064086de8 f   LIBCMT:cvt.obj
 0001:00085ee0       _cftoa_l                   0000000064086ee0 f   LIBCMT:cvt.obj
 0001:0008645c       _cftof_l                   000000006408745c f   LIBCMT:cvt.obj
 0001:00086530       _cftog_l                   0000000064087530 f   LIBCMT:cvt.obj
 0001:00086664       _cfltcvt_l                 0000000064087664 f   LIBCMT:cvt.obj
 0001:000866fc       _cfltcvt                   00000000640876fc f   LIBCMT:cvt.obj
 0001:00086720       strrchr                    0000000064087720 f   LIBCMT:strrchr.obj
 0001:00086748       _atodbl_l                  0000000064087748 f   LIBCMT:atodbl.obj
 0001:00086848       _atoflt_l                  0000000064087848 f   LIBCMT:atodbl.obj
 0001:00086948       _fptostr                   0000000064087948 f   LIBCMT:_fptostr.obj
 0001:00086a14       __dtold                    0000000064087a14 f   LIBCMT:_cfout_.obj
 0001:00086adc       _fltout2                   0000000064087adc f   LIBCMT:_cfout_.obj
 0001:00086b94       _ld12tod                   0000000064087b94 f   LIBCMT:_intrncvt_.obj
 0001:00087160       _ld12tof                   0000000064088160 f   LIBCMT:_intrncvt_.obj
 0001:0008772c       __strgtold12_l             000000006408872c f   LIBCMT:_strgtold_.obj
 0001:00087f90       $I10_OUTPUT                0000000064088f90 f   LIBCMT:_x10fout_.obj
 0001:00088a44       __mtold12                  0000000064089a44 f   LIBCMT:_mantold_.obj
 0002:00000000       __imp_RegQueryValueExW     000000006409a000     advapi32:ADVAPI32.dll
 0002:00000008       __imp_RegCloseKey          000000006409a008     advapi32:ADVAPI32.dll
 0002:00000010       __imp_RegOpenKeyExW        000000006409a010     advapi32:ADVAPI32.dll
 0002:00000018       \177ADVAPI32_NULL_THUNK_DATA 000000006409a018     advapi32:ADVAPI32.dll
 0002:00000020       __imp_ReadFile             000000006409a020     kernel32:KERNEL32.dll
 0002:00000028       __imp_FlushFileBuffers     000000006409a028     kernel32:KERNEL32.dll
 0002:00000030       __imp_WriteConsoleW        000000006409a030     kernel32:KERNEL32.dll
 0002:00000038       __imp_SetStdHandle         000000006409a038     kernel32:KERNEL32.dll
 0002:00000040       __imp_GetConsoleMode       000000006409a040     kernel32:KERNEL32.dll
 0002:00000048       __imp_GetConsoleCP         000000006409a048     kernel32:KERNEL32.dll
 0002:00000050       __imp_SetFilePointer       000000006409a050     kernel32:KERNEL32.dll
 0002:00000058       __imp_HeapReAlloc          000000006409a058     kernel32:KERNEL32.dll
 0002:00000060       __imp_IsValidLocale        000000006409a060     kernel32:KERNEL32.dll
 0002:00000068       __imp_EnumSystemLocalesA   000000006409a068     kernel32:KERNEL32.dll
 0002:00000070       __imp_GetLocaleInfoA       000000006409a070     kernel32:KERNEL32.dll
 0002:00000078       __imp_GetUserDefaultLCID   000000006409a078     kernel32:KERNEL32.dll
 0002:00000080       __imp_GetSystemTimeAsFileTime 000000006409a080     kernel32:KERNEL32.dll
 0002:00000088       __imp_GetCurrentProcessId  000000006409a088     kernel32:KERNEL32.dll
 0002:00000090       __imp_FreeLibrary          000000006409a090     kernel32:KERNEL32.dll
 0002:00000098       __imp_LoadLibraryW         000000006409a098     kernel32:KERNEL32.dll
 0002:000000a0       __imp_GetProcAddress       000000006409a0a0     kernel32:KERNEL32.dll
 0002:000000a8       __imp_lstrcmpiW            000000006409a0a8     kernel32:KERNEL32.dll
 0002:000000b0       __imp_QueryPerformanceCounter 000000006409a0b0     kernel32:KERNEL32.dll
 0002:000000b8       __imp_QueryPerformanceFrequency 000000006409a0b8     kernel32:KERNEL32.dll
 0002:000000c0       __imp_GetPriorityClass     000000006409a0c0     kernel32:KERNEL32.dll
 0002:000000c8       __imp_GetCurrentProcess    000000006409a0c8     kernel32:KERNEL32.dll
 0002:000000d0       __imp_SetConsoleTitleW     000000006409a0d0     kernel32:KERNEL32.dll
 0002:000000d8       __imp_GetStdHandle         000000006409a0d8     kernel32:KERNEL32.dll
 0002:000000e0       __imp_PeekConsoleInputW    000000006409a0e0     kernel32:KERNEL32.dll
 0002:000000e8       __imp_ReadConsoleInputW    000000006409a0e8     kernel32:KERNEL32.dll
 0002:000000f0       __imp_SetPriorityClass     000000006409a0f0     kernel32:KERNEL32.dll
 0002:000000f8       __imp_CompareFileTime      000000006409a0f8     kernel32:KERNEL32.dll
 0002:00000100       __imp_SetThreadExecutionState 000000006409a100     kernel32:KERNEL32.dll
 0002:00000108       __imp_GlobalMemoryStatus   000000006409a108     kernel32:KERNEL32.dll
 0002:00000110       __imp_VirtualAlloc         000000006409a110     kernel32:KERNEL32.dll
 0002:00000118       __imp_GetLastError         000000006409a118     kernel32:KERNEL32.dll
 0002:00000120       __imp_VirtualFree          000000006409a120     kernel32:KERNEL32.dll
 0002:00000128       __imp_GetDiskFreeSpaceW    000000006409a128     kernel32:KERNEL32.dll
 0002:00000130       __imp_DeviceIoControl      000000006409a130     kernel32:KERNEL32.dll
 0002:00000138       __imp_InitializeCriticalSection 000000006409a138     kernel32:KERNEL32.dll
 0002:00000140       __imp_DeleteCriticalSection 000000006409a140     kernel32:KERNEL32.dll
 0002:00000148       __imp_EnterCriticalSection 000000006409a148     kernel32:KERNEL32.dll
 0002:00000150       __imp_LeaveCriticalSection 000000006409a150     kernel32:KERNEL32.dll
 0002:00000158       __imp_GetSystemTime        000000006409a158     kernel32:KERNEL32.dll
 0002:00000160       __imp_SystemTimeToFileTime 000000006409a160     kernel32:KERNEL32.dll
 0002:00000168       __imp_FileTimeToLocalFileTime 000000006409a168     kernel32:KERNEL32.dll
 0002:00000170       __imp_FileTimeToSystemTime 000000006409a170     kernel32:KERNEL32.dll
 0002:00000178       __imp_GetDateFormatW       000000006409a178     kernel32:KERNEL32.dll
 0002:00000180       __imp_GetTimeFormatW       000000006409a180     kernel32:KERNEL32.dll
 0002:00000188       __imp_FindResourceExW      000000006409a188     kernel32:KERNEL32.dll
 0002:00000190       __imp_LoadResource         000000006409a190     kernel32:KERNEL32.dll
 0002:00000198       __imp_LockResource         000000006409a198     kernel32:KERNEL32.dll
 0002:000001a0       __imp_EnumResourceNamesW   000000006409a1a0     kernel32:KERNEL32.dll
 0002:000001a8       __imp_EnumResourceLanguagesW 000000006409a1a8     kernel32:KERNEL32.dll
 0002:000001b0       __imp_LoadLibraryExW       000000006409a1b0     kernel32:KERNEL32.dll
 0002:000001b8       __imp_BeginUpdateResourceW 000000006409a1b8     kernel32:KERNEL32.dll
 0002:000001c0       __imp_EndUpdateResourceW   000000006409a1c0     kernel32:KERNEL32.dll
 0002:000001c8       __imp_UpdateResourceW      000000006409a1c8     kernel32:KERNEL32.dll
 0002:000001d0       __imp_FormatMessageW       000000006409a1d0     kernel32:KERNEL32.dll
 0002:000001d8       __imp_GetModuleHandleW     000000006409a1d8     kernel32:KERNEL32.dll
 0002:000001e0       __imp_LocalFree            000000006409a1e0     kernel32:KERNEL32.dll
 0002:000001e8       __imp_GetConsoleTitleW     000000006409a1e8     kernel32:KERNEL32.dll
 0002:000001f0       __imp_MultiByteToWideChar  000000006409a1f0     kernel32:KERNEL32.dll
 0002:000001f8       __imp_WideCharToMultiByte  000000006409a1f8     kernel32:KERNEL32.dll
 0002:00000200       __imp_ExpandEnvironmentStringsW 000000006409a200     kernel32:KERNEL32.dll
 0002:00000208       __imp_CreateFileW          000000006409a208     kernel32:KERNEL32.dll
 0002:00000210       __imp_CloseHandle          000000006409a210     kernel32:KERNEL32.dll
 0002:00000218       __imp_GetFileSizeEx        000000006409a218     kernel32:KERNEL32.dll
 0002:00000220       __imp_WriteFile            000000006409a220     kernel32:KERNEL32.dll
 0002:00000228       __imp_SetFileTime          000000006409a228     kernel32:KERNEL32.dll
 0002:00000230       __imp_SetFilePointerEx     000000006409a230     kernel32:KERNEL32.dll
 0002:00000238       __imp_SetEndOfFile         000000006409a238     kernel32:KERNEL32.dll
 0002:00000240       __imp_GetFileInformationByHandle 000000006409a240     kernel32:KERNEL32.dll
 0002:00000248       __imp_GetFileAttributesW   000000006409a248     kernel32:KERNEL32.dll
 0002:00000250       __imp_SetFileAttributesW   000000006409a250     kernel32:KERNEL32.dll
 0002:00000258       __imp_DeleteFileW          000000006409a258     kernel32:KERNEL32.dll
 0002:00000260       __imp_CreateDirectoryW     000000006409a260     kernel32:KERNEL32.dll
 0002:00000268       __imp_RemoveDirectoryW     000000006409a268     kernel32:KERNEL32.dll
 0002:00000270       __imp_MoveFileExW          000000006409a270     kernel32:KERNEL32.dll
 0002:00000278       __imp_FindFirstFileW       000000006409a278     kernel32:KERNEL32.dll
 0002:00000280       __imp_FindClose            000000006409a280     kernel32:KERNEL32.dll
 0002:00000288       __imp_SetLastError         000000006409a288     kernel32:KERNEL32.dll
 0002:00000290       __imp_FindNextFileW        000000006409a290     kernel32:KERNEL32.dll
 0002:00000298       __imp_GetTempPathW         000000006409a298     kernel32:KERNEL32.dll
 0002:000002a0       __imp_GetTempFileNameW     000000006409a2a0     kernel32:KERNEL32.dll
 0002:000002a8       __imp_HeapSetInformation   000000006409a2a8     kernel32:KERNEL32.dll
 0002:000002b0       __imp_SearchPathW          000000006409a2b0     kernel32:KERNEL32.dll
 0002:000002b8       __imp_GetStringTypeW       000000006409a2b8     kernel32:KERNEL32.dll
 0002:000002c0       __imp_Sleep                000000006409a2c0     kernel32:KERNEL32.dll
 0002:000002c8       __imp_EncodePointer        000000006409a2c8     kernel32:KERNEL32.dll
 0002:000002d0       __imp_DecodePointer        000000006409a2d0     kernel32:KERNEL32.dll
 0002:000002d8       __imp_RtlPcToFileHeader    000000006409a2d8     kernel32:KERNEL32.dll
 0002:000002e0       __imp_HeapFree             000000006409a2e0     kernel32:KERNEL32.dll
 0002:000002e8       __imp_GetVersion           000000006409a2e8     kernel32:KERNEL32.dll
 0002:000002f0       __imp_HeapCreate           000000006409a2f0     kernel32:KERNEL32.dll
 0002:000002f8       __imp_HeapDestroy          000000006409a2f8     kernel32:KERNEL32.dll
 0002:00000300       __imp_GetCurrentThreadId   000000006409a300     kernel32:KERNEL32.dll
 0002:00000308       __imp_FlsSetValue          000000006409a308     kernel32:KERNEL32.dll
 0002:00000310       __imp_GetCommandLineA      000000006409a310     kernel32:KERNEL32.dll
 0002:00000318       __imp_RaiseException       000000006409a318     kernel32:KERNEL32.dll
 0002:00000320       __imp_RtlLookupFunctionEntry 000000006409a320     kernel32:KERNEL32.dll
 0002:00000328       __imp_RtlUnwindEx          000000006409a328     kernel32:KERNEL32.dll
 0002:00000330       __imp_HeapAlloc            000000006409a330     kernel32:KERNEL32.dll
 0002:00000338       __imp_GetCPInfo            000000006409a338     kernel32:KERNEL32.dll
 0002:00000340       __imp_LCMapStringW         000000006409a340     kernel32:KERNEL32.dll
 0002:00000348       __imp_TerminateProcess     000000006409a348     kernel32:KERNEL32.dll
 0002:00000350       __imp_UnhandledExceptionFilter 000000006409a350     kernel32:KERNEL32.dll
 0002:00000358       __imp_SetUnhandledExceptionFilter 000000006409a358     kernel32:KERNEL32.dll
 0002:00000360       __imp_IsDebuggerPresent    000000006409a360     kernel32:KERNEL32.dll
 0002:00000368       __imp_RtlVirtualUnwind     000000006409a368     kernel32:KERNEL32.dll
 0002:00000370       __imp_RtlCaptureContext    000000006409a370     kernel32:KERNEL32.dll
 0002:00000378       __imp_HeapSize             000000006409a378     kernel32:KERNEL32.dll
 0002:00000380       __imp_ExitProcess          000000006409a380     kernel32:KERNEL32.dll
 0002:00000388       __imp_GetModuleFileNameW   000000006409a388     kernel32:KERNEL32.dll
 0002:00000390       __imp_GetLocaleInfoW       000000006409a390     kernel32:KERNEL32.dll
 0002:00000398       __imp_GetACP               000000006409a398     kernel32:KERNEL32.dll
 0002:000003a0       __imp_GetOEMCP             000000006409a3a0     kernel32:KERNEL32.dll
 0002:000003a8       __imp_IsValidCodePage      000000006409a3a8     kernel32:KERNEL32.dll
 0002:000003b0       __imp_FlsGetValue          000000006409a3b0     kernel32:KERNEL32.dll
 0002:000003b8       __imp_FlsFree              000000006409a3b8     kernel32:KERNEL32.dll
 0002:000003c0       __imp_FlsAlloc             000000006409a3c0     kernel32:KERNEL32.dll
 0002:000003c8       __imp_SetHandleCount       000000006409a3c8     kernel32:KERNEL32.dll
 0002:000003d0       __imp_InitializeCriticalSectionAndSpinCount 000000006409a3d0     kernel32:KERNEL32.dll
 0002:000003d8       __imp_GetFileType          000000006409a3d8     kernel32:KERNEL32.dll
 0002:000003e0       __imp_GetStartupInfoW      000000006409a3e0     kernel32:KERNEL32.dll
 0002:000003e8       __imp_GetModuleFileNameA   000000006409a3e8     kernel32:KERNEL32.dll
 0002:000003f0       __imp_FreeEnvironmentStringsW 000000006409a3f0     kernel32:KERNEL32.dll
 0002:000003f8       __imp_GetEnvironmentStringsW 000000006409a3f8     kernel32:KERNEL32.dll
 0002:00000400       __imp_GetTickCount         000000006409a400     kernel32:KERNEL32.dll
 0002:00000408       \177KERNEL32_NULL_THUNK_DATA 000000006409a408     kernel32:KERNEL32.dll
 0002:00000410       __imp_SysAllocStringLen    000000006409a410     oleaut32:OLEAUT32.dll
 0002:00000418       __imp_SysFreeString        000000006409a418     oleaut32:OLEAUT32.dll
 0002:00000420       __imp_SysStringByteLen     000000006409a420     oleaut32:OLEAUT32.dll
 0002:00000428       __imp_SysStringLen         000000006409a428     oleaut32:OLEAUT32.dll
 0002:00000430       \177OLEAUT32_NULL_THUNK_DATA 000000006409a430     oleaut32:OLEAUT32.dll
 0002:00000438       __imp_CharUpperBuffW       000000006409a438     user32:USER32.dll
 0002:00000440       \177USER32_NULL_THUNK_DATA 000000006409a440     user32:USER32.dll
 0002:00000448       __imp_GetFileVersionInfoSizeW 000000006409a448     version:VERSION.dll
 0002:00000450       __imp_GetFileVersionInfoW  000000006409a450     version:VERSION.dll
 0002:00000458       __imp_VerQueryValueW       000000006409a458     version:VERSION.dll
 0002:00000460       \177VERSION_NULL_THUNK_DATA 000000006409a460     version:VERSION.dll
 0002:00000468       __imp_CoCreateGuid         000000006409a468     ole32:ole32.dll
 0002:00000470       __imp_PropVariantClear     000000006409a470     ole32:ole32.dll
 0002:00000478       __imp_StringFromGUID2      000000006409a478     ole32:ole32.dll
 0002:00000480       __imp_PropVariantCopy      000000006409a480     ole32:ole32.dll
 0002:00000488       \177ole32_NULL_THUNK_DATA  000000006409a488     ole32:ole32.dll
 0002:00000490       __xc_a                     000000006409a490     LIBCMT:crt0init.obj
 0002:00000550       __xc_z                     000000006409a550     LIBCMT:crt0init.obj
 0002:00000558       __xi_a                     000000006409a558     LIBCMT:crt0init.obj
 0002:00000580       __xi_z                     000000006409a580     LIBCMT:crt0init.obj
 0002:00000588       __xp_a                     000000006409a588     LIBCMT:crt0init.obj
 0002:000005a0       __xp_z                     000000006409a5a0     LIBCMT:crt0init.obj
 0002:000005a8       __xt_a                     000000006409a5a8     LIBCMT:crt0init.obj
 0002:000005b0       __xt_z                     000000006409a5b0     LIBCMT:crt0init.obj
 0002:000005c0       IID_IUnknown               000000006409a5c0     uuid:unknwn_i.obj
 0002:000005d8       ??_7logic_error@std@@6B@   000000006409a5d8     libcpmt:xthrow.obj
 0002:000005f0       ??_7length_error@std@@6B@  000000006409a5f0     libcpmt:xthrow.obj
 0002:00000608       ??_7out_of_range@std@@6B@  000000006409a608     libcpmt:xthrow.obj
 0002:00000620       ??_7runtime_error@std@@6B@ 000000006409a620     libcpmt:xthrow.obj
 0002:00000630       ?_BADOFF@std@@3_JB         000000006409a630     libcpmt:ios.obj
 0002:00000640       ??_7error_category@std@@6B@ 000000006409a640     libcpmt:syserror.obj
 0002:00000670       ??_C@_07DCLBNMLN@generic?$AA@ 000000006409a670     libcpmt:syserror.obj
 0002:00000680       ??_7_Generic_error_category@std@@6B@ 000000006409a680     libcpmt:syserror.obj
 0002:000006b8       ??_7bad_alloc@std@@6B@     000000006409a6b8     libcpmt:syserror.obj
 0002:000006c8       ??_C@_08LLGCOLLL@iostream?$AA@ 000000006409a6c8     libcpmt:syserror.obj
 0002:000006e0       ??_7_Iostream_error_category@std@@6B@ 000000006409a6e0     libcpmt:syserror.obj
 0002:00000710       ??_C@_06FHFOAHML@system?$AA@ 000000006409a710     libcpmt:syserror.obj
 0002:00000720       ??_7_System_error_category@std@@6B@ 000000006409a720     libcpmt:syserror.obj
 0002:00000750       ??_C@_0BG@PADBLCHM@iostream?5stream?5error?$AA@ 000000006409a750     libcpmt:syserror.obj
 0002:00000770       ??_7facet@locale@std@@6B@  000000006409a770     libcpmt:locale0.obj
 0002:000007a0       ??_C@_01NBENCBCI@?$CK?$AA@ 000000006409a7a0     libcpmt:locale0.obj
 0002:000007b0       ??_7_Locimp@locale@std@@6B@ 000000006409a7b0     libcpmt:locale0.obj
 0002:00000808       ??_C@_01GFHCPBMG@C?$AA@    000000006409a808     libcpmt:locale0.obj
 0002:00000840       ??_7exception@std@@6B@     000000006409a840     LIBCMT:stdexcpt.obj
 0002:00000850       ??_C@_0BC@EOODALEL@Unknown?5exception?$AA@ 000000006409a850     LIBCMT:stdexcpt.obj
 0002:00000870       ??_7bad_cast@std@@6B@      000000006409a870     LIBCMT:stdexcpt.obj
 0002:00000888       ??_7bad_typeid@std@@6B@    000000006409a888     LIBCMT:stdexcpt.obj
 0002:000008a0       ??_7__non_rtti_object@std@@6B@ 000000006409a8a0     LIBCMT:stdexcpt.obj
 0002:000008b8       ??_7type_info@@6B@         000000006409a8b8     LIBCMT:typinfo.obj
 0002:000008c0       ??_C@_0P@GHFPNOJB@bad?5allocation?$AA@ 000000006409a8c0     LIBCMT:new.obj
 0002:000008d0       ??_C@_0CB@CGKGGDFI@Access?5violation?5?9?5no?5RTTI?5data?$CB@ 000000006409a8d0     LIBCMT:rtti.obj
 0002:000008f8       ??_C@_0CB@EEENAAHH@Bad?5read?5pointer?5?9?5no?5RTTI?5data?$CB@ 000000006409a8f8     LIBCMT:rtti.obj
 0002:00000920       ??_C@_0CE@FFJAJLDK@Attempted?5a?5typeid?5of?5NULL?5point@ 000000006409a920     LIBCMT:rtti.obj
 0002:00000948       _pRawDllMain               000000006409a948     LIBCMT:dllcrt0.obj
 0002:00000948       _pDefaultRawDllMain        000000006409a948     LIBCMT:dllcrt0.obj
 0002:00000a30       ??_C@_0EA@FCLIIPNN@Visual?5C?$CL?$CL?5CRT?3?5Not?5enough?5memor@ 000000006409aa30     LIBCMT:strerror.obj
 0002:00000a70       _pDestructExceptionObject  000000006409aa70     LIBCMT:frame.obj
 0002:00000a80       ??_7bad_exception@std@@6B@ 000000006409aa80     LIBCMT:frame.obj
 0002:00000a90       ??_C@_0O@DPKOEFFH@bad?5exception?$AA@ 000000006409aa90     LIBCMT:frame.obj
 0002:00000aa0       ??_C@_07LCBHPJJN@LC_TIME?$AA@ 000000006409aaa0     LIBCMT:setlocal.obj
 0002:00000aa8       ??_C@_0L@DLHIECNL@LC_NUMERIC?$AA@ 000000006409aaa8     LIBCMT:setlocal.obj
 0002:00000ab8       ??_C@_0M@MIENIKLA@LC_MONETARY?$AA@ 000000006409aab8     LIBCMT:setlocal.obj
 0002:00000ac8       ??_C@_08EADHIDAD@LC_CTYPE?$AA@ 000000006409aac8     LIBCMT:setlocal.obj
 0002:00000ad8       ??_C@_0L@KFJHEKIK@LC_COLLATE?$AA@ 000000006409aad8     LIBCMT:setlocal.obj
 0002:00000ae4       ??_C@_06NEFDFEKB@LC_ALL?$AA@ 000000006409aae4     LIBCMT:setlocal.obj
 0002:00000af0       __lc_category              000000006409aaf0     LIBCMT:setlocal.obj
 0002:00000c00       ??_C@_03EGDHDPFD@_?4?0?$AA@ 000000006409ac00     LIBCMT:setlocal.obj
 0002:00000c04       ??_C@_01LFCBOECM@?4?$AA@   000000006409ac04     LIBCMT:setlocal.obj
 0002:00000c08       ??_C@_01IDAFKMJL@_?$AA@    000000006409ac08     LIBCMT:setlocal.obj
 0002:00000c0c       ??_C@_01ICJEACDI@?$DL?$AA@ 000000006409ac0c     LIBCMT:setlocal.obj
 0002:00000c10       ??_C@_01NEMOKFLO@?$DN?$AA@ 000000006409ac10     LIBCMT:setlocal.obj
 0002:00000c14       ??_C@_02BALPLPBG@?$DN?$DL?$AA@ 000000006409ac14     LIBCMT:setlocal.obj
 0002:00000c20       __newctype                 000000006409ac20     LIBCMT:ctype.obj
 0002:00000f20       _wctype                    000000006409af20     LIBCMT:ctype.obj
 0002:00001130       __newclmap                 000000006409b130     LIBCMT:ctype.obj
 0002:000012b0       __newcumap                 000000006409b2b0     LIBCMT:ctype.obj
 0002:00001440       ??_C@_0P@MIGLKIOC@CorExitProcess?$AA@ 000000006409b440     LIBCMT:crt0dat.obj
 0002:00001450       ??_C@_1BI@BGOHAHKC@?$AAm?$AAs?$AAc?$AAo?$AAr?$AAe?$AAe?$AA?4?$AAd?$AAl?$AAl?$AA?$AA@ 000000006409b450     LIBCMT:crt0dat.obj
 0002:00001468       ??_C@_1BO@BKOMIGKJ@?$AAr?$AAu?$AAn?$AAt?$AAi?$AAm?$AAe?$AA?5?$AAe?$AAr?$AAr?$AAo?$AAr?$AA?5?$AA?$AA@ 000000006409b468     LIBCMT:crt0msg.obj
 0002:00001488       ??_C@_15JNBOKNOG@?$AA?$AN?$AA?6?$AA?$AA@ 000000006409b488     LIBCMT:crt0msg.obj
 0002:00001490       ??_C@_1BM@JBBEPPHI@?$AAT?$AAL?$AAO?$AAS?$AAS?$AA?5?$AAe?$AAr?$AAr?$AAo?$AAr?$AA?$AN?$AA?6?$AA?$AA@ 000000006409b490     LIBCMT:crt0msg.obj
 0002:000014b0       ??_C@_1BK@KMOMNAAI@?$AAS?$AAI?$AAN?$AAG?$AA?5?$AAe?$AAr?$AAr?$AAo?$AAr?$AA?$AN?$AA?6?$AA?$AA@ 000000006409b4b0     LIBCMT:crt0msg.obj
 0002:000014d0       ??_C@_1BO@BFCDCGC@?$AAD?$AAO?$AAM?$AAA?$AAI?$AAN?$AA?5?$AAe?$AAr?$AAr?$AAo?$AAr?$AA?$AN?$AA?6?$AA?$AA@ 000000006409b4d0     LIBCMT:crt0msg.obj
 0002:000014f0       ??_C@_1BOO@KGEDBGAJ@?$AAR?$AA6?$AA0?$AA3?$AA3?$AA?$AN?$AA?6?$AA?9?$AA?5?$AAA?$AAt?$AAt?$AAe?$AAm?$AAp?$AAt?$AA?5?$AAt?$AAo?$AA?5?$AAu?$AAs?$AAe?$AA?5?$AAM?$AAS?$AAI?$AAL?$AA?5?$AAc?$AAo?$AAd@ 000000006409b4f0     LIBCMT:crt0msg.obj
 0002:000016e0       ??_C@_1GG@GOPILAJP@?$AAR?$AA6?$AA0?$AA3?$AA2?$AA?$AN?$AA?6?$AA?9?$AA?5?$AAn?$AAo?$AAt?$AA?5?$AAe?$AAn?$AAo?$AAu?$AAg?$AAh?$AA?5?$AAs?$AAp?$AAa?$AAc?$AAe?$AA?5?$AAf?$AAo?$AAr?$AA?5?$AAl?$AAo@ 000000006409b6e0     LIBCMT:crt0msg.obj
 0002:00001750       ??_C@_1MG@ENCOOIDF@?$AAR?$AA6?$AA0?$AA3?$AA1?$AA?$AN?$AA?6?$AA?9?$AA?5?$AAA?$AAt?$AAt?$AAe?$AAm?$AAp?$AAt?$AA?5?$AAt?$AAo?$AA?5?$AAi?$AAn?$AAi?$AAt?$AAi?$AAa?$AAl?$AAi?$AAz?$AAe?$AA?5?$AAt@ 000000006409b750     LIBCMT:crt0msg.obj
 0002:00001818       ??_C@_1DO@BMFCDCD@?$AAR?$AA6?$AA0?$AA3?$AA0?$AA?$AN?$AA?6?$AA?9?$AA?5?$AAC?$AAR?$AAT?$AA?5?$AAn?$AAo?$AAt?$AA?5?$AAi?$AAn?$AAi?$AAt?$AAi?$AAa?$AAl?$AAi?$AAz?$AAe?$AAd?$AA?$AN?$AA?6?$AA?$AA@ 000000006409b818     LIBCMT:crt0msg.obj
 0002:00001860       ??_C@_1EK@HHFLMAOL@?$AAR?$AA6?$AA0?$AA2?$AA8?$AA?$AN?$AA?6?$AA?9?$AA?5?$AAu?$AAn?$AAa?$AAb?$AAl?$AAe?$AA?5?$AAt?$AAo?$AA?5?$AAi?$AAn?$AAi?$AAt?$AAi?$AAa?$AAl?$AAi?$AAz?$AAe?$AA?5?$AAh?$AAe@ 000000006409b860     LIBCMT:crt0msg.obj
 0002:000018b0       ??_C@_1GK@MFGOKLAG@?$AAR?$AA6?$AA0?$AA2?$AA7?$AA?$AN?$AA?6?$AA?9?$AA?5?$AAn?$AAo?$AAt?$AA?5?$AAe?$AAn?$AAo?$AAu?$AAg?$AAh?$AA?5?$AAs?$AAp?$AAa?$AAc?$AAe?$AA?5?$AAf?$AAo?$AAr?$AA?5?$AAl?$AAo@ 000000006409b8b0     LIBCMT:crt0msg.obj
 0002:00001920       ??_C@_1GK@MCAAGJMO@?$AAR?$AA6?$AA0?$AA2?$AA6?$AA?$AN?$AA?6?$AA?9?$AA?5?$AAn?$AAo?$AAt?$AA?5?$AAe?$AAn?$AAo?$AAu?$AAg?$AAh?$AA?5?$AAs?$AAp?$AAa?$AAc?$AAe?$AA?5?$AAf?$AAo?$AAr?$AA?5?$AAs?$AAt@ 000000006409b920     LIBCMT:crt0msg.obj
 0002:00001990       ??_C@_1EM@MAADIHMB@?$AAR?$AA6?$AA0?$AA2?$AA5?$AA?$AN?$AA?6?$AA?9?$AA?5?$AAp?$AAu?$AAr?$AAe?$AA?5?$AAv?$AAi?$AAr?$AAt?$AAu?$AAa?$AAl?$AA?5?$AAf?$AAu?$AAn?$AAc?$AAt?$AAi?$AAo?$AAn?$AA?5?$AAc@ 000000006409b990     LIBCMT:crt0msg.obj
 0002:000019e0       ??_C@_1GK@FHCKBEFA@?$AAR?$AA6?$AA0?$AA2?$AA4?$AA?$AN?$AA?6?$AA?9?$AA?5?$AAn?$AAo?$AAt?$AA?5?$AAe?$AAn?$AAo?$AAu?$AAg?$AAh?$AA?5?$AAs?$AAp?$AAa?$AAc?$AAe?$AA?5?$AAf?$AAo?$AAr?$AA?5?$AA_?$AAo@ 000000006409b9e0     LIBCMT:crt0msg.obj
 0002:00001a50       ??_C@_1FC@ECHBIFBC@?$AAR?$AA6?$AA0?$AA1?$AA9?$AA?$AN?$AA?6?$AA?9?$AA?5?$AAu?$AAn?$AAa?$AAb?$AAl?$AAe?$AA?5?$AAt?$AAo?$AA?5?$AAo?$AAp?$AAe?$AAn?$AA?5?$AAc?$AAo?$AAn?$AAs?$AAo?$AAl?$AAe?$AA?5@ 000000006409ba50     LIBCMT:crt0msg.obj
 0002:00001ab0       ??_C@_1EC@JIBHAOPH@?$AAR?$AA6?$AA0?$AA1?$AA8?$AA?$AN?$AA?6?$AA?9?$AA?5?$AAu?$AAn?$AAe?$AAx?$AAp?$AAe?$AAc?$AAt?$AAe?$AAd?$AA?5?$AAh?$AAe?$AAa?$AAp?$AA?5?$AAe?$AAr?$AAr?$AAo?$AAr?$AA?$AN?$AA?6@ 000000006409bab0     LIBCMT:crt0msg.obj
 0002:00001b00       ??_C@_1FK@BEOGODMC@?$AAR?$AA6?$AA0?$AA1?$AA7?$AA?$AN?$AA?6?$AA?9?$AA?5?$AAu?$AAn?$AAe?$AAx?$AAp?$AAe?$AAc?$AAt?$AAe?$AAd?$AA?5?$AAm?$AAu?$AAl?$AAt?$AAi?$AAt?$AAh?$AAr?$AAe?$AAa?$AAd?$AA?5@ 000000006409bb00     LIBCMT:crt0msg.obj
 0002:00001b60       ??_C@_1FI@LOGNIKDM@?$AAR?$AA6?$AA0?$AA1?$AA6?$AA?$AN?$AA?6?$AA?9?$AA?5?$AAn?$AAo?$AAt?$AA?5?$AAe?$AAn?$AAo?$AAu?$AAg?$AAh?$AA?5?$AAs?$AAp?$AAa?$AAc?$AAe?$AA?5?$AAf?$AAo?$AAr?$AA?5?$AAt?$AAh@ 000000006409bb60     LIBCMT:crt0msg.obj
 0002:00001bc0       ??_C@_1EG@BEHAGFJD@?$AAR?$AA6?$AA0?$AA1?$AA0?$AA?$AN?$AA?6?$AA?9?$AA?5?$AAa?$AAb?$AAo?$AAr?$AAt?$AA?$CI?$AA?$CJ?$AA?5?$AAh?$AAa?$AAs?$AA?5?$AAb?$AAe?$AAe?$AAn?$AA?5?$AAc?$AAa?$AAl?$AAl?$AAe?$AAd@ 000000006409bbc0     LIBCMT:crt0msg.obj
 0002:00001c10       ??_C@_1FI@HONFMGBI@?$AAR?$AA6?$AA0?$AA0?$AA9?$AA?$AN?$AA?6?$AA?9?$AA?5?$AAn?$AAo?$AAt?$AA?5?$AAe?$AAn?$AAo?$AAu?$AAg?$AAh?$AA?5?$AAs?$AAp?$AAa?$AAc?$AAe?$AA?5?$AAf?$AAo?$AAr?$AA?5?$AAe?$AAn@ 000000006409bc10     LIBCMT:crt0msg.obj
 0002:00001c70       ??_C@_1FE@LLNEDJMD@?$AAR?$AA6?$AA0?$AA0?$AA8?$AA?$AN?$AA?6?$AA?9?$AA?5?$AAn?$AAo?$AAt?$AA?5?$AAe?$AAn?$AAo?$AAu?$AAg?$AAh?$AA?5?$AAs?$AAp?$AAa?$AAc?$AAe?$AA?5?$AAf?$AAo?$AAr?$AA?5?$AAa?$AAr@ 000000006409bc70     LIBCMT:crt0msg.obj
 0002:00001cd0       ??_C@_1FK@PGACCAFB@?$AAR?$AA6?$AA0?$AA0?$AA2?$AA?$AN?$AA?6?$AA?9?$AA?5?$AAf?$AAl?$AAo?$AAa?$AAt?$AAi?$AAn?$AAg?$AA?5?$AAp?$AAo?$AAi?$AAn?$AAt?$AA?5?$AAs?$AAu?$AAp?$AAp?$AAo?$AAr?$AAt?$AA?5@ 000000006409bcd0     LIBCMT:crt0msg.obj
 0002:00001e90       ??_C@_1EK@MBDPDCGA@?$AAM?$AAi?$AAc?$AAr?$AAo?$AAs?$AAo?$AAf?$AAt?$AA?5?$AAV?$AAi?$AAs?$AAu?$AAa?$AAl?$AA?5?$AAC?$AA?$CL?$AA?$CL?$AA?5?$AAR?$AAu?$AAn?$AAt?$AAi?$AAm?$AAe?$AA?5?$AAL?$AAi?$AAb@ 000000006409be90     LIBCMT:crt0msg.obj
 0002:00001edc       ??_C@_15IABLJNFO@?$AA?6?$AA?6?$AA?$AA@ 000000006409bedc     LIBCMT:crt0msg.obj
 0002:00001ee8       ??_C@_1CO@EAEJAADC@?$AA?$DM?$AAp?$AAr?$AAo?$AAg?$AAr?$AAa?$AAm?$AA?5?$AAn?$AAa?$AAm?$AAe?$AA?5?$AAu?$AAn?$AAk?$AAn?$AAo?$AAw?$AAn?$AA?$DO?$AA?$AA@ 000000006409bee8     LIBCMT:crt0msg.obj
 0002:00001f18       ??_C@_1DE@JNGNBFGO@?$AAR?$AAu?$AAn?$AAt?$AAi?$AAm?$AAe?$AA?5?$AAE?$AAr?$AAr?$AAo?$AAr?$AA?$CB?$AA?6?$AA?6?$AAP?$AAr?$AAo?$AAg?$AAr?$AAa?$AAm?$AA?3?$AA?5?$AA?$AA@ 000000006409bf18     LIBCMT:crt0msg.obj
 0002:00001f50       ??_C@_1BC@GDGBMEMK@?$AAH?$AAH?$AA?3?$AAm?$AAm?$AA?3?$AAs?$AAs?$AA?$AA@ 000000006409bf50     LIBCMT:nlsdata2.obj
 0002:00001f68       ??_C@_1CI@KNAKOEBC@?$AAd?$AAd?$AAd?$AAd?$AA?0?$AA?5?$AAM?$AAM?$AAM?$AAM?$AA?5?$AAd?$AAd?$AA?0?$AA?5?$AAy?$AAy?$AAy?$AAy?$AA?$AA@ 000000006409bf68     LIBCMT:nlsdata2.obj
 0002:00001f90       ??_C@_1BC@IEBCMHCM@?$AAM?$AAM?$AA?1?$AAd?$AAd?$AA?1?$AAy?$AAy?$AA?$AA@ 000000006409bf90     LIBCMT:nlsdata2.obj
 0002:00001fa4       ??_C@_15CLMNNGEL@?$AAP?$AAM?$AA?$AA@ 000000006409bfa4     LIBCMT:nlsdata2.obj
 0002:00001fac       ??_C@_15ODEHAHHF@?$AAA?$AAM?$AA?$AA@ 000000006409bfac     LIBCMT:nlsdata2.obj
 0002:00001fb8       ??_C@_1BC@FEMKIFH@?$AAD?$AAe?$AAc?$AAe?$AAm?$AAb?$AAe?$AAr?$AA?$AA@ 000000006409bfb8     LIBCMT:nlsdata2.obj
 0002:00001fd0       ??_C@_1BC@BGLIFPF@?$AAN?$AAo?$AAv?$AAe?$AAm?$AAb?$AAe?$AAr?$AA?$AA@ 000000006409bfd0     LIBCMT:nlsdata2.obj
 0002:00001fe8       ??_C@_1BA@EPANDLNG@?$AAO?$AAc?$AAt?$AAo?$AAb?$AAe?$AAr?$AA?$AA@ 000000006409bfe8     LIBCMT:nlsdata2.obj
 0002:00001ff8       ??_C@_1BE@DKAAMBJL@?$AAS?$AAe?$AAp?$AAt?$AAe?$AAm?$AAb?$AAe?$AAr?$AA?$AA@ 000000006409bff8     LIBCMT:nlsdata2.obj
 0002:00002010       ??_C@_1O@PAHLKOAC@?$AAA?$AAu?$AAg?$AAu?$AAs?$AAt?$AA?$AA@ 000000006409c010     LIBCMT:nlsdata2.obj
 0002:00002020       ??_C@_19BIFMLPCD@?$AAJ?$AAu?$AAl?$AAy?$AA?$AA@ 000000006409c020     LIBCMT:nlsdata2.obj
 0002:00002030       ??_C@_19EPFLPGAP@?$AAJ?$AAu?$AAn?$AAe?$AA?$AA@ 000000006409c030     LIBCMT:nlsdata2.obj
 0002:00002040       ??_C@_1M@GJNLMHFD@?$AAA?$AAp?$AAr?$AAi?$AAl?$AA?$AA@ 000000006409c040     LIBCMT:nlsdata2.obj
 0002:00002050       ??_C@_1M@IKEENEDF@?$AAM?$AAa?$AAr?$AAc?$AAh?$AA?$AA@ 000000006409c050     LIBCMT:nlsdata2.obj
 0002:00002060       ??_C@_1BC@JGDDFFAM@?$AAF?$AAe?$AAb?$AAr?$AAu?$AAa?$AAr?$AAy?$AA?$AA@ 000000006409c060     LIBCMT:nlsdata2.obj
 0002:00002078       ??_C@_1BA@EFMEIEBA@?$AAJ?$AAa?$AAn?$AAu?$AAa?$AAr?$AAy?$AA?$AA@ 000000006409c078     LIBCMT:nlsdata2.obj
 0002:00002088       ??_C@_17EGKACKIF@?$AAD?$AAe?$AAc?$AA?$AA@ 000000006409c088     LIBCMT:nlsdata2.obj
 0002:00002090       ??_C@_17BBDMLCIG@?$AAN?$AAo?$AAv?$AA?$AA@ 000000006409c090     LIBCMT:nlsdata2.obj
 0002:00002098       ??_C@_17FNLKOI@?$AAO?$AAc?$AAt?$AA?$AA@ 000000006409c098     LIBCMT:nlsdata2.obj
 0002:000020a0       ??_C@_17HCHCOKMG@?$AAS?$AAe?$AAp?$AA?$AA@ 000000006409c0a0     LIBCMT:nlsdata2.obj
 0002:000020a8       ??_C@_17ICPELBCN@?$AAA?$AAu?$AAg?$AA?$AA@ 000000006409c0a8     LIBCMT:nlsdata2.obj
 0002:000020b0       ??_C@_17IJPCKHK@?$AAJ?$AAu?$AAl?$AA?$AA@ 000000006409c0b0     LIBCMT:nlsdata2.obj
 0002:000020b8       ??_C@_17KCJGOCPB@?$AAJ?$AAu?$AAn?$AA?$AA@ 000000006409c0b8     LIBCMT:nlsdata2.obj
 0002:000020c0       ??_C@_17PNNKMEED@?$AAM?$AAa?$AAy?$AA?$AA@ 000000006409c0c0     LIBCMT:nlsdata2.obj
 0002:000020c8       ??_C@_17LFPOIHDD@?$AAA?$AAp?$AAr?$AA?$AA@ 000000006409c0c8     LIBCMT:nlsdata2.obj
 0002:000020d0       ??_C@_17CKNLEDEC@?$AAM?$AAa?$AAr?$AA?$AA@ 000000006409c0d0     LIBCMT:nlsdata2.obj
 0002:000020d8       ??_C@_17LMDJEKJN@?$AAF?$AAe?$AAb?$AA?$AA@ 000000006409c0d8     LIBCMT:nlsdata2.obj
 0002:000020e0       ??_C@_17DKNBKCHM@?$AAJ?$AAa?$AAn?$AA?$AA@ 000000006409c0e0     LIBCMT:nlsdata2.obj
 0002:000020e8       ??_C@_1BC@ENMNNPAJ@?$AAS?$AAa?$AAt?$AAu?$AAr?$AAd?$AAa?$AAy?$AA?$AA@ 000000006409c0e8     LIBCMT:nlsdata2.obj
 0002:00002100       ??_C@_1O@PDICJHAG@?$AAF?$AAr?$AAi?$AAd?$AAa?$AAy?$AA?$AA@ 000000006409c100     LIBCMT:nlsdata2.obj
 0002:00002110       ??_C@_1BC@HHMNLIHE@?$AAT?$AAh?$AAu?$AAr?$AAs?$AAd?$AAa?$AAy?$AA?$AA@ 000000006409c110     LIBCMT:nlsdata2.obj
 0002:00002128       ??_C@_1BE@EBOGMDOH@?$AAW?$AAe?$AAd?$AAn?$AAe?$AAs?$AAd?$AAa?$AAy?$AA?$AA@ 000000006409c128     LIBCMT:nlsdata2.obj
 0002:00002140       ??_C@_1BA@ENFBFFEK@?$AAT?$AAu?$AAe?$AAs?$AAd?$AAa?$AAy?$AA?$AA@ 000000006409c140     LIBCMT:nlsdata2.obj
 0002:00002150       ??_C@_1O@MMNBFLIA@?$AAM?$AAo?$AAn?$AAd?$AAa?$AAy?$AA?$AA@ 000000006409c150     LIBCMT:nlsdata2.obj
 0002:00002160       ??_C@_1O@IHNHDHPB@?$AAS?$AAu?$AAn?$AAd?$AAa?$AAy?$AA?$AA@ 000000006409c160     LIBCMT:nlsdata2.obj
 0002:00002170       ??_C@_17GGIBDPIH@?$AAS?$AAa?$AAt?$AA?$AA@ 000000006409c170     LIBCMT:nlsdata2.obj
 0002:00002178       ??_C@_17HFOLPPLP@?$AAF?$AAr?$AAi?$AA?$AA@ 000000006409c178     LIBCMT:nlsdata2.obj
 0002:00002180       ??_C@_17PDPHAADD@?$AAT?$AAh?$AAu?$AA?$AA@ 000000006409c180     LIBCMT:nlsdata2.obj
 0002:00002188       ??_C@_17CJEDCEPE@?$AAW?$AAe?$AAd?$AA?$AA@ 000000006409c188     LIBCMT:nlsdata2.obj
 0002:00002190       ??_C@_17BMKGEGOJ@?$AAT?$AAu?$AAe?$AA?$AA@ 000000006409c190     LIBCMT:nlsdata2.obj
 0002:00002198       ??_C@_17KBOMKBF@?$AAM?$AAo?$AAn?$AA?$AA@ 000000006409c198     LIBCMT:nlsdata2.obj
 0002:000021a0       ??_C@_17MBGCMIPB@?$AAS?$AAu?$AAn?$AA?$AA@ 000000006409c1a0     LIBCMT:nlsdata2.obj
 0002:000021a8       ??_C@_08JCCMCCIL@HH?3mm?3ss?$AA@ 000000006409c1a8     LIBCMT:nlsdata2.obj
 0002:000021b8       ??_C@_0BE@CKGJFCPC@dddd?0?5MMMM?5dd?0?5yyyy?$AA@ 000000006409c1b8     LIBCMT:nlsdata2.obj
 0002:000021d0       ??_C@_08BPBNCDIB@MM?1dd?1yy?$AA@ 000000006409c1d0     LIBCMT:nlsdata2.obj
 0002:000021dc       ??_C@_02CJNFDJBF@PM?$AA@   000000006409c1dc     LIBCMT:nlsdata2.obj
 0002:000021e0       ??_C@_02DEDBPAFC@AM?$AA@   000000006409c1e0     LIBCMT:nlsdata2.obj
 0002:000021e8       ??_C@_08EDHMEBNP@December?$AA@ 000000006409c1e8     LIBCMT:nlsdata2.obj
 0002:000021f8       ??_C@_08HCHEGEOA@November?$AA@ 000000006409c1f8     LIBCMT:nlsdata2.obj
 0002:00002208       ??_C@_07JJNFCEND@October?$AA@ 000000006409c208     LIBCMT:nlsdata2.obj
 0002:00002210       ??_C@_09BHHEALKD@September?$AA@ 000000006409c210     LIBCMT:nlsdata2.obj
 0002:0000221c       ??_C@_06LBBHFDDG@August?$AA@ 000000006409c21c     LIBCMT:nlsdata2.obj
 0002:00002224       ??_C@_04MIEPOIFP@July?$AA@ 000000006409c224     LIBCMT:nlsdata2.obj
 0002:0000222c       ??_C@_04CNLMGBGM@June?$AA@ 000000006409c22c     LIBCMT:nlsdata2.obj
 0002:00002234       ??_C@_05DMJDNLEJ@April?$AA@ 000000006409c234     LIBCMT:nlsdata2.obj
 0002:0000223c       ??_C@_05HPCKOFNC@March?$AA@ 000000006409c23c     LIBCMT:nlsdata2.obj
 0002:00002248       ??_C@_08GNJGEPFN@February?$AA@ 000000006409c248     LIBCMT:nlsdata2.obj
 0002:00002258       ??_C@_07CGJPFGJA@January?$AA@ 000000006409c258     LIBCMT:nlsdata2.obj
 0002:00002260       ??_C@_03MKABNOCG@Dec?$AA@  000000006409c260     LIBCMT:nlsdata2.obj
 0002:00002264       ??_C@_03JPJOFNIA@Nov?$AA@  000000006409c264     LIBCMT:nlsdata2.obj
 0002:00002268       ??_C@_03BMAOKBAD@Oct?$AA@  000000006409c268     LIBCMT:nlsdata2.obj
 0002:0000226c       ??_C@_03GGCAPAJC@Sep?$AA@  000000006409c26c     LIBCMT:nlsdata2.obj
 0002:00002270       ??_C@_03IFJFEIGA@Aug?$AA@  000000006409c270     LIBCMT:nlsdata2.obj
 0002:00002274       ??_C@_03LBGABGKK@Jul?$AA@  000000006409c274     LIBCMT:nlsdata2.obj
 0002:00002278       ??_C@_03IDFGHECI@Jun?$AA@  000000006409c278     LIBCMT:nlsdata2.obj
 0002:0000227c       ??_C@_03CNMDKL@May?$AA@    000000006409c27c     LIBCMT:nlsdata2.obj
 0002:00002280       ??_C@_03LEOLGMJP@Apr?$AA@  000000006409c280     LIBCMT:nlsdata2.obj
 0002:00002284       ??_C@_03ODNJBKGA@Mar?$AA@  000000006409c284     LIBCMT:nlsdata2.obj
 0002:00002288       ??_C@_03HJBDCHOM@Feb?$AA@  000000006409c288     LIBCMT:nlsdata2.obj
 0002:0000228c       ??_C@_03JIHJHPIE@Jan?$AA@  000000006409c28c     LIBCMT:nlsdata2.obj
 0002:00002290       ??_C@_08INBOOONO@Saturday?$AA@ 000000006409c290     LIBCMT:nlsdata2.obj
 0002:0000229c       ??_C@_06JECMNKMI@Friday?$AA@ 000000006409c29c     LIBCMT:nlsdata2.obj
 0002:000022a8       ??_C@_08HACCIKIA@Thursday?$AA@ 000000006409c2a8     LIBCMT:nlsdata2.obj
 0002:000022b8       ??_C@_09DLIGFAKA@Wednesday?$AA@ 000000006409c2b8     LIBCMT:nlsdata2.obj
 0002:000022c8       ??_C@_07BAAGCFCM@Tuesday?$AA@ 000000006409c2c8     LIBCMT:nlsdata2.obj
 0002:000022d0       ??_C@_06JLEDEDGH@Monday?$AA@ 000000006409c2d0     LIBCMT:nlsdata2.obj
 0002:000022d8       ??_C@_06OOPIFAJ@Sunday?$AA@ 000000006409c2d8     LIBCMT:nlsdata2.obj
 0002:000022e0       ??_C@_03FEFJNEK@Sat?$AA@   000000006409c2e0     LIBCMT:nlsdata2.obj
 0002:000022e4       ??_C@_03IDIOELNC@Fri?$AA@  000000006409c2e4     LIBCMT:nlsdata2.obj
 0002:000022e8       ??_C@_03IOFIKPDN@Thu?$AA@  000000006409c2e8     LIBCMT:nlsdata2.obj
 0002:000022ec       ??_C@_03MHOMLAJA@Wed?$AA@  000000006409c2ec     LIBCMT:nlsdata2.obj
 0002:000022f0       ??_C@_03NAGEINEP@Tue?$AA@  000000006409c2f0     LIBCMT:nlsdata2.obj
 0002:000022f4       ??_C@_03PDAGKDH@Mon?$AA@   000000006409c2f4     LIBCMT:nlsdata2.obj
 0002:000022f8       ??_C@_03KOEHGMDN@Sun?$AA@  000000006409c2f8     LIBCMT:nlsdata2.obj
 0002:00002300       ??_C@_1O@CEDCILHN@?$AA?$CI?$AAn?$AAu?$AAl?$AAl?$AA?$CJ?$AA?$AA@ 000000006409c300     LIBCMT:output.obj
 0002:00002310       ??_C@_06OJHGLDPL@?$CInull?$CJ?$AA@ 000000006409c310     LIBCMT:output.obj
 0002:00002320       __lookuptable              000000006409c320     LIBCMT:output.obj
 0002:00002380       _XcptActTab                000000006409c380     LIBCMT:winxfltr.obj
 0002:00002440       _First_FPE_Indx            000000006409c440     LIBCMT:winxfltr.obj
 0002:00002444       _Num_FPE                   000000006409c444     LIBCMT:winxfltr.obj
 0002:00002448       _XcptActTabSize            000000006409c448     LIBCMT:winxfltr.obj
 0002:0000244c       _XcptActTabCount           000000006409c44c     LIBCMT:winxfltr.obj
 0002:00002450       ??_C@_0BG@KLEAJEFJ@Illegal?5byte?5sequence?$AA@ 000000006409c450     LIBCMT:syserr.obj
 0002:00002468       ??_C@_0BE@ICMCHPHH@Directory?5not?5empty?$AA@ 000000006409c468     LIBCMT:syserr.obj
 0002:00002480       ??_C@_0BJ@IHEHINLI@Function?5not?5implemented?$AA@ 000000006409c480     LIBCMT:syserr.obj
 0002:000024a0       ??_C@_0BD@CLHBCGPB@No?5locks?5available?$AA@ 000000006409c4a0     LIBCMT:syserr.obj
 0002:000024b8       ??_C@_0BC@BEDIHIDK@Filename?5too?5long?$AA@ 000000006409c4b8     LIBCMT:syserr.obj
 0002:000024d0       ??_C@_0BK@JAEBMJJM@Resource?5deadlock?5avoided?$AA@ 000000006409c4d0     LIBCMT:syserr.obj
 0002:000024f0       ??_C@_0BB@FCBJFCAJ@Result?5too?5large?$AA@ 000000006409c4f0     LIBCMT:syserr.obj
 0002:00002508       ??_C@_0N@MMJPGLJK@Domain?5error?$AA@ 000000006409c508     LIBCMT:syserr.obj
 0002:00002518       ??_C@_0M@LHEPIIOM@Broken?5pipe?$AA@ 000000006409c518     LIBCMT:syserr.obj
 0002:00002528       ??_C@_0P@PKCJJLLM@Too?5many?5links?$AA@ 000000006409c528     LIBCMT:syserr.obj
 0002:00002538       ??_C@_0BG@DDBFNKBH@Read?9only?5file?5system?$AA@ 000000006409c538     LIBCMT:syserr.obj
 0002:00002550       ??_C@_0N@FEHLOILP@Invalid?5seek?$AA@ 000000006409c550     LIBCMT:syserr.obj
 0002:00002560       ??_C@_0BI@FEALHKLD@No?5space?5left?5on?5device?$AA@ 000000006409c560     LIBCMT:syserr.obj
 0002:00002578       ??_C@_0P@LFMMIPAE@File?5too?5large?$AA@ 000000006409c578     LIBCMT:syserr.obj
 0002:00002588       ??_C@_0CE@ONOKNLPF@Inappropriate?5I?1O?5control?5operat@ 000000006409c588     LIBCMT:syserr.obj
 0002:000025b0       ??_C@_0BE@INBJMKGG@Too?5many?5open?5files?$AA@ 000000006409c5b0     LIBCMT:syserr.obj
 0002:000025c8       ??_C@_0BO@IIFBODJE@Too?5many?5open?5files?5in?5system?$AA@ 000000006409c5c8     LIBCMT:syserr.obj
 0002:000025e8       ??_C@_0BB@HMGGCEBG@Invalid?5argument?$AA@ 000000006409c5e8     LIBCMT:syserr.obj
 0002:00002600       ??_C@_0P@NDHGCGKE@Is?5a?5directory?$AA@ 000000006409c600     LIBCMT:syserr.obj
 0002:00002610       ??_C@_0BA@CJBACOOL@Not?5a?5directory?$AA@ 000000006409c610     LIBCMT:syserr.obj
 0002:00002620       ??_C@_0P@NLEIANHE@No?5such?5device?$AA@ 000000006409c620     LIBCMT:syserr.obj
 0002:00002630       ??_C@_0O@OAMDNOCP@Improper?5link?$AA@ 000000006409c630     LIBCMT:syserr.obj
 0002:00002640       ??_C@_0M@NAAJNNGH@File?5exists?$AA@ 000000006409c640     LIBCMT:syserr.obj
 0002:00002650       ??_C@_0BA@BIBLIOEK@Resource?5device?$AA@ 000000006409c650     LIBCMT:syserr.obj
 0002:00002660       ??_C@_0O@NIPGCINC@Unknown?5error?$AA@ 000000006409c660     LIBCMT:syserr.obj
 0002:00002670       ??_C@_0M@LOEHLCJD@Bad?5address?$AA@ 000000006409c670     LIBCMT:syserr.obj
 0002:00002680       ??_C@_0BC@HFNFNKAI@Permission?5denied?$AA@ 000000006409c680     LIBCMT:syserr.obj
 0002:00002698       ??_C@_0BB@IMDKMPFB@Not?5enough?5space?$AA@ 000000006409c698     LIBCMT:syserr.obj
 0002:000026b0       ??_C@_0CB@EPFKGNAK@Resource?5temporarily?5unavailable@ 000000006409c6b0     LIBCMT:syserr.obj
 0002:000026d8       ??_C@_0BD@LOHELEP@No?5child?5processes?$AA@ 000000006409c6d8     LIBCMT:syserr.obj
 0002:000026f0       ??_C@_0BE@NFGDDCEF@Bad?5file?5descriptor?$AA@ 000000006409c6f0     LIBCMT:syserr.obj
 0002:00002708       ??_C@_0BC@HKPNECK@Exec?5format?5error?$AA@ 000000006409c708     LIBCMT:syserr.obj
 0002:00002720       ??_C@_0BC@MFFGCDFL@Arg?5list?5too?5long?$AA@ 000000006409c720     LIBCMT:syserr.obj
 0002:00002738       ??_C@_0BK@DPKMCKJ@No?5such?5device?5or?5address?$AA@ 000000006409c738     LIBCMT:syserr.obj
 0002:00002758       ??_C@_0BD@KKNFOBBD@Input?1output?5error?$AA@ 000000006409c758     LIBCMT:syserr.obj
 0002:00002770       ??_C@_0BK@FJBOAFDK@Interrupted?5function?5call?$AA@ 000000006409c770     LIBCMT:syserr.obj
 0002:00002790       ??_C@_0BA@FKIAIBGA@No?5such?5process?$AA@ 000000006409c790     LIBCMT:syserr.obj
 0002:000027a0       ??_C@_0BK@FMDHKPNF@No?5such?5file?5or?5directory?$AA@ 000000006409c7a0     LIBCMT:syserr.obj
 0002:000027c0       ??_C@_0BI@BJFCGOHL@Operation?5not?5permitted?$AA@ 000000006409c7c0     LIBCMT:syserr.obj
 0002:000027d8       ??_C@_08INEPGKHH@No?5error?$AA@ 000000006409c7d8     LIBCMT:syserr.obj
 0002:000027e8       ??_C@_0O@FMJNFNKE@united?9states?$AA@ 000000006409c7e8     LIBCMT:getqloc.obj
 0002:000027f8       ??_C@_0P@NDHFFKCA@united?9kingdom?$AA@ 000000006409c7f8     LIBCMT:getqloc.obj
 0002:00002808       ??_C@_0BC@HHDADLGF@trinidad?5?$CG?5tobago?$AA@ 000000006409c808     LIBCMT:getqloc.obj
 0002:00002820       ??_C@_0M@IOAEBDAC@south?9korea?$AA@ 000000006409c820     LIBCMT:getqloc.obj
 0002:00002830       ??_C@_0N@FIELFKIJ@south?9africa?$AA@ 000000006409c830     LIBCMT:getqloc.obj
 0002:00002840       ??_C@_0M@OPNDHCMC@south?5korea?$AA@ 000000006409c840     LIBCMT:getqloc.obj
 0002:00002850       ??_C@_0N@MDEOEPFI@south?5africa?$AA@ 000000006409c850     LIBCMT:getqloc.obj
 0002:00002860       ??_C@_06FKAPCJLB@slovak?$AA@ 000000006409c860     LIBCMT:getqloc.obj
 0002:00002868       ??_C@_0M@EFJANOAL@puerto?9rico?$AA@ 000000006409c868     LIBCMT:getqloc.obj
 0002:00002878       ??_C@_08PGOJKDAI@pr?9china?$AA@ 000000006409c878     LIBCMT:getqloc.obj
 0002:00002888       ??_C@_08JHDOMCMI@pr?5china?$AA@ 000000006409c888     LIBCMT:getqloc.obj
 0002:00002894       ??_C@_02JHCHFBLL@nz?$AA@   000000006409c894     LIBCMT:getqloc.obj
 0002:00002898       ??_C@_0M@LINHDHKP@new?9zealand?$AA@ 000000006409c898     LIBCMT:getqloc.obj
 0002:000028a8       ??_C@_09IIIPPBDB@hong?9kong?$AA@ 000000006409c8a8     LIBCMT:getqloc.obj
 0002:000028b8       ??_C@_07HJLCKBG@holland?$AA@ 000000006409c8b8     LIBCMT:getqloc.obj
 0002:000028c0       ??_C@_0O@LEHGMHAG@great?5britain?$AA@ 000000006409c8c0     LIBCMT:getqloc.obj
 0002:000028d0       ??_C@_07FACOMELA@england?$AA@ 000000006409c8d0     LIBCMT:getqloc.obj
 0002:000028d8       ??_C@_05JIHCEICB@czech?$AA@ 000000006409c8d8     LIBCMT:getqloc.obj
 0002:000028e0       ??_C@_05BBJOBLGB@china?$AA@ 000000006409c8e0     LIBCMT:getqloc.obj
 0002:000028e8       ??_C@_07GPKPHICP@britain?$AA@ 000000006409c8e8     LIBCMT:getqloc.obj
 0002:000028f0       ??_C@_07MHIPBHMG@america?$AA@ 000000006409c8f0     LIBCMT:getqloc.obj
 0002:000028f8       ??_C@_03KIALPMKC@usa?$AA@  000000006409c8f8     LIBCMT:getqloc.obj
 0002:000028fc       ??_C@_02FGJGKGGD@us?$AA@   000000006409c8fc     LIBCMT:getqloc.obj
 0002:00002900       ??_C@_02NEINDODK@uk?$AA@   000000006409c900     LIBCMT:getqloc.obj
 0002:00002904       ??_C@_05JMPCFJFJ@swiss?$AA@ 000000006409c904     LIBCMT:getqloc.obj
 0002:00002910       ??_C@_0BA@HLOCPIOD@swedish?9finland?$AA@ 000000006409c910     LIBCMT:getqloc.obj
 0002:00002920       ??_C@_0BC@PKCNIABK@spanish?9venezuela?$AA@ 000000006409c920     LIBCMT:getqloc.obj
 0002:00002938       ??_C@_0BA@GBHHMIJI@spanish?9uruguay?$AA@ 000000006409c938     LIBCMT:getqloc.obj
 0002:00002948       ??_C@_0BE@BHDOHPMC@spanish?9puerto?5rico?$AA@ 000000006409c948     LIBCMT:getqloc.obj
 0002:00002960       ??_C@_0N@KMOIDGGN@spanish?9peru?$AA@ 000000006409c960     LIBCMT:getqloc.obj
 0002:00002970       ??_C@_0BB@HMHLPGPH@spanish?9paraguay?$AA@ 000000006409c970     LIBCMT:getqloc.obj
 0002:00002988       ??_C@_0P@MCPKNGFD@spanish?9panama?$AA@ 000000006409c988     LIBCMT:getqloc.obj
 0002:00002998       ??_C@_0BC@IHOHGAIL@spanish?9nicaragua?$AA@ 000000006409c998     LIBCMT:getqloc.obj
 0002:000029b0       ??_C@_0P@KLMJDNFJ@spanish?9modern?$AA@ 000000006409c9b0     LIBCMT:getqloc.obj
 0002:000029c0       ??_C@_0BA@BPAPGBCM@spanish?9mexican?$AA@ 000000006409c9c0     LIBCMT:getqloc.obj
 0002:000029d0       ??_C@_0BB@PDECHHHE@spanish?9honduras?$AA@ 000000006409c9d0     LIBCMT:getqloc.obj
 0002:000029e8       ??_C@_0BC@KLHKFGDB@spanish?9guatemala?$AA@ 000000006409c9e8     LIBCMT:getqloc.obj
 0002:00002a00       ??_C@_0BE@MFOOKJAI@spanish?9el?5salvador?$AA@ 000000006409ca00     LIBCMT:getqloc.obj
 0002:00002a18       ??_C@_0BA@FCOKFPFC@spanish?9ecuador?$AA@ 000000006409ca18     LIBCMT:getqloc.obj
 0002:00002a28       ??_C@_0BL@PLMGIMOO@spanish?9dominican?5republic?$AA@ 000000006409ca28     LIBCMT:getqloc.obj
 0002:00002a48       ??_C@_0BD@HLGDNMHB@spanish?9costa?5rica?$AA@ 000000006409ca48     LIBCMT:getqloc.obj
 0002:00002a60       ??_C@_0BB@PKCBKCPE@spanish?9colombia?$AA@ 000000006409ca60     LIBCMT:getqloc.obj
 0002:00002a78       ??_C@_0O@MCBIJGNE@spanish?9chile?$AA@ 000000006409ca78     LIBCMT:getqloc.obj
 0002:00002a88       ??_C@_0BA@BEFEIGJJ@spanish?9bolivia?$AA@ 000000006409ca88     LIBCMT:getqloc.obj
 0002:00002a98       ??_C@_0BC@EMECMPD@spanish?9argentina?$AA@ 000000006409ca98     LIBCMT:getqloc.obj
 0002:00002ab0       ??_C@_0BF@EALFLENP@portuguese?9brazilian?$AA@ 000000006409cab0     LIBCMT:getqloc.obj
 0002:00002ac8       ??_C@_0BC@HBLEBLNN@norwegian?9nynorsk?$AA@ 000000006409cac8     LIBCMT:getqloc.obj
 0002:00002ae0       ??_C@_0BB@HMACDDCK@norwegian?9bokmal?$AA@ 000000006409cae0     LIBCMT:getqloc.obj
 0002:00002af8       ??_C@_09BAFFPPHE@norwegian?$AA@ 000000006409caf8     LIBCMT:getqloc.obj
 0002:00002b08       ??_C@_0O@EAJFJDFG@italian?9swiss?$AA@ 000000006409cb08     LIBCMT:getqloc.obj
 0002:00002b18       ??_C@_0O@CNOMPGD@irish?9english?$AA@ 000000006409cb18     LIBCMT:getqloc.obj
 0002:00002b28       ??_C@_0N@EDHBGCKG@german?9swiss?$AA@ 000000006409cb28     LIBCMT:getqloc.obj
 0002:00002b38       ??_C@_0BC@JACMHNBP@german?9luxembourg?$AA@ 000000006409cb38     LIBCMT:getqloc.obj
 0002:00002b50       ??_C@_0BE@HBGMGFEG@german?9lichtenstein?$AA@ 000000006409cb50     LIBCMT:getqloc.obj
 0002:00002b68       ??_C@_0BA@HKKBIBKL@german?9austrian?$AA@ 000000006409cb68     LIBCMT:getqloc.obj
 0002:00002b78       ??_C@_0N@GCAEPEBK@french?9swiss?$AA@ 000000006409cb78     LIBCMT:getqloc.obj
 0002:00002b88       ??_C@_0BC@DJFJJCK@french?9luxembourg?$AA@ 000000006409cb88     LIBCMT:getqloc.obj
 0002:00002ba0       ??_C@_0BA@NNCEDFIC@french?9canadian?$AA@ 000000006409cba0     LIBCMT:getqloc.obj
 0002:00002bb0       ??_C@_0P@CMPOCLM@french?9belgian?$AA@ 000000006409cbb0     LIBCMT:getqloc.obj
 0002:00002bc0       ??_C@_0M@GHHDJOK@english?9usa?$AA@ 000000006409cbc0     LIBCMT:getqloc.obj
 0002:00002bd0       ??_C@_0L@PLDJKEIL@english?9us?$AA@ 000000006409cbd0     LIBCMT:getqloc.obj
 0002:00002be0       ??_C@_0L@HJCCDMNC@english?9uk?$AA@ 000000006409cbe0     LIBCMT:getqloc.obj
 0002:00002bf0       ??_C@_0BK@CKLIAGJB@english?9trinidad?5y?5tobago?$AA@ 000000006409cbf0     LIBCMT:getqloc.obj
 0002:00002c10       ??_C@_0BF@JMJMGNNF@english?9south?5africa?$AA@ 000000006409cc10     LIBCMT:getqloc.obj
 0002:00002c28       ??_C@_0L@DKIIFDFD@english?9nz?$AA@ 000000006409cc28     LIBCMT:getqloc.obj
 0002:00002c38       ??_C@_0BA@ONHGJCLH@english?9jamaica?$AA@ 000000006409cc38     LIBCMT:getqloc.obj
 0002:00002c48       ??_C@_0M@HJBGHOPO@english?9ire?$AA@ 000000006409cc48     LIBCMT:getqloc.obj
 0002:00002c58       ??_C@_0BC@LFEKMIFB@english?9caribbean?$AA@ 000000006409cc58     LIBCMT:getqloc.obj
 0002:00002c70       ??_C@_0M@OLDPFKHI@english?9can?$AA@ 000000006409cc70     LIBCMT:getqloc.obj
 0002:00002c80       ??_C@_0P@OMDEHBMP@english?9belize?$AA@ 000000006409cc80     LIBCMT:getqloc.obj
 0002:00002c90       ??_C@_0M@KFHFPFED@english?9aus?$AA@ 000000006409cc90     LIBCMT:getqloc.obj
 0002:00002ca0       ??_C@_0BB@MNMBKDFE@english?9american?$AA@ 000000006409cca0     LIBCMT:getqloc.obj
 0002:00002cb8       ??_C@_0O@KIDLNNBA@dutch?9belgian?$AA@ 000000006409ccb8     LIBCMT:getqloc.obj
 0002:00002cc8       ??_C@_0BE@JBKABBMH@chinese?9traditional?$AA@ 000000006409ccc8     LIBCMT:getqloc.obj
 0002:00002ce0       ??_C@_0BC@MJJMPKCG@chinese?9singapore?$AA@ 000000006409cce0     LIBCMT:getqloc.obj
 0002:00002cf8       ??_C@_0BD@FDKADDCP@chinese?9simplified?$AA@ 000000006409ccf8     LIBCMT:getqloc.obj
 0002:00002d10       ??_C@_0BB@DBEFDDME@chinese?9hongkong?$AA@ 000000006409cd10     LIBCMT:getqloc.obj
 0002:00002d28       ??_C@_07DHNMFMCI@chinese?$AA@ 000000006409cd28     LIBCMT:getqloc.obj
 0002:00002d30       ??_C@_03FNDDCHI@chi?$AA@   000000006409cd30     LIBCMT:getqloc.obj
 0002:00002d34       ??_C@_03BMMIADDJ@chh?$AA@  000000006409cd34     LIBCMT:getqloc.obj
 0002:00002d38       ??_C@_08OAIPJDGI@canadian?$AA@ 000000006409cd38     LIBCMT:getqloc.obj
 0002:00002d48       ??_C@_07HBPMNPNJ@belgian?$AA@ 000000006409cd48     LIBCMT:getqloc.obj
 0002:00002d50       ??_C@_0L@OEKOPBEL@australian?$AA@ 000000006409cd50     LIBCMT:getqloc.obj
 0002:00002d60       ??_C@_0BB@MEIMBEDG@american?9english?$AA@ 000000006409cd60     LIBCMT:getqloc.obj
 0002:00002d78       ??_C@_0BB@DFMDPDGB@american?5english?$AA@ 000000006409cd78     LIBCMT:getqloc.obj
 0002:00002d90       ??_C@_08IJLOKOLL@american?$AA@ 000000006409cd90     LIBCMT:getqloc.obj
 0002:00002da0       __rg_language              000000006409cda0     LIBCMT:getqloc.obj
 0002:000031b0       __rg_country               000000006409d1b0     LIBCMT:getqloc.obj
 0002:00003320       __rglangidNotDefault       000000006409d320     LIBCMT:getqloc.obj
 0002:00003334       ??_C@_03NFKLAGEF@OCP?$AA@  000000006409d334     LIBCMT:getqloc.obj
 0002:00003338       ??_C@_03DFHEHBHG@ACP?$AA@  000000006409d338     LIBCMT:getqloc.obj
 0002:00003340       ??_C@_0BC@NFIEMBLL@Norwegian?9Nynorsk?$AA@ 000000006409d340     LIBCMT:getqloc.obj
 0002:00003358       ??_C@_0BK@CFCOFLF@?5Complete?5Object?5Locator?8?$AA@ 000000006409d358     LIBCMT:undname.obj
 0002:00003378       ??_C@_0BN@MECKDCOJ@?5Class?5Hierarchy?5Descriptor?8?$AA@ 000000006409d378     LIBCMT:undname.obj
 0002:00003398       ??_C@_0BD@LGICGFMM@?5Base?5Class?5Array?8?$AA@ 000000006409d398     LIBCMT:undname.obj
 0002:000033b0       ??_C@_0BM@LDKODKLH@?5Base?5Class?5Descriptor?5at?5?$CI?$AA@ 000000006409d3b0     LIBCMT:undname.obj
 0002:000033d0       ??_C@_0BC@DAFEJGAK@?5Type?5Descriptor?8?$AA@ 000000006409d3d0     LIBCMT:undname.obj
 0002:000033e8       ??_C@_0BM@PMGGMLDN@?$GAlocal?5static?5thread?5guard?8?$AA@ 000000006409d3e8     LIBCMT:undname.obj
 0002:00003408       ??_C@_0CL@FGIJHLCE@?$GAmanaged?5vector?5copy?5constructor@ 000000006409d408     LIBCMT:undname.obj
 0002:00003438       ??_C@_0CJ@GJELGAMM@?$GAvector?5vbase?5copy?5constructor?5i@ 000000006409d438     LIBCMT:undname.obj
 0002:00003468       ??_C@_0CD@CGAJBKEJ@?$GAvector?5copy?5constructor?5iterato@ 000000006409d468     LIBCMT:undname.obj
 0002:00003490       ??_C@_0CB@PDBIFEP@?$GAdynamic?5atexit?5destructor?5for?5?8@ 000000006409d490     LIBCMT:undname.obj
 0002:000034b8       ??_C@_0BL@CLIPGLGB@?$GAdynamic?5initializer?5for?5?8?$AA@ 000000006409d4b8     LIBCMT:undname.obj
 0002:000034d8       ??_C@_0CM@FCBBDIGB@?$GAeh?5vector?5vbase?5copy?5constructo@ 000000006409d4d8     LIBCMT:undname.obj
 0002:00003508       ??_C@_0CG@HLDDJMAG@?$GAeh?5vector?5copy?5constructor?5iter@ 000000006409d508     LIBCMT:undname.obj
 0002:00003530       ??_C@_0CF@IMGKMJNO@?$GAmanaged?5vector?5destructor?5itera@ 000000006409d530     LIBCMT:undname.obj
 0002:00003558       ??_C@_0CG@CFDHKGGD@?$GAmanaged?5vector?5constructor?5iter@ 000000006409d558     LIBCMT:undname.obj
 0002:00003580       ??_C@_0BN@CKNJLHMB@?$GAplacement?5delete?$FL?$FN?5closure?8?$AA@ 000000006409d580     LIBCMT:undname.obj
 0002:000035a0       ??_C@_0BL@CNOONJFP@?$GAplacement?5delete?5closure?8?$AA@ 000000006409d5a0     LIBCMT:undname.obj
 0002:000035c0       ??_C@_0P@HJKNJFNN@?$GAomni?5callsig?8?$AA@ 000000006409d5c0     LIBCMT:undname.obj
 0002:000035d0       ??_C@_09LBNFPBCA@?5delete?$FL?$FN?$AA@ 000000006409d5d0     LIBCMT:undname.obj
 0002:000035dc       ??_C@_06FHBGPFGH@?5new?$FL?$FN?$AA@ 000000006409d5dc     LIBCMT:undname.obj
 0002:000035e8       ??_C@_0CE@IIHCMGGL@?$GAlocal?5vftable?5constructor?5closu@ 000000006409d5e8     LIBCMT:undname.obj
 0002:00003610       ??_C@_0BA@KKLDJDLB@?$GAlocal?5vftable?8?$AA@ 000000006409d610     LIBCMT:undname.obj
 0002:00003620       ??_C@_05KHLCHHI@?$GARTTI?$AA@ 000000006409d620     LIBCMT:undname.obj
 0002:00003628       ??_C@_03KLGMFNMG@?$GAEH?$AA@ 000000006409d628     LIBCMT:undname.obj
 0002:00003630       ??_C@_0BA@KBCDOMBN@?$GAudt?5returning?8?$AA@ 000000006409d630     LIBCMT:undname.obj
 0002:00003640       ??_C@_0BL@LLKPOHJI@?$GAcopy?5constructor?5closure?8?$AA@ 000000006409d640     LIBCMT:undname.obj
 0002:00003660       ??_C@_0CH@OOJPLCPH@?$GAeh?5vector?5vbase?5constructor?5ite@ 000000006409d660     LIBCMT:undname.obj
 0002:00003688       ??_C@_0CA@GCEOPDGL@?$GAeh?5vector?5destructor?5iterator?8?$AA@ 000000006409d688     LIBCMT:undname.obj
 0002:000036a8       ??_C@_0CB@JONCMFFK@?$GAeh?5vector?5constructor?5iterator?8@ 000000006409d6a8     LIBCMT:undname.obj
 0002:000036d0       ??_C@_0BL@NILFHHPC@?$GAvirtual?5displacement?5map?8?$AA@ 000000006409d6d0     LIBCMT:undname.obj
 0002:000036f0       ??_C@_0CE@IKBNEHA@?$GAvector?5vbase?5constructor?5iterat@ 000000006409d6f0     LIBCMT:undname.obj
 0002:00003718       ??_C@_0BN@LFPFMEDL@?$GAvector?5destructor?5iterator?8?$AA@ 000000006409d718     LIBCMT:undname.obj
 0002:00003738       ??_C@_0BO@PFGOCPJJ@?$GAvector?5constructor?5iterator?8?$AA@ 000000006409d738     LIBCMT:undname.obj
 0002:00003758       ??_C@_0BN@IMDCHIKM@?$GAscalar?5deleting?5destructor?8?$AA@ 000000006409d758     LIBCMT:undname.obj
 0002:00003778       ??_C@_0BO@OBMKPJIG@?$GAdefault?5constructor?5closure?8?$AA@ 000000006409d778     LIBCMT:undname.obj
 0002:00003798       ??_C@_0BN@DEGPLNFK@?$GAvector?5deleting?5destructor?8?$AA@ 000000006409d798     LIBCMT:undname.obj
 0002:000037b8       ??_C@_0BD@JDLKDPAB@?$GAvbase?5destructor?8?$AA@ 000000006409d7b8     LIBCMT:undname.obj
 0002:000037d0       ??_C@_08OBABFOLI@?$GAstring?8?$AA@ 000000006409d7d0     LIBCMT:undname.obj
 0002:000037e0       ??_C@_0BF@KDPPACIK@?$GAlocal?5static?5guard?8?$AA@ 000000006409d7e0     LIBCMT:undname.obj
 0002:000037f8       ??_C@_08LLFFHHDJ@?$GAtypeof?8?$AA@ 000000006409d7f8     LIBCMT:undname.obj
 0002:00003808       ??_C@_07FEEIOKP@?$GAvcall?8?$AA@ 000000006409d808     LIBCMT:undname.obj
 0002:00003810       ??_C@_09BLBHBJP@?$GAvbtable?8?$AA@ 000000006409d810     LIBCMT:undname.obj
 0002:00003820       ??_C@_09IFPLHPGF@?$GAvftable?8?$AA@ 000000006409d820     LIBCMT:undname.obj
 0002:0000382c       ??_C@_02MHEGNOJ@?$FO?$DN?$AA@ 000000006409d82c     LIBCMT:undname.obj
 0002:00003830       ??_C@_02DHLNPPGH@?$HM?$DN?$AA@ 000000006409d830     LIBCMT:undname.obj
 0002:00003834       ??_C@_02FGJGFEAB@?$CG?$DN?$AA@ 000000006409d834     LIBCMT:undname.obj
 0002:00003838       ??_C@_03CDNPDDLA@?$DM?$DM?$DN?$AA@ 000000006409d838     LIBCMT:undname.obj
 0002:0000383c       ??_C@_03IKFCCPFF@?$DO?$DO?$DN?$AA@ 000000006409d83c     LIBCMT:undname.obj
 0002:00003840       ??_C@_02FENAOKFI@?$CF?$DN?$AA@ 000000006409d840     LIBCMT:undname.obj
 0002:00003844       ??_C@_02FJEHGPIO@?1?$DN?$AA@ 000000006409d844     LIBCMT:undname.obj
 0002:00003848       ??_C@_02FKMDLLOA@?9?$DN?$AA@ 000000006409d848     LIBCMT:undname.obj
 0002:0000384c       ??_C@_02FOEOMHFC@?$CL?$DN?$AA@ 000000006409d84c     LIBCMT:undname.obj
 0002:00003850       ??_C@_02FPIMKNGF@?$CK?$DN?$AA@ 000000006409d850     LIBCMT:undname.obj
 0002:00003854       ??_C@_02NONPIBCD@?$HM?$HM?$AA@ 000000006409d854     LIBCMT:undname.obj
 0002:00003858       ??_C@_02PPKAJPJL@?$CG?$CG?$AA@ 000000006409d858     LIBCMT:undname.obj
 0002:0000385c       ??_C@_01DNKMNLPK@?$HM?$AA@ 000000006409d85c     LIBCMT:undname.obj
 0002:00003860       ??_C@_01JKBOJNNK@?$FO?$AA@ 000000006409d860     LIBCMT:undname.obj
 0002:00003864       ??_C@_01PJKLJHI@?$HO?$AA@  000000006409d864     LIBCMT:undname.obj
 0002:00003868       ??_C@_02HCKGKOFO@?$CI?$CJ?$AA@ 000000006409d868     LIBCMT:undname.obj
 0002:0000386c       ??_C@_01IHBHIGKO@?0?$AA@   000000006409d86c     LIBCMT:undname.obj
 0002:00003870       ??_C@_02EEKDKGMJ@?$DO?$DN?$AA@ 000000006409d870     LIBCMT:undname.obj
 0002:00003874       ??_C@_01PPODPGHN@?$DO?$AA@ 000000006409d874     LIBCMT:undname.obj
 0002:00003878       ??_C@_02EHCHHCKH@?$DM?$DN?$AA@ 000000006409d878     LIBCMT:undname.obj
 0002:0000387c       ??_C@_01MNNFJEPP@?$DM?$AA@ 000000006409d87c     LIBCMT:undname.obj
 0002:00003880       ??_C@_01FGNFDNOH@?$CF?$AA@ 000000006409d880     LIBCMT:undname.obj
 0002:00003884       ??_C@_01KMDKNFGN@?1?$AA@   000000006409d884     LIBCMT:undname.obj
 0002:00003888       ??_C@_03MNHNFDLC@?9?$DO?$CK?$AA@ 000000006409d888     LIBCMT:undname.obj
 0002:0000388c       ??_C@_01HNPIGOCE@?$CG?$AA@ 000000006409d88c     LIBCMT:undname.obj
 0002:00003890       ??_C@_01MIFGBAGJ@?$CL?$AA@ 000000006409d890     LIBCMT:undname.obj
 0002:00003894       ??_C@_01JOAMLHOP@?9?$AA@   000000006409d894     LIBCMT:undname.obj
 0002:00003898       ??_C@_02BAABKJLB@?9?9?$AA@ 000000006409d898     LIBCMT:undname.obj
 0002:0000389c       ??_C@_02ECNGHCIF@?$CL?$CL?$AA@ 000000006409d89c     LIBCMT:undname.obj
 0002:000038a0       ??_C@_02HBOOOICD@?9?$DO?$AA@ 000000006409d8a0     LIBCMT:undname.obj
 0002:000038a8       ??_C@_08LHJFAFGD@operator?$AA@ 000000006409d8a8     LIBCMT:undname.obj
 0002:000038b4       ??_C@_02GPECMEKF@?$FL?$FN?$AA@ 000000006409d8b4     LIBCMT:undname.obj
 0002:000038b8       ??_C@_02FDNJECIE@?$CB?$DN?$AA@ 000000006409d8b8     LIBCMT:undname.obj
 0002:000038bc       ??_C@_02EGOFBIJA@?$DN?$DN?$AA@ 000000006409d8bc     LIBCMT:undname.obj
 0002:000038c0       ??_C@_01DCLJPIOD@?$CB?$AA@ 000000006409d8c0     LIBCMT:undname.obj
 0002:000038c4       ??_C@_02FODMEDOG@?$DM?$DM?$AA@ 000000006409d8c4     LIBCMT:undname.obj
 0002:000038c8       ??_C@_02GPIOPFAK@?$DO?$DO?$AA@ 000000006409d8c8     LIBCMT:undname.obj
 0002:000038d0       ??_C@_07FPCDHGMM@?5delete?$AA@ 000000006409d8d0     LIBCMT:undname.obj
 0002:000038d8       ??_C@_04NIHEBCM@?5new?$AA@ 000000006409d8d8     LIBCMT:undname.obj
 0002:000038e0       ??_C@_0M@GFIIJFMG@__unaligned?$AA@ 000000006409d8e0     LIBCMT:undname.obj
 0002:000038f0       ??_C@_0L@PILCLIHE@__restrict?$AA@ 000000006409d8f0     LIBCMT:undname.obj
 0002:00003900       ??_C@_07JOMMBBKO@__ptr64?$AA@ 000000006409d900     LIBCMT:undname.obj
 0002:00003908       ??_C@_06GHPCKEAG@__eabi?$AA@ 000000006409d908     LIBCMT:undname.obj
 0002:00003910       ??_C@_09HIJEGCPM@__clrcall?$AA@ 000000006409d910     LIBCMT:undname.obj
 0002:00003920       ??_C@_0L@JMKHOMEK@__fastcall?$AA@ 000000006409d920     LIBCMT:undname.obj
 0002:00003930       ??_C@_0L@NPHFGOKO@__thiscall?$AA@ 000000006409d930     LIBCMT:undname.obj
 0002:00003940       ??_C@_09IFJBGAPI@__stdcall?$AA@ 000000006409d940     LIBCMT:undname.obj
 0002:00003950       ??_C@_08GHMPAG@__pascal?$AA@ 000000006409d950     LIBCMT:undname.obj
 0002:00003960       ??_C@_07KOLFKCDI@__cdecl?$AA@ 000000006409d960     LIBCMT:undname.obj
 0002:00003968       ??_C@_08EHJDFFNH@__based?$CI?$AA@ 000000006409d968     LIBCMT:undname.obj
 0002:00003c88       ??_7charNode@@6B@          000000006409dc88     LIBCMT:undname.obj
 0002:00003ca0       ??_7pDNameNode@@6B@        000000006409dca0     LIBCMT:undname.obj
 0002:00003cb8       ??_7DNameStatusNode@@6B@   000000006409dcb8     LIBCMT:undname.obj
 0002:00003cd0       ??_7pairNode@@6B@          000000006409dcd0     LIBCMT:undname.obj
 0002:00003ce8       ??_7pcharNode@@6B@         000000006409dce8     LIBCMT:undname.obj
 0002:00003d00       ??_C@_04OKOHEJBO@?5?$DP?$DP?5?$AA@ 000000006409dd00     LIBCMT:undname.obj
 0002:00003d08       ??_C@_06EEGAIFAK@?$HLflat?$HN?$AA@ 000000006409dd08     LIBCMT:undname.obj
 0002:00003d10       ??_C@_05JIBOFOHK@?$HLfor?5?$AA@ 000000006409dd10     LIBCMT:undname.obj
 0002:00003d18       ??_C@_0BN@IBLMMFAP@?$GAnon?9type?9template?9parameter?$AA@ 000000006409dd18     LIBCMT:undname.obj
 0002:00003d38       ??_C@_09EBBEKKIH@unsigned?5?$AA@ 000000006409dd38     LIBCMT:undname.obj
 0002:00003d44       ??_C@_05CIHEBHNO@char?5?$AA@ 000000006409dd44     LIBCMT:undname.obj
 0002:00003d4c       ??_C@_06EHJMALKF@short?5?$AA@ 000000006409dd4c     LIBCMT:undname.obj
 0002:00003d54       ??_C@_04LAHKHJMA@int?5?$AA@ 000000006409dd54     LIBCMT:undname.obj
 0002:00003d5c       ??_C@_05CJIMAING@long?5?$AA@ 000000006409dd5c     LIBCMT:undname.obj
 0002:00003d64       ??_C@_04GKJNKENE@void?$AA@ 000000006409dd64     LIBCMT:undname.obj
 0002:00003d6c       ??_C@_03KHICJKCI@?4?4?4?$AA@ 000000006409dd6c     LIBCMT:undname.obj
 0002:00003d70       ??_C@_0L@EGPHHEKN@?$DMellipsis?$DO?$AA@ 000000006409dd70     LIBCMT:undname.obj
 0002:00003d7c       ??_C@_04EENFHACM@?0?4?4?4?$AA@ 000000006409dd7c     LIBCMT:undname.obj
 0002:00003d88       ??_C@_0M@ELJOJFFH@?0?$DMellipsis?$DO?$AA@ 000000006409dd88     LIBCMT:undname.obj
 0002:00003d98       ??_C@_07HDJPLPEK@?5throw?$CI?$AA@ 000000006409dd98     LIBCMT:undname.obj
 0002:00003da0       ??_C@_02GOGNNPBN@?$CJ?$FL?$AA@ 000000006409dda0     LIBCMT:undname.obj
 0002:00003da4       ??_C@_02MDINNEEG@s?5?$AA@  000000006409dda4     LIBCMT:undname.obj
 0002:00003da8       ??_C@_01GEODFPGF@?8?$AA@   000000006409dda8     LIBCMT:undname.obj
 0002:00003db0       ??_C@_0BE@EODMJLIF@?$GAtemplate?9parameter?$AA@ 000000006409ddb0     LIBCMT:undname.obj
 0002:00003dc4       ??_C@_04HIBGFPH@NULL?$AA@  000000006409ddc4     LIBCMT:undname.obj
 0002:00003dd0       ??_C@_0O@GKABPPIF@cli?3?3pin_ptr?$DM?$AA@ 000000006409ddd0     LIBCMT:undname.obj
 0002:00003de0       ??_C@_0M@EALIELKG@cli?3?3array?$DM?$AA@ 000000006409dde0     LIBCMT:undname.obj
 0002:00003dec       ??_C@_05BEFAKPML@void?5?$AA@ 000000006409ddec     LIBCMT:undname.obj
 0002:00003df4       ??_C@_02OHHJMEON@?8?8?$AA@ 000000006409ddf4     LIBCMT:undname.obj
 0002:00003df8       ??_C@_0BG@JNJLAMPM@?$GAanonymous?5namespace?8?$AA@ 000000006409ddf8     LIBCMT:undname.obj
 0002:00003e10       ??_C@_01NLNLIGKH@?$GA?$AA@ 000000006409de10     LIBCMT:undname.obj
 0002:00003e18       ??_C@_0O@KHGCOMHP@generic?9type?9?$AA@ 000000006409de18     LIBCMT:undname.obj
 0002:00003e28       ??_C@_0BE@JAEOCHPE@template?9parameter?9?$AA@ 000000006409de28     LIBCMT:undname.obj
 0002:00003e3c       ??_C@_02MOLJINC@?3?3?$AA@  000000006409de3c     LIBCMT:undname.obj
 0002:00003e40       ??_C@_0P@GCIFDJCJ@?$GAunknown?5ecsu?8?$AA@ 000000006409de40     LIBCMT:undname.obj
 0002:00003e50       ??_C@_06MOJHIBMG@union?5?$AA@ 000000006409de50     LIBCMT:undname.obj
 0002:00003e58       ??_C@_07DIBCDNGL@struct?5?$AA@ 000000006409de58     LIBCMT:undname.obj
 0002:00003e60       ??_C@_06LJBABKPM@class?5?$AA@ 000000006409de60     LIBCMT:undname.obj
 0002:00003e68       ??_C@_05LJGMCFOG@enum?5?$AA@ 000000006409de68     LIBCMT:undname.obj
 0002:00003e70       ??_C@_08KOFANOFK@coclass?5?$AA@ 000000006409de70     LIBCMT:undname.obj
 0002:00003e80       ??_C@_0N@DLIEFKNA@cointerface?5?$AA@ 000000006409de80     LIBCMT:undname.obj
 0002:00003e90       ??_C@_02KCKGHPCA@?$CJ?5?$AA@ 000000006409de90     LIBCMT:undname.obj
 0002:00003e98       ??_C@_0M@DHNBOJMP@extern?5?$CCC?$CC?5?$AA@ 000000006409de98     LIBCMT:undname.obj
 0002:00003ea8       ??_C@_08KJLFOPNE@?$FLthunk?$FN?3?$AA@ 000000006409dea8     LIBCMT:undname.obj
 0002:00003eb8       ??_C@_08GPDDCMKI@public?3?5?$AA@ 000000006409deb8     LIBCMT:undname.obj
 0002:00003ec8       ??_C@_0M@GAIFPFIP@protected?3?5?$AA@ 000000006409dec8     LIBCMT:undname.obj
 0002:00003ed8       ??_C@_09LAPHOOG@private?3?5?$AA@ 000000006409ded8     LIBCMT:undname.obj
 0002:00003ee8       ??_C@_08NIEOINHE@virtual?5?$AA@ 000000006409dee8     LIBCMT:undname.obj
 0002:00003ef8       ??_C@_07PGOEDBHP@static?5?$AA@ 000000006409def8     LIBCMT:undname.obj
 0002:00003f00       ??_C@_0DA@HGFJFBBE@?$GAtemplate?5static?5data?5member?5des@ 000000006409df00     LIBCMT:undname.obj
 0002:00003f30       ??_C@_0DB@ILEFOCIJ@?$GAtemplate?5static?5data?5member?5con@ 000000006409df30     LIBCMT:undname.obj
 0002:00003f68       ??_C@_0CB@KJDOOODE@?$GAlocal?5static?5destructor?5helper?8@ 000000006409df68     LIBCMT:undname.obj
 0002:00003f90       ??_C@_0L@HNGCOGAE@?$GAadjustor?$HL?$AA@ 000000006409df90     LIBCMT:undname.obj
 0002:00003fa0       ??_C@_0L@GHPFDFH@?$GAvtordisp?$HL?$AA@ 000000006409dfa0     LIBCMT:undname.obj
 0002:00003fb0       ??_C@_0N@CBHHHENL@?$GAvtordispex?$HL?$AA@ 000000006409dfb0     LIBCMT:undname.obj
 0002:00003fc0       ??_C@_01CLKCMJKC@?5?$AA@   000000006409dfc0     LIBCMT:undname.obj
 0002:00003fc4       ??_C@_02IGFCGPIL@?$HN?8?$AA@ 000000006409dfc4     LIBCMT:undname.obj
 0002:00003fc8       ??_C@_03OPGICMGF@?$HN?8?5?$AA@ 000000006409dfc8     LIBCMT:undname.obj
 0002:00003fcc       ??_C@_06LIJLOJAG@const?5?$AA@ 000000006409dfcc     LIBCMT:undname.obj
 0002:00003fd8       ??_C@_09GAIEOBLP@volatile?5?$AA@ 000000006409dfd8     LIBCMT:undname.obj
 0002:00003fe4       ??_C@_04HEJADOOB@CV?3?5?$AA@ 000000006409dfe4     LIBCMT:undname.obj
 0002:00003ff0       ??_C@_08PABEKFH@volatile?$AA@ 000000006409dff0     LIBCMT:undname.obj
 0002:00004000       ??_C@_09EFNPDFFP@?5volatile?$AA@ 000000006409e000     LIBCMT:undname.obj
 0002:0000400c       ??_C@_05BNCCCJPP@const?$AA@ 000000006409e00c     LIBCMT:undname.obj
 0002:00004018       ??_C@_07EDHNAJHC@signed?5?$AA@ 000000006409e018     LIBCMT:undname.obj
 0002:00004020       ??_C@_06BNJCAIGJ@double?$AA@ 000000006409e020     LIBCMT:undname.obj
 0002:00004028       ??_C@_04DDKJGDCM@bool?$AA@ 000000006409e028     LIBCMT:undname.obj
 0002:00004030       ??_C@_09EEKGDCPH@?$DMunknown?$DO?$AA@ 000000006409e030     LIBCMT:undname.obj
 0002:00004040       ??_C@_07CLGGIAMF@wchar_t?$AA@ 000000006409e040     LIBCMT:undname.obj
 0002:00004048       ??_C@_07NFANNNEC@UNKNOWN?$AA@ 000000006409e048     LIBCMT:undname.obj
 0002:00004050       ??_C@_08GAHOLHEO@__int128?$AA@ 000000006409e050     LIBCMT:undname.obj
 0002:00004060       ??_C@_07OFLPPHGP@__int32?$AA@ 000000006409e060     LIBCMT:undname.obj
 0002:00004068       ??_C@_07LFCOJCAC@__int64?$AA@ 000000006409e068     LIBCMT:undname.obj
 0002:00004070       ??_C@_07ICFHOGAF@__int16?$AA@ 000000006409e070     LIBCMT:undname.obj
 0002:00004078       ??_C@_06GCICPBLB@__w64?5?$AA@ 000000006409e078     LIBCMT:undname.obj
 0002:00004080       ??_C@_06EBGKOKIG@__int8?$AA@ 000000006409e080     LIBCMT:undname.obj
 0002:00004088       ??_C@_04ENMBGAPA@char?$AA@ 000000006409e088     LIBCMT:undname.obj
 0002:00004090       ??_C@_05BFKKPKCG@short?$AA@ 000000006409e090     LIBCMT:undname.obj
 0002:00004098       ??_C@_03JBIPMCLC@int?$AA@  000000006409e098     LIBCMT:undname.obj
 0002:0000409c       ??_C@_04GOKPGOLB@long?$AA@ 000000006409e09c     LIBCMT:undname.obj
 0002:000040a4       ??_C@_05KNFBNCOH@float?$AA@ 000000006409e0a4     LIBCMT:undname.obj
 0002:000040b0       ??_C@_0P@GCOCNKDM@std?3?3nullptr_t?$AA@ 000000006409e0b0     LIBCMT:undname.obj
 0002:000040c0       ??_C@_0BI@DFKBFLJE@GetProcessWindowStation?$AA@ 000000006409e0c0     LIBCMT:crtmboxw.obj
 0002:000040d8       ??_C@_0BK@DEKFELLI@GetUserObjectInformationW?$AA@ 000000006409e0d8     LIBCMT:crtmboxw.obj
 0002:000040f8       ??_C@_0BD@HHGDFDBJ@GetLastActivePopup?$AA@ 000000006409e0f8     LIBCMT:crtmboxw.obj
 0002:00004110       ??_C@_0BA@HNOPNCHB@GetActiveWindow?$AA@ 000000006409e110     LIBCMT:crtmboxw.obj
 0002:00004120       ??_C@_0M@DLDCCGNP@MessageBoxW?$AA@ 000000006409e120     LIBCMT:crtmboxw.obj
 0002:00004130       ??_C@_1BG@GOEBHBDC@?$AAU?$AAS?$AAE?$AAR?$AA3?$AA2?$AA?4?$AAD?$AAL?$AAL?$AA?$AA@ 000000006409e130     LIBCMT:crtmboxw.obj
 0002:00004150       __lookuptable_s            000000006409e150     LIBCMT:outputs.obj
 0002:000041b0       ??_C@_1BA@BALFACEM@?$AAC?$AAO?$AAN?$AAO?$AAU?$AAT?$AA$?$AA?$AA@ 000000006409e1b0     LIBCMT:initcon.obj
 0002:000041c0       ??_C@_1BI@JEMGCCOA@?$AA7?$AAz?$AAS?$AA2?$AAc?$AAo?$AAn?$AA?4?$AAs?$AAf?$AAx?$AA?$AA@ 000000006409e1c0     archive.obj
 0002:000041d8       ??_C@_1BC@IBOPFADC@?$AA7?$AAz?$AAS?$AA2?$AA?4?$AAs?$AAf?$AAx?$AA?$AA@ 000000006409e1d8     archive.obj
 0002:000041f0       ??_C@_1BC@EKJIHECG@?$AA7?$AAz?$AAS?$AAD?$AA?4?$AAs?$AAf?$AAx?$AA?$AA@ 000000006409e1f0     archive.obj
 0002:00004208       ??_C@_1BA@GPHFCJDK@?$AA7?$AAz?$AAS?$AA?4?$AAs?$AAf?$AAx?$AA?$AA@ 000000006409e208     archive.obj
 0002:00004218       ??_C@_1BE@CPEIGPON@?$AA7?$AAz?$AAC?$AAo?$AAn?$AA?4?$AAs?$AAf?$AAx?$AA?$AA@ 000000006409e218     archive.obj
 0002:00004230       ??_C@_1O@CNEPMAPN@?$AA7?$AAz?$AA?4?$AAs?$AAf?$AAx?$AA?$AA@ 000000006409e230     archive.obj
 0002:00004240       ??_C@_19IEMBGPPO@?$AA?4?$AA0?$AA0?$AA1?$AA?$AA@ 000000006409e240     archive.obj
 0002:00004250       ??_C@_19DOGDICKI@?$AA?4?$AAe?$AAx?$AAe?$AA?$AA@ 000000006409e250     archive.obj
 0002:00004260       ??_C@_19FHPHDENP@?$AAP?$AAP?$AAM?$AAD?$AA?$AA@ 000000006409e260     archive.obj
 0002:00004270       ??_C@_1M@DDMLOLLP@?$AAL?$AAZ?$AAM?$AAA?$AA2?$AA?$AA@ 000000006409e270     archive.obj
 0002:00004280       ??_C@_19MMHLLJED@?$AAL?$AAZ?$AAM?$AAA?$AA?$AA@ 000000006409e280     archive.obj
 0002:00004290       ??_C@_19HNCGHLOK@?$AAC?$AAo?$AAp?$AAy?$AA?$AA@ 000000006409e290     archive.obj
 0002:000042a0       ??_C@_0CE@EBEMHOLO@c?3?2src?2plugins?2arclite?2comutils?4@ 000000006409e2a0     archive.obj
 0002:00004420       ?c_min_volume_size@@3_KB   000000006409e420     archive.obj
 0002:00004490       ??_C@_13PAHNCFBL@?$CB?$JC?$AA?$AA@ 000000006409e490     archive.obj
 0002:00004498       ??_C@_0N@DLJIDING@CreateObject?$AA@ 000000006409e498     archive.obj
 0002:000044a8       ??_C@_0BD@HEPKNIHJ@GetNumberOfMethods?$AA@ 000000006409e4a8     archive.obj
 0002:000044c0       ??_C@_0BC@OJPJFIMA@GetMethodProperty?$AA@ 000000006409e4c0     archive.obj
 0002:000044d8       ??_C@_0BD@GPKACDEP@GetNumberOfFormats?$AA@ 000000006409e4d8     archive.obj
 0002:000044f0       ??_C@_0BD@DAJFLGDO@GetHandlerProperty?$AA@ 000000006409e4f0     archive.obj
 0002:00004508       ??_C@_0BE@CMCBNMGM@GetHandlerProperty2?$AA@ 000000006409e508     archive.obj
 0002:00004520       ??_C@_08IPABKFMB@GetIsArc?$AA@ 000000006409e520     archive.obj
 0002:0000452c       ??_C@_13OHNMPHJM@?$AA?$FN?$AA?$AA@ 000000006409e52c     archive.obj
 0002:00004530       ??_C@_15FFJNNDMJ@?$AA?5?$AA?$FL?$AA?$AA@ 000000006409e530     archive.obj
 0002:00004538       ??_C@_02DIKIINKA@MZ?$AA@   000000006409e538     archive.obj
 0002:00004540       ??_C@_1M@HNNPBALB@?$AA?$CK?$AA?4?$AAd?$AAl?$AAl?$AA?$AA@ 000000006409e540     archive.obj
 0002:00004550       ??_C@_1M@HFEBMLCN@?$AA?$CK?$AA?4?$AAs?$AAf?$AAx?$AA?$AA@ 000000006409e550     archive.obj
 0002:00004560       ??_C@_1BO@CHFBIDJD@?$AAS?$AAo?$AAf?$AAt?$AAw?$AAa?$AAr?$AAe?$AA?2?$AA7?$AA?9?$AAZ?$AAi?$AAp?$AA?$AA@ 000000006409e560     archive.obj
 0002:00004580       ??_C@_19NHABCBNP@?$AAP?$AAa?$AAt?$AAh?$AA?$AA@ 000000006409e580     archive.obj
 0002:00004590       ??_C@_1O@CFNBBLGB@?$AA7?$AAz?$AA?4?$AAd?$AAl?$AAl?$AA?$AA@ 000000006409e590     archive.obj
 0002:000045a0       ??_C@_13BBDEGPLJ@?$AA?$CK?$AA?$AA@ 000000006409e5a0     archive.obj
 0002:000045a8       ??_C@_0M@HIHBHGEM@archive?4cpp?$AA@ 000000006409e5a8     archive.obj
 0002:000045c0       ??_C@_1GK@CKLFAJOB@?$AAS?$AAt?$AAr?$AAi?$AAn?$AAg?$AAF?$AAr?$AAo?$AAm?$AAG?$AAU?$AAI?$AAD?$AA2?$AA?$CI?$AAg?$AAu?$AAi?$AAd?$AA?0?$AA?5?$AAg?$AAu?$AAi?$AAd?$AA_?$AAs?$AAt?$AAr?$AA?0?$AA?5@ 000000006409e5c0     archive.obj
 0002:00004630       ??_C@_19LKKOIHJI@?$AA?4?$AAt?$AAm?$AAp?$AA?$AA@ 000000006409e630     archive.obj
 0002:0000463c       ??_C@_15DDHGOCBH@?$AA?4?$AA?4?$AA?$AA@ 000000006409e63c     archive.obj
 0002:00004644       ??_C@_13JOFGPIOO@?$AA?4?$AA?$AA@ 000000006409e644     archive.obj
 0002:00004648       ??_C@_0BG@BBKNOMOH@invalid?5map?$DMK?0?5T?$DO?5key?$AA@ 000000006409e648     archive.obj
 0002:00004660       ??_C@_0BD@OLBABOEK@vector?$DMT?$DO?5too?5long?$AA@ 000000006409e660     archive.obj
 0002:00004678       ??_C@_0BB@MOGOBHAF@list?$DMT?$DO?5too?5long?$AA@ 000000006409e678     archive.obj
 0002:00004690       ??_C@_0BM@PAPJHAGI@invalid?5map?1set?$DMT?$DO?5iterator?$AA@ 000000006409e690     archive.obj
 0002:000046b0       ??_C@_0BC@KBDMBKEH@deque?$DMT?$DO?5too?5long?$AA@ 000000006409e6b0     archive.obj
 0002:000046c8       ??_C@_0BE@JONHPENG@map?1set?$DMT?$DO?5too?5long?$AA@ 000000006409e6c8     archive.obj
 0002:000046e0       IID_IInArchive             000000006409e6e0     archive.obj
 0002:000046f0       IID_IOutArchive            000000006409e6f0     archive.obj
 0002:00004700       ??_C@_0BI@CFPLBAOH@invalid?5string?5position?$AA@ 000000006409e700     archive.obj
 0002:00004718       ??_C@_0BA@JFNIOLAK@string?5too?5long?$AA@ 000000006409e718     archive.obj
 0002:00004728       c_plugin_guid              000000006409e728     plugin.obj
 0002:00004738       c_plugin_menu_guid         000000006409e738     plugin.obj
 0002:00004748       c_plugin_config_guid       000000006409e748     plugin.obj
 0002:00004758       c_password_dialog_guid     000000006409e758     plugin.obj
 0002:00004768       c_overwrite_dialog_guid    000000006409e768     plugin.obj
 0002:00004778       c_extract_dialog_guid      000000006409e778     plugin.obj
 0002:00004788       c_update_dialog_guid       000000006409e788     plugin.obj
 0002:00004798       c_settings_dialog_guid     000000006409e798     plugin.obj
 0002:000047a8       c_attr_dialog_guid         000000006409e7a8     plugin.obj
 0002:000047b8       c_sfx_options_dialog_guid  000000006409e7b8     plugin.obj
 0002:000047c8       c_delete_files_dialog_guid 000000006409e7c8     plugin.obj
 0002:000047d8       c_overwrite_archive_dialog_guid 000000006409e7d8     plugin.obj
 0002:000047e8       c_progress_dialog_guid     000000006409e7e8     plugin.obj
 0002:000047f8       c_interrupt_dialog_guid    000000006409e7f8     plugin.obj
 0002:00004808       c_retry_ignore_dialog_guid 000000006409e808     plugin.obj
 0002:00004818       c_error_log_dialog_guid    000000006409e818     plugin.obj
 0002:00004828       c_delete_profile_dialog_guid 000000006409e828     plugin.obj
 0002:00004838       c_test_ok_dialog_guid      000000006409e838     plugin.obj
 0002:00004848       c_extract_params_saved_dialog_guid 000000006409e848     plugin.obj
 0002:00004858       c_arc_path_eval_dialog_guid 000000006409e858     plugin.obj
 0002:00004868       c_error_dialog_guid        000000006409e868     plugin.obj
 0002:00004878       c_format_menu_guid         000000006409e878     plugin.obj
 0002:00004888       c_main_menu_guid           000000006409e888     plugin.obj
 0002:00004898       c_arccmd_menu_guid         000000006409e898     plugin.obj
 0002:000048a8       c_create_dir_dialog_guid   000000006409e8a8     plugin.obj
 0002:000048b8       c_save_profile_dialog_guid 000000006409e8b8     plugin.obj
 0002:000048c8       c_generic_guid             000000006409e8c8     plugin.obj
 0002:000048d8       c_update_params_saved_dialog_guid 000000006409e8d8     plugin.obj
 0002:000048e8       c_multi_select_dialog_guid 000000006409e8e8     plugin.obj
 0002:000048f8       c_format_library_info_dialog_guid 000000006409e8f8     plugin.obj
 0002:00004908       c_far_guid                 000000006409e908     plugin.obj
 0002:00004918       ??_C@_0CB@GOJGAIND@c?3?2src?2plugins?2arclite?2error?4hpp@ 000000006409e918     plugin.obj
 0002:0000493c       ??_C@_02LMMGGCAJ@?3?5?$AA@ 000000006409e93c     plugin.obj
 0002:00004940       ??_C@_0L@MBOHGIBE@plugin?4cpp?$AA@ 000000006409e940     plugin.obj
 0002:0000494c       ??_C@_13EBCNDICG@?$AA?3?$AA?$AA@ 000000006409e94c     plugin.obj
 0002:00004950       ??_C@_13FPGAJAPJ@?$AA?2?$AA?$AA@ 000000006409e950     plugin.obj
 0002:00004960       ??_C@_1JK@FFADHFBH@?$AAg?$AAe?$AAt?$AA_?$AAa?$AAp?$AAp?$AA_?$AAo?$AAp?$AAt?$AAi?$AAo?$AAn?$AA?$CI?$AAF?$AAS?$AAS?$AAF?$AA_?$AAS?$AAY?$AAS?$AAT?$AAE?$AAM?$AA?0?$AA?5?$AAc?$AA_?$AAc?$AAo@ 000000006409e960     plugin.obj
 0002:000049fc       ??_C@_13LBAGMAIH@?$AA?6?$AA?$AA@ 000000006409e9fc     plugin.obj
 0002:00004a00       ??_C@_1FE@OHPOHPOP@?$AAF?$AAa?$AAr?$AA?3?$AA?3?$AAg?$AAe?$AAt?$AA_?$AAp?$AAa?$AAn?$AAe?$AAl?$AA_?$AAi?$AAn?$AAf?$AAo?$AA?$CI?$AAh?$AA_?$AAp?$AAl?$AAu?$AAg?$AAi?$AAn?$AA?0?$AA?5?$AAp?$AAa@ 000000006409ea00     plugin.obj
 0002:00004a58       ??_C@_1BA@EIJEHGCE@?$AAa?$AAr?$AAc?$AAl?$AAi?$AAt?$AAe?$AA?$AA@ 000000006409ea58     plugin.obj
 0002:00004a70       ??_C@_1FC@HPEFIKDA@?$AAA?$AAr?$AAc?$AAh?$AAi?$AAv?$AAe?$AA?5?$AAs?$AAu?$AAp?$AAp?$AAo?$AAr?$AAt?$AA?5?$AA?$CI?$AAb?$AAa?$AAs?$AAe?$AAd?$AA?5?$AAo?$AAn?$AA?5?$AA7?$AA?9?$AAZ?$AAi?$AAp?$AA?5@ 000000006409ea70     plugin.obj
 0002:00004ac8       ??_C@_1DE@BGKMIKPD@?$AAE?$AAu?$AAg?$AAe?$AAn?$AAe?$AA?5?$AAR?$AAo?$AAs?$AAh?$AAa?$AAl?$AA?5?$AA?$CG?$AA?5?$AAF?$AAa?$AAr?$AA?5?$AAG?$AAr?$AAo?$AAu?$AAp?$AA?$AA@ 000000006409eac8     plugin.obj
 0002:00004b00       ??_C@_1BC@ENICKDH@?$AAC?$AAo?$AAn?$AAt?$AAe?$AAn?$AAt?$AAs?$AA?$AA@ 000000006409eb00     plugin.obj
 0002:00004b18       ??_C@_1CC@GBAAMIEE@?$AAK?$AAe?$AAy?$AAs?$AA?$CI?$AA?8?$AAC?$AAt?$AAr?$AAl?$AAP?$AAg?$AAD?$AAn?$AA?8?$AA?$CJ?$AA?$AA@ 000000006409eb18     plugin.obj
 0002:00004b40       ??_C@_1O@GBAEOCCH@?$AAP?$AAr?$AAe?$AAf?$AAi?$AAx?$AA?$AA@ 000000006409eb40     plugin.obj
 0002:00004b50       ?empty@?1???$null_to_empty@_W@@YAPEB_WPEB_W@Z@4_WB 000000006409eb50     plugin.obj
 0002:00004b50       ??_C@_11LOCGONAA@?$AA?$AA@ 000000006409eb50     ui.obj
 0002:00004b60       ??_7PluginPanelItems@?1??get_files@Plugin@@QEAAXPEBUPluginPanelItem@@_JHPEAPEB_W_K@Z@6B@ 000000006409eb60     plugin.obj
 0002:00004b78       ??_7PluginPanelItems@?1??extract@Plugin@@QEAAXXZ@6B@ 000000006409eb78     plugin.obj
 0002:00004b90       ??_7?$_Ref_count@VArchive@@@tr1@std@@6B@ 000000006409eb90     plugin.obj
 0002:00004bb8       ??_7?$_Ref_count@V?$list@UError@@V?$allocator@UError@@@std@@@std@@@tr1@std@@6B@ 000000006409ebb8     plugin.obj
 0002:00004be0       ??_7?$_Ref_count_del@XV<lambda11>@?A0xc5e9a1c5@@@tr1@std@@6B@ 000000006409ebe0     plugin.obj
 0002:00004c00       ??_C@_0BC@MOGJFHKK@tr1?3?3bad_weak_ptr?$AA@ 000000006409ec00     plugin.obj
 0002:00004c20       ??_7bad_weak_ptr@tr1@std@@6B@ 000000006409ec20     plugin.obj
 0002:00004c38       ??_7_Ref_count_base@tr1@std@@6B@ 000000006409ec38     plugin.obj
 0002:00004c58       ??_C@_06NPJEFJLB@ui?4cpp?$AA@ 000000006409ec58     ui.obj
 0002:00004c60       ??_C@_1JG@OMFJPMPF@?$AAg?$AAe?$AAt?$AA_?$AAa?$AAp?$AAp?$AA_?$AAo?$AAp?$AAt?$AAi?$AAo?$AAn?$AA?$CI?$AAF?$AAS?$AAS?$AAF?$AA_?$AAC?$AAO?$AAN?$AAF?$AAI?$AAR?$AAM?$AAA?$AAT?$AAI?$AAO?$AAN@ 000000006409ec60     ui.obj
 0002:00004cf8       ??_C@_17DMMFPNIF@?$AA?$CF?$AA?$HN?$AA?5?$AA?$AA@ 000000006409ecf8     ui.obj
 0002:00004d00       ??_C@_13GCIFAHHO@?$AA?$HL?$AA?$AA@ 000000006409ed00     ui.obj
 0002:00004d04       ??_C@_15FOBPOKEL@?$AA?$FN?$AA?5?$AA?$AA@ 000000006409ed04     ui.obj
 0002:00004d0c       ??_C@_13MCLHKIEA@?$AA?$FL?$AA?$AA@ 000000006409ed0c     ui.obj
 0002:00004d3c       ??_C@_13NEIAEHFG@?$AA?$CC?$AA?$AA@ 000000006409ed3c     ui.obj
 0002:00004d40       ??_C@_1BA@DNNJDHAB@?$AAE?$AAx?$AAt?$AAr?$AAa?$AAc?$AAt?$AA?$AA@ 000000006409ed40     ui.obj
 0002:00004d50       ??_C@_1CI@GPLIDJDI@?$AAa?$AAr?$AAc?$AAl?$AAi?$AAt?$AAe?$AA?4?$AAe?$AAx?$AAt?$AAr?$AAa?$AAc?$AAt?$AA_?$AAd?$AAi?$AAr?$AA?$AA@ 000000006409ed50     ui.obj
 0002:00004d80       ??_C@_1GG@OEEJHDBB@?$AAs?$AAe?$AAn?$AAd?$AA_?$AAm?$AAe?$AAs?$AAs?$AAa?$AAg?$AAe?$AA?$CI?$AAD?$AAM?$AA_?$AAL?$AAI?$AAS?$AAT?$AAG?$AAE?$AAT?$AAI?$AAT?$AAE?$AAM?$AA?0?$AA?5?$AAl?$AAe?$AAv@ 000000006409ed80     ui.obj
 0002:00004de8       ??_C@_1O@PBKAOOPF@?$AAU?$AAp?$AAd?$AAa?$AAt?$AAe?$AA?$AA@ 000000006409ede8     ui.obj
 0002:00004df8       ??_C@_1CC@JHNGBHPE@?$AAa?$AAr?$AAc?$AAl?$AAi?$AAt?$AAe?$AA?4?$AAa?$AAr?$AAc?$AA_?$AAp?$AAa?$AAt?$AAh?$AA?$AA@ 000000006409edf8     ui.obj
 0002:00004e20       ??_C@_1CC@MEHHCPDF@?$AAa?$AAr?$AAc?$AAl?$AAi?$AAt?$AAe?$AA?4?$AAa?$AAd?$AAv?$AAa?$AAn?$AAc?$AAe?$AAd?$AA?$AA@ 000000006409ee20     ui.obj
 0002:00004e48       ??_C@_1CI@KIHLOCML@?$AAa?$AAr?$AAc?$AAl?$AAi?$AAt?$AAe?$AA?4?$AAv?$AAo?$AAl?$AAu?$AAm?$AAe?$AA_?$AAs?$AAi?$AAz?$AAe?$AA?$AA@ 000000006409ee48     ui.obj
 0002:00004e70       ??_C@_1DM@DOHHEJNC@?$AAi?$AAt?$AAe?$AAm?$AA_?$AAc?$AAo?$AAl?$AAo?$AAr?$AAs?$AA?9?$AA?$DO?$AAC?$AAo?$AAl?$AAo?$AAr?$AAs?$AAC?$AAo?$AAu?$AAn?$AAt?$AA?5?$AA?$DN?$AA?$DN?$AA?5?$AA4?$AA?$AA@ 000000006409ee70     ui.obj
 0002:00004eac       ??_C@_13DEFPDAGF@?$AA?0?$AA?$AA@ 000000006409eeac     ui.obj
 0002:00004eb0       ??_C@_1O@BJPKKLLM@?$AAC?$AAo?$AAn?$AAf?$AAi?$AAg?$AA?$AA@ 000000006409eeb0     ui.obj
 0002:00004ec0       ??_C@_02BBAHNLBA@?$CFp?$AA@ 000000006409eec0     ui.obj
 0002:00004ec4       ??_C@_01DDCIFGEA@E?$AA@    000000006409eec4     ui.obj
 0002:00004ec8       ??_C@_01KGKMHCOC@e?$AA@    000000006409eec8     ui.obj
 0002:00004eca       ??_C@_00CNPNBAHC@?$AA@     000000006409eeca     ui.obj
 0002:00004ed8       ??_7?$basic_stringbuf@_WU?$char_traits@_W@std@@V?$allocator@_W@2@@std@@6B@ 000000006409eed8     ui.obj
 0002:00004f58       ??_7?$basic_ostringstream@_WU?$char_traits@_W@std@@V?$allocator@_W@2@@std@@6B@ 000000006409ef58     ui.obj
 0002:00004f60       ??_8?$basic_ostringstream@_WU?$char_traits@_W@std@@V?$allocator@_W@2@@std@@7B@ 000000006409ef60     ui.obj
 0002:00004f78       ??_7?$num_put@_WV?$ostreambuf_iterator@_WU?$char_traits@_W@std@@@std@@@std@@6B@ 000000006409ef78     ui.obj
 0002:00004fc8       ??_7ProgressMonitor@@6B@   000000006409efc8     ui.obj
 0002:00004fe0       ??_7PasswordDialog@@6B@    000000006409efe0     ui.obj
 0002:00004ff0       ??_7OverwriteDialog@@6B@   000000006409eff0     ui.obj
 0002:00005000       ??_7ExtractDialog@@6B@     000000006409f000     ui.obj
 0002:00005010       ??_7UpdateDialog@@6B@      000000006409f010     ui.obj
 0002:00005020       ??_7MultiSelectDialog@@6B@ 000000006409f020     ui.obj
 0002:00005030       ??_7FormatLibraryInfoDialog@@6B@ 000000006409f030     ui.obj
 0002:00005040       ??_7SettingsDialog@@6B@    000000006409f040     ui.obj
 0002:00005050       ??_7AttrDialog@@6B@        000000006409f050     ui.obj
 0002:00005060       ??_7?$numpunct@_W@std@@6B@ 000000006409f060     ui.obj
 0002:00005098       ??_7?$_Ref_count@VFileFilter@Far@@@tr1@std@@6B@ 000000006409f098     ui.obj
 0002:000050b8       ??_C@_0BA@ELKIONDK@bad?5locale?5name?$AA@ 000000006409f0b8     ui.obj
 0002:000050c8       ??_C@_05LAPONLG@false?$AA@ 000000006409f0c8     ui.obj
 0002:000050d0       ??_C@_04LOAJBDKD@true?$AA@ 000000006409f0d0     ui.obj
 0002:000050d8       ??_C@_0BF@PHHKMMFD@ios_base?3?3badbit?5set?$AA@ 000000006409f0d8     ui.obj
 0002:000050f0       ??_C@_0BG@FMKFHCIL@ios_base?3?3failbit?5set?$AA@ 000000006409f0f0     ui.obj
 0002:00005108       ??_C@_0BF@OOHOMBOF@ios_base?3?3eofbit?5set?$AA@ 000000006409f108     ui.obj
 0002:00005120       ??_C@_08EPJLHIJG@bad?5cast?$AA@ 000000006409f120     ui.obj
 0002:00005138       ??_7ios_base@std@@6B@      000000006409f138     ui.obj
 0002:00005148       ??_7?$basic_ios@_WU?$char_traits@_W@std@@@std@@6B@ 000000006409f148     ui.obj
 0002:00005158       ??_7?$basic_streambuf@_WU?$char_traits@_W@std@@@std@@6B@ 000000006409f158     ui.obj
 0002:000051d8       ??_7?$basic_ostream@_WU?$char_traits@_W@std@@@std@@6B@ 000000006409f1d8     ui.obj
 0002:000051e8       ??_7?$ctype@_W@std@@6B@    000000006409f1e8     ui.obj
 0002:00005258       ??_7system_error@std@@6B@  000000006409f258     ui.obj
 0002:00005270       ??_7failure@ios_base@std@@6B@ 000000006409f270     ui.obj
 0002:00005280       ??_C@_15OKNMGNJN@?$AA?$AB?$AA?6?$AA?$AA@ 000000006409f280     extract.obj
 0002:00005288       ??_C@_17MMMBOHJC@?$AA?5?$AA?$EA?$AA?5?$AA?$AA@ 000000006409f288     extract.obj
 0002:00005290       ??_C@_17DFGDFKBN@?$AA?5?$AA?1?$AA?5?$AA?$AA@ 000000006409f290     extract.obj
 0002:00005298       ??_C@_19IDMFBI@?$AA?$CJ?$AA?5?$AA?1?$AA?5?$AA?$AA@ 000000006409f298     extract.obj
 0002:000052a8       ??_C@_17HIKLPLBG@?$AA?5?$AA?9?$AA?5?$AA?$AA@ 000000006409f2a8     extract.obj
 0002:000052b0       ??_C@_13LLDNKHDC@?$AA?$CI?$AA?$AA@ 000000006409f2b0     extract.obj
 0002:000052b8       ??_C@_0M@ELMNDOCL@extract?4cpp?$AA@ 000000006409f2b8     extract.obj
 0002:000052d8       ??_7IArchiveExtractCallback@@6B@ 000000006409f2d8     extract.obj
 0002:00005320       ??_7ICryptoGetTextPassword@@6B@ 000000006409f320     extract.obj
 0002:00005348       ??_7ComBase@@6B@           000000006409f348     extract.obj
 0002:00005370       ??_7ExtractProgress@@6B@   000000006409f370     extract.obj
 0002:00005388       ??_7CachedFileExtractStream@@6BISequentialOutStream@@@ 000000006409f388     extract.obj
 0002:000053b0       ??_7CachedFileExtractStream@@6BComBase@@@ 000000006409f3b0     extract.obj
 0002:000053d8       ??_7ArchiveExtractor@@6BIArchiveExtractCallback@@@ 000000006409f3d8     extract.obj
 0002:00005420       ??_7ArchiveExtractor@@6BICryptoGetTextPassword@@@ 000000006409f420     extract.obj
 0002:00005448       ??_7ArchiveExtractor@@6BComBase@@@ 000000006409f448     extract.obj
 0002:00005470       ??_7PrepareExtract@@6B@    000000006409f470     extract.obj
 0002:00005488       ??_7SetDirAttr@@6B@        000000006409f488     extract.obj
 0002:000054a0       ??_7?$_Ref_count@_N@tr1@std@@6B@ 000000006409f4a0     extract.obj
 0002:000054c8       ??_7?$_Ref_count@W4OverwriteAction@@@tr1@std@@6B@ 000000006409f4c8     extract.obj
 0002:000054f0       ??_7?$_Ref_count@VExtractProgress@@@tr1@std@@6B@ 000000006409f4f0     extract.obj
 0002:00005518       ??_7?$_Ref_count@VFileWriteCache@@@tr1@std@@6B@ 000000006409f518     extract.obj
 0002:00005540       ??_7?$_Ref_count@V?$set@IU?$less@I@std@@V?$allocator@I@2@@std@@@tr1@std@@6B@ 000000006409f540     extract.obj
 0002:00005560       IID_IProgress              000000006409f560     extract.obj
 0002:00005570       IID_ISequentialOutStream   000000006409f570     extract.obj
 0002:00005580       IID_IArchiveExtractCallback 000000006409f580     extract.obj
 0002:00005590       IID_ICryptoGetTextPassword 000000006409f590     extract.obj
 0002:000055a0       ??_C@_08PBKAOBPC@open?4cpp?$AA@ 000000006409f5a0     open.obj
 0002:000055b0       ??_C@_1DC@IJGGMPKB@?$AAg?$AAe?$AAt?$AA_?$AAm?$AAa?$AAi?$AAn?$AA_?$AAf?$AAi?$AAl?$AAe?$AA?$CI?$AAm?$AAa?$AAi?$AAn?$AA_?$AAf?$AAi?$AAl?$AAe?$AA?$CJ?$AA?$AA@ 000000006409f5b0     open.obj
 0002:000055f0       ??_C@_1FA@KJKBGIDM@?$AAg?$AAe?$AAt?$AA_?$AAs?$AAt?$AAr?$AAe?$AAa?$AAm?$AA?$CI?$AAm?$AAa?$AAi?$AAn?$AA_?$AAf?$AAi?$AAl?$AAe?$AA?0?$AA?5?$AAs?$AAu?$AAb?$AA_?$AAs?$AAt?$AAr?$AAe?$AAa?$AAm@ 000000006409f5f0     open.obj
 0002:00005640       ??_C@_1EE@OOLOIHM@?$AAo?$AAp?$AAe?$AAn?$AA?$CI?$AAs?$AAu?$AAb?$AA_?$AAs?$AAt?$AAr?$AAe?$AAa?$AAm?$AA?0?$AA?5?$AAa?$AAr?$AAc?$AA_?$AAe?$AAn?$AAt?$AAr?$AAy?$AA?9?$AA?$DO?$AAt?$AAy?$AAp?$AAe@ 000000006409f640     open.obj
 0002:00005690       ??_7IArchiveOpenCallback@@6B@ 000000006409f690     open.obj
 0002:000056c0       ??_7IArchiveOpenVolumeCallback@@6B@ 000000006409f6c0     open.obj
 0002:000056f0       ??_7ArchiveSubStream@@6BIInStream@@@ 000000006409f6f0     open.obj
 0002:00005720       ??_7ArchiveSubStream@@6BComBase@@@ 000000006409f720     open.obj
 0002:00005748       ??_7ArchiveOpenStream@@6BIInStream@@@ 000000006409f748     open.obj
 0002:00005778       ??_7ArchiveOpenStream@@6BComBase@@@ 000000006409f778     open.obj
 0002:000057a0       ??_7ArchiveOpener@@6BIArchiveOpenCallback@@@ 000000006409f7a0     open.obj
 0002:000057d0       ??_7ArchiveOpener@@6BIArchiveOpenVolumeCallback@@@ 000000006409f7d0     open.obj
 0002:00005800       ??_7ArchiveOpener@@6BICryptoGetTextPassword@@@ 000000006409f800     open.obj
 0002:00005828       ??_7ArchiveOpener@@6BComBase@@@ 000000006409f828     open.obj
 0002:00005850       ??_7ArchiveOpener@@6BProgressMonitor@@@ 000000006409f850     open.obj
 0002:00005860       IID_ISequentialInStream    000000006409f860     open.obj
 0002:00005870       IID_IInStream              000000006409f870     open.obj
 0002:00005880       IID_IArchiveOpenCallback   000000006409f880     open.obj
 0002:00005890       IID_IArchiveOpenVolumeCallback 000000006409f890     open.obj
 0002:000058a0       IID_IInArchiveGetStream    000000006409f8a0     open.obj
 0002:000058b0       ??_C@_15BLMJCMIJ@?$AA?5?$AA?9?$AA?$AA@ 000000006409f8b0     update.obj
 0002:000058b8       ??_C@_13EJFHHPOP@?$AA?$CF?$AA?$AA@ 000000006409f8b8     update.obj
 0002:000058c0       ??_C@_17HLHNPJIN@?$AA?5?$AA?$DN?$AA?5?$AA?$AA@ 000000006409f8c0     update.obj
 0002:000058c8       ??_C@_17GPJGFMAC@?$AA?5?$CB?$JC?$AA?5?$AA?$AA@ 000000006409f8c8     update.obj
 0002:000058d0       ??_C@_0L@JMDIPHEI@update?4cpp?$AA@ 000000006409f8d0     update.obj
 0002:000058e0       ??_C@_1CA@ODCKIHEE@?$AAw?$AAr?$AAi?$AAt?$AAe?$AA_?$AAs?$AAi?$AAz?$AAe?$AA?5?$AA?$CB?$AA?$DN?$AA?5?$AA0?$AA?$AA@ 000000006409f8e0     update.obj
 0002:00005900       ??_C@_13COJANIEC@?$AA0?$AA?$AA@ 000000006409f900     update.obj
 0002:00005904       ??_C@_13HADAKIJA@?$AAx?$AA?$AA@ 000000006409f904     update.obj
 0002:00005908       ??_C@_13KHDBCPJB@?$AAs?$AA?$AA@ 000000006409f908     update.obj
 0002:0000590c       ??_C@_15KGGCNEFK@?$AAh?$AAe?$AA?$AA@ 000000006409f90c     update.obj
 0002:00005920       ??_7CriticalSection@@6B@   000000006409f920     update.obj
 0002:00005930       ??_7ArchiveUpdateProgress@@6B@ 000000006409f930     update.obj
 0002:00005948       ??_7UpdateStream@@6B@      000000006409f948     update.obj
 0002:00005998       ??_7SimpleUpdateStream@@6BUpdateStream@@@ 000000006409f998     update.obj
 0002:000059e0       ??_7SimpleUpdateStream@@6BComBase@@@ 000000006409f9e0     update.obj
 0002:00005a08       ??_7SfxUpdateStream@@6BUpdateStream@@@ 000000006409fa08     update.obj
 0002:00005a50       ??_7SfxUpdateStream@@6BComBase@@@ 000000006409fa50     update.obj
 0002:00005a78       ??_7MultiVolumeUpdateStream@@6BUpdateStream@@@ 000000006409fa78     update.obj
 0002:00005ac0       ??_7MultiVolumeUpdateStream@@6BComBase@@@ 000000006409fac0     update.obj
 0002:00005ae8       ??_7FileReadStream@@6BIInStream@@@ 000000006409fae8     update.obj
 0002:00005b18       ??_7FileReadStream@@6BComBase@@@ 000000006409fb18     update.obj
 0002:00005b40       ??_7PrepareUpdate@@6B@     000000006409fb40     update.obj
 0002:00005b58       ??_7ArchiveUpdater@@6BIArchiveUpdateCallback@@@ 000000006409fb58     update.obj
 0002:00005ba8       ??_7ArchiveUpdater@@6BICryptoGetTextPassword2@@@ 000000006409fba8     update.obj
 0002:00005bd0       ??_7ArchiveUpdater@@6BComBase@@@ 000000006409fbd0     update.obj
 0002:00005bf8       ??_7DeleteSrcFiles@@6B@    000000006409fbf8     update.obj
 0002:00005c10       ??_7?$_Ref_count@V?$map@IUFileIndexInfo@@U?$less@I@std@@V?$allocator@U?$pair@$$CBIUFileIndexInfo@@@std@@@3@@std@@@tr1@std@@6B@ 000000006409fc10     update.obj
 0002:00005c38       ??_7?$_Ref_count@VArchiveUpdateProgress@@@tr1@std@@6B@ 000000006409fc38     update.obj
 0002:00005c58       IID_IOutStream             000000006409fc58     update.obj
 0002:00005c68       IID_IArchiveUpdateCallback 000000006409fc68     update.obj
 0002:00005c78       IID_ISetProperties         000000006409fc78     update.obj
 0002:00005c88       IID_ICryptoGetTextPassword2 000000006409fc88     update.obj
 0002:00005c98       ??_C@_0L@NFFAKAN@delete?4cpp?$AA@ 000000006409fc98     delete.obj
 0002:00005cb0       ??_7ArchiveFileDeleterProgress@@6B@ 000000006409fcb0     delete.obj
 0002:00005cc8       ??_7ArchiveFileDeleterStream@@6BIOutStream@@@ 000000006409fcc8     delete.obj
 0002:00005d00       ??_7ArchiveFileDeleterStream@@6BComBase@@@ 000000006409fd00     delete.obj
 0002:00005d28       ??_7ArchiveFileDeleter@@6BIArchiveUpdateCallback@@@ 000000006409fd28     delete.obj
 0002:00005d78       ??_7ArchiveFileDeleter@@6BComBase@@@ 000000006409fd78     delete.obj
 0002:00005da0       ??_7?$_Ref_count@VArchiveFileDeleterProgress@@@tr1@std@@6B@ 000000006409fda0     delete.obj
 0002:00005dc0       ??_C@_17FPIFMLJN@?$AAE?$AAs?$AAc?$AA?$AA@ 000000006409fdc0     options.obj
 0002:00005dc8       ??_C@_1BG@BBLLCINI@?$AAC?$AAo?$AAp?$AAy?$AAO?$AAp?$AAe?$AAn?$AAe?$AAd?$AA?$AA@ 000000006409fdc8     options.obj
 0002:00005de0       ??_C@_1BC@JPGJMLGC@?$AAp?$AAr?$AAo?$AAf?$AAi?$AAl?$AAe?$AAs?$AA?$AA@ 000000006409fde0     options.obj
 0002:00005df8       ??_C@_17OJOFHEJE@?$AAa?$AAr?$AAc?$AA?$AA@ 000000006409fdf8     options.obj
 0002:00005e00       ??_C@_15FDMACJLB@?$AA7?$AAz?$AA?$AA@ 000000006409fe00     options.obj
 0002:00005e10       ??_C@_1CFG@PDGPPMAP@?$AA?$CK?$AA?4?$AAr?$AAa?$AAr?$AA?0?$AA?$CK?$AA?4?$AAz?$AAi?$AAp?$AA?0?$AA?$CK?$AA?4?$AA?$FL?$AAz?$AAj?$AA?$FN?$AA?0?$AA?$CK?$AA?4?$AA?$FL?$AAb?$AAg?$AA7?$AAx?$AA?$FN?$AAz?$AA?0?$AA?$CK?$AA?4?$AA?$FL@ 000000006409fe10     options.obj
 0002:00006068       ??_C@_1BC@JCBBLHDN@?$AAs?$AAf?$AAx?$AA?4?$AAn?$AAa?$AAm?$AAe?$AA?$AA@ 00000000640a0068     options.obj
 0002:00006080       ??_C@_1CC@HONLGMMG@?$AAs?$AAf?$AAx?$AA?4?$AAr?$AAe?$AAp?$AAl?$AAa?$AAc?$AAe?$AA_?$AAi?$AAc?$AAo?$AAn?$AA?$AA@ 00000000640a0080     options.obj
 0002:000060a8       ??_C@_1BM@JPIAFBBJ@?$AAs?$AAf?$AAx?$AA?4?$AAi?$AAc?$AAo?$AAn?$AA_?$AAp?$AAa?$AAt?$AAh?$AA?$AA@ 00000000640a00a8     options.obj
 0002:000060c8       ??_C@_1CI@JFOGOFA@?$AAs?$AAf?$AAx?$AA?4?$AAr?$AAe?$AAp?$AAl?$AAa?$AAc?$AAe?$AA_?$AAv?$AAe?$AAr?$AAs?$AAi?$AAo?$AAn?$AA?$AA@ 00000000640a00c8     options.obj
 0002:000060f0       ??_C@_1CK@ELAOMKDG@?$AAs?$AAf?$AAx?$AA?4?$AAv?$AAe?$AAr?$AA_?$AAi?$AAn?$AAf?$AAo?$AA?4?$AAv?$AAe?$AAr?$AAs?$AAi?$AAo?$AAn?$AA?$AA@ 00000000640a00f0     options.obj
 0002:00006120       ??_C@_1CM@BEBJAOOB@?$AAs?$AAf?$AAx?$AA?4?$AAv?$AAe?$AAr?$AA_?$AAi?$AAn?$AAf?$AAo?$AA?4?$AAc?$AAo?$AAm?$AAm?$AAe?$AAn?$AAt?$AAs?$AA?$AA@ 00000000640a0120     options.obj
 0002:00006150       ??_C@_1DE@DCPPCPEM@?$AAs?$AAf?$AAx?$AA?4?$AAv?$AAe?$AAr?$AA_?$AAi?$AAn?$AAf?$AAo?$AA?4?$AAc?$AAo?$AAm?$AAp?$AAa?$AAn?$AAy?$AA_?$AAn?$AAa?$AAm?$AAe?$AA?$AA@ 00000000640a0150     options.obj
 0002:00006188       ??_C@_1DM@MFOMGNPE@?$AAs?$AAf?$AAx?$AA?4?$AAv?$AAe?$AAr?$AA_?$AAi?$AAn?$AAf?$AAo?$AA?4?$AAf?$AAi?$AAl?$AAe?$AA_?$AAd?$AAe?$AAs?$AAc?$AAr?$AAi?$AAp?$AAt?$AAi?$AAo?$AAn?$AA?$AA@ 00000000640a0188     options.obj
 0002:000061c8       ??_C@_1DK@HPCOKLKF@?$AAs?$AAf?$AAx?$AA?4?$AAv?$AAe?$AAr?$AA_?$AAi?$AAn?$AAf?$AAo?$AA?4?$AAl?$AAe?$AAg?$AAa?$AAl?$AA_?$AAc?$AAo?$AAp?$AAy?$AAr?$AAi?$AAg?$AAh?$AAt?$AA?$AA@ 00000000640a01c8     options.obj
 0002:00006208       ??_C@_1DE@DEHPBBNH@?$AAs?$AAf?$AAx?$AA?4?$AAv?$AAe?$AAr?$AA_?$AAi?$AAn?$AAf?$AAo?$AA?4?$AAp?$AAr?$AAo?$AAd?$AAu?$AAc?$AAt?$AA_?$AAn?$AAa?$AAm?$AAe?$AA?$AA@ 00000000640a0208     options.obj
 0002:00006240       ??_C@_1DE@CMPJDOC@?$AAs?$AAf?$AAx?$AA?4?$AAa?$AAp?$AAp?$AAe?$AAn?$AAd?$AA_?$AAi?$AAn?$AAs?$AAt?$AAa?$AAl?$AAl?$AA_?$AAc?$AAo?$AAn?$AAf?$AAi?$AAg?$AA?$AA@ 00000000640a0240     options.obj
 0002:00006278       ??_C@_1DC@IBDCCCFH@?$AAs?$AAf?$AAx?$AA?4?$AAi?$AAn?$AAs?$AAt?$AAa?$AAl?$AAl?$AA_?$AAc?$AAo?$AAn?$AAf?$AAi?$AAg?$AA?4?$AAt?$AAi?$AAt?$AAl?$AAe?$AA?$AA@ 00000000640a0278     options.obj
 0002:000062b0       ??_C@_1EA@FHBMGOJC@?$AAs?$AAf?$AAx?$AA?4?$AAi?$AAn?$AAs?$AAt?$AAa?$AAl?$AAl?$AA_?$AAc?$AAo?$AAn?$AAf?$AAi?$AAg?$AA?4?$AAb?$AAe?$AAg?$AAi?$AAn?$AA_?$AAp?$AAr?$AAo?$AAm?$AAp?$AAt?$AA?$AA@ 00000000640a02b0     options.obj
 0002:000062f0       ??_C@_1DI@FGFGCAEP@?$AAs?$AAf?$AAx?$AA?4?$AAi?$AAn?$AAs?$AAt?$AAa?$AAl?$AAl?$AA_?$AAc?$AAo?$AAn?$AAf?$AAi?$AAg?$AA?4?$AAp?$AAr?$AAo?$AAg?$AAr?$AAe?$AAs?$AAs?$AA?$AA@ 00000000640a02f0     options.obj
 0002:00006328       ??_C@_1DO@EDLAEBAA@?$AAs?$AAf?$AAx?$AA?4?$AAi?$AAn?$AAs?$AAt?$AAa?$AAl?$AAl?$AA_?$AAc?$AAo?$AAn?$AAf?$AAi?$AAg?$AA?4?$AAr?$AAu?$AAn?$AA_?$AAp?$AAr?$AAo?$AAg?$AAr?$AAa?$AAm?$AA?$AA@ 00000000640a0328     options.obj
 0002:00006368       ??_C@_1DK@JGHNKBKG@?$AAs?$AAf?$AAx?$AA?4?$AAi?$AAn?$AAs?$AAt?$AAa?$AAl?$AAl?$AA_?$AAc?$AAo?$AAn?$AAf?$AAi?$AAg?$AA?4?$AAd?$AAi?$AAr?$AAe?$AAc?$AAt?$AAo?$AAr?$AAy?$AA?$AA@ 00000000640a0368     options.obj
 0002:000063b0       ??_C@_1EA@KNCOOEHK@?$AAs?$AAf?$AAx?$AA?4?$AAi?$AAn?$AAs?$AAt?$AAa?$AAl?$AAl?$AA_?$AAc?$AAo?$AAn?$AAf?$AAi?$AAg?$AA?4?$AAe?$AAx?$AAe?$AAc?$AAu?$AAt?$AAe?$AA_?$AAf?$AAi?$AAl?$AAe?$AA?$AA@ 00000000640a03b0     options.obj
 0002:000063f0       ??_C@_1EM@GLJDOHOC@?$AAs?$AAf?$AAx?$AA?4?$AAi?$AAn?$AAs?$AAt?$AAa?$AAl?$AAl?$AA_?$AAc?$AAo?$AAn?$AAf?$AAi?$AAg?$AA?4?$AAe?$AAx?$AAe?$AAc?$AAu?$AAt?$AAe?$AA_?$AAp?$AAa?$AAr?$AAa?$AAm@ 00000000640a03f0     options.obj
 0002:00006440       ??_C@_1BM@BHABOEEP@?$AAh?$AAa?$AAn?$AAd?$AAl?$AAe?$AA_?$AAc?$AAr?$AAe?$AAa?$AAt?$AAe?$AA?$AA@ 00000000640a0440     options.obj
 0002:00006460       ??_C@_1CA@FIGILPCF@?$AAh?$AAa?$AAn?$AAd?$AAl?$AAe?$AA_?$AAc?$AAo?$AAm?$AAm?$AAa?$AAn?$AAd?$AAs?$AA?$AA@ 00000000640a0460     options.obj
 0002:00006480       ??_C@_1BM@IOCBKKLB@?$AAp?$AAl?$AAu?$AAg?$AAi?$AAn?$AA_?$AAp?$AAr?$AAe?$AAf?$AAi?$AAx?$AA?$AA@ 00000000640a0480     options.obj
 0002:000064a0       ??_C@_1BO@IEILHPMJ@?$AAm?$AAa?$AAx?$AA_?$AAc?$AAh?$AAe?$AAc?$AAk?$AA_?$AAs?$AAi?$AAz?$AAe?$AA?$AA@ 00000000640a04a0     options.obj
 0002:000064c0       ??_C@_1CM@CBFIHEKK@?$AAe?$AAx?$AAt?$AAr?$AAa?$AAc?$AAt?$AA_?$AAi?$AAg?$AAn?$AAo?$AAr?$AAe?$AA_?$AAe?$AAr?$AAr?$AAo?$AAr?$AAs?$AA?$AA@ 00000000640a04c0     options.obj
 0002:000064f0       ??_C@_1CE@HIFCNFIN@?$AAe?$AAx?$AAt?$AAr?$AAa?$AAc?$AAt?$AA_?$AAo?$AAv?$AAe?$AAr?$AAw?$AAr?$AAi?$AAt?$AAe?$AA?$AA@ 00000000640a04f0     options.obj
 0002:00006518       ??_C@_1CK@CPALOIJF@?$AAe?$AAx?$AAt?$AAr?$AAa?$AAc?$AAt?$AA_?$AAs?$AAe?$AAp?$AAa?$AAr?$AAa?$AAt?$AAe?$AA_?$AAd?$AAi?$AAr?$AA?$AA@ 00000000640a0518     options.obj
 0002:00006548       ??_C@_1CC@JIDFBFJI@?$AAe?$AAx?$AAt?$AAr?$AAa?$AAc?$AAt?$AA_?$AAo?$AAp?$AAe?$AAn?$AA_?$AAd?$AAi?$AAr?$AA?$AA@ 00000000640a0548     options.obj
 0002:00006570       ??_C@_1CO@BOJMLONJ@?$AAu?$AAp?$AAd?$AAa?$AAt?$AAe?$AA_?$AAa?$AAr?$AAc?$AA_?$AAf?$AAo?$AAr?$AAm?$AAa?$AAt?$AA_?$AAn?$AAa?$AAm?$AAe?$AA?$AA@ 00000000640a0570     options.obj
 0002:000065a0       ??_C@_1BK@CGJCKDIP@?$AAu?$AAp?$AAd?$AAa?$AAt?$AAe?$AA_?$AAl?$AAe?$AAv?$AAe?$AAl?$AA?$AA@ 00000000640a05a0     options.obj
 0002:000065c0       ??_C@_1BM@MDOLGGCE@?$AAu?$AAp?$AAd?$AAa?$AAt?$AAe?$AA_?$AAm?$AAe?$AAt?$AAh?$AAo?$AAd?$AA?$AA@ 00000000640a05c0     options.obj
 0002:000065e0       ??_C@_1BK@BADBIELM@?$AAu?$AAp?$AAd?$AAa?$AAt?$AAe?$AA_?$AAs?$AAo?$AAl?$AAi?$AAd?$AA?$AA@ 00000000640a05e0     options.obj
 0002:00006600       ??_C@_1CK@BCFJMECK@?$AAu?$AAp?$AAd?$AAa?$AAt?$AAe?$AA_?$AAs?$AAh?$AAo?$AAw?$AA_?$AAp?$AAa?$AAs?$AAs?$AAw?$AAo?$AAr?$AAd?$AA?$AA@ 00000000640a0600     options.obj
 0002:00006630       ??_C@_1CM@HPBKHKPI@?$AAu?$AAp?$AAd?$AAa?$AAt?$AAe?$AA_?$AAe?$AAn?$AAc?$AAr?$AAy?$AAp?$AAt?$AA_?$AAh?$AAe?$AAa?$AAd?$AAe?$AAr?$AA?$AA@ 00000000640a0630     options.obj
 0002:00006660       ??_C@_1CG@KICFKBBP@?$AAu?$AAp?$AAd?$AAa?$AAt?$AAe?$AA_?$AAv?$AAo?$AAl?$AAu?$AAm?$AAe?$AA_?$AAs?$AAi?$AAz?$AAe?$AA?$AA@ 00000000640a0660     options.obj
 0002:00006688       ??_C@_1CK@ICOFBPBC@?$AAu?$AAp?$AAd?$AAa?$AAt?$AAe?$AA_?$AAi?$AAg?$AAn?$AAo?$AAr?$AAe?$AA_?$AAe?$AAr?$AAr?$AAo?$AAr?$AAs?$AA?$AA@ 00000000640a0688     options.obj
 0002:000066b8       ??_C@_1CC@JJLCAMDI@?$AAu?$AAp?$AAd?$AAa?$AAt?$AAe?$AA_?$AAo?$AAv?$AAe?$AAr?$AAw?$AAr?$AAi?$AAt?$AAe?$AA?$AA@ 00000000640a06b8     options.obj
 0002:000066e0       ??_C@_1CE@CFBHBNFH@?$AAu?$AAp?$AAd?$AAa?$AAt?$AAe?$AA_?$AAa?$AAp?$AAp?$AAe?$AAn?$AAd?$AA_?$AAe?$AAx?$AAt?$AA?$AA@ 00000000640a06e0     options.obj
 0002:00006708       ??_C@_1CI@LDHPGHDF@?$AAo?$AAw?$AAn?$AA_?$AAp?$AAa?$AAn?$AAe?$AAl?$AA_?$AAv?$AAi?$AAe?$AAw?$AA_?$AAm?$AAo?$AAd?$AAe?$AA?$AA@ 00000000640a0708     options.obj
 0002:00006730       ??_C@_1CA@BMEGBAGO@?$AAp?$AAa?$AAn?$AAe?$AAl?$AA_?$AAv?$AAi?$AAe?$AAw?$AA_?$AAm?$AAo?$AAd?$AAe?$AA?$AA@ 00000000640a0730     options.obj
 0002:00006750       ??_C@_1CA@FOAPJPME@?$AAp?$AAa?$AAn?$AAe?$AAl?$AA_?$AAs?$AAo?$AAr?$AAt?$AA_?$AAm?$AAo?$AAd?$AAe?$AA?$AA@ 00000000640a0750     options.obj
 0002:00006770       ??_C@_1CG@IMENIFAM@?$AAp?$AAa?$AAn?$AAe?$AAl?$AA_?$AAr?$AAe?$AAv?$AAe?$AAr?$AAs?$AAe?$AA_?$AAs?$AAo?$AAr?$AAt?$AA?$AA@ 00000000640a0770     options.obj
 0002:00006798       ??_C@_1CE@JGFBPPBK@?$AAu?$AAs?$AAe?$AA_?$AAi?$AAn?$AAc?$AAl?$AAu?$AAd?$AAe?$AA_?$AAm?$AAa?$AAs?$AAk?$AAs?$AA?$AA@ 00000000640a0798     options.obj
 0002:000067c0       ??_C@_1BM@KFJICIME@?$AAi?$AAn?$AAc?$AAl?$AAu?$AAd?$AAe?$AA_?$AAm?$AAa?$AAs?$AAk?$AAs?$AA?$AA@ 00000000640a07c0     options.obj
 0002:000067e0       ??_C@_1CE@IKFGFEP@?$AAu?$AAs?$AAe?$AA_?$AAe?$AAx?$AAc?$AAl?$AAu?$AAd?$AAe?$AA_?$AAm?$AAa?$AAs?$AAk?$AAs?$AA?$AA@ 00000000640a07e0     options.obj
 0002:00006808       ??_C@_1BM@DLGMLCJB@?$AAe?$AAx?$AAc?$AAl?$AAu?$AAd?$AAe?$AA_?$AAm?$AAa?$AAs?$AAk?$AAs?$AA?$AA@ 00000000640a0808     options.obj
 0002:00006828       ??_C@_1BG@EHDBJMPF@?$AAp?$AAg?$AAd?$AAn?$AA_?$AAm?$AAa?$AAs?$AAk?$AAs?$AA?$AA@ 00000000640a0828     options.obj
 0002:00006840       ??_C@_1CI@EOKCLAPP@?$AAu?$AAs?$AAe?$AA_?$AAe?$AAn?$AAa?$AAb?$AAl?$AAe?$AAd?$AA_?$AAf?$AAo?$AAr?$AAm?$AAa?$AAt?$AAs?$AA?$AA@ 00000000640a0840     options.obj
 0002:00006868       ??_C@_1CA@KFAHFAPB@?$AAe?$AAn?$AAa?$AAb?$AAl?$AAe?$AAd?$AA_?$AAf?$AAo?$AAr?$AAm?$AAa?$AAt?$AAs?$AA?$AA@ 00000000640a0868     options.obj
 0002:00006888       ??_C@_1CK@JLKPDPGC@?$AAu?$AAs?$AAe?$AA_?$AAd?$AAi?$AAs?$AAa?$AAb?$AAl?$AAe?$AAd?$AA_?$AAf?$AAo?$AAr?$AAm?$AAa?$AAt?$AAs?$AA?$AA@ 00000000640a0888     options.obj
 0002:000068b8       ??_C@_1CC@KFCGBLDB@?$AAd?$AAi?$AAs?$AAa?$AAb?$AAl?$AAe?$AAd?$AA_?$AAf?$AAo?$AAr?$AAm?$AAa?$AAt?$AAs?$AA?$AA@ 00000000640a08b8     options.obj
 0002:000068e0       ??_C@_1BK@LLAIEAGG@?$AAp?$AAg?$AAd?$AAn?$AA_?$AAf?$AAo?$AAr?$AAm?$AAa?$AAt?$AAs?$AA?$AA@ 00000000640a08e0     options.obj
 0002:00006900       ??_C@_1BC@DNIPBCFP@?$AAa?$AAr?$AAc?$AA_?$AAt?$AAy?$AAp?$AAe?$AA?$AA@ 00000000640a0900     options.obj
 0002:00006918       ??_C@_1M@NNEKJJGI@?$AAl?$AAe?$AAv?$AAe?$AAl?$AA?$AA@ 00000000640a0918     options.obj
 0002:00006928       ??_C@_1O@BENICBGF@?$AAm?$AAe?$AAt?$AAh?$AAo?$AAd?$AA?$AA@ 00000000640a0928     options.obj
 0002:00006938       ??_C@_1M@OLOJLOFL@?$AAs?$AAo?$AAl?$AAi?$AAd?$AA?$AA@ 00000000640a0938     options.obj
 0002:00006948       ??_C@_1BC@OMIPJNBO@?$AAp?$AAa?$AAs?$AAs?$AAw?$AAo?$AAr?$AAd?$AA?$AA@ 00000000640a0948     options.obj
 0002:00006960       ??_C@_1BA@OGAKGFHO@?$AAe?$AAn?$AAc?$AAr?$AAy?$AAp?$AAt?$AA?$AA@ 00000000640a0960     options.obj
 0002:00006970       ??_C@_1BO@KNNCBMKF@?$AAe?$AAn?$AAc?$AAr?$AAy?$AAp?$AAt?$AA_?$AAh?$AAe?$AAa?$AAd?$AAe?$AAr?$AA?$AA@ 00000000640a0970     options.obj
 0002:00006990       ??_C@_1BG@OELPMCIK@?$AAc?$AAr?$AAe?$AAa?$AAt?$AAe?$AA_?$AAs?$AAf?$AAx?$AA?$AA@ 00000000640a0990     options.obj
 0002:000069a8       ??_C@_1BO@PFMGJNDM@?$AAe?$AAn?$AAa?$AAb?$AAl?$AAe?$AA_?$AAv?$AAo?$AAl?$AAu?$AAm?$AAe?$AAs?$AA?$AA@ 00000000640a09a8     options.obj
 0002:000069c8       ??_C@_1BI@GIIMKBK@?$AAv?$AAo?$AAl?$AAu?$AAm?$AAe?$AA_?$AAs?$AAi?$AAz?$AAe?$AA?$AA@ 00000000640a09c8     options.obj
 0002:000069e0       ??_C@_1BG@NKPGLON@?$AAm?$AAo?$AAv?$AAe?$AA_?$AAf?$AAi?$AAl?$AAe?$AAs?$AA?$AA@ 00000000640a09e0     options.obj
 0002:000069f8       ??_C@_1BM@NLHOIHKK@?$AAi?$AAg?$AAn?$AAo?$AAr?$AAe?$AA_?$AAe?$AAr?$AAr?$AAo?$AAr?$AAs?$AA?$AA@ 00000000640a09f8     options.obj
 0002:00006a18       ??_C@_1BC@KBGADKLB@?$AAa?$AAd?$AAv?$AAa?$AAn?$AAc?$AAe?$AAd?$AA?$AA@ 00000000640a0a18     options.obj
 0002:00006a30       ??_C@_0BM@NMJKDPPO@invalid?5vector?$DMT?$DO?5subscript?$AA@ 00000000640a0a30     options.obj
 0002:00006a50       ??_C@_0BG@EOMJEIFA@vector?$DMbool?$DO?5too?5long?$AA@ 00000000640a0a50     msearch.obj
 0002:00006a68       ??_C@_08IJFGBAA@attr?4cpp?$AA@ 00000000640a0a68     attr.obj
 0002:00006a80       ??_C@_1HA@NONJAHIG@?$AA_?$AAi?$AA6?$AA4?$AAt?$AAo?$AAw?$AA_?$AAs?$AA?$CI?$AAp?$AAr?$AAo?$AAp?$AA?4?$AAg?$AAe?$AAt?$AA_?$AAi?$AAn?$AAt?$AA?$CI?$AA?$CJ?$AA?0?$AA?5?$AAb?$AAu?$AAf?$AA?0?$AA?5?$AAA@ 00000000640a0a80     attr.obj
 0002:00006af0       ??_C@_1HE@KIMNAEG@?$AA_?$AAu?$AAi?$AA6?$AA4?$AAt?$AAo?$AAw?$AA_?$AAs?$AA?$CI?$AAp?$AAr?$AAo?$AAp?$AA?4?$AAg?$AAe?$AAt?$AA_?$AAu?$AAi?$AAn?$AAt?$AA?$CI?$AA?$CJ?$AA?0?$AA?5?$AAb?$AAu?$AAf?$AA?0@ 00000000640a0af0     attr.obj
 0002:00006b64       ??_C@_13HOIJIPNN@?$AA?5?$AA?$AA@ 00000000640a0b64     attr.obj
 0002:00006b68       ??_C@_1CC@OGGOJHEF@?$AAR?$AAH?$AAS?$AA8?$AAD?$AAA?$AAd?$AAN?$AAT?$AAs?$AAr?$AAC?$AAO?$AAn?$AAE?$AA_?$AA?$AA@ 00000000640a0b68     attr.obj
 0002:00006b90       ??_C@_08ENCNIKBI@test?4cpp?$AA@ 00000000640a0b90     test.obj
 0002:00006ba8       ??_7ArchiveTester@@6BIArchiveExtractCallback@@@ 00000000640a0ba8     test.obj
 0002:00006bf0       ??_7ArchiveTester@@6BICryptoGetTextPassword@@@ 00000000640a0bf0     test.obj
 0002:00006c18       ??_7ArchiveTester@@6BComBase@@@ 00000000640a0c18     test.obj
 0002:00006c40       ??_7ArchiveTester@@6BProgressMonitor@@@ 00000000640a0c40     test.obj
 0002:00006c50       ??_C@_1CA@PMIEPGIA@?$AA?$CJ?$AA?5?$AAK?$AAe?$AAy?$AAs?$AA?$CI?$AA?8?$AAE?$AAn?$AAt?$AAe?$AAr?$AA?8?$AA?$CJ?$AA?$AA@ 00000000640a0c50     common.obj
 0002:00006c70       ??_C@_1O@BBPMHPCD@?$AAp?$AAr?$AAi?$AAn?$AAt?$AA?$CI?$AA?$AA@ 00000000640a0c70     common.obj
 0002:00006c80       ??_C@_0L@PIMMLIEG@common?4cpp?$AA@ 00000000640a0c80     common.obj
 0002:00006c90       ??_C@_1CI@FOKFAKOH@?$AA?$DL?$AA?$CB?$AA?$EA?$AAI?$AAn?$AAs?$AAt?$AAa?$AAl?$AAl?$AA?$EA?$AA?$CB?$AAU?$AAT?$AAF?$AA?9?$AA8?$AA?$CB?$AA?6?$AA?$AA@ 00000000640a0c90     sfx.obj
 0002:00006cb8       ??_C@_15GLOEBKAF@?$AA?$CC?$AA?6?$AA?$AA@ 00000000640a0cb8     sfx.obj
 0002:00006cc0       ??_C@_1BA@OLOEMDEM@?$AAT?$AAi?$AAt?$AAl?$AAe?$AA?$DN?$AA?$CC?$AA?$AA@ 00000000640a0cc0     sfx.obj
 0002:00006cd0       ??_C@_1BM@GIJJCMLO@?$AAB?$AAe?$AAg?$AAi?$AAn?$AAP?$AAr?$AAo?$AAm?$AAp?$AAt?$AA?$DN?$AA?$CC?$AA?$AA@ 00000000640a0cd0     sfx.obj
 0002:00006cf0       ??_C@_1BG@NCOBKEDJ@?$AAP?$AAr?$AAo?$AAg?$AAr?$AAe?$AAs?$AAs?$AA?$DN?$AA?$CC?$AA?$AA@ 00000000640a0cf0     sfx.obj
 0002:00006d08       ??_C@_1BK@KFKMPGNC@?$AAR?$AAu?$AAn?$AAP?$AAr?$AAo?$AAg?$AAr?$AAa?$AAm?$AA?$DN?$AA?$CC?$AA?$AA@ 00000000640a0d08     sfx.obj
 0002:00006d28       ??_C@_1BI@LDJDHMHI@?$AAD?$AAi?$AAr?$AAe?$AAc?$AAt?$AAo?$AAr?$AAy?$AA?$DN?$AA?$CC?$AA?$AA@ 00000000640a0d28     sfx.obj
 0002:00006d40       ??_C@_1BM@GCHJMPFL@?$AAE?$AAx?$AAe?$AAc?$AAu?$AAt?$AAe?$AAF?$AAi?$AAl?$AAe?$AA?$DN?$AA?$CC?$AA?$AA@ 00000000640a0d40     sfx.obj
 0002:00006d60       ??_C@_1CI@KHPPDIK@?$AAE?$AAx?$AAe?$AAc?$AAu?$AAt?$AAe?$AAP?$AAa?$AAr?$AAa?$AAm?$AAe?$AAt?$AAe?$AAr?$AAs?$AA?$DN?$AA?$CC?$AA?$AA@ 00000000640a0d60     sfx.obj
 0002:00006d88       ??_C@_1CC@OAOKHGML@?$AA?$DL?$AA?$CB?$AA?$EA?$AAI?$AAn?$AAs?$AAt?$AAa?$AAl?$AAl?$AAE?$AAn?$AAd?$AA?$EA?$AA?$CB?$AA?6?$AA?$AA@ 00000000640a0d88     sfx.obj
 0002:00006db0       ??_C@_07JLLJJILI@sfx?4cpp?$AA@ 00000000640a0db0     sfx.obj
 0002:00006db8       ??_C@_1DM@BJNOLDOM@?$AAs?$AAf?$AAx?$AA_?$AAi?$AAd?$AA?5?$AA?$DM?$AA?5?$AAA?$AAr?$AAc?$AAA?$AAP?$AAI?$AA?3?$AA?3?$AAs?$AAf?$AAx?$AA?$CI?$AA?$CJ?$AA?4?$AAs?$AAi?$AAz?$AAe?$AA?$CI?$AA?$CJ?$AA?$AA@ 00000000640a0db8     sfx.obj
 0002:00006e00       ??_C@_1GG@NAMIJFA@?$AAd?$AAs?$AAt?$AA_?$AAf?$AAi?$AAl?$AAe?$AA?4?$AAw?$AAr?$AAi?$AAt?$AAe?$AA?$CI?$AAb?$AAu?$AAf?$AA?4?$AAd?$AAa?$AAt?$AAa?$AA?$CI?$AA?$CJ?$AA?0?$AA?5?$AAs?$AAi?$AAz?$AAe?$AA_@ 00000000640a0e00     sfx.obj
 0002:00006e68       ??_C@_17IHBDLLG@?$AAy?$AAe?$AAs?$AA?$AA@ 00000000640a0e68     sfx.obj
 0002:00006e70       ??_C@_15BPIGNHCD@?$AAn?$AAo?$AA?$AA@ 00000000640a0e70     sfx.obj
 0002:00006e78       ??_C@_1BG@HKPDLJKO@?$AAS?$AAf?$AAx?$AAO?$AAp?$AAt?$AAi?$AAo?$AAn?$AAs?$AA?$AA@ 00000000640a0e78     sfx.obj
 0002:00006e90       ??_C@_1CE@CCMGPAPF@?$AAa?$AAr?$AAc?$AAl?$AAi?$AAt?$AAe?$AA?4?$AAi?$AAc?$AAo?$AAn?$AA_?$AAp?$AAa?$AAt?$AAh?$AA?$AA@ 00000000640a0e90     sfx.obj
 0002:00006ec0       ??_7AttachSfxModuleProgress@@6B@ 00000000640a0ec0     sfx.obj
 0002:00006ed8       ??_7SfxOptionsDialog@@6B@  00000000640a0ed8     sfx.obj
 0002:00006ee0       ??_C@_19EGECPPFB@?$AAp?$AAp?$AAm?$AAd?$AA?$AA@ 00000000640a0ee0     cmdline.obj
 0002:00006ef0       ??_C@_1M@JKHNFEPH@?$AAl?$AAz?$AAm?$AAa?$AA2?$AA?$AA@ 00000000640a0ef0     cmdline.obj
 0002:00006f00       ??_C@_19NNMOHCMN@?$AAl?$AAz?$AAm?$AAa?$AA?$AA@ 00000000640a0f00     cmdline.obj
 0002:00006f0c       ??_C@_13PHCIHIAO@?$AAc?$AA?$AA@ 00000000640a0f0c     cmdline.obj
 0002:00006f10       ??_C@_13ICFKHAEN@?$AAu?$AA?$AA@ 00000000640a0f10     cmdline.obj
 0002:00006f14       ??_C@_13DKOGBHCI@?$AAt?$AA?$AA@ 00000000640a0f14     cmdline.obj
 0002:00006f18       ??_C@_13MIIMMPPF@?$AAy?$AA?$AA@ 00000000640a0f18     cmdline.obj
 0002:00006f1c       ??_C@_13FECKAND@?$AAn?$AA?$AA@ 00000000640a0f1c     cmdline.obj
 0002:00006f20       ??_C@_0M@ECEFEAAC@cmdline?4cpp?$AA@ 00000000640a0f20     cmdline.obj
 0002:00006f2c       ??_C@_13FNCBLAIF@?$AAa?$AA?$AA@ 00000000640a0f2c     cmdline.obj
 0002:00006f30       ??_C@_13GKPPEALH@?$AAd?$AA?$AA@ 00000000640a0f30     cmdline.obj
 0002:00006f34       ??_C@_13LFIEIAHP@?$AAp?$AA?$AA@ 00000000640a0f34     cmdline.obj
 0002:00006f38       ??_C@_15IECJDLIK@?$AAp?$AAr?$AA?$AA@ 00000000640a0f38     cmdline.obj
 0002:00006f40       ??_C@_13KPELGIFI@?$AAl?$AA?$AA@ 00000000640a0f40     cmdline.obj
 0002:00006f44       ??_C@_13BHPHAPDN@?$AAm?$AA?$AA@ 00000000640a0f44     cmdline.obj
 0002:00006f48       ??_C@_15OIJGBPFJ@?$AAe?$AAh?$AA?$AA@ 00000000640a0f48     cmdline.obj
 0002:00006f50       ??_C@_17MICENCNB@?$AAs?$AAf?$AAx?$AA?$AA@ 00000000640a0f50     cmdline.obj
 0002:00006f58       ??_C@_13JAOPNPKD@?$AAv?$AA?$AA@ 00000000640a0f58     cmdline.obj
 0002:00006f5c       ??_C@_15OEBKOKAH@?$AAm?$AAf?$AA?$AA@ 00000000640a0f5c     cmdline.obj
 0002:00006f64       ??_C@_15GNDOAHPP@?$AAi?$AAe?$AA?$AA@ 00000000640a0f64     cmdline.obj
 0002:00006f6c       ??_C@_13LNPOMHLG@?$AAo?$AA?$AA@ 00000000640a0f6c     cmdline.obj
 0002:00006f70       ??_C@_17FLKNDCLP@?$AAa?$AAd?$AAv?$AA?$AA@ 00000000640a0f70     cmdline.obj
 0002:00006f78       ??_C@_13BPINEIPE@?$AAr?$AA?$AA@ 00000000640a0f78     cmdline.obj
 0002:00006f7c       ??_C@_15HHMPEBGH@?$AAs?$AAd?$AA?$AA@ 00000000640a0f7c     cmdline.obj
 0002:00006f84       ??_C@_15FOMCIDHG@?$AAd?$AAa?$AA?$AA@ 00000000640a0f84     cmdline.obj
 0002:00006f90       ??_C@_08DMEHPCKJ@rsrc?4cpp?$AA@ 00000000640a0f90     rsrc.obj
 0002:00006fa0       ??_C@_1GK@MOFBPDLL@?$AAe?$AAn?$AAt?$AAr?$AAy?$AA?4?$AAi?$AAm?$AAa?$AAg?$AAe?$AA_?$AAo?$AAf?$AAf?$AAs?$AAe?$AAt?$AA?5?$AA?$CL?$AA?5?$AAe?$AAn?$AAt?$AAr?$AAy?$AA?4?$AAb?$AAy?$AAt?$AAe?$AAs@ 00000000640a0fa0     rsrc.obj
 0002:00007010       ??_C@_1CA@FOECMPGO@?$AAV?$AAS?$AA_?$AAV?$AAE?$AAR?$AAS?$AAI?$AAO?$AAN?$AA_?$AAI?$AAN?$AAF?$AAO?$AA?$AA@ 00000000640a1010     rsrc.obj
 0002:00007030       ??_C@_1BO@PBBNDBNF@?$AAS?$AAt?$AAr?$AAi?$AAn?$AAg?$AAF?$AAi?$AAl?$AAe?$AAI?$AAn?$AAf?$AAo?$AA?$AA@ 00000000640a1030     rsrc.obj
 0002:00007050       ??_C@_19MABGBOMG@?$AA0?$AA4?$AAb?$AA0?$AA?$AA@ 00000000640a1050     rsrc.obj
 0002:00007060       ??_C@_1BC@OJAINIIB@?$AAC?$AAo?$AAm?$AAm?$AAe?$AAn?$AAt?$AAs?$AA?$AA@ 00000000640a1060     rsrc.obj
 0002:00007078       ??_C@_1BI@KBKGFMKH@?$AAC?$AAo?$AAm?$AAp?$AAa?$AAn?$AAy?$AAN?$AAa?$AAm?$AAe?$AA?$AA@ 00000000640a1078     rsrc.obj
 0002:00007090       ??_C@_1CA@JGBAIPOO@?$AAF?$AAi?$AAl?$AAe?$AAD?$AAe?$AAs?$AAc?$AAr?$AAi?$AAp?$AAt?$AAi?$AAo?$AAn?$AA?$AA@ 00000000640a1090     rsrc.obj
 0002:000070b0       ??_C@_1BI@HCCAONKE@?$AAF?$AAi?$AAl?$AAe?$AAV?$AAe?$AAr?$AAs?$AAi?$AAo?$AAn?$AA?$AA@ 00000000640a10b0     rsrc.obj
 0002:000070c8       ??_C@_1BO@DAFANMIE@?$AAL?$AAe?$AAg?$AAa?$AAl?$AAC?$AAo?$AAp?$AAy?$AAr?$AAi?$AAg?$AAh?$AAt?$AA?$AA@ 00000000640a10c8     rsrc.obj
 0002:000070e8       ??_C@_1BI@CJGIOPAN@?$AAP?$AAr?$AAo?$AAd?$AAu?$AAc?$AAt?$AAN?$AAa?$AAm?$AAe?$AA?$AA@ 00000000640a10e8     rsrc.obj
 0002:00007100       ??_C@_1BO@OKEPMKJE@?$AAP?$AAr?$AAo?$AAd?$AAu?$AAc?$AAt?$AAV?$AAe?$AAr?$AAs?$AAi?$AAo?$AAn?$AA?$AA@ 00000000640a1100     rsrc.obj
 0002:00007120       ??_C@_1BI@LJHFMFCG@?$AAV?$AAa?$AAr?$AAF?$AAi?$AAl?$AAe?$AAI?$AAn?$AAf?$AAo?$AA?$AA@ 00000000640a1120     rsrc.obj
 0002:00007138       ??_C@_1BI@OMFAJHAK@?$AAT?$AAr?$AAa?$AAn?$AAs?$AAl?$AAa?$AAt?$AAi?$AAo?$AAn?$AA?$AA@ 00000000640a1138     rsrc.obj
 0002:00007160       ??_C@_0N@NEKDJBOO@farutils?4cpp?$AA@ 00000000640a1160     farutils.obj
 0002:00007170       ??_C@_1GM@ELBBCICA@?$AAs?$AAi?$AAz?$AAe?$AA?5?$AA?$DO?$AA?$DN?$AA?5?$AAs?$AAi?$AAz?$AAe?$AAo?$AAf?$AA?$CI?$AAF?$AAa?$AAr?$AAP?$AAa?$AAn?$AAe?$AAl?$AAD?$AAi?$AAr?$AAe?$AAc?$AAt?$AAo?$AAr?$AAy@ 00000000640a1170     farutils.obj
 0002:000071e0       ??_C@_1CG@GFKBHPGN@?$AAs?$AAi?$AAz?$AAe?$AA?5?$AA?$DN?$AA?$DN?$AA?5?$AAb?$AAu?$AAf?$AA?4?$AAs?$AAi?$AAz?$AAe?$AA?$CI?$AA?$CJ?$AA?$AA@ 00000000640a11e0     farutils.obj
 0002:00007208       ??_C@_15FEDGKCDI@?$AAr?$AAu?$AA?$AA@ 00000000640a1208     farutils.obj
 0002:00007218       ??_7Dialog@Far@@6B@        00000000640a1218     farutils.obj
 0002:00007220       ??_C@_15LEKKCGMK@?$AA?2?$AA?2?$AA?$AA@ 00000000640a1220     pathutils.obj
 0002:00007228       ??_C@_15DKMKFLDO@?$AA?$DP?$AA?2?$AA?$AA@ 00000000640a1228     pathutils.obj
 0002:00007230       ??_C@_15PCEAIKAA@?$AA?4?$AA?2?$AA?$AA@ 00000000640a1230     pathutils.obj
 0002:00007238       ??_C@_1BA@BFGBFLGI@?$AA?2?$AA?2?$AA?$DP?$AA?2?$AAU?$AAN?$AAC?$AA?$AA@ 00000000640a1238     pathutils.obj
 0002:00007248       ??_C@_19MJCDBCKE@?$AA?2?$AA?2?$AA?$DP?$AA?2?$AA?$AA@ 00000000640a1248     pathutils.obj
 0002:00007258       ??_C@_1O@IBEKDEPM@?$AA?$DP?$AA?2?$AAU?$AAN?$AAC?$AA?2?$AA?$AA@ 00000000640a1258     pathutils.obj
 0002:00007268       ??_C@_15GKAHMKIN@?$AA?3?$AA?2?$AA?$AA@ 00000000640a1268     pathutils.obj
 0002:00007270       ??_C@_17LGKOMLJ@?$AA?4?$AA?4?$AA?4?$AA?$AA@ 00000000640a1270     strutils.obj
 0002:00007278       ??_C@_1BA@MDJFAEBM@?$AAw?$AAi?$AAn?$AAh?$AAt?$AAt?$AAp?$AA?$AA@ 00000000640a1278     sysutils.obj
 0002:00007288       ??_C@_13DIBMAFH@?$AA?$CJ?$AA?$AA@ 00000000640a1288     sysutils.obj
 0002:00007290       ??_C@_19NDEKGCGE@?$AA?5?$AA?$CI?$AA0?$AAx?$AA?$AA@ 00000000640a1290     sysutils.obj
 0002:000072a0       ??_C@_1BI@EPLLDPGF@?$AAH?$AAR?$AAE?$AAS?$AAU?$AAL?$AAT?$AA?3?$AA?5?$AA0?$AAx?$AA?$AA@ 00000000640a12a0     sysutils.obj
 0002:000072b8       ??_C@_0N@LGBBMAOF@sysutils?4cpp?$AA@ 00000000640a12b8     sysutils.obj
 0002:000072c8       ??_C@_1CE@MHDMOOMJ@?$AAl?$AAe?$AAn?$AA?5?$AA?$DM?$AA?$DN?$AA?5?$AAb?$AAu?$AAf?$AA?4?$AAs?$AAi?$AAz?$AAe?$AA?$CI?$AA?$CJ?$AA?$AA@ 00000000640a12c8     sysutils.obj
 0002:000072f0       ??_C@_1CG@EKGDMFPK@?$AAs?$AAi?$AAz?$AAe?$AA?5?$AA?$DM?$AA?5?$AAp?$AAa?$AAt?$AAh?$AA?4?$AAs?$AAi?$AAz?$AAe?$AA?$CI?$AA?$CJ?$AA?$AA@ 00000000640a12f0     sysutils.obj
 0002:00007318       __real@0000000000000000    00000000640a1318      CIL library: CIL module
 0002:00007320       __real@3fe0000000000000    00000000640a1320      CIL library: CIL module
 0002:00007330       __mask@@AbsDouble@         00000000640a1330      CIL library: CIL module
 0002:00007340       __real@7fefffffffffffff    00000000640a1340      CIL library: CIL module
 0002:00007468       __real@4059000000000000    00000000640a1468      CIL library: CIL module
 0002:00007470       __real@43f0000000000000    00000000640a1470      CIL library: CIL module
 0002:00007dd8       __real@4008000000000000    00000000640a1dd8      CIL library: CIL module
 0002:000088b8       __real@404e000000000000    00000000640a28b8      CIL library: CIL module
 0002:000094e8       __real@38aa95a5b7f87a0f    00000000640a34e8      CIL library: CIL module
 0002:000094f0       __real@4202a05f20000000    00000000640a34f0      CIL library: CIL module
 0002:000094f8       __real@4733426172c74d82    00000000640a34f8      CIL library: CIL module
 0002:00009500       __mask@@NegDouble@         00000000640a3500      CIL library: CIL module
 0002:0000c778       __real@43e0000000000000    00000000640a6778      CIL library: CIL module
 0002:0000d9d8       _FPinit                    00000000640a79d8     LIBCMT:_fpinit_.obj
 0002:0000d9e0       ??_C@_05KLBDPFGC@e?$CL000?$AA@ 00000000640a79e0     LIBCMT:cvt.obj
 0002:0000d9e8       ??_C@_06IMKFLFPG@1?$CDQNAN?$AA@ 00000000640a79e8     LIBCMT:_x10fout_.obj
 0002:0000d9f0       ??_C@_05DNEBIAHO@1?$CDINF?$AA@ 00000000640a79f0     LIBCMT:_x10fout_.obj
 0002:0000d9f8       ??_C@_05PHHOCPM@1?$CDIND?$AA@ 00000000640a79f8     LIBCMT:_x10fout_.obj
 0002:0000da00       ??_C@_06PGGFOGJG@1?$CDSNAN?$AA@ 00000000640a7a00     LIBCMT:_x10fout_.obj
 0002:0000da10       ??_R4logic_error@std@@6B@  00000000640a7a10     libcpmt:xthrow.obj
 0002:0000da38       ??_R3logic_error@std@@8    00000000640a7a38     libcpmt:xthrow.obj
 0002:0000da50       ??_R2logic_error@std@@8    00000000640a7a50     libcpmt:xthrow.obj
 0002:0000da68       ??_R1A@?0A@EA@logic_error@std@@8 00000000640a7a68     libcpmt:xthrow.obj
 0002:0000da90       ??_R4length_error@std@@6B@ 00000000640a7a90     libcpmt:xthrow.obj
 0002:0000dab8       ??_R3length_error@std@@8   00000000640a7ab8     libcpmt:xthrow.obj
 0002:0000dad0       ??_R2length_error@std@@8   00000000640a7ad0     libcpmt:xthrow.obj
 0002:0000daf0       ??_R1A@?0A@EA@length_error@std@@8 00000000640a7af0     libcpmt:xthrow.obj
 0002:0000db18       ??_R4out_of_range@std@@6B@ 00000000640a7b18     libcpmt:xthrow.obj
 0002:0000db40       ??_R3out_of_range@std@@8   00000000640a7b40     libcpmt:xthrow.obj
 0002:0000db58       ??_R2out_of_range@std@@8   00000000640a7b58     libcpmt:xthrow.obj
 0002:0000db78       ??_R1A@?0A@EA@out_of_range@std@@8 00000000640a7b78     libcpmt:xthrow.obj
 0002:0000dba0       ??_R4error_category@std@@6B@ 00000000640a7ba0     libcpmt:syserror.obj
 0002:0000dbc8       ??_R3error_category@std@@8 00000000640a7bc8     libcpmt:syserror.obj
 0002:0000dbe0       ??_R2error_category@std@@8 00000000640a7be0     libcpmt:syserror.obj
 0002:0000dbf0       ??_R1A@?0A@EA@error_category@std@@8 00000000640a7bf0     libcpmt:syserror.obj
 0002:0000dc18       ??_R4_Generic_error_category@std@@6B@ 00000000640a7c18     libcpmt:syserror.obj
 0002:0000dc40       ??_R3_Generic_error_category@std@@8 00000000640a7c40     libcpmt:syserror.obj
 0002:0000dc58       ??_R2_Generic_error_category@std@@8 00000000640a7c58     libcpmt:syserror.obj
 0002:0000dc70       ??_R1A@?0A@EA@_Generic_error_category@std@@8 00000000640a7c70     libcpmt:syserror.obj
 0002:0000dc98       ??_R4_Iostream_error_category@std@@6B@ 00000000640a7c98     libcpmt:syserror.obj
 0002:0000dcc0       ??_R3_Iostream_error_category@std@@8 00000000640a7cc0     libcpmt:syserror.obj
 0002:0000dcd8       ??_R2_Iostream_error_category@std@@8 00000000640a7cd8     libcpmt:syserror.obj
 0002:0000dcf0       ??_R1A@?0A@EA@_Iostream_error_category@std@@8 00000000640a7cf0     libcpmt:syserror.obj
 0002:0000dd18       ??_R4_System_error_category@std@@6B@ 00000000640a7d18     libcpmt:syserror.obj
 0002:0000dd40       ??_R3_System_error_category@std@@8 00000000640a7d40     libcpmt:syserror.obj
 0002:0000dd58       ??_R2_System_error_category@std@@8 00000000640a7d58     libcpmt:syserror.obj
 0002:0000dd78       ??_R1A@?0A@EA@_System_error_category@std@@8 00000000640a7d78     libcpmt:syserror.obj
 0002:0000dda0       ??_R4_Locimp@locale@std@@6B@ 00000000640a7da0     libcpmt:locale0.obj
 0002:0000ddc8       ??_R3_Locimp@locale@std@@8 00000000640a7dc8     libcpmt:locale0.obj
 0002:0000dde0       ??_R2_Locimp@locale@std@@8 00000000640a7de0     libcpmt:locale0.obj
 0002:0000ddf8       ??_R1A@?0A@EA@_Locimp@locale@std@@8 00000000640a7df8     libcpmt:locale0.obj
 0002:0000de20       ??_R4exception@std@@6B@    00000000640a7e20     LIBCMT:stdexcpt.obj
 0002:0000de48       ??_R4bad_cast@std@@6B@     00000000640a7e48     LIBCMT:stdexcpt.obj
 0002:0000de70       ??_R3bad_cast@std@@8       00000000640a7e70     LIBCMT:stdexcpt.obj
 0002:0000de88       ??_R2bad_cast@std@@8       00000000640a7e88     LIBCMT:stdexcpt.obj
 0002:0000dea0       ??_R1A@?0A@EA@bad_cast@std@@8 00000000640a7ea0     LIBCMT:stdexcpt.obj
 0002:0000dec8       ??_R4bad_typeid@std@@6B@   00000000640a7ec8     LIBCMT:stdexcpt.obj
 0002:0000def0       ??_R3bad_typeid@std@@8     00000000640a7ef0     LIBCMT:stdexcpt.obj
 0002:0000df08       ??_R2bad_typeid@std@@8     00000000640a7f08     LIBCMT:stdexcpt.obj
 0002:0000df20       ??_R1A@?0A@EA@bad_typeid@std@@8 00000000640a7f20     LIBCMT:stdexcpt.obj
 0002:0000df48       ??_R4__non_rtti_object@std@@6B@ 00000000640a7f48     LIBCMT:stdexcpt.obj
 0002:0000df70       ??_R3__non_rtti_object@std@@8 00000000640a7f70     LIBCMT:stdexcpt.obj
 0002:0000df88       ??_R2__non_rtti_object@std@@8 00000000640a7f88     LIBCMT:stdexcpt.obj
 0002:0000dfa8       ??_R1A@?0A@EA@__non_rtti_object@std@@8 00000000640a7fa8     LIBCMT:stdexcpt.obj
 0002:0000dfd0       ??_R4type_info@@6B@        00000000640a7fd0     LIBCMT:typinfo.obj
 0002:0000dff8       ??_R3type_info@@8          00000000640a7ff8     LIBCMT:typinfo.obj
 0002:0000e010       ??_R2type_info@@8          00000000640a8010     LIBCMT:typinfo.obj
 0002:0000e020       ??_R1A@?0A@EA@type_info@@8 00000000640a8020     LIBCMT:typinfo.obj
 0002:0000e048       ??_R4bad_exception@std@@6B@ 00000000640a8048     LIBCMT:frame.obj
 0002:0000e070       ??_R3bad_exception@std@@8  00000000640a8070     LIBCMT:frame.obj
 0002:0000e088       ??_R2bad_exception@std@@8  00000000640a8088     LIBCMT:frame.obj
 0002:0000e0a0       ??_R1A@?0A@EA@bad_exception@std@@8 00000000640a80a0     LIBCMT:frame.obj
 0002:0000e0c8       ??_R4bad_alloc@std@@6B@    00000000640a80c8     archive.obj
 0002:0000e0f0       ??_R3bad_alloc@std@@8      00000000640a80f0     archive.obj
 0002:0000e108       ??_R2bad_alloc@std@@8      00000000640a8108     archive.obj
 0002:0000e120       ??_R1A@?0A@EA@exception@std@@8 00000000640a8120     archive.obj
 0002:0000e148       ??_R3exception@std@@8      00000000640a8148     archive.obj
 0002:0000e160       ??_R2exception@std@@8      00000000640a8160     archive.obj
 0002:0000e170       ??_R1A@?0A@EA@bad_alloc@std@@8 00000000640a8170     archive.obj
 0002:0000e198       ??_R4_Ref_count_base@tr1@std@@6B@ 00000000640a8198     plugin.obj
 0002:0000e1c0       ??_R4bad_weak_ptr@tr1@std@@6B@ 00000000640a81c0     plugin.obj
 0002:0000e1e8       ??_R3bad_weak_ptr@tr1@std@@8 00000000640a81e8     plugin.obj
 0002:0000e200       ??_R2bad_weak_ptr@tr1@std@@8 00000000640a8200     plugin.obj
 0002:0000e218       ??_R1A@?0A@EA@bad_weak_ptr@tr1@std@@8 00000000640a8218     plugin.obj
 0002:0000e240       ??_R4?$_Ref_count_del@XV<lambda11>@?A0xc5e9a1c5@@@tr1@std@@6B@ 00000000640a8240     plugin.obj
 0002:0000e268       ??_R3?$_Ref_count_del@XV<lambda11>@?A0xc5e9a1c5@@@tr1@std@@8 00000000640a8268     plugin.obj
 0002:0000e280       ??_R2?$_Ref_count_del@XV<lambda11>@?A0xc5e9a1c5@@@tr1@std@@8 00000000640a8280     plugin.obj
 0002:0000e298       ??_R1A@?0A@EA@?$_Ref_count_del@XV<lambda11>@?A0xc5e9a1c5@@@tr1@std@@8 00000000640a8298     plugin.obj
 0002:0000e2c0       ??_R4?$_Ref_count@V?$list@UError@@V?$allocator@UError@@@std@@@std@@@tr1@std@@6B@ 00000000640a82c0     plugin.obj
 0002:0000e2e8       ??_R3?$_Ref_count@V?$list@UError@@V?$allocator@UError@@@std@@@std@@@tr1@std@@8 00000000640a82e8     plugin.obj
 0002:0000e300       ??_R2?$_Ref_count@V?$list@UError@@V?$allocator@UError@@@std@@@std@@@tr1@std@@8 00000000640a8300     plugin.obj
 0002:0000e318       ??_R1A@?0A@EA@?$_Ref_count@V?$list@UError@@V?$allocator@UError@@@std@@@std@@@tr1@std@@8 00000000640a8318     plugin.obj
 0002:0000e340       ??_R4?$_Ref_count@VArchive@@@tr1@std@@6B@ 00000000640a8340     plugin.obj
 0002:0000e368       ??_R3?$_Ref_count@VArchive@@@tr1@std@@8 00000000640a8368     plugin.obj
 0002:0000e380       ??_R2?$_Ref_count@VArchive@@@tr1@std@@8 00000000640a8380     plugin.obj
 0002:0000e398       ??_R1A@?0A@EA@_Ref_count_base@tr1@std@@8 00000000640a8398     plugin.obj
 0002:0000e3c0       ??_R3_Ref_count_base@tr1@std@@8 00000000640a83c0     plugin.obj
 0002:0000e3d8       ??_R2_Ref_count_base@tr1@std@@8 00000000640a83d8     plugin.obj
 0002:0000e3e8       ??_R1A@?0A@EA@?$_Ref_count@VArchive@@@tr1@std@@8 00000000640a83e8     plugin.obj
 0002:0000e410       ??_R4PluginPanelItems@?1??extract@Plugin@@QEAAXXZ@6B@ 00000000640a8410     plugin.obj
 0002:0000e438       ??_R3PluginPanelItems@?1??extract@Plugin@@QEAAXXZ@8 00000000640a8438     plugin.obj
 0002:0000e450       ??_R2PluginPanelItems@?1??extract@Plugin@@QEAAXXZ@8 00000000640a8450     plugin.obj
 0002:0000e468       ??_R1A@?0A@EA@PluginPanelItems@?1??extract@Plugin@@QEAAXXZ@8 00000000640a8468     plugin.obj
 0002:0000e490       ??_R4PluginPanelItems@?1??get_files@Plugin@@QEAAXPEBUPluginPanelItem@@_JHPEAPEB_W_K@Z@6B@ 00000000640a8490     plugin.obj
 0002:0000e4b8       ??_R3PluginPanelItems@?1??get_files@Plugin@@QEAAXPEBUPluginPanelItem@@_JHPEAPEB_W_K@Z@8 00000000640a84b8     plugin.obj
 0002:0000e4d0       ??_R2PluginPanelItems@?1??get_files@Plugin@@QEAAXPEBUPluginPanelItem@@_JHPEAPEB_W_K@Z@8 00000000640a84d0     plugin.obj
 0002:0000e4e8       ??_R1A@?0A@EA@PluginPanelItems@?1??get_files@Plugin@@QEAAXPEBUPluginPanelItem@@_JHPEAPEB_W_K@Z@8 00000000640a84e8     plugin.obj
 0002:0000e510       ??_R3PluginPanelItemAccessor@Plugin@@8 00000000640a8510     plugin.obj
 0002:0000e528       ??_R2PluginPanelItemAccessor@Plugin@@8 00000000640a8528     plugin.obj
 0002:0000e538       ??_R1A@?0A@EA@PluginPanelItemAccessor@Plugin@@8 00000000640a8538     plugin.obj
 0002:0000e560       ??_R4failure@ios_base@std@@6B@ 00000000640a8560     ui.obj
 0002:0000e588       ??_R3failure@ios_base@std@@8 00000000640a8588     ui.obj
 0002:0000e5a0       ??_R2failure@ios_base@std@@8 00000000640a85a0     ui.obj
 0002:0000e5c8       ??_R1A@?0A@EA@failure@ios_base@std@@8 00000000640a85c8     ui.obj
 0002:0000e5f0       ??_R4system_error@std@@6B@ 00000000640a85f0     ui.obj
 0002:0000e618       ??_R3system_error@std@@8   00000000640a8618     ui.obj
 0002:0000e630       ??_R2system_error@std@@8   00000000640a8630     ui.obj
 0002:0000e650       ??_R1A@?0A@EA@system_error@std@@8 00000000640a8650     ui.obj
 0002:0000e678       ??_R4?$ctype@_W@std@@6B@   00000000640a8678     ui.obj
 0002:0000e6a0       ??_R3?$ctype@_W@std@@8     00000000640a86a0     ui.obj
 0002:0000e6b8       ??_R2?$ctype@_W@std@@8     00000000640a86b8     ui.obj
 0002:0000e6d8       ??_R1A@?0A@EA@?$ctype@_W@std@@8 00000000640a86d8     ui.obj
 0002:0000e700       ??_R3ctype_base@std@@8     00000000640a8700     ui.obj
 0002:0000e718       ??_R2ctype_base@std@@8     00000000640a8718     ui.obj
 0002:0000e730       ??_R1A@?0A@EA@ctype_base@std@@8 00000000640a8730     ui.obj
 0002:0000e758       ??_R4facet@locale@std@@6B@ 00000000640a8758     ui.obj
 0002:0000e780       ??_R4runtime_error@std@@6B@ 00000000640a8780     ui.obj
 0002:0000e7a8       ??_R3runtime_error@std@@8  00000000640a87a8     ui.obj
 0002:0000e7c0       ??_R2runtime_error@std@@8  00000000640a87c0     ui.obj
 0002:0000e7d8       ??_R1A@?0A@EA@runtime_error@std@@8 00000000640a87d8     ui.obj
 0002:0000e800       ??_R4?$basic_ostream@_WU?$char_traits@_W@std@@@std@@6B@ 00000000640a8800     ui.obj
 0002:0000e828       ??_R4?$basic_streambuf@_WU?$char_traits@_W@std@@@std@@6B@ 00000000640a8828     ui.obj
 0002:0000e850       ??_R4?$basic_ios@_WU?$char_traits@_W@std@@@std@@6B@ 00000000640a8850     ui.obj
 0002:0000e878       ??_R4ios_base@std@@6B@     00000000640a8878     ui.obj
 0002:0000e8a0       ??_R4?$_Ref_count@VFileFilter@Far@@@tr1@std@@6B@ 00000000640a88a0     ui.obj
 0002:0000e8c8       ??_R3?$_Ref_count@VFileFilter@Far@@@tr1@std@@8 00000000640a88c8     ui.obj
 0002:0000e8e0       ??_R2?$_Ref_count@VFileFilter@Far@@@tr1@std@@8 00000000640a88e0     ui.obj
 0002:0000e8f8       ??_R1A@?0A@EA@?$_Ref_count@VFileFilter@Far@@@tr1@std@@8 00000000640a88f8     ui.obj
 0002:0000e920       ??_R4?$numpunct@_W@std@@6B@ 00000000640a8920     ui.obj
 0002:0000e948       ??_R3?$numpunct@_W@std@@8  00000000640a8948     ui.obj
 0002:0000e960       ??_R2?$numpunct@_W@std@@8  00000000640a8960     ui.obj
 0002:0000e978       ??_R1A@?0A@EA@?$numpunct@_W@std@@8 00000000640a8978     ui.obj
 0002:0000e9a0       ??_R4AttrDialog@@6B@       00000000640a89a0     ui.obj
 0002:0000e9c8       ??_R3AttrDialog@@8         00000000640a89c8     ui.obj
 0002:0000e9e0       ??_R2AttrDialog@@8         00000000640a89e0     ui.obj
 0002:0000e9f8       ??_R1A@?0A@EA@AttrDialog@@8 00000000640a89f8     ui.obj
 0002:0000ea20       ??_R4SettingsDialog@@6B@   00000000640a8a20     ui.obj
 0002:0000ea48       ??_R3SettingsDialog@@8     00000000640a8a48     ui.obj
 0002:0000ea60       ??_R2SettingsDialog@@8     00000000640a8a60     ui.obj
 0002:0000ea78       ??_R1A@?0A@EA@SettingsDialog@@8 00000000640a8a78     ui.obj
 0002:0000eaa0       ??_R4FormatLibraryInfoDialog@@6B@ 00000000640a8aa0     ui.obj
 0002:0000eac8       ??_R3FormatLibraryInfoDialog@@8 00000000640a8ac8     ui.obj
 0002:0000eae0       ??_R2FormatLibraryInfoDialog@@8 00000000640a8ae0     ui.obj
 0002:0000eaf8       ??_R1A@?0A@EA@FormatLibraryInfoDialog@@8 00000000640a8af8     ui.obj
 0002:0000eb20       ??_R4MultiSelectDialog@@6B@ 00000000640a8b20     ui.obj
 0002:0000eb48       ??_R3MultiSelectDialog@@8  00000000640a8b48     ui.obj
 0002:0000eb60       ??_R2MultiSelectDialog@@8  00000000640a8b60     ui.obj
 0002:0000eb78       ??_R1A@?0A@EA@MultiSelectDialog@@8 00000000640a8b78     ui.obj
 0002:0000eba0       ??_R4UpdateDialog@@6B@     00000000640a8ba0     ui.obj
 0002:0000ebc8       ??_R3UpdateDialog@@8       00000000640a8bc8     ui.obj
 0002:0000ebe0       ??_R2UpdateDialog@@8       00000000640a8be0     ui.obj
 0002:0000ebf8       ??_R1A@?0A@EA@UpdateDialog@@8 00000000640a8bf8     ui.obj
 0002:0000ec20       ??_R4ExtractDialog@@6B@    00000000640a8c20     ui.obj
 0002:0000ec48       ??_R3ExtractDialog@@8      00000000640a8c48     ui.obj
 0002:0000ec60       ??_R2ExtractDialog@@8      00000000640a8c60     ui.obj
 0002:0000ec78       ??_R1A@?0A@EA@ExtractDialog@@8 00000000640a8c78     ui.obj
 0002:0000eca0       ??_R4OverwriteDialog@@6B@  00000000640a8ca0     ui.obj
 0002:0000ecc8       ??_R3OverwriteDialog@@8    00000000640a8cc8     ui.obj
 0002:0000ece0       ??_R2OverwriteDialog@@8    00000000640a8ce0     ui.obj
 0002:0000ecf8       ??_R1A@?0A@EA@OverwriteDialog@@8 00000000640a8cf8     ui.obj
 0002:0000ed20       ??_R4PasswordDialog@@6B@   00000000640a8d20     ui.obj
 0002:0000ed48       ??_R3PasswordDialog@@8     00000000640a8d48     ui.obj
 0002:0000ed60       ??_R2PasswordDialog@@8     00000000640a8d60     ui.obj
 0002:0000ed78       ??_R1A@?0A@EA@Dialog@Far@@8 00000000640a8d78     ui.obj
 0002:0000eda0       ??_R3Dialog@Far@@8         00000000640a8da0     ui.obj
 0002:0000edb8       ??_R2Dialog@Far@@8         00000000640a8db8     ui.obj
 0002:0000edc8       ??_R1A@?0A@EA@PasswordDialog@@8 00000000640a8dc8     ui.obj
 0002:0000edf0       ??_R4ProgressMonitor@@6B@  00000000640a8df0     ui.obj
 0002:0000ee18       ??_R3ProgressMonitor@@8    00000000640a8e18     ui.obj
 0002:0000ee30       ??_R2ProgressMonitor@@8    00000000640a8e30     ui.obj
 0002:0000ee48       ??_R17?0A@EN@NonCopyable@@8 00000000640a8e48     ui.obj
 0002:0000ee70       ??_R3NonCopyable@@8        00000000640a8e70     ui.obj
 0002:0000ee88       ??_R2NonCopyable@@8        00000000640a8e88     ui.obj
 0002:0000ee98       ??_R1A@?0A@EA@NonCopyable@@8 00000000640a8e98     ui.obj
 0002:0000eec0       ??_R1A@?0A@EA@ProgressMonitor@@8 00000000640a8ec0     ui.obj
 0002:0000eee8       ??_R4?$num_put@_WV?$ostreambuf_iterator@_WU?$char_traits@_W@std@@@std@@@std@@6B@ 00000000640a8ee8     ui.obj
 0002:0000ef10       ??_R3?$num_put@_WV?$ostreambuf_iterator@_WU?$char_traits@_W@std@@@std@@@std@@8 00000000640a8f10     ui.obj
 0002:0000ef28       ??_R2?$num_put@_WV?$ostreambuf_iterator@_WU?$char_traits@_W@std@@@std@@@std@@8 00000000640a8f28     ui.obj
 0002:0000ef40       ??_R1A@?0A@EA@facet@locale@std@@8 00000000640a8f40     ui.obj
 0002:0000ef68       ??_R3facet@locale@std@@8   00000000640a8f68     ui.obj
 0002:0000ef80       ??_R2facet@locale@std@@8   00000000640a8f80     ui.obj
 0002:0000ef90       ??_R1A@?0A@EA@?$num_put@_WV?$ostreambuf_iterator@_WU?$char_traits@_W@std@@@std@@@std@@8 00000000640a8f90     ui.obj
 0002:0000efb8       ??_R4?$basic_ostringstream@_WU?$char_traits@_W@std@@V?$allocator@_W@2@@std@@6B@ 00000000640a8fb8     ui.obj
 0002:0000efe0       ??_R3?$basic_ostringstream@_WU?$char_traits@_W@std@@V?$allocator@_W@2@@std@@8 00000000640a8fe0     ui.obj
 0002:0000eff8       ??_R2?$basic_ostringstream@_WU?$char_traits@_W@std@@V?$allocator@_W@2@@std@@8 00000000640a8ff8     ui.obj
 0002:0000f028       ??_R1A@?0A@EA@?$basic_ostream@_WU?$char_traits@_W@std@@@std@@8 00000000640a9028     ui.obj
 0002:0000f050       ??_R3?$basic_ostream@_WU?$char_traits@_W@std@@@std@@8 00000000640a9050     ui.obj
 0002:0000f068       ??_R2?$basic_ostream@_WU?$char_traits@_W@std@@@std@@8 00000000640a9068     ui.obj
 0002:0000f090       ??_R17A@3EA@?$_Iosb@H@std@@8 00000000640a9090     ui.obj
 0002:0000f0b8       ??_R1A@A@3EA@ios_base@std@@8 00000000640a90b8     ui.obj
 0002:0000f0e0       ??_R1A@A@3FA@?$basic_ios@_WU?$char_traits@_W@std@@@std@@8 00000000640a90e0     ui.obj
 0002:0000f108       ??_R3?$basic_ios@_WU?$char_traits@_W@std@@@std@@8 00000000640a9108     ui.obj
 0002:0000f120       ??_R2?$basic_ios@_WU?$char_traits@_W@std@@@std@@8 00000000640a9120     ui.obj
 0002:0000f140       ??_R1A@?0A@EA@ios_base@std@@8 00000000640a9140     ui.obj
 0002:0000f168       ??_R3ios_base@std@@8       00000000640a9168     ui.obj
 0002:0000f180       ??_R2ios_base@std@@8       00000000640a9180     ui.obj
 0002:0000f198       ??_R17?0A@EA@?$_Iosb@H@std@@8 00000000640a9198     ui.obj
 0002:0000f1c0       ??_R3?$_Iosb@H@std@@8      00000000640a91c0     ui.obj
 0002:0000f1d8       ??_R2?$_Iosb@H@std@@8      00000000640a91d8     ui.obj
 0002:0000f1e8       ??_R1A@?0A@EA@?$_Iosb@H@std@@8 00000000640a91e8     ui.obj
 0002:0000f210       ??_R1A@?0A@EA@?$basic_ios@_WU?$char_traits@_W@std@@@std@@8 00000000640a9210     ui.obj
 0002:0000f238       ??_R1A@?0A@EA@?$basic_ostringstream@_WU?$char_traits@_W@std@@V?$allocator@_W@2@@std@@8 00000000640a9238     ui.obj
 0002:0000f260       ??_R4?$basic_stringbuf@_WU?$char_traits@_W@std@@V?$allocator@_W@2@@std@@6B@ 00000000640a9260     ui.obj
 0002:0000f288       ??_R3?$basic_stringbuf@_WU?$char_traits@_W@std@@V?$allocator@_W@2@@std@@8 00000000640a9288     ui.obj
 0002:0000f2a0       ??_R2?$basic_stringbuf@_WU?$char_traits@_W@std@@V?$allocator@_W@2@@std@@8 00000000640a92a0     ui.obj
 0002:0000f2b8       ??_R1A@?0A@EA@?$basic_streambuf@_WU?$char_traits@_W@std@@@std@@8 00000000640a92b8     ui.obj
 0002:0000f2e0       ??_R3?$basic_streambuf@_WU?$char_traits@_W@std@@@std@@8 00000000640a92e0     ui.obj
 0002:0000f2f8       ??_R2?$basic_streambuf@_WU?$char_traits@_W@std@@@std@@8 00000000640a92f8     ui.obj
 0002:0000f308       ??_R1A@?0A@EA@?$basic_stringbuf@_WU?$char_traits@_W@std@@V?$allocator@_W@2@@std@@8 00000000640a9308     ui.obj
 0002:0000f330       ??_R4?$_Ref_count@V?$set@IU?$less@I@std@@V?$allocator@I@2@@std@@@tr1@std@@6B@ 00000000640a9330     extract.obj
 0002:0000f358       ??_R3?$_Ref_count@V?$set@IU?$less@I@std@@V?$allocator@I@2@@std@@@tr1@std@@8 00000000640a9358     extract.obj
 0002:0000f370       ??_R2?$_Ref_count@V?$set@IU?$less@I@std@@V?$allocator@I@2@@std@@@tr1@std@@8 00000000640a9370     extract.obj
 0002:0000f388       ??_R1A@?0A@EA@?$_Ref_count@V?$set@IU?$less@I@std@@V?$allocator@I@2@@std@@@tr1@std@@8 00000000640a9388     extract.obj
 0002:0000f3b0       ??_R4?$_Ref_count@VFileWriteCache@@@tr1@std@@6B@ 00000000640a93b0     extract.obj
 0002:0000f3d8       ??_R3?$_Ref_count@VFileWriteCache@@@tr1@std@@8 00000000640a93d8     extract.obj
 0002:0000f3f0       ??_R2?$_Ref_count@VFileWriteCache@@@tr1@std@@8 00000000640a93f0     extract.obj
 0002:0000f408       ??_R1A@?0A@EA@?$_Ref_count@VFileWriteCache@@@tr1@std@@8 00000000640a9408     extract.obj
 0002:0000f430       ??_R4?$_Ref_count@VExtractProgress@@@tr1@std@@6B@ 00000000640a9430     extract.obj
 0002:0000f458       ??_R3?$_Ref_count@VExtractProgress@@@tr1@std@@8 00000000640a9458     extract.obj
 0002:0000f470       ??_R2?$_Ref_count@VExtractProgress@@@tr1@std@@8 00000000640a9470     extract.obj
 0002:0000f488       ??_R1A@?0A@EA@?$_Ref_count@VExtractProgress@@@tr1@std@@8 00000000640a9488     extract.obj
 0002:0000f4b0       ??_R4?$_Ref_count@W4OverwriteAction@@@tr1@std@@6B@ 00000000640a94b0     extract.obj
 0002:0000f4d8       ??_R3?$_Ref_count@W4OverwriteAction@@@tr1@std@@8 00000000640a94d8     extract.obj
 0002:0000f4f0       ??_R2?$_Ref_count@W4OverwriteAction@@@tr1@std@@8 00000000640a94f0     extract.obj
 0002:0000f508       ??_R1A@?0A@EA@?$_Ref_count@W4OverwriteAction@@@tr1@std@@8 00000000640a9508     extract.obj
 0002:0000f530       ??_R4?$_Ref_count@_N@tr1@std@@6B@ 00000000640a9530     extract.obj
 0002:0000f558       ??_R3?$_Ref_count@_N@tr1@std@@8 00000000640a9558     extract.obj
 0002:0000f570       ??_R2?$_Ref_count@_N@tr1@std@@8 00000000640a9570     extract.obj
 0002:0000f588       ??_R1A@?0A@EA@?$_Ref_count@_N@tr1@std@@8 00000000640a9588     extract.obj
 0002:0000f5b0       ??_R4SetDirAttr@@6B@       00000000640a95b0     extract.obj
 0002:0000f5d8       ??_R3SetDirAttr@@8         00000000640a95d8     extract.obj
 0002:0000f5f0       ??_R2SetDirAttr@@8         00000000640a95f0     extract.obj
 0002:0000f610       ??_R1A@?0A@EA@SetDirAttr@@8 00000000640a9610     extract.obj
 0002:0000f638       ??_R4PrepareExtract@@6B@   00000000640a9638     extract.obj
 0002:0000f660       ??_R3PrepareExtract@@8     00000000640a9660     extract.obj
 0002:0000f678       ??_R2PrepareExtract@@8     00000000640a9678     extract.obj
 0002:0000f698       ??_R1A@?0A@EA@PrepareExtract@@8 00000000640a9698     extract.obj
 0002:0000f6c0       ??_R4ArchiveExtractor@@6BComBase@@@ 00000000640a96c0     extract.obj
 0002:0000f6e8       ??_R4ArchiveExtractor@@6BICryptoGetTextPassword@@@ 00000000640a96e8     extract.obj
 0002:0000f710       ??_R4ArchiveExtractor@@6BIArchiveExtractCallback@@@ 00000000640a9710     extract.obj
 0002:0000f738       ??_R3ArchiveExtractor@@8   00000000640a9738     extract.obj
 0002:0000f750       ??_R2ArchiveExtractor@@8   00000000640a9750     extract.obj
 0002:0000f798       ??_R1BA@?0A@EC@IUnknown@@8 00000000640a9798     extract.obj
 0002:0000f7c0       ??_R1BA@?0A@EA@ComBase@@8  00000000640a97c0     extract.obj
 0002:0000f7e8       ??_R17?0A@EA@ICryptoGetTextPassword@@8 00000000640a97e8     extract.obj
 0002:0000f810       ??_R1A@?0A@EA@ArchiveExtractor@@8 00000000640a9810     extract.obj
 0002:0000f838       ??_R4CachedFileExtractStream@@6BComBase@@@ 00000000640a9838     extract.obj
 0002:0000f860       ??_R4CachedFileExtractStream@@6BISequentialOutStream@@@ 00000000640a9860     extract.obj
 0002:0000f888       ??_R3CachedFileExtractStream@@8 00000000640a9888     extract.obj
 0002:0000f8a0       ??_R2CachedFileExtractStream@@8 00000000640a98a0     extract.obj
 0002:0000f8d0       ??_R17?0A@EC@IUnknown@@8   00000000640a98d0     extract.obj
 0002:0000f8f8       ??_R17?0A@EA@ComBase@@8    00000000640a98f8     extract.obj
 0002:0000f920       ??_R1A@?0A@EC@IUnknown@@8  00000000640a9920     extract.obj
 0002:0000f948       ??_R1A@?0A@EA@CachedFileExtractStream@@8 00000000640a9948     extract.obj
 0002:0000f970       ??_R4ExtractProgress@@6B@  00000000640a9970     extract.obj
 0002:0000f998       ??_R3ExtractProgress@@8    00000000640a9998     extract.obj
 0002:0000f9b0       ??_R2ExtractProgress@@8    00000000640a99b0     extract.obj
 0002:0000f9d0       ??_R1A@?0A@EA@ExtractProgress@@8 00000000640a99d0     extract.obj
 0002:0000f9f8       ??_R4ComBase@@6B@          00000000640a99f8     extract.obj
 0002:0000fa20       ??_R3ComBase@@8            00000000640a9a20     extract.obj
 0002:0000fa38       ??_R2ComBase@@8            00000000640a9a38     extract.obj
 0002:0000fa50       ??_R1A@?0A@EA@ComBase@@8   00000000640a9a50     extract.obj
 0002:0000fa78       ??_R4ICryptoGetTextPassword@@6B@ 00000000640a9a78     extract.obj
 0002:0000faa0       ??_R3ICryptoGetTextPassword@@8 00000000640a9aa0     extract.obj
 0002:0000fab8       ??_R2ICryptoGetTextPassword@@8 00000000640a9ab8     extract.obj
 0002:0000fad0       ??_R1A@?0A@EA@ICryptoGetTextPassword@@8 00000000640a9ad0     extract.obj
 0002:0000faf8       ??_R4IArchiveExtractCallback@@6B@ 00000000640a9af8     extract.obj
 0002:0000fb20       ??_R3IArchiveExtractCallback@@8 00000000640a9b20     extract.obj
 0002:0000fb38       ??_R2IArchiveExtractCallback@@8 00000000640a9b38     extract.obj
 0002:0000fb58       ??_R1A@?0A@EA@IArchiveExtractCallback@@8 00000000640a9b58     extract.obj
 0002:0000fb80       ??_R3ISequentialOutStream@@8 00000000640a9b80     extract.obj
 0002:0000fb98       ??_R2ISequentialOutStream@@8 00000000640a9b98     extract.obj
 0002:0000fbb0       ??_R1A@?0A@EA@ISequentialOutStream@@8 00000000640a9bb0     extract.obj
 0002:0000fbd8       ??_R3IProgress@@8          00000000640a9bd8     extract.obj
 0002:0000fbf0       ??_R2IProgress@@8          00000000640a9bf0     extract.obj
 0002:0000fc08       ??_R1A@?0A@EA@IUnknown@@8  00000000640a9c08     extract.obj
 0002:0000fc30       ??_R3IUnknown@@8           00000000640a9c30     extract.obj
 0002:0000fc48       ??_R2IUnknown@@8           00000000640a9c48     extract.obj
 0002:0000fc58       ??_R1A@?0A@EA@IProgress@@8 00000000640a9c58     extract.obj
 0002:0000fc80       ??_R4ArchiveOpener@@6BProgressMonitor@@@ 00000000640a9c80     open.obj
 0002:0000fca8       ??_R4ArchiveOpener@@6BComBase@@@ 00000000640a9ca8     open.obj
 0002:0000fcd0       ??_R4ArchiveOpener@@6BICryptoGetTextPassword@@@ 00000000640a9cd0     open.obj
 0002:0000fcf8       ??_R4ArchiveOpener@@6BIArchiveOpenVolumeCallback@@@ 00000000640a9cf8     open.obj
 0002:0000fd20       ??_R4ArchiveOpener@@6BIArchiveOpenCallback@@@ 00000000640a9d20     open.obj
 0002:0000fd48       ??_R3ArchiveOpener@@8      00000000640a9d48     open.obj
 0002:0000fd60       ??_R2ArchiveOpener@@8      00000000640a9d60     open.obj
 0002:0000fdc0       ??_R1DA@?0A@EN@NonCopyable@@8 00000000640a9dc0     open.obj
 0002:0000fde8       ??_R1CI@?0A@EA@ProgressMonitor@@8 00000000640a9de8     open.obj
 0002:0000fe10       ??_R1BI@?0A@EC@IUnknown@@8 00000000640a9e10     open.obj
 0002:0000fe38       ??_R1BI@?0A@EA@ComBase@@8  00000000640a9e38     open.obj
 0002:0000fe60       ??_R1BA@?0A@EA@ICryptoGetTextPassword@@8 00000000640a9e60     open.obj
 0002:0000fe88       ??_R17?0A@EA@IArchiveOpenVolumeCallback@@8 00000000640a9e88     open.obj
 0002:0000feb0       ??_R1A@?0A@EA@ArchiveOpener@@8 00000000640a9eb0     open.obj
 0002:0000fed8       ??_R4ArchiveOpenStream@@6BComBase@@@ 00000000640a9ed8     open.obj
 0002:0000ff00       ??_R4ArchiveOpenStream@@6BIInStream@@@ 00000000640a9f00     open.obj
 0002:0000ff28       ??_R3ArchiveOpenStream@@8  00000000640a9f28     open.obj
 0002:0000ff40       ??_R2ArchiveOpenStream@@8  00000000640a9f40     open.obj
 0002:0000ff88       ??_R1BI@?0A@EN@NonCopyable@@8 00000000640a9f88     open.obj
 0002:0000ffb0       ??_R1BI@?0A@EN@File@@8     00000000640a9fb0     open.obj
 0002:0000ffd8       ??_R3File@@8               00000000640a9fd8     open.obj
 0002:0000fff0       ??_R2File@@8               00000000640a9ff0     open.obj
 0002:00010008       ??_R1A@?0A@EN@NonCopyable@@8 00000000640aa008     open.obj
 0002:00010030       ??_R1A@?0A@EA@File@@8      00000000640aa030     open.obj
 0002:00010058       ??_R1A@?0A@EA@ArchiveOpenStream@@8 00000000640aa058     open.obj
 0002:00010080       ??_R4ArchiveSubStream@@6BComBase@@@ 00000000640aa080     open.obj
 0002:000100a8       ??_R4ArchiveSubStream@@6BIInStream@@@ 00000000640aa0a8     open.obj
 0002:000100d0       ??_R3ArchiveSubStream@@8   00000000640aa0d0     open.obj
 0002:000100e8       ??_R2ArchiveSubStream@@8   00000000640aa0e8     open.obj
 0002:00010120       ??_R17?0A@EL@IUnknown@@8   00000000640aa120     open.obj
 0002:00010148       ??_R17?0A@EN@ComBase@@8    00000000640aa148     open.obj
 0002:00010170       ??_R1A@?0A@EA@ArchiveSubStream@@8 00000000640aa170     open.obj
 0002:00010198       ??_R4IArchiveOpenVolumeCallback@@6B@ 00000000640aa198     open.obj
 0002:000101c0       ??_R3IArchiveOpenVolumeCallback@@8 00000000640aa1c0     open.obj
 0002:000101d8       ??_R2IArchiveOpenVolumeCallback@@8 00000000640aa1d8     open.obj
 0002:000101f0       ??_R1A@?0A@EA@IArchiveOpenVolumeCallback@@8 00000000640aa1f0     open.obj
 0002:00010218       ??_R4IArchiveOpenCallback@@6B@ 00000000640aa218     open.obj
 0002:00010240       ??_R3IArchiveOpenCallback@@8 00000000640aa240     open.obj
 0002:00010258       ??_R2IArchiveOpenCallback@@8 00000000640aa258     open.obj
 0002:00010270       ??_R1A@?0A@EA@IArchiveOpenCallback@@8 00000000640aa270     open.obj
 0002:00010298       ??_R3IInStream@@8          00000000640aa298     open.obj
 0002:000102b0       ??_R2IInStream@@8          00000000640aa2b0     open.obj
 0002:000102d0       ??_R1A@?0A@EA@IInStream@@8 00000000640aa2d0     open.obj
 0002:000102f8       ??_R3ISequentialInStream@@8 00000000640aa2f8     open.obj
 0002:00010310       ??_R2ISequentialInStream@@8 00000000640aa310     open.obj
 0002:00010328       ??_R1A@?0A@EA@ISequentialInStream@@8 00000000640aa328     open.obj
 0002:00010350       ??_R4?$_Ref_count@VArchiveUpdateProgress@@@tr1@std@@6B@ 00000000640aa350     update.obj
 0002:00010378       ??_R3?$_Ref_count@VArchiveUpdateProgress@@@tr1@std@@8 00000000640aa378     update.obj
 0002:00010390       ??_R2?$_Ref_count@VArchiveUpdateProgress@@@tr1@std@@8 00000000640aa390     update.obj
 0002:000103a8       ??_R1A@?0A@EA@?$_Ref_count@VArchiveUpdateProgress@@@tr1@std@@8 00000000640aa3a8     update.obj
 0002:000103d0       ??_R4?$_Ref_count@V?$map@IUFileIndexInfo@@U?$less@I@std@@V?$allocator@U?$pair@$$CBIUFileIndexInfo@@@std@@@3@@std@@@tr1@std@@6B@ 00000000640aa3d0     update.obj
 0002:000103f8       ??_R3?$_Ref_count@V?$map@IUFileIndexInfo@@U?$less@I@std@@V?$allocator@U?$pair@$$CBIUFileIndexInfo@@@std@@@3@@std@@@tr1@std@@8 00000000640aa3f8     update.obj
 0002:00010410       ??_R2?$_Ref_count@V?$map@IUFileIndexInfo@@U?$less@I@std@@V?$allocator@U?$pair@$$CBIUFileIndexInfo@@@std@@@3@@std@@@tr1@std@@8 00000000640aa410     update.obj
 0002:00010428       ??_R1A@?0A@EA@?$_Ref_count@V?$map@IUFileIndexInfo@@U?$less@I@std@@V?$allocator@U?$pair@$$CBIUFileIndexInfo@@@std@@@3@@std@@@tr1@std@@8 00000000640aa428     update.obj
 0002:00010450       ??_R4DeleteSrcFiles@@6B@   00000000640aa450     update.obj
 0002:00010478       ??_R3DeleteSrcFiles@@8     00000000640aa478     update.obj
 0002:00010490       ??_R2DeleteSrcFiles@@8     00000000640aa490     update.obj
 0002:000104b0       ??_R1A@?0A@EA@DeleteSrcFiles@@8 00000000640aa4b0     update.obj
 0002:000104d8       ??_R4ArchiveUpdater@@6BComBase@@@ 00000000640aa4d8     update.obj
 0002:00010500       ??_R4ArchiveUpdater@@6BICryptoGetTextPassword2@@@ 00000000640aa500     update.obj
 0002:00010528       ??_R4ArchiveUpdater@@6BIArchiveUpdateCallback@@@ 00000000640aa528     update.obj
 0002:00010550       ??_R3ArchiveUpdater@@8     00000000640aa550     update.obj
 0002:00010570       ??_R2ArchiveUpdater@@8     00000000640aa570     update.obj
 0002:000105b8       ??_R17?0A@EA@ICryptoGetTextPassword2@@8 00000000640aa5b8     update.obj
 0002:000105e0       ??_R1A@?0A@EA@ArchiveUpdater@@8 00000000640aa5e0     update.obj
 0002:00010608       ??_R4PrepareUpdate@@6B@    00000000640aa608     update.obj
 0002:00010630       ??_R3PrepareUpdate@@8      00000000640aa630     update.obj
 0002:00010648       ??_R2PrepareUpdate@@8      00000000640aa648     update.obj
 0002:00010668       ??_R1A@?0A@EN@ProgressMonitor@@8 00000000640aa668     update.obj
 0002:00010690       ??_R1A@?0A@EA@PrepareUpdate@@8 00000000640aa690     update.obj
 0002:000106b8       ??_R4FileReadStream@@6BComBase@@@ 00000000640aa6b8     update.obj
 0002:000106e0       ??_R4FileReadStream@@6BIInStream@@@ 00000000640aa6e0     update.obj
 0002:00010708       ??_R3FileReadStream@@8     00000000640aa708     update.obj
 0002:00010720       ??_R2FileReadStream@@8     00000000640aa720     update.obj
 0002:00010768       ??_R1A@?0A@EA@FileReadStream@@8 00000000640aa768     update.obj
 0002:00010790       ??_R4MultiVolumeUpdateStream@@6BComBase@@@ 00000000640aa790     update.obj
 0002:000107b8       ??_R4MultiVolumeUpdateStream@@6BUpdateStream@@@ 00000000640aa7b8     update.obj
 0002:000107e0       ??_R3MultiVolumeUpdateStream@@8 00000000640aa7e0     update.obj
 0002:000107f8       ??_R2MultiVolumeUpdateStream@@8 00000000640aa7f8     update.obj
 0002:00010838       ??_R1A@?0A@EA@MultiVolumeUpdateStream@@8 00000000640aa838     update.obj
 0002:00010860       ??_R4SfxUpdateStream@@6BComBase@@@ 00000000640aa860     update.obj
 0002:00010888       ??_R4SfxUpdateStream@@6BUpdateStream@@@ 00000000640aa888     update.obj
 0002:000108b0       ??_R3SfxUpdateStream@@8    00000000640aa8b0     update.obj
 0002:000108d0       ??_R2SfxUpdateStream@@8    00000000640aa8d0     update.obj
 0002:00010920       ??_R1A@?0A@EA@SfxUpdateStream@@8 00000000640aa920     update.obj
 0002:00010948       ??_R4SimpleUpdateStream@@6BComBase@@@ 00000000640aa948     update.obj
 0002:00010970       ??_R4SimpleUpdateStream@@6BUpdateStream@@@ 00000000640aa970     update.obj
 0002:00010998       ??_R3SimpleUpdateStream@@8 00000000640aa998     update.obj
 0002:000109b0       ??_R2SimpleUpdateStream@@8 00000000640aa9b0     update.obj
 0002:00010a00       ??_R1CI@?0A@EN@NonCopyable@@8 00000000640aaa00     update.obj
 0002:00010a28       ??_R1CI@?0A@EN@File@@8     00000000640aaa28     update.obj
 0002:00010a50       ??_R1A@?0A@EA@SimpleUpdateStream@@8 00000000640aaa50     update.obj
 0002:00010a78       ??_R4UpdateStream@@6B@     00000000640aaa78     update.obj
 0002:00010aa0       ??_R3UpdateStream@@8       00000000640aaaa0     update.obj
 0002:00010ab8       ??_R2UpdateStream@@8       00000000640aaab8     update.obj
 0002:00010ae0       ??_R1A@?0A@EA@UpdateStream@@8 00000000640aaae0     update.obj
 0002:00010b08       ??_R4ArchiveUpdateProgress@@6B@ 00000000640aab08     update.obj
 0002:00010b30       ??_R3ArchiveUpdateProgress@@8 00000000640aab30     update.obj
 0002:00010b48       ??_R2ArchiveUpdateProgress@@8 00000000640aab48     update.obj
 0002:00010b68       ??_R1A@?0A@EA@ArchiveUpdateProgress@@8 00000000640aab68     update.obj
 0002:00010b90       ??_R4CriticalSection@@6B@  00000000640aab90     update.obj
 0002:00010bb8       ??_R3CriticalSection@@8    00000000640aabb8     update.obj
 0002:00010bd0       ??_R2CriticalSection@@8    00000000640aabd0     update.obj
 0002:00010bf0       ??_R17?0A@EN@_RTL_CRITICAL_SECTION@@8 00000000640aabf0     update.obj
 0002:00010c18       ??_R3_RTL_CRITICAL_SECTION@@8 00000000640aac18     update.obj
 0002:00010c30       ??_R2_RTL_CRITICAL_SECTION@@8 00000000640aac30     update.obj
 0002:00010c40       ??_R1A@?0A@EA@_RTL_CRITICAL_SECTION@@8 00000000640aac40     update.obj
 0002:00010c68       ??_R1A@?0A@EA@CriticalSection@@8 00000000640aac68     update.obj
 0002:00010c90       ??_R3ICryptoGetTextPassword2@@8 00000000640aac90     update.obj
 0002:00010ca8       ??_R2ICryptoGetTextPassword2@@8 00000000640aaca8     update.obj
 0002:00010cc0       ??_R1A@?0A@EA@ICryptoGetTextPassword2@@8 00000000640aacc0     update.obj
 0002:00010ce8       ??_R3IArchiveUpdateCallback@@8 00000000640aace8     update.obj
 0002:00010d00       ??_R2IArchiveUpdateCallback@@8 00000000640aad00     update.obj
 0002:00010d20       ??_R1A@?0A@EA@IArchiveUpdateCallback@@8 00000000640aad20     update.obj
 0002:00010d48       ??_R3IOutStream@@8         00000000640aad48     update.obj
 0002:00010d60       ??_R2IOutStream@@8         00000000640aad60     update.obj
 0002:00010d80       ??_R1A@?0A@EA@IOutStream@@8 00000000640aad80     update.obj
 0002:00010da8       ??_R4?$_Ref_count@VArchiveFileDeleterProgress@@@tr1@std@@6B@ 00000000640aada8     delete.obj
 0002:00010dd0       ??_R3?$_Ref_count@VArchiveFileDeleterProgress@@@tr1@std@@8 00000000640aadd0     delete.obj
 0002:00010de8       ??_R2?$_Ref_count@VArchiveFileDeleterProgress@@@tr1@std@@8 00000000640aade8     delete.obj
 0002:00010e00       ??_R1A@?0A@EA@?$_Ref_count@VArchiveFileDeleterProgress@@@tr1@std@@8 00000000640aae00     delete.obj
 0002:00010e28       ??_R4ArchiveFileDeleter@@6BComBase@@@ 00000000640aae28     delete.obj
 0002:00010e50       ??_R4ArchiveFileDeleter@@6BIArchiveUpdateCallback@@@ 00000000640aae50     delete.obj
 0002:00010e78       ??_R3ArchiveFileDeleter@@8 00000000640aae78     delete.obj
 0002:00010e90       ??_R2ArchiveFileDeleter@@8 00000000640aae90     delete.obj
 0002:00010ec8       ??_R1A@?0A@EA@ArchiveFileDeleter@@8 00000000640aaec8     delete.obj
 0002:00010ef0       ??_R4ArchiveFileDeleterStream@@6BComBase@@@ 00000000640aaef0     delete.obj
 0002:00010f18       ??_R4ArchiveFileDeleterStream@@6BIOutStream@@@ 00000000640aaf18     delete.obj
 0002:00010f40       ??_R3ArchiveFileDeleterStream@@8 00000000640aaf40     delete.obj
 0002:00010f60       ??_R2ArchiveFileDeleterStream@@8 00000000640aaf60     delete.obj
 0002:00010fa8       ??_R1A@?0A@EA@ArchiveFileDeleterStream@@8 00000000640aafa8     delete.obj
 0002:00010fd0       ??_R4ArchiveFileDeleterProgress@@6B@ 00000000640aafd0     delete.obj
 0002:00010ff8       ??_R3ArchiveFileDeleterProgress@@8 00000000640aaff8     delete.obj
 0002:00011010       ??_R2ArchiveFileDeleterProgress@@8 00000000640ab010     delete.obj
 0002:00011030       ??_R1A@?0A@EA@ArchiveFileDeleterProgress@@8 00000000640ab030     delete.obj
 0002:00011058       ??_R4ArchiveTester@@6BProgressMonitor@@@ 00000000640ab058     test.obj
 0002:00011080       ??_R4ArchiveTester@@6BComBase@@@ 00000000640ab080     test.obj
 0002:000110a8       ??_R4ArchiveTester@@6BICryptoGetTextPassword@@@ 00000000640ab0a8     test.obj
 0002:000110d0       ??_R4ArchiveTester@@6BIArchiveExtractCallback@@@ 00000000640ab0d0     test.obj
 0002:000110f8       ??_R3ArchiveTester@@8      00000000640ab0f8     test.obj
 0002:00011110       ??_R2ArchiveTester@@8      00000000640ab110     test.obj
 0002:00011168       ??_R1CA@?0A@EA@ProgressMonitor@@8 00000000640ab168     test.obj
 0002:00011190       ??_R1A@?0A@EA@ArchiveTester@@8 00000000640ab190     test.obj
 0002:000111b8       ??_R4SfxOptionsDialog@@6B@ 00000000640ab1b8     sfx.obj
 0002:000111e0       ??_R3SfxOptionsDialog@@8   00000000640ab1e0     sfx.obj
 0002:000111f8       ??_R2SfxOptionsDialog@@8   00000000640ab1f8     sfx.obj
 0002:00011210       ??_R1A@?0A@EA@SfxOptionsDialog@@8 00000000640ab210     sfx.obj
 0002:00011238       ??_R4AttachSfxModuleProgress@@6B@ 00000000640ab238     sfx.obj
 0002:00011260       ??_R3AttachSfxModuleProgress@@8 00000000640ab260     sfx.obj
 0002:00011278       ??_R2AttachSfxModuleProgress@@8 00000000640ab278     sfx.obj
 0002:00011298       ??_R1A@?0A@EA@AttachSfxModuleProgress@@8 00000000640ab298     sfx.obj
 0002:000112c0       ??_R4Dialog@Far@@6B@       00000000640ab2c0     farutils.obj
 0002:000112e8       __rtc_iaa                  00000000640ab2e8     LIBCMT:_initsect_.obj
 0002:000112f0       __rtc_izz                  00000000640ab2f0     LIBCMT:_initsect_.obj
 0002:000112f8       __rtc_taa                  00000000640ab2f8     LIBCMT:_initsect_.obj
 0002:00011300       __rtc_tzz                  00000000640ab300     LIBCMT:_initsect_.obj
 0002:0002d0e8       _CT??_R0?AVlogic_error@std@@@8??0logic_error@std@@QEAA@AEBV01@@Z24 00000000640c70e8     libcpmt:xthrow.obj
 0002:0002d110       _TI3?AVlength_error@std@@  00000000640c7110     libcpmt:xthrow.obj
 0002:0002d130       _CTA3?AVlength_error@std@@ 00000000640c7130     libcpmt:xthrow.obj
 0002:0002d150       _CT??_R0?AVlength_error@std@@@8??0length_error@std@@QEAA@AEBV01@@Z24 00000000640c7150     libcpmt:xthrow.obj
 0002:0002d178       _TI3?AVout_of_range@std@@  00000000640c7178     libcpmt:xthrow.obj
 0002:0002d198       _CTA3?AVout_of_range@std@@ 00000000640c7198     libcpmt:xthrow.obj
 0002:0002d1b8       _CT??_R0?AVout_of_range@std@@@8??0out_of_range@std@@QEAA@AEBV01@@Z24 00000000640c71b8     libcpmt:xthrow.obj
 0002:0002d1e0       _TI3?AV__non_rtti_object@std@@ 00000000640c71e0     LIBCMT:rtti.obj
 0002:0002d200       _CTA3?AV__non_rtti_object@std@@ 00000000640c7200     LIBCMT:rtti.obj
 0002:0002d220       _CT??_R0?AV__non_rtti_object@std@@@8??0__non_rtti_object@std@@QEAA@AEBV01@@Z24 00000000640c7220     LIBCMT:rtti.obj
 0002:0002d248       _CT??_R0?AVbad_typeid@std@@@8??0bad_typeid@std@@QEAA@AEBV01@@Z24 00000000640c7248     LIBCMT:rtti.obj
 0002:0002d270       _TI2?AVbad_typeid@std@@    00000000640c7270     LIBCMT:rtti.obj
 0002:0002d290       _CTA2?AVbad_typeid@std@@   00000000640c7290     LIBCMT:rtti.obj
 0002:0002d2a8       _TI2?AVbad_exception@std@@ 00000000640c72a8     LIBCMT:frame.obj
 0002:0002d2c8       _CTA2?AVbad_exception@std@@ 00000000640c72c8     LIBCMT:frame.obj
 0002:0002d2e0       _CT??_R0?AVbad_exception@std@@@8??0bad_exception@std@@QEAA@AEBV01@@Z24 00000000640c72e0     LIBCMT:frame.obj
 0002:0002d308       _CT??_R0?AUError@@@8??0Error@@QEAA@AEBU0@@Z48 00000000640c7308     archive.obj
 0002:0002d330       _CTA1?AUError@@            00000000640c7330     archive.obj
 0002:0002d340       _TI1?AUError@@             00000000640c7340     archive.obj
 0002:0002d360       _CT??_R0?AVexception@std@@@8??0exception@std@@QEAA@AEBV01@@Z24 00000000640c7360     archive.obj
 0002:0002d388       _CT??_R0?AVbad_alloc@std@@@8??0bad_alloc@std@@QEAA@AEBV01@@Z24 00000000640c7388     archive.obj
 0002:0002d3b0       _CTA2?AVbad_alloc@std@@    00000000640c73b0     archive.obj
 0002:0002d3c8       _TI2?AVbad_alloc@std@@     00000000640c73c8     archive.obj
 0002:0002d3e8       _CT??_R0?AVbad_weak_ptr@tr1@std@@@8??0bad_weak_ptr@tr1@std@@QEAA@AEBV012@@Z24 00000000640c73e8     plugin.obj
 0002:0002d410       _CTA2?AVbad_weak_ptr@tr1@std@@ 00000000640c7410     plugin.obj
 0002:0002d428       _TI2?AVbad_weak_ptr@tr1@std@@ 00000000640c7428     plugin.obj
 0002:0002d448       _CT??_R0?AVruntime_error@std@@@8??0runtime_error@std@@QEAA@AEBV01@@Z24 00000000640c7448     ui.obj
 0002:0002d470       _CTA2?AVruntime_error@std@@ 00000000640c7470     ui.obj
 0002:0002d488       _TI2?AVruntime_error@std@@ 00000000640c7488     ui.obj
 0002:0002d4a8       _CT??_R0?AVfailure@ios_base@std@@@8??0failure@ios_base@std@@QEAA@AEBV012@@Z40 00000000640c74a8     ui.obj
 0002:0002d4d0       _CT??_R0?AVsystem_error@std@@@8??0system_error@std@@QEAA@AEBV01@@Z40 00000000640c74d0     ui.obj
 0002:0002d4f8       _CTA4?AVfailure@ios_base@std@@ 00000000640c74f8     ui.obj
 0002:0002d520       _TI4?AVfailure@ios_base@std@@ 00000000640c7520     ui.obj
 0002:0002d540       _CT??_R0?AVbad_cast@std@@@8??0bad_cast@std@@QEAA@AEBV01@@Z24 00000000640c7540     ui.obj
 0002:0002d568       _CTA2?AVbad_cast@std@@     00000000640c7568     ui.obj
 0002:0002d580       _TI2?AVbad_cast@std@@      00000000640c7580     ui.obj
 0002:0002d59c       __IMPORT_DESCRIPTOR_USER32 00000000640c759c     user32:USER32.dll
 0002:0002d5b0       __IMPORT_DESCRIPTOR_ADVAPI32 00000000640c75b0     advapi32:ADVAPI32.dll
 0002:0002d5c4       __IMPORT_DESCRIPTOR_ole32  00000000640c75c4     ole32:ole32.dll
 0002:0002d5d8       __IMPORT_DESCRIPTOR_OLEAUT32 00000000640c75d8     oleaut32:OLEAUT32.dll
 0002:0002d5ec       __IMPORT_DESCRIPTOR_VERSION 00000000640c75ec     version:VERSION.dll
 0002:0002d600       __IMPORT_DESCRIPTOR_KERNEL32 00000000640c7600     kernel32:KERNEL32.dll
 0002:0002d614       __NULL_IMPORT_DESCRIPTOR   00000000640c7614     user32:USER32.dll
 0003:00000000       ??_R0?AVlogic_error@std@@@8 00000000640c9000     libcpmt:xthrow.obj
 0003:00000028       ??_R0?AVlength_error@std@@@8 00000000640c9028     libcpmt:xthrow.obj
 0003:00000050       ??_R0?AVout_of_range@std@@@8 00000000640c9050     libcpmt:xthrow.obj
 0003:00000077       ?_Sync@ios_base@std@@0_NA  00000000640c9077     libcpmt:ios.obj
 0003:00000078       ??_R0?AVerror_category@std@@@8 00000000640c9078     libcpmt:syserror.obj
 0003:000000a8       ??_R0?AV_Generic_error_category@std@@@8 00000000640c90a8     libcpmt:syserror.obj
 0003:000000e0       ??_R0?AV_Iostream_error_category@std@@@8 00000000640c90e0     libcpmt:syserror.obj
 0003:00000118       ??_R0?AV_System_error_category@std@@@8 00000000640c9118     libcpmt:syserror.obj
 0003:00000190       ??_R0?AV_Locimp@locale@std@@@8 00000000640c9190     libcpmt:locale0.obj
 0003:000001d0       ?_PJP_CPP_Copyright@@3PADA 00000000640c91d0     libcpmt:iosptrs.obj
 0003:00000230       ??_R0?AVbad_typeid@std@@@8 00000000640c9230     LIBCMT:stdexcpt.obj
 0003:00000258       ??_R0?AV__non_rtti_object@std@@@8 00000000640c9258     LIBCMT:stdexcpt.obj
 0003:00000288       ??_R0?AVtype_info@@@8      00000000640c9288     LIBCMT:typinfo.obj
 0003:000002b0       __lconv_static_decimal     00000000640c92b0     LIBCMT:lconv.obj
 0003:000002b4       __lconv_static_W_decimal   00000000640c92b4     LIBCMT:lconv.obj
 0003:000002b8       __lconv                    00000000640c92b8     LIBCMT:lconv.obj
 0003:000002c0       __lconv_c                  00000000640c92c0     LIBCMT:lconv.obj
 0003:00000360       ??_R0?AVbad_exception@std@@@8 00000000640c9360     LIBCMT:frame.obj
 0003:00000390       __security_cookie          00000000640c9390     LIBCMT:gs_cookie.obj
 0003:00000398       __security_cookie_complement 00000000640c9398     LIBCMT:gs_cookie.obj
 0003:000003a0       _pctype                    00000000640c93a0     LIBCMT:ctype.obj
 0003:000003a8       _pwctype                   00000000640c93a8     LIBCMT:ctype.obj
 0003:00000520       __abort_behavior           00000000640c9520     LIBCMT:abort.obj
 0003:00000530       __initialmbcinfo           00000000640c9530     LIBCMT:mbctype.obj
 0003:00000750       _mbctype                   00000000640c9750     LIBCMT:mbctype.obj
 0003:00000860       _mbcasemap                 00000000640c9860     LIBCMT:mbctype.obj
 0003:00000960       __ptmbcinfo                00000000640c9960     LIBCMT:mbctype.obj
 0003:00000a60       __globallocalestatus       00000000640c9a60     LIBCMT:glstatus.obj
 0003:00000a64       __clocalestr               00000000640c9a64     LIBCMT:nlsdata2.obj
 0003:00000a70       __lc_time_c                00000000640c9a70     LIBCMT:nlsdata2.obj
 0003:00000d30       __initiallocinfo           00000000640c9d30     LIBCMT:nlsdata2.obj
 0003:00000e90       __ptlocinfo                00000000640c9e90     LIBCMT:nlsdata2.obj
 0003:00000e98       __initiallocalestructinfo  00000000640c9e98     LIBCMT:nlsdata2.obj
 0003:00000ea8       __flsindex                 00000000640c9ea8     LIBCMT:tidtable.obj
 0003:00000eb0       __nullstring               00000000640c9eb0     LIBCMT:output.obj
 0003:00000eb8       __wnullstring              00000000640c9eb8     LIBCMT:output.obj
 0003:00000ec0       __badioinfo                00000000640c9ec0     LIBCMT:ioinit.obj
 0003:00000f20       _sys_errlist               00000000640c9f20     LIBCMT:syserr.obj
 0003:00001080       _sys_nerr                  00000000640ca080     LIBCMT:syserr.obj
 0003:00001090       __mb_cur_max               00000000640ca090     LIBCMT:nlsdata1.obj
 0003:00001094       __decimal_point            00000000640ca094     LIBCMT:nlsdata1.obj
 0003:00001098       __decimal_point_length     00000000640ca098     LIBCMT:nlsdata1.obj
 0003:000012e0       _cfltcvt_tab               00000000640ca2e0     LIBCMT:cmiscdat.obj
 0003:00001330       _iob                       00000000640ca330     LIBCMT:_file.obj
 0003:000016f0       _confh                     00000000640ca6f0     LIBCMT:initcon.obj
 0003:000016f8       ??_R0?AUError@@@8          00000000640ca6f8     archive.obj
 0003:00001720       ?c_methods@@3PAPEB_WA      00000000640ca720     cmdline.obj
 0003:00001738       ?c_profiles_key_name@@3PEB_WEB 00000000640ca738     options.obj
 0003:00001ae0       ?c_copy_opened_files_option@@3PEB_WEB 00000000640caae0     options.obj
 0003:00001ae8       ?c_esc_confirmation_option@@3PEB_WEB 00000000640caae8     options.obj
 0003:00001af0       ?g_detect_next_time@@3W4TriState@@A 00000000640caaf0     plugin.obj
 0003:00001af8       ?c_method_copy@@3PEB_WEB   00000000640caaf8     archive.obj
 0003:00001b00       ?c_method_lzma@@3PEB_WEB   00000000640cab00     archive.obj
 0003:00001b08       ?c_method_lzma2@@3PEB_WEB  00000000640cab08     archive.obj
 0003:00001b10       ?c_method_ppmd@@3PEB_WEB   00000000640cab10     archive.obj
 0003:00001b18       ?c_sfx_ext@@3PEB_WEB       00000000640cab18     archive.obj
 0003:00001b20       ?c_volume_ext@@3PEB_WEB    00000000640cab20     archive.obj
 0003:00001b28       ?g_plugin_prefix@@3V?$basic_string@_WU?$char_traits@_W@std@@V?$allocator@_W@2@@std@@A 00000000640cab28     plugin.obj
 0003:00001ba0       ??_R0?AVexception@std@@@8  00000000640caba0     archive.obj
 0003:00001bc8       ??_R0?AVbad_alloc@std@@@8  00000000640cabc8     archive.obj
 0003:00001bf0       ??_R0?AV?$_Ref_count_del@XV<lambda11>@?A0xc5e9a1c5@@@tr1@std@@@8 00000000640cabf0     plugin.obj
 0003:00001c40       ??_R0?AV?$_Ref_count@V?$list@UError@@V?$allocator@UError@@@std@@@std@@@tr1@std@@@8 00000000640cac40     plugin.obj
 0003:00001ca0       ??_R0?AV_Ref_count_base@tr1@std@@@8 00000000640caca0     plugin.obj
 0003:00001cd0       ??_R0?AV?$_Ref_count@VArchive@@@tr1@std@@@8 00000000640cacd0     plugin.obj
 0003:00001d10       ??_R0?AVPluginPanelItems@?1??extract@Plugin@@QEAAXXZ@@8 00000000640cad10     plugin.obj
 0003:00001d60       ??_R0?AVPluginPanelItems@?1??get_files@Plugin@@QEAAXPEBUPluginPanelItem@@_JHPEAPEB_W_K@Z@@8 00000000640cad60     plugin.obj
 0003:00001dc8       ??_R0?AVPluginPanelItemAccessor@Plugin@@@8 00000000640cadc8     plugin.obj
 0003:00001e00       ??_R0?AVbad_weak_ptr@tr1@std@@@8 00000000640cae00     plugin.obj
 0003:00001e30       ??_R0?AV<lambda11>@?A0xc5e9a1c5@@@8 00000000640cae30     plugin.obj
 0003:00001e60       ??_R0?AV?$ctype@_W@std@@@8 00000000640cae60     ui.obj
 0003:00001e88       ??_R0?AUctype_base@std@@@8 00000000640cae88     ui.obj
 0003:00001eb0       ??_R0?AV?$_Ref_count@VFileFilter@Far@@@tr1@std@@@8 00000000640caeb0     ui.obj
 0003:00001ef0       ??_R0?AV?$numpunct@_W@std@@@8 00000000640caef0     ui.obj
 0003:00001f18       ??_R0?AVAttrDialog@@@8     00000000640caf18     ui.obj
 0003:00001f40       ??_R0?AVSettingsDialog@@@8 00000000640caf40     ui.obj
 0003:00001f68       ??_R0?AVFormatLibraryInfoDialog@@@8 00000000640caf68     ui.obj
 0003:00001f98       ??_R0?AVMultiSelectDialog@@@8 00000000640caf98     ui.obj
 0003:00001fc0       ??_R0?AVUpdateDialog@@@8   00000000640cafc0     ui.obj
 0003:00001fe8       ??_R0?AVExtractDialog@@@8  00000000640cafe8     ui.obj
 0003:00002010       ??_R0?AVOverwriteDialog@@@8 00000000640cb010     ui.obj
 0003:00002038       ??_R0?AVDialog@Far@@@8     00000000640cb038     ui.obj
 0003:00002060       ??_R0?AVPasswordDialog@@@8 00000000640cb060     ui.obj
 0003:00002088       ??_R0?AVNonCopyable@@@8    00000000640cb088     ui.obj
 0003:000020b0       ??_R0?AVProgressMonitor@@@8 00000000640cb0b0     ui.obj
 0003:000020d8       ??_R0?AVfacet@locale@std@@@8 00000000640cb0d8     ui.obj
 0003:00002100       ??_R0?AV?$num_put@_WV?$ostreambuf_iterator@_WU?$char_traits@_W@std@@@std@@@std@@@8 00000000640cb100     ui.obj
 0003:00002160       ??_R0?AV?$_Iosb@H@std@@@8  00000000640cb160     ui.obj
 0003:00002188       ??_R0?AVios_base@std@@@8   00000000640cb188     ui.obj
 0003:000021b0       ??_R0?AV?$basic_ios@_WU?$char_traits@_W@std@@@std@@@8 00000000640cb1b0     ui.obj
 0003:000021f0       ??_R0?AV?$basic_ostream@_WU?$char_traits@_W@std@@@std@@@8 00000000640cb1f0     ui.obj
 0003:00002240       ??_R0?AV?$basic_ostringstream@_WU?$char_traits@_W@std@@V?$allocator@_W@2@@std@@@8 00000000640cb240     ui.obj
 0003:000022a0       ??_R0?AV?$basic_streambuf@_WU?$char_traits@_W@std@@@std@@@8 00000000640cb2a0     ui.obj
 0003:000022f0       ??_R0?AV?$basic_stringbuf@_WU?$char_traits@_W@std@@V?$allocator@_W@2@@std@@@8 00000000640cb2f0     ui.obj
 0003:00002348       ??_R0?AVruntime_error@std@@@8 00000000640cb348     ui.obj
 0003:00002370       ??_R0?AVfailure@ios_base@std@@@8 00000000640cb370     ui.obj
 0003:000023a0       ??_R0?AVsystem_error@std@@@8 00000000640cb3a0     ui.obj
 0003:000023c8       ??_R0?AVbad_cast@std@@@8   00000000640cb3c8     ui.obj
 0003:000023f0       ??_R0?AV?$_Ref_count@V?$set@IU?$less@I@std@@V?$allocator@I@2@@std@@@tr1@std@@@8 00000000640cb3f0     extract.obj
 0003:00002450       ??_R0?AV?$_Ref_count@VFileWriteCache@@@tr1@std@@@8 00000000640cb450     extract.obj
 0003:00002490       ??_R0?AV?$_Ref_count@VExtractProgress@@@tr1@std@@@8 00000000640cb490     extract.obj
 0003:000024d0       ??_R0?AV?$_Ref_count@W4OverwriteAction@@@tr1@std@@@8 00000000640cb4d0     extract.obj
 0003:00002510       ??_R0?AV?$_Ref_count@_N@tr1@std@@@8 00000000640cb510     extract.obj
 0003:00002540       ??_R0?AVSetDirAttr@@@8     00000000640cb540     extract.obj
 0003:00002568       ??_R0?AVPrepareExtract@@@8 00000000640cb568     extract.obj
 0003:00002590       ??_R0?AVArchiveExtractor@@@8 00000000640cb590     extract.obj
 0003:000025b8       ??_R0?AVCachedFileExtractStream@@@8 00000000640cb5b8     extract.obj
 0003:000025e8       ??_R0?AVExtractProgress@@@8 00000000640cb5e8     extract.obj
 0003:00002610       ??_R0?AVComBase@@@8        00000000640cb610     extract.obj
 0003:00002630       ??_R0?AUICryptoGetTextPassword@@@8 00000000640cb630     extract.obj
 0003:00002660       ??_R0?AUIArchiveExtractCallback@@@8 00000000640cb660     extract.obj
 0003:00002690       ??_R0?AUISequentialOutStream@@@8 00000000640cb690     extract.obj
 0003:000026c0       ??_R0?AUIUnknown@@@8       00000000640cb6c0     extract.obj
 0003:000026e0       ??_R0?AUIProgress@@@8      00000000640cb6e0     extract.obj
 0003:00002700       ??_R0?AVArchiveOpener@@@8  00000000640cb700     open.obj
 0003:00002728       ??_R0?AVFile@@@8           00000000640cb728     open.obj
 0003:00002748       ??_R0?AVArchiveOpenStream@@@8 00000000640cb748     open.obj
 0003:00002770       ??_R0?AVArchiveSubStream@@@8 00000000640cb770     open.obj
 0003:00002798       ??_R0?AUIArchiveOpenVolumeCallback@@@8 00000000640cb798     open.obj
 0003:000027d0       ??_R0?AUIArchiveOpenCallback@@@8 00000000640cb7d0     open.obj
 0003:00002800       ??_R0?AUIInStream@@@8      00000000640cb800     open.obj
 0003:00002820       ??_R0?AUISequentialInStream@@@8 00000000640cb820     open.obj
 0003:00002850       ??_R0?AV?$_Ref_count@VArchiveUpdateProgress@@@tr1@std@@@8 00000000640cb850     update.obj
 0003:000028a0       ??_R0?AV?$_Ref_count@V?$map@IUFileIndexInfo@@U?$less@I@std@@V?$allocator@U?$pair@$$CBIUFileIndexInfo@@@std@@@3@@std@@@tr1@std@@@8 00000000640cb8a0     update.obj
 0003:00002930       ??_R0?AVDeleteSrcFiles@@@8 00000000640cb930     update.obj
 0003:00002958       ??_R0?AVArchiveUpdater@@@8 00000000640cb958     update.obj
 0003:00002980       ??_R0?AVPrepareUpdate@@@8  00000000640cb980     update.obj
 0003:000029a8       ??_R0?AVFileReadStream@@@8 00000000640cb9a8     update.obj
 0003:000029d0       ??_R0?AVMultiVolumeUpdateStream@@@8 00000000640cb9d0     update.obj
 0003:00002a00       ??_R0?AVSfxUpdateStream@@@8 00000000640cba00     update.obj
 0003:00002a28       ??_R0?AVSimpleUpdateStream@@@8 00000000640cba28     update.obj
 0003:00002a58       ??_R0?AVUpdateStream@@@8   00000000640cba58     update.obj
 0003:00002a80       ??_R0?AVArchiveUpdateProgress@@@8 00000000640cba80     update.obj
 0003:00002ab0       ??_R0?AU_RTL_CRITICAL_SECTION@@@8 00000000640cbab0     update.obj
 0003:00002ae0       ??_R0?AVCriticalSection@@@8 00000000640cbae0     update.obj
 0003:00002b08       ??_R0?AUICryptoGetTextPassword2@@@8 00000000640cbb08     update.obj
 0003:00002b38       ??_R0?AUIArchiveUpdateCallback@@@8 00000000640cbb38     update.obj
 0003:00002b68       ??_R0?AUIOutStream@@@8     00000000640cbb68     update.obj
 0003:00002b90       ??_R0?AV?$_Ref_count@VArchiveFileDeleterProgress@@@tr1@std@@@8 00000000640cbb90     delete.obj
 0003:00002be0       ??_R0?AVArchiveFileDeleter@@@8 00000000640cbbe0     delete.obj
 0003:00002c10       ??_R0?AVArchiveFileDeleterStream@@@8 00000000640cbc10     delete.obj
 0003:00002c40       ??_R0?AVArchiveFileDeleterProgress@@@8 00000000640cbc40     delete.obj
 0003:00002c78       ??_R0?AVArchiveTester@@@8  00000000640cbc78     test.obj
 0003:00002ca0       ??_R0?AVSfxOptionsDialog@@@8 00000000640cbca0     sfx.obj
 0003:00002cc8       ??_R0?AVAttachSfxModuleProgress@@@8 00000000640cbcc8     sfx.obj
 0003:00002cf8       _fltused                   00000000640cbcf8     LIBCMT:_fpinit_.obj
 0003:00002cfc       _ldused                    00000000640cbcfc     LIBCMT:_fpinit_.obj
 0003:00002d30       _pow10pos                  00000000640cbd30     LIBCMT:_constpow_.obj
 0003:00002e90       _pow10neg                  00000000640cbe90     LIBCMT:_constpow_.obj
 0003:00003000       ?_Index@ios_base@std@@0HA  00000000640cc000     libcpmt:ios.obj
 0003:00003128       ?_Clocptr@_Locimp@locale@std@@0PEAV123@EA 00000000640cc128     libcpmt:locale0.obj
 0003:00003130       ?_Id_cnt@id@locale@std@@0HA 00000000640cc130     libcpmt:locale0.obj
 0003:00003138       ?id@?$codecvt@GDH@std@@2V0locale@2@A 00000000640cc138     libcpmt:locale0.obj
 0003:00003140       ?id@?$ctype@D@std@@2V0locale@2@A 00000000640cc140     libcpmt:locale0.obj
 0003:00003148       ?id@?$codecvt@_WDH@std@@2V0locale@2@A 00000000640cc148     libcpmt:locale0.obj
 0003:00003158       ?id@?$ctype@G@std@@2V0locale@2@A 00000000640cc158     libcpmt:locale0.obj
 0003:00003160       ?id@?$ctype@_W@std@@2V0locale@2@A 00000000640cc160     libcpmt:locale0.obj
 0003:00003360       ?_Ptr_cin@std@@3PEAV?$basic_istream@DU?$char_traits@D@std@@@1@EA 00000000640cc360     libcpmt:iosptrs.obj
 0003:00003368       ?_Ptr_cout@std@@3PEAV?$basic_ostream@DU?$char_traits@D@std@@@1@EA 00000000640cc368     libcpmt:iosptrs.obj
 0003:00003370       ?_Ptr_cerr@std@@3PEAV?$basic_ostream@DU?$char_traits@D@std@@@1@EA 00000000640cc370     libcpmt:iosptrs.obj
 0003:00003378       ?_Ptr_clog@std@@3PEAV?$basic_ostream@DU?$char_traits@D@std@@@1@EA 00000000640cc378     libcpmt:iosptrs.obj
 0003:00003380       ?_Ptr_wcin@std@@3PEAV?$basic_istream@_WU?$char_traits@_W@std@@@1@EA 00000000640cc380     libcpmt:iosptrs.obj
 0003:00003388       ?_Ptr_wcout@std@@3PEAV?$basic_ostream@_WU?$char_traits@_W@std@@@1@EA 00000000640cc388     libcpmt:iosptrs.obj
 0003:00003390       ?_Ptr_wcerr@std@@3PEAV?$basic_ostream@_WU?$char_traits@_W@std@@@1@EA 00000000640cc390     libcpmt:iosptrs.obj
 0003:00003398       ?_Ptr_wclog@std@@3PEAV?$basic_ostream@_WU?$char_traits@_W@std@@@1@EA 00000000640cc398     libcpmt:iosptrs.obj
 0003:00003418       ?__type_info_root_node@@3U__type_info_node@@A 00000000640cc418     LIBCMT:tncleanup.obj
 0003:00003428       __lconv_static_null        00000000640cc428     LIBCMT:lconv.obj
 0003:0000342c       __lconv_static_W_null      00000000640cc42c     LIBCMT:lconv.obj
 0003:00003430       _crtheap                   00000000640cc430     LIBCMT:heapinit.obj
 0003:0000343c       __error_mode               00000000640cc43c     LIBCMT:dllcrt0.obj
 0003:00003440       _aenvptr                   00000000640cc440     LIBCMT:dllcrt0.obj
 0003:00003448       _wenvptr                   00000000640cc448     LIBCMT:dllcrt0.obj
 0003:00003450       __app_type                 00000000640cc450     LIBCMT:dllcrt0.obj
 0003:00003454       __locale_changed           00000000640cc454     LIBCMT:setlocal.obj
 0003:00003458       _maxwait                   00000000640cc458     LIBCMT:crtheap.obj
 0003:000039e0       ?_pnhHeap@@3P6AH_K@ZEA     00000000640cc9e0     LIBCMT:handler.obj
 0003:000039e8       _umaskval                  00000000640cc9e8     LIBCMT:crt0dat.obj
 0003:000039ec       __argc                     00000000640cc9ec     LIBCMT:crt0dat.obj
 0003:000039f0       __argv                     00000000640cc9f0     LIBCMT:crt0dat.obj
 0003:000039f8       __wargv                    00000000640cc9f8     LIBCMT:crt0dat.obj
 0003:00003a00       _environ                   00000000640cca00     LIBCMT:crt0dat.obj
 0003:00003a08       __initenv                  00000000640cca08     LIBCMT:crt0dat.obj
 0003:00003a10       _wenviron                  00000000640cca10     LIBCMT:crt0dat.obj
 0003:00003a18       __winitenv                 00000000640cca18     LIBCMT:crt0dat.obj
 0003:00003a20       _pgmptr                    00000000640cca20     LIBCMT:crt0dat.obj
 0003:00003a28       _wpgmptr                   00000000640cca28     LIBCMT:crt0dat.obj
 0003:00003a30       _exitflag                  00000000640cca30     LIBCMT:crt0dat.obj
 0003:00003a34       _C_Termination_Done        00000000640cca34     LIBCMT:crt0dat.obj
 0003:00003a38       _C_Exit_Done               00000000640cca38     LIBCMT:crt0dat.obj
 0003:00004068       __pPurecall                00000000640cd068     LIBCMT:inithelp.obj
 0003:00004070       ?__pInconsistency@@3P6AXXZEA 00000000640cd070     LIBCMT:hooks.obj
 0003:00004080       __mbulinfo                 00000000640cd080     LIBCMT:mbctype.obj
 0003:0000408c       __mbcodepage               00000000640cd08c     LIBCMT:mbctype.obj
 0003:00004090       __ismbcodepage             00000000640cd090     LIBCMT:mbctype.obj
 0003:00004094       __mblcid                   00000000640cd094     LIBCMT:mbctype.obj
 0003:00004098       __pInvalidArgHandler       00000000640cd098     LIBCMT:invarg.obj
 0003:000043e0       _newmode                   00000000640cd3e0     LIBCMT:_newmode.obj
 0003:00004410       ?pArgList@UnDecorator@@0PEAVReplicator@@EA 00000000640cd410     LIBCMT:undname.obj
 0003:00004440       ?pZNameList@UnDecorator@@0PEAVReplicator@@EA 00000000640cd440     LIBCMT:undname.obj
 0003:00004448       ?pTemplateArgList@UnDecorator@@0PEAVReplicator@@EA 00000000640cd448     LIBCMT:undname.obj
 0003:00004450       ?gName@UnDecorator@@0PEBDEB 00000000640cd450     LIBCMT:undname.obj
 0003:00004458       ?name@UnDecorator@@0PEBDEB 00000000640cd458     LIBCMT:undname.obj
 0003:00004460       ?outputString@UnDecorator@@0PEADEA 00000000640cd460     LIBCMT:undname.obj
 0003:00004468       ?maxStringLength@UnDecorator@@0HA 00000000640cd468     LIBCMT:undname.obj
 0003:0000446c       ?disableFlags@UnDecorator@@0KA 00000000640cd46c     LIBCMT:undname.obj
 0003:00004470       ?m_pGetParameter@UnDecorator@@0P6APEADJ@ZEA 00000000640cd470     LIBCMT:undname.obj
 0003:00004478       ?fExplicitTemplateParams@UnDecorator@@0_NA 00000000640cd478     LIBCMT:undname.obj
 0003:00004479       ?fGetTemplateArgumentList@UnDecorator@@0_NA 00000000640cd479     LIBCMT:undname.obj
 0003:00004480       ?nodes@?1??make@DNameStatusNode@@SAPEAV2@W4DNameStatus@@@Z@4PAV2@A 00000000640cd480     LIBCMT:undname.obj
 0003:000044c0       ??_B?1??make@DNameStatusNode@@SAPEAV1@W4DNameStatus@@@Z@51 00000000640cd4c0     LIBCMT:undname.obj
 0003:000044f8       _cflush                    00000000640cd4f8     LIBCMT:_file.obj
 0003:00004508       _stdbuf                    00000000640cd508     LIBCMT:_sftbuf.obj
 0003:00004520       ?max_check_size@Archive@@2IA 00000000640cd520     archive.obj
 0003:00004524       __@@_PchSym_@00@UhixUkoftrmhUzixorgvUurmzoOGEdOexUsvzwvihOlyq@ 00000000640cd524     headers.obj
 0003:00004530       ?g_fsf@Far@@3UFarStandardFunctions@@A 00000000640cd530     farutils.obj
 0003:000046b0       ?g_far@Far@@3UPluginStartupInfo@@A 00000000640cd6b0     farutils.obj
 0003:000047c0       ?arc_api@ArcAPI@@0PEAV1@EA 00000000640cd7c0     archive.obj
 0003:000047c8       ?c_7z@@3V?$vector@EV?$allocator@E@std@@@std@@B 00000000640cd7c8     archive.obj
 0003:000047e8       ?c_zip@@3V?$vector@EV?$allocator@E@std@@@std@@B 00000000640cd7e8     archive.obj
 0003:00004808       ?c_bzip2@@3V?$vector@EV?$allocator@E@std@@@std@@B 00000000640cd808     archive.obj
 0003:00004828       ?c_gzip@@3V?$vector@EV?$allocator@E@std@@@std@@B 00000000640cd828     archive.obj
 0003:00004848       ?c_xz@@3V?$vector@EV?$allocator@E@std@@@std@@B 00000000640cd848     archive.obj
 0003:00004868       ?c_iso@@3V?$vector@EV?$allocator@E@std@@@std@@B 00000000640cd868     archive.obj
 0003:00004888       ?c_udf@@3V?$vector@EV?$allocator@E@std@@@std@@B 00000000640cd888     archive.obj
 0003:000048a8       ?c_rar@@3V?$vector@EV?$allocator@E@std@@@std@@B 00000000640cd8a8     archive.obj
 0003:000048c8       ?c_split@@3V?$vector@EV?$allocator@E@std@@@std@@B 00000000640cd8c8     archive.obj
 0003:000048e8       ?c_wim@@3V?$vector@EV?$allocator@E@std@@@std@@B 00000000640cd8e8     archive.obj
 0003:00004908       ?c_tar@@3V?$vector@EV?$allocator@E@std@@@std@@B 00000000640cd908     archive.obj
 0003:00004930       ?g_options@@3UOptions@@A   00000000640cd930     options.obj
 0003:00004d50       ?g_profiles@@3UUpdateProfiles@@A 00000000640cdd50     options.obj
 0003:00004d70       ?g_com_error@@3UError@@A   00000000640cdd70     common.obj
 0003:00004da0       ?_Psave@?$_Facetptr@V?$num_put@_WV?$ostreambuf_iterator@_WU?$char_traits@_W@std@@@std@@@std@@@std@@2PEBVfacet@locale@2@EB 00000000640cdda0     ui.obj
 0003:00004da8       ?_Psave@?$_Facetptr@V?$numpunct@_W@std@@@std@@2PEBVfacet@locale@2@EB 00000000640cdda8     ui.obj
 0003:00004db0       ?_Psave@?$_Facetptr@V?$ctype@_W@std@@@std@@2PEBVfacet@locale@2@EB 00000000640cddb0     ui.obj
 0003:00004ff0       ?id@?$numpunct@_W@std@@2V0locale@2@A 00000000640cdff0     ui.obj
 0003:00004ff8       ?id@?$num_put@_WV?$ostreambuf_iterator@_WU?$char_traits@_W@std@@@std@@@std@@2V0locale@2@A 00000000640cdff8     ui.obj
 0003:00005000       __fastflag                 00000000640ce000     LIBCMT:_fpinit_.obj
 0003:00005004       _outputformat              00000000640ce004     LIBCMT:outputformat.obj
 0003:00005008       __piob                     00000000640ce008     <common>
 0003:00005020       _bufin                     00000000640ce020     <common>
 0003:00006020       _nstream                   00000000640cf020     <common>
 0003:00006024       _debugger_hook_dummy       00000000640cf024     <common>
 0003:00006028       _nhandle                   00000000640cf028     <common>
 0003:00006040       __pioinfo                  00000000640cf040     <common>
 0003:00006240       __env_initialized          00000000640cf240     <common>
 0003:00006248       __onexitend                00000000640cf248     <common>
 0003:00006250       __onexitbegin              00000000640cf250     <common>
 0003:00006258       __mbctype_initialized      00000000640cf258     <common>
 0003:00006260       __dyn_tls_init_callback    00000000640cf260     <common>
 0003:00006268       _acmdln                    00000000640cf268     <common>

 entry point at        0001:00072210

 Static symbols

 0001:00002530       ?ParseSignatures@@YA_NPEBE_KAEAV?$vector@V?$vector@EV?$allocator@E@std@@@std@@V?$allocator@V?$vector@EV?$allocator@E@std@@@std@@@2@@std@@@Z 0000000064003530 f    CIL library: CIL module
 0001:00018690       ?get@PluginPanelItems@?1??get_files@Plugin@@QEAAXPEBUPluginPanelItem@@_JHPEAPEB_W_K@Z@UEBAPEBU4@3@Z 0000000064019690 f    CIL library: CIL module
 0001:000186a0       ?size@PluginPanelItems@?1??get_files@Plugin@@QEAAXPEBUPluginPanelItem@@_JHPEAPEB_W_K@Z@UEBA_KXZ 00000000640196a0 f    CIL library: CIL module
 0001:000186b0       ??0PluginPanelItems@?1??extract@Plugin@@QEAAXXZ@QEAA@PEAX@Z 00000000640196b0 f    CIL library: CIL module
 0001:000187d0       ?get@PluginPanelItems@?1??extract@Plugin@@QEAAXXZ@UEBAPEBUPluginPanelItem@@_K@Z 00000000640197d0 f    CIL library: CIL module
 0001:00018800       ?size@PluginPanelItems@?1??extract@Plugin@@QEAAXXZ@UEBA_KXZ 0000000064019800 f    CIL library: CIL module
 0001:0002a050       ??RItemCompare@?1??show@MultiSelectDialog@@QEAA_NXZ@QEBA_NAEBV?$basic_string@_WU?$char_traits@_W@std@@V?$allocator@_W@2@@std@@0@Z 000000006402b050 f    CIL library: CIL module
 0001:00070294       tidy_global                0000000064071294 f   libcpmt:locale0.obj
 0001:00070614       _CreateLocForCP            0000000064071614 f   libcpmt:xmbtowc.obj
