 Compare

 Timestamp is 56219f3a (Sat Oct 17 04:07:06 2015)

 Preferred load address is 10000000

 Start         Length     Name                   Class
 0001:00000000 00000050H .idata$5                CODE
 0001:00000050 00000342H .rdata                  CODE
 0001:000003a0 00002b75H .text                   CODE
 0001:00002f18 00000014H .idata$2                CODE
 0001:00002f2c 00000014H .idata$3                CODE
 0001:00002f40 00000050H .idata$4                CODE
 0001:00002f90 0000012cH .idata$6                CODE
 0001:000030c0 00000090H .edata                  CODE
 0002:00000000 00000258H .data                   DATA
 0002:00000258 000001bcH .bss                    DATA
 0003:00000000 00000058H .rsrc$01                DATA
 0003:00000060 00000380H .rsrc$02                DATA

  Address         Publics by Value              Rva+Base       Lib:Object

 0000:00000000       ___safe_se_handler_count   00000000     <absolute>
 0000:00000000       ___safe_se_handler_table   00000000     <absolute>
 0001:00000000       __imp__lstrlenW@4          10001000     kernel32:KERNEL32.dll
 0001:00000004       __imp__ReadConsoleInputW@16 10001004     kernel32:KERNEL32.dll
 0001:00000008       __imp__PeekConsoleInputW@16 10001008     kernel32:KERNEL32.dll
 0001:0000000c       __imp__GetTickCount@0      1000100c     kernel32:KERNEL32.dll
 0001:00000010       __imp__lstrcatW@8          10001010     kernel32:KERNEL32.dll
 0001:00000014       __imp__lstrcpyW@8          10001014     kernel32:KERNEL32.dll
 0001:00000018       __imp__lstrcmpW@8          10001018     kernel32:KERNEL32.dll
 0001:0000001c       __imp__FindClose@4         1000101c     kernel32:KERNEL32.dll
 0001:00000020       __imp__FindNextFileW@8     10001020     kernel32:KERNEL32.dll
 0001:00000024       __imp__FindFirstFileW@8    10001024     kernel32:KERNEL32.dll
 0001:00000028       __imp__ReadFile@20         10001028     kernel32:KERNEL32.dll
 0001:0000002c       __imp__CloseHandle@4       1000102c     kernel32:KERNEL32.dll
 0001:00000030       __imp__CreateFileW@28      10001030     kernel32:KERNEL32.dll
 0001:00000034       __imp__SetConsoleTitleW@4  10001034     kernel32:KERNEL32.dll
 0001:00000038       __imp__GetConsoleTitleW@8  10001038     kernel32:KERNEL32.dll
 0001:0000003c       __imp__HeapAlloc@12        1000103c     kernel32:KERNEL32.dll
 0001:00000040       __imp__HeapReAlloc@16      10001040     kernel32:KERNEL32.dll
 0001:00000044       __imp__HeapFree@12         10001044     kernel32:KERNEL32.dll
 0001:00000048       __imp__GetProcessHeap@0    10001048     kernel32:KERNEL32.dll
 0001:0000004c       \177KERNEL32_NULL_THUNK_DATA 1000104c     kernel32:KERNEL32.dll
 0001:00000060       _MainGuid                  10001060     Compare.obj
 0001:00000070       _MenuGuid                  10001070     Compare.obj
 0001:00000080       _DialogGuid                10001080     Compare.obj
 0001:00000090       ??_C@_1BG@EEJFCAOO@?$AAS?$AAh?$AAo?$AAw?$AAH?$AAi?$AAd?$AAd?$AAe?$AAn?$AA?$AA@ 10001090     Compare.obj
 0001:000000a8       ??_C@_1BC@ENICKDH@?$AAC?$AAo?$AAn?$AAt?$AAe?$AAn?$AAt?$AAs?$AA?$AA@ 100010a8     Compare.obj
 0001:000000bc       ??_C@_11LOCGONAA@?$AA?$AA@ 100010bc     Compare.obj
 0001:000000c0       ??_C@_1M@KNJIDFOP@?$AA9?$AA9?$AA9?$AA9?$AA9?$AA?$AA@ 100010c0     Compare.obj
 0001:000000cc       ??_C@_1CE@FBOAEKEI@?$AAP?$AAr?$AAo?$AAc?$AAe?$AAs?$AAs?$AAS?$AAu?$AAb?$AAf?$AAo?$AAl?$AAd?$AAe?$AAr?$AAs?$AA?$AA@ 100010cc     Compare.obj
 0001:000000f0       ??_C@_1CA@KJDAALFO@?$AAU?$AAs?$AAe?$AAM?$AAa?$AAx?$AAS?$AAc?$AAa?$AAn?$AAD?$AAe?$AAp?$AAt?$AAh?$AA?$AA@ 100010f0     Compare.obj
 0001:00000110       ??_C@_1BK@GGEMFANC@?$AAM?$AAa?$AAx?$AAS?$AAc?$AAa?$AAn?$AAD?$AAe?$AAp?$AAt?$AAh?$AA?$AA@ 10001110     Compare.obj
 0001:0000012c       ??_C@_1CA@MDABALAC@?$AAP?$AAr?$AAo?$AAc?$AAe?$AAs?$AAs?$AAS?$AAe?$AAl?$AAe?$AAc?$AAt?$AAe?$AAd?$AA?$AA@ 1000112c     Compare.obj
 0001:0000014c       ??_C@_1BI@HJKFLAP@?$AAC?$AAo?$AAm?$AAp?$AAa?$AAr?$AAe?$AAT?$AAi?$AAm?$AAe?$AA?$AA@ 1000114c     Compare.obj
 0001:00000164       ??_C@_1CC@GIIFACBC@?$AAL?$AAo?$AAw?$AAP?$AAr?$AAe?$AAc?$AAi?$AAs?$AAi?$AAo?$AAn?$AAT?$AAi?$AAm?$AAe?$AA?$AA@ 10001164     Compare.obj
 0001:00000188       ??_C@_1EE@EFHMKIOD@?$AAI?$AAg?$AAn?$AAo?$AAr?$AAe?$AAP?$AAo?$AAs?$AAs?$AAi?$AAb?$AAl?$AAe?$AAT?$AAi?$AAm?$AAe?$AAZ?$AAo?$AAn?$AAe?$AAD?$AAi?$AAf?$AAf?$AAe?$AAr?$AAe?$AAn?$AAc?$AAe@ 10001188     Compare.obj
 0001:000001cc       ??_C@_1BI@PLJFHCFF@?$AAC?$AAo?$AAm?$AAp?$AAa?$AAr?$AAe?$AAS?$AAi?$AAz?$AAe?$AA?$AA@ 100011cc     Compare.obj
 0001:000001e4       ??_C@_1CA@JKHJMABM@?$AAC?$AAo?$AAm?$AAp?$AAa?$AAr?$AAe?$AAC?$AAo?$AAn?$AAt?$AAe?$AAn?$AAt?$AAs?$AA?$AA@ 100011e4     Compare.obj
 0001:00000204       ??_C@_1CM@MCIOEKOG@?$AAC?$AAo?$AAm?$AAp?$AAa?$AAr?$AAe?$AAC?$AAo?$AAn?$AAt?$AAe?$AAn?$AAt?$AAs?$AAI?$AAg?$AAn?$AAo?$AAr?$AAe?$AA?$AA@ 10001204     Compare.obj
 0001:00000230       ??_C@_1BO@PEKJDKMD@?$AAI?$AAg?$AAn?$AAo?$AAr?$AAe?$AAN?$AAe?$AAw?$AAL?$AAi?$AAn?$AAe?$AAs?$AA?$AA@ 10001230     Compare.obj
 0001:00000250       ??_C@_1CC@EJJKPBBK@?$AAI?$AAg?$AAn?$AAo?$AAr?$AAe?$AAW?$AAh?$AAi?$AAt?$AAe?$AAs?$AAp?$AAa?$AAc?$AAe?$AA?$AA@ 10001250     Compare.obj
 0001:00000274       ??_C@_1CE@FJPIMCHB@?$AAM?$AAe?$AAs?$AAs?$AAa?$AAg?$AAe?$AAW?$AAh?$AAe?$AAn?$AAN?$AAo?$AAD?$AAi?$AAf?$AAf?$AA?$AA@ 10001274     Compare.obj
 0001:00000298       ??_C@_17FPIFMLJN@?$AAE?$AAs?$AAc?$AA?$AA@ 10001298     Compare.obj
 0001:000002a0       ??_C@_19MJCDBCKE@?$AA?2?$AA?2?$AA?$DP?$AA?2?$AA?$AA@ 100012a0     Compare.obj
 0001:000002ac       ??_C@_13JOFGPIOO@?$AA?4?$AA?$AA@ 100012ac     Compare.obj
 0001:000002b0       ??_C@_15DDHGOCBH@?$AA?4?$AA?4?$AA?$AA@ 100012b0     Compare.obj
 0001:000002b8       ??_C@_1DE@BGKMIKPD@?$AAE?$AAu?$AAg?$AAe?$AAn?$AAe?$AA?5?$AAR?$AAo?$AAs?$AAh?$AAa?$AAl?$AA?5?$AA?$CG?$AA?5?$AAF?$AAa?$AAr?$AA?5?$AAG?$AAr?$AAo?$AAu?$AAp?$AA?$AA@ 100012b8     Compare.obj
 0001:000002f0       ??_C@_1EM@KDLPMJGE@?$AAA?$AAd?$AAv?$AAa?$AAn?$AAc?$AAe?$AAd?$AA?5?$AAF?$AAi?$AAl?$AAe?$AA?5?$AAC?$AAo?$AAm?$AAp?$AAa?$AAr?$AAe?$AA?5?$AAf?$AAo?$AAr?$AA?5?$AAF?$AAa?$AAr?$AA?5?$AAM?$AAa@ 100012f0     Compare.obj
 0001:0000033c       ??_C@_1BA@NIFMCONN@?$AAC?$AAo?$AAm?$AAp?$AAa?$AAr?$AAe?$AA?$AA@ 1000133c     Compare.obj
 0001:0000034c       ??_C@_17LGKOMLJ@?$AA?4?$AA?4?$AA?4?$AA?$AA@ 1000134c     Compare.obj
 0001:00000354       ??_C@_15PKPONJIK@?$AA?2?$AA?$CK?$AA?$AA@ 10001354     Compare.obj
 0001:0000035c       ??_C@_13BBDEGPLJ@?$AA?$CK?$AA?$AA@ 1000135c     Compare.obj
 0001:00000360       ??_C@_1CE@FMMDKAAJ@?$AAC?$AAo?$AAm?$AAp?$AAa?$AAr?$AAe?$AAB?$AAu?$AAf?$AAf?$AAe?$AAr?$AAS?$AAi?$AAz?$AAe?$AA?$AA@ 10001360     Compare.obj
 0001:00000384       ??_C@_1O@PNMIMBDD@?$AAC?$AAO?$AAN?$AAI?$AAN?$AA$?$AA?$AA@ 10001384     Compare.obj
 0001:000003a0       __chkstk                   100013a0 f   chkstk.obj
 0001:000003a0       __alloca_probe             100013a0     chkstk.obj
 0001:000003d0       ??0SimpleString@@QAE@PB_WI@Z 100013d0 f i Compare.obj
 0001:00000450       ?Inflate@SimpleString@@QAEXI@Z 10001450 f i Compare.obj
 0001:000005f0       ?ShowDialogProc@@YGHPAXHH0@Z 100015f0 f   Compare.obj
 0001:00000e70       ?BuildName@FileName@@QAEPB_WPB_W0@Z 10001e70 f i Compare.obj
 0001:00001130       ?isnewline@@YA_NH@Z        10002130 f   Compare.obj
 0001:00001150       _GetGlobalInfoW@4          10002150 f   Compare.obj
 0001:000011d0       _SetStartupInfoW@4         100021d0 f   Compare.obj
 0001:00001200       _GetPluginInfoW@4          10002200 f   Compare.obj
 0001:00001240       ?GetPanelItem@@YAXPAXW4FILE_CONTROL_COMMANDS@@HPAUPluginPanelItem@@@Z 10002240 f   Compare.obj
 0001:000012e0       ?FreePanelItems@@YAXAAUOwnPanelInfo@@0@Z 100022e0 f   Compare.obj
 0001:000013e0       ?Replace@SimpleString@@QAEAAV1@IIPB_WI@Z 100023e0 f i Compare.obj
 0001:00001850       ??0SimpleString@@QAE@PB_W@Z 10002850 f i Compare.obj
 0001:00002510       _OpenW@4                   10003510 f   Compare.obj
 0001:00002d30       _memcpy                    10003d30 f   libCRT:memcpy.obj
 0001:00002d60       _memmove                   10003d60 f   libCRT:memmove.obj
 0001:00002db0       _realloc                   10003db0 f   libCRT:realloc.obj
 0001:00002e00       _free                      10003e00 f   libCRT:free.obj
 0001:00002e20       _wcsdup                    10003e20 f   libCRT:strdup.obj
 0001:00002e50       _memset                    10003e50 f   libCRT:memset.obj
 0001:00002e90       _wcschr                    10003e90 f   libCRT:strchr.obj
 0001:00002ec0       ??_V@YAXPAX@Z              10003ec0 f   libCRT:delete_array.obj
 0001:00002ed0       ??_U@YAPAXI@Z              10003ed0 f   libCRT:new_array.obj
 0001:00002ee0       _malloc                    10003ee0 f   libCRT:malloc.obj
 0001:00002f00       ??3@YAXPAX@Z               10003f00 f   libCRT:delete.obj
 0001:00002f10       ??2@YAPAXI@Z               10003f10 f   libCRT:new.obj
 0001:00002f18       __IMPORT_DESCRIPTOR_KERNEL32 10003f18     kernel32:KERNEL32.dll
 0001:00002f2c       __NULL_IMPORT_DESCRIPTOR   10003f2c     kernel32:KERNEL32.dll
 0002:000003c0       ?Opt@@3UOptions@@A         100053c0     Compare.obj

 entry point at        0000:00000000

 Static symbols

 0001:000004c0       ?WFD2FFD@@YAXAAU_WIN32_FIND_DATAW@@AAUPluginPanelItem@@@Z 100014c0 f   Compare.obj
 0001:00000530       ?GetSetting@@YA_JW4FARSETTINGS_SUBFOLDERS@@PB_W@Z 10001530 f   Compare.obj
 0001:00000730       ?ShowDialog@@YA_N_N0@Z     10001730 f   Compare.obj
 0001:00000d20       ?CheckForEsc@@YA_NXZ       10001d20 f   Compare.obj
 0001:00000f40       ?PICompare@@YGHPBX0PAX@Z   10001f40 f   Compare.obj
 0001:00000f80       ?BuildPanelIndex@@YA_NPBUOwnPanelInfo@@PAUFileIndex@@PAX@Z 10001f80 f   Compare.obj
 0001:000010e0       ?FreeDirList@@YAXPAUOwnPanelInfo@@@Z 100020e0 f   Compare.obj
 0001:000014f0       ?SplitCopy@@YAHQAPA_WHPA_WPB_W@Z 100024f0 f   Compare.obj
 0001:000016c0       ?ShowMessage@@YAXPB_W0@Z   100026c0 f   Compare.obj
 0001:000018e0       ?GetDirList@@YAHPAUOwnPanelInfo@@PB_W@Z 100028e0 f   Compare.obj
 0001:00001a10       ?CompareFiles@@YA_NPBUPluginPanelItem@@0PB_W1H@Z 10002a10 f   Compare.obj
 0001:000021a0       ?CompareDirs@@YA_NPBUOwnPanelInfo@@0_NH@Z 100031a0 f   Compare.obj
