 Brackets

 Timestamp is 56107bbc (Sun Oct 04 04:07:08 2015)

 Preferred load address is 10000000

 Start         Length     Name                   Class
 0001:00000000 000000f0H .idata$5                CODE
 0001:000000f0 00000004H .CRT$XCA                CODE
 0001:000000f4 00000004H .CRT$XCZ                CODE
 0001:000000f8 00000004H .CRT$XIA                CODE
 0001:000000fc 0000000cH .CRT$XIC                CODE
 0001:00000108 00000004H .CRT$XIZ                CODE
 0001:0000010c 00000004H .CRT$XPA                CODE
 0001:00000110 00000004H .CRT$XPZ                CODE
 0001:00000114 00000004H .CRT$XTA                CODE
 0001:00000118 00000004H .CRT$XTZ                CODE
 0001:00000120 00002270H .rdata                  CODE
 0001:00002390 000000dcH .rdata$r                CODE
 0001:00002470 0000000cH .rdata$sxdata           CODE
 0001:0000247c 00000004H .rtc$IAA                CODE
 0001:00002480 00000004H .rtc$IZZ                CODE
 0001:00002484 00000004H .rtc$TAA                CODE
 0001:00002488 00000004H .rtc$TZZ                CODE
 0001:00002490 00007048H .text                   CODE
 0001:000094d8 00000014H .text$yd                CODE
 0001:000094f0 00000224H .xdata$x                CODE
 0001:00009714 00000028H .idata$2                CODE
 0001:0000973c 00000014H .idata$3                CODE
 0001:00009750 000000f0H .idata$4                CODE
 0001:00009840 0000043aH .idata$6                CODE
 0001:00009c80 000000a6H .edata                  CODE
 0002:00000000 00000bb0H .data                   DATA
 0002:00000bc0 00000f60H .bss                    DATA
 0003:00000000 00000058H .rsrc$01                DATA
 0003:00000060 00000380H .rsrc$02                DATA

  Address         Publics by Value              Rva+Base       Lib:Object

 0000:00000000       __except_list              00000000     <absolute>
 0000:00000003       ___safe_se_handler_count   00000003     <absolute>
 0000:00000000       ___ImageBase               10000000     <linker-defined>
 0001:00000000       __imp__lstrcpynW@12        10001000     kernel32:KERNEL32.dll
 0001:00000004       __imp__lstrlenW@4          10001004     kernel32:KERNEL32.dll
 0001:00000008       __imp__lstrcmpiW@8         10001008     kernel32:KERNEL32.dll
 0001:0000000c       __imp__GetModuleHandleW@4  1000100c     kernel32:KERNEL32.dll
 0001:00000010       __imp__SetLastError@4      10001010     kernel32:KERNEL32.dll
 0001:00000014       __imp__GetProcAddress@8    10001014     kernel32:KERNEL32.dll
 0001:00000018       __imp__GetCurrentThreadId@0 10001018     kernel32:KERNEL32.dll
 0001:0000001c       __imp__GetCommandLineA@0   1000101c     kernel32:KERNEL32.dll
 0001:00000020       __imp__GetLastError@0      10001020     kernel32:KERNEL32.dll
 0001:00000024       __imp__HeapFree@12         10001024     kernel32:KERNEL32.dll
 0001:00000028       __imp__IsProcessorFeaturePresent@4 10001028     kernel32:KERNEL32.dll
 0001:0000002c       __imp__HeapAlloc@12        1000102c     kernel32:KERNEL32.dll
 0001:00000030       __imp__RaiseException@16   10001030     kernel32:KERNEL32.dll
 0001:00000034       __imp__TlsAlloc@0          10001034     kernel32:KERNEL32.dll
 0001:00000038       __imp__TlsGetValue@4       10001038     kernel32:KERNEL32.dll
 0001:0000003c       __imp__TlsSetValue@8       1000103c     kernel32:KERNEL32.dll
 0001:00000040       __imp__TlsFree@4           10001040     kernel32:KERNEL32.dll
 0001:00000044       __imp__InterlockedIncrement@4 10001044     kernel32:KERNEL32.dll
 0001:00000048       __imp__InterlockedDecrement@4 10001048     kernel32:KERNEL32.dll
 0001:0000004c       __imp__Sleep@4             1000104c     kernel32:KERNEL32.dll
 0001:00000050       __imp__ExitProcess@4       10001050     kernel32:KERNEL32.dll
 0001:00000054       __imp__SetHandleCount@4    10001054     kernel32:KERNEL32.dll
 0001:00000058       __imp__GetStdHandle@4      10001058     kernel32:KERNEL32.dll
 0001:0000005c       __imp__InitializeCriticalSectionAndSpinCount@8 1000105c     kernel32:KERNEL32.dll
 0001:00000060       __imp__GetFileType@4       10001060     kernel32:KERNEL32.dll
 0001:00000064       __imp__GetStartupInfoW@4   10001064     kernel32:KERNEL32.dll
 0001:00000068       __imp__DeleteCriticalSection@4 10001068     kernel32:KERNEL32.dll
 0001:0000006c       __imp__GetModuleFileNameA@12 1000106c     kernel32:KERNEL32.dll
 0001:00000070       __imp__FreeEnvironmentStringsW@4 10001070     kernel32:KERNEL32.dll
 0001:00000074       __imp__WideCharToMultiByte@32 10001074     kernel32:KERNEL32.dll
 0001:00000078       __imp__GetEnvironmentStringsW@0 10001078     kernel32:KERNEL32.dll
 0001:0000007c       __imp__HeapCreate@12       1000107c     kernel32:KERNEL32.dll
 0001:00000080       __imp__HeapDestroy@4       10001080     kernel32:KERNEL32.dll
 0001:00000084       __imp__QueryPerformanceCounter@4 10001084     kernel32:KERNEL32.dll
 0001:00000088       __imp__GetTickCount@0      10001088     kernel32:KERNEL32.dll
 0001:0000008c       __imp__GetCurrentProcessId@0 1000108c     kernel32:KERNEL32.dll
 0001:00000090       __imp__GetSystemTimeAsFileTime@4 10001090     kernel32:KERNEL32.dll
 0001:00000094       __imp__HeapSize@12         10001094     kernel32:KERNEL32.dll
 0001:00000098       __imp__WriteFile@20        10001098     kernel32:KERNEL32.dll
 0001:0000009c       __imp__GetModuleFileNameW@12 1000109c     kernel32:KERNEL32.dll
 0001:000000a0       __imp__LeaveCriticalSection@4 100010a0     kernel32:KERNEL32.dll
 0001:000000a4       __imp__EnterCriticalSection@4 100010a4     kernel32:KERNEL32.dll
 0001:000000a8       __imp__GetCPInfo@8         100010a8     kernel32:KERNEL32.dll
 0001:000000ac       __imp__GetACP@0            100010ac     kernel32:KERNEL32.dll
 0001:000000b0       __imp__GetOEMCP@0          100010b0     kernel32:KERNEL32.dll
 0001:000000b4       __imp__IsValidCodePage@4   100010b4     kernel32:KERNEL32.dll
 0001:000000b8       __imp__HeapReAlloc@16      100010b8     kernel32:KERNEL32.dll
 0001:000000bc       __imp__LoadLibraryW@4      100010bc     kernel32:KERNEL32.dll
 0001:000000c0       __imp__UnhandledExceptionFilter@4 100010c0     kernel32:KERNEL32.dll
 0001:000000c4       __imp__SetUnhandledExceptionFilter@4 100010c4     kernel32:KERNEL32.dll
 0001:000000c8       __imp__IsDebuggerPresent@0 100010c8     kernel32:KERNEL32.dll
 0001:000000cc       __imp__TerminateProcess@8  100010cc     kernel32:KERNEL32.dll
 0001:000000d0       __imp__GetCurrentProcess@0 100010d0     kernel32:KERNEL32.dll
 0001:000000d4       __imp__RtlUnwind@16        100010d4     kernel32:KERNEL32.dll
 0001:000000d8       __imp__LCMapStringW@24     100010d8     kernel32:KERNEL32.dll
 0001:000000dc       __imp__MultiByteToWideChar@24 100010dc     kernel32:KERNEL32.dll
 0001:000000e0       __imp__GetStringTypeW@16   100010e0     kernel32:KERNEL32.dll
 0001:000000e4       \177KERNEL32_NULL_THUNK_DATA 100010e4     kernel32:KERNEL32.dll
 0001:000000e8       __imp__MessageBeep@4       100010e8     user32:USER32.dll
 0001:000000ec       \177USER32_NULL_THUNK_DATA 100010ec     user32:USER32.dll
 0001:000000f0       ___xc_a                    100010f0     LIBCMT:crt0init.obj
 0001:000000f4       ___xc_z                    100010f4     LIBCMT:crt0init.obj
 0001:000000f8       ___xi_a                    100010f8     LIBCMT:crt0init.obj
 0001:00000108       ___xi_z                    10001108     LIBCMT:crt0init.obj
 0001:0000010c       ___xp_a                    1000110c     LIBCMT:crt0init.obj
 0001:00000110       ___xp_z                    10001110     LIBCMT:crt0init.obj
 0001:00000114       ___xt_a                    10001114     LIBCMT:crt0init.obj
 0001:00000118       ___xt_z                    10001118     LIBCMT:crt0init.obj
 0001:00000120       _MainGuid                  10001120     Brackets.obj
 0001:00000130       _MenuGuid                  10001130     Brackets.obj
 0001:00000140       _DialogGuid                10001140     Brackets.obj
 0001:00000150       ??_C@_1DE@BGKMIKPD@?$AAE?$AAu?$AAg?$AAe?$AAn?$AAe?$AA?5?$AAR?$AAo?$AAs?$AAh?$AAa?$AAl?$AA?5?$AA?$CG?$AA?5?$AAF?$AAa?$AAr?$AA?5?$AAG?$AAr?$AAo?$AAu?$AAp?$AA?$AA@ 10001150     Brackets.obj
 0001:00000188       ??_C@_1EE@CJLEEDHO@?$AAB?$AAr?$AAa?$AAc?$AAk?$AAe?$AAt?$AAs?$AA?5?$AAm?$AAa?$AAt?$AAc?$AAh?$AAi?$AAn?$AAg?$AA?5?$AAf?$AAo?$AAr?$AA?5?$AAF?$AAa?$AAr?$AA?5?$AAM?$AAa?$AAn?$AAa?$AAg?$AAe@ 10001188     Brackets.obj
 0001:000001cc       ??_C@_1BC@GJFAHMHB@?$AAB?$AAr?$AAa?$AAc?$AAk?$AAe?$AAt?$AAs?$AA?$AA@ 100011cc     Brackets.obj
 0001:000001e0       ??_C@_1BK@EKFLELHE@?$AA?1?$AA?$CK?$AA?$CK?$AA?1?$AA?$DM?$AA?$DP?$AA?$DP?$AA?$DO?$AA?$DM?$AA?$CF?$AA?$CF?$AA?$DO?$AA?$AA@ 100011e0     Brackets.obj
 0001:000001fc       ??_C@_1BE@DFLFCMNK@?$AAB?$AAr?$AAa?$AAc?$AAk?$AAe?$AAt?$AAs?$AA2?$AA?$AA@ 100011fc     Brackets.obj
 0001:00000210       ??_C@_1CC@FLEKOJBB@?$AA?$DM?$AA?$DO?$AA?$HL?$AA?$HN?$AA?$FL?$AA?$FN?$AA?$CI?$AA?$CJ?$AA?$CC?$AA?$CC?$AA?8?$AA?8?$AA?$CF?$AA?$CF?$AA?$KL?$AA?$LL?$AA?$AA@ 10001210     Brackets.obj
 0001:00000234       ??_C@_1BE@CHAAIDDE@?$AAB?$AAr?$AAa?$AAc?$AAk?$AAe?$AAt?$AAs?$AA1?$AA?$AA@ 10001234     Brackets.obj
 0001:00000248       ??_C@_1BG@KHOAFHB@?$AA?8?$AA?8?$AA?$CC?$AA?$CC?$AA?$GA?$AA?8?$AA?$GA?$AA?$GA?5?$BO?5?$BN?$AA?$AA@ 10001248     Brackets.obj
 0001:00000260       ??_C@_1BG@ICHMEPOB@?$AAQ?$AAu?$AAo?$AAt?$AAe?$AAs?$AAT?$AAy?$AAp?$AAe?$AA?$AA@ 10001260     Brackets.obj
 0001:00000278       ??_C@_19CNDHNALO@?$AAB?$AAe?$AAe?$AAp?$AA?$AA@ 10001278     Brackets.obj
 0001:00000284       ??_C@_1BG@KDMBKMK@?$AAJ?$AAu?$AAm?$AAp?$AAT?$AAo?$AAP?$AAa?$AAi?$AAr?$AA?$AA@ 10001284     Brackets.obj
 0001:0000029c       ??_C@_1BK@LJLNAEDP@?$AAB?$AAr?$AAa?$AAc?$AAk?$AAe?$AAt?$AAP?$AAr?$AAi?$AAo?$AAr?$AA?$AA@ 1000129c     Brackets.obj
 0001:000002b8       ??_C@_1BI@LPBIFPPH@?$AAI?$AAg?$AAn?$AAo?$AAr?$AAe?$AAA?$AAf?$AAt?$AAe?$AAr?$AA?$AA@ 100012b8     Brackets.obj
 0001:000002d0       ??_C@_1BK@LFBLPBJM@?$AAI?$AAg?$AAn?$AAo?$AAr?$AAe?$AAQ?$AAu?$AAo?$AAt?$AAe?$AAs?$AA?$AA@ 100012d0     Brackets.obj
 0001:000002ec       ??_7?$DialogItemBinding@UFarDialogItem@@@@6B@ 100012ec     Brackets.obj
 0001:000002f4       ??_7?$DialogBuilderBase@UFarDialogItem@@@@6B@ 100012f4     Brackets.obj
 0001:00000318       ??_7PluginEditFieldBinding@@6B@ 10001318     Brackets.obj
 0001:00000320       ??_7PluginDialogBuilder@@6B@ 10001320     Brackets.obj
 0001:00000344       ??_7PluginCheckBoxBinding@@6B@ 10001344     Brackets.obj
 0001:0000034c       ??_7PluginRadioButtonBinding@@6B@ 1000134c     Brackets.obj
 0001:00000354       ??_C@_15EFLNJKHH@?$AA?$CF?$AAu?$AA?$AA@ 10001354     Brackets.obj
 0001:0000035c       ??_7PluginIntEditFieldBinding@@6B@ 1000135c     Brackets.obj
 0001:00000364       ??_7PluginUIntEditFieldBinding@@6B@ 10001364     Brackets.obj
 0001:0000036c       ??_C@_11LOCGONAA@?$AA?$AA@ 1000136c     Brackets.obj
 0001:00000370       ??_C@_19MGMPFFIA@?$AAF?$AAi?$AAn?$AAd?$AA?$AA@ 10001370     Brackets.obj
 0001:0000037c       ??_C@_1O@MDCABJAO@?$AAD?$AAi?$AAr?$AAe?$AAc?$AAt?$AA?$AA@ 1000137c     Brackets.obj
 0001:0000038c       ??_C@_1BE@LCCGEFEM@?$AAS?$AAE?$AAA?$AAR?$AAC?$AAH?$AAF?$AAW?$AAD?$AA?$AA@ 1000138c     Brackets.obj
 0001:000003a0       ??_C@_1BG@LIFFHAGC@?$AAS?$AAE?$AAA?$AAR?$AAC?$AAH?$AAB?$AAA?$AAC?$AAK?$AA?$AA@ 100013a0     Brackets.obj
 0001:000003b8       ??_C@_1BE@IFIBPANP@?$AAS?$AAE?$AAL?$AAE?$AAC?$AAT?$AAF?$AAW?$AAD?$AA?$AA@ 100013b8     Brackets.obj
 0001:000003cc       ??_C@_1BG@FJDCNJBP@?$AAS?$AAE?$AAL?$AAE?$AAC?$AAT?$AAB?$AAA?$AAC?$AAK?$AA?$AA@ 100013cc     Brackets.obj
 0001:000003e4       ??_C@_1O@BAHOLLMK@?$AAC?$AAO?$AAN?$AAF?$AAI?$AAG?$AA?$AA@ 100013e4     Brackets.obj
 0001:00000400       __imp__EncodePointer@4     10001400     vc_crt_fix.obj
 0001:00000404       __imp__DecodePointer@4     10001404     vc_crt_fix.obj
 0001:00000408       __imp__GetModuleHandleExW@12 10001408     vc_crt_fix.obj
 0001:00000420       ??_C@_0O@NLDKAIKN@EncodePointer?$AA@ 10001420     vc_crt_fix_impl.obj
 0001:00000430       ??_C@_0O@KBPMFGHI@DecodePointer?$AA@ 10001430     vc_crt_fix_impl.obj
 0001:00000440       ??_C@_0BD@GIGEJCNH@GetModuleHandleExW?$AA@ 10001440     vc_crt_fix_impl.obj
 0001:00000458       ??_7bad_alloc@std@@6B@     10001458     LIBCMT:new.obj
 0001:00000460       ??_C@_0P@GHFPNOJB@bad?5allocation?$AA@ 10001460     LIBCMT:new.obj
 0001:00000470       __pRawDllMain              10001470     LIBCMT:dllcrt0.obj
 0001:00000470       __pDefaultRawDllMain       10001470     LIBCMT:dllcrt0.obj
 0001:00000478       ??_7exception@std@@6B@     10001478     LIBCMT:stdexcpt.obj
 0001:00000480       ??_C@_0BC@EOODALEL@Unknown?5exception?$AA@ 10001480     LIBCMT:stdexcpt.obj
 0001:00000498       ??_7type_info@@6B@         10001498     LIBCMT:typinfo.obj
 0001:000004bc       ??_C@_1BK@DBDEIDLH@?$AAK?$AAE?$AAR?$AAN?$AAE?$AAL?$AA3?$AA2?$AA?4?$AAD?$AAL?$AAL?$AA?$AA@ 100014bc     LIBCMT:tidtable.obj
 0001:000004d8       ??_C@_07PEJMOBNF@FlsFree?$AA@ 100014d8     LIBCMT:tidtable.obj
 0001:000004e0       ??_C@_0M@JCPCPOEF@FlsSetValue?$AA@ 100014e0     LIBCMT:tidtable.obj
 0001:000004ec       ??_C@_0M@GDNOONDI@FlsGetValue?$AA@ 100014ec     LIBCMT:tidtable.obj
 0001:000004f8       ??_C@_08KNHFBNJ@FlsAlloc?$AA@ 100014f8     LIBCMT:tidtable.obj
 0001:00000504       ??_C@_0P@MIGLKIOC@CorExitProcess?$AA@ 10001504     LIBCMT:crt0dat.obj
 0001:00000514       ??_C@_1BI@BGOHAHKC@?$AAm?$AAs?$AAc?$AAo?$AAr?$AAe?$AAe?$AA?4?$AAd?$AAl?$AAl?$AA?$AA@ 10001514     LIBCMT:crt0dat.obj
 0001:00000530       __XcptActTab               10001530     LIBCMT:winxfltr.obj
 0001:000005c0       __First_FPE_Indx           100015c0     LIBCMT:winxfltr.obj
 0001:000005c4       __Num_FPE                  100015c4     LIBCMT:winxfltr.obj
 0001:000005c8       __XcptActTabSize           100015c8     LIBCMT:winxfltr.obj
 0001:000005cc       __XcptActTabCount          100015cc     LIBCMT:winxfltr.obj
 0001:000005d0       ??_C@_1BO@BKOMIGKJ@?$AAr?$AAu?$AAn?$AAt?$AAi?$AAm?$AAe?$AA?5?$AAe?$AAr?$AAr?$AAo?$AAr?$AA?5?$AA?$AA@ 100015d0     LIBCMT:crt0msg.obj
 0001:000005f0       ??_C@_15JNBOKNOG@?$AA?$AN?$AA?6?$AA?$AA@ 100015f0     LIBCMT:crt0msg.obj
 0001:000005f8       ??_C@_1BM@JBBEPPHI@?$AAT?$AAL?$AAO?$AAS?$AAS?$AA?5?$AAe?$AAr?$AAr?$AAo?$AAr?$AA?$AN?$AA?6?$AA?$AA@ 100015f8     LIBCMT:crt0msg.obj
 0001:00000614       ??_C@_1BK@KMOMNAAI@?$AAS?$AAI?$AAN?$AAG?$AA?5?$AAe?$AAr?$AAr?$AAo?$AAr?$AA?$AN?$AA?6?$AA?$AA@ 10001614     LIBCMT:crt0msg.obj
 0001:00000630       ??_C@_1BO@BFCDCGC@?$AAD?$AAO?$AAM?$AAA?$AAI?$AAN?$AA?5?$AAe?$AAr?$AAr?$AAo?$AAr?$AA?$AN?$AA?6?$AA?$AA@ 10001630     LIBCMT:crt0msg.obj
 0001:00000650       ??_C@_1BOO@KGEDBGAJ@?$AAR?$AA6?$AA0?$AA3?$AA3?$AA?$AN?$AA?6?$AA?9?$AA?5?$AAA?$AAt?$AAt?$AAe?$AAm?$AAp?$AAt?$AA?5?$AAt?$AAo?$AA?5?$AAu?$AAs?$AAe?$AA?5?$AAM?$AAS?$AAI?$AAL?$AA?5?$AAc?$AAo?$AAd@ 10001650     LIBCMT:crt0msg.obj
 0001:00000840       ??_C@_1GG@GOPILAJP@?$AAR?$AA6?$AA0?$AA3?$AA2?$AA?$AN?$AA?6?$AA?9?$AA?5?$AAn?$AAo?$AAt?$AA?5?$AAe?$AAn?$AAo?$AAu?$AAg?$AAh?$AA?5?$AAs?$AAp?$AAa?$AAc?$AAe?$AA?5?$AAf?$AAo?$AAr?$AA?5?$AAl?$AAo@ 10001840     LIBCMT:crt0msg.obj
 0001:000008a8       ??_C@_1MG@ENCOOIDF@?$AAR?$AA6?$AA0?$AA3?$AA1?$AA?$AN?$AA?6?$AA?9?$AA?5?$AAA?$AAt?$AAt?$AAe?$AAm?$AAp?$AAt?$AA?5?$AAt?$AAo?$AA?5?$AAi?$AAn?$AAi?$AAt?$AAi?$AAa?$AAl?$AAi?$AAz?$AAe?$AA?5?$AAt@ 100018a8     LIBCMT:crt0msg.obj
 0001:00000970       ??_C@_1DO@BMFCDCD@?$AAR?$AA6?$AA0?$AA3?$AA0?$AA?$AN?$AA?6?$AA?9?$AA?5?$AAC?$AAR?$AAT?$AA?5?$AAn?$AAo?$AAt?$AA?5?$AAi?$AAn?$AAi?$AAt?$AAi?$AAa?$AAl?$AAi?$AAz?$AAe?$AAd?$AA?$AN?$AA?6?$AA?$AA@ 10001970     LIBCMT:crt0msg.obj
 0001:000009b0       ??_C@_1EK@HHFLMAOL@?$AAR?$AA6?$AA0?$AA2?$AA8?$AA?$AN?$AA?6?$AA?9?$AA?5?$AAu?$AAn?$AAa?$AAb?$AAl?$AAe?$AA?5?$AAt?$AAo?$AA?5?$AAi?$AAn?$AAi?$AAt?$AAi?$AAa?$AAl?$AAi?$AAz?$AAe?$AA?5?$AAh?$AAe@ 100019b0     LIBCMT:crt0msg.obj
 0001:00000a00       ??_C@_1GK@MFGOKLAG@?$AAR?$AA6?$AA0?$AA2?$AA7?$AA?$AN?$AA?6?$AA?9?$AA?5?$AAn?$AAo?$AAt?$AA?5?$AAe?$AAn?$AAo?$AAu?$AAg?$AAh?$AA?5?$AAs?$AAp?$AAa?$AAc?$AAe?$AA?5?$AAf?$AAo?$AAr?$AA?5?$AAl?$AAo@ 10001a00     LIBCMT:crt0msg.obj
 0001:00000a70       ??_C@_1GK@MCAAGJMO@?$AAR?$AA6?$AA0?$AA2?$AA6?$AA?$AN?$AA?6?$AA?9?$AA?5?$AAn?$AAo?$AAt?$AA?5?$AAe?$AAn?$AAo?$AAu?$AAg?$AAh?$AA?5?$AAs?$AAp?$AAa?$AAc?$AAe?$AA?5?$AAf?$AAo?$AAr?$AA?5?$AAs?$AAt@ 10001a70     LIBCMT:crt0msg.obj
 0001:00000ae0       ??_C@_1EM@MAADIHMB@?$AAR?$AA6?$AA0?$AA2?$AA5?$AA?$AN?$AA?6?$AA?9?$AA?5?$AAp?$AAu?$AAr?$AAe?$AA?5?$AAv?$AAi?$AAr?$AAt?$AAu?$AAa?$AAl?$AA?5?$AAf?$AAu?$AAn?$AAc?$AAt?$AAi?$AAo?$AAn?$AA?5?$AAc@ 10001ae0     LIBCMT:crt0msg.obj
 0001:00000b30       ??_C@_1GK@FHCKBEFA@?$AAR?$AA6?$AA0?$AA2?$AA4?$AA?$AN?$AA?6?$AA?9?$AA?5?$AAn?$AAo?$AAt?$AA?5?$AAe?$AAn?$AAo?$AAu?$AAg?$AAh?$AA?5?$AAs?$AAp?$AAa?$AAc?$AAe?$AA?5?$AAf?$AAo?$AAr?$AA?5?$AA_?$AAo@ 10001b30     LIBCMT:crt0msg.obj
 0001:00000ba0       ??_C@_1FC@ECHBIFBC@?$AAR?$AA6?$AA0?$AA1?$AA9?$AA?$AN?$AA?6?$AA?9?$AA?5?$AAu?$AAn?$AAa?$AAb?$AAl?$AAe?$AA?5?$AAt?$AAo?$AA?5?$AAo?$AAp?$AAe?$AAn?$AA?5?$AAc?$AAo?$AAn?$AAs?$AAo?$AAl?$AAe?$AA?5@ 10001ba0     LIBCMT:crt0msg.obj
 0001:00000bf8       ??_C@_1EC@JIBHAOPH@?$AAR?$AA6?$AA0?$AA1?$AA8?$AA?$AN?$AA?6?$AA?9?$AA?5?$AAu?$AAn?$AAe?$AAx?$AAp?$AAe?$AAc?$AAt?$AAe?$AAd?$AA?5?$AAh?$AAe?$AAa?$AAp?$AA?5?$AAe?$AAr?$AAr?$AAo?$AAr?$AA?$AN?$AA?6@ 10001bf8     LIBCMT:crt0msg.obj
 0001:00000c40       ??_C@_1FK@BEOGODMC@?$AAR?$AA6?$AA0?$AA1?$AA7?$AA?$AN?$AA?6?$AA?9?$AA?5?$AAu?$AAn?$AAe?$AAx?$AAp?$AAe?$AAc?$AAt?$AAe?$AAd?$AA?5?$AAm?$AAu?$AAl?$AAt?$AAi?$AAt?$AAh?$AAr?$AAe?$AAa?$AAd?$AA?5@ 10001c40     LIBCMT:crt0msg.obj
 0001:00000ca0       ??_C@_1FI@LOGNIKDM@?$AAR?$AA6?$AA0?$AA1?$AA6?$AA?$AN?$AA?6?$AA?9?$AA?5?$AAn?$AAo?$AAt?$AA?5?$AAe?$AAn?$AAo?$AAu?$AAg?$AAh?$AA?5?$AAs?$AAp?$AAa?$AAc?$AAe?$AA?5?$AAf?$AAo?$AAr?$AA?5?$AAt?$AAh@ 10001ca0     LIBCMT:crt0msg.obj
 0001:00000cf8       ??_C@_1EG@BEHAGFJD@?$AAR?$AA6?$AA0?$AA1?$AA0?$AA?$AN?$AA?6?$AA?9?$AA?5?$AAa?$AAb?$AAo?$AAr?$AAt?$AA?$CI?$AA?$CJ?$AA?5?$AAh?$AAa?$AAs?$AA?5?$AAb?$AAe?$AAe?$AAn?$AA?5?$AAc?$AAa?$AAl?$AAl?$AAe?$AAd@ 10001cf8     LIBCMT:crt0msg.obj
 0001:00000d40       ??_C@_1FI@HONFMGBI@?$AAR?$AA6?$AA0?$AA0?$AA9?$AA?$AN?$AA?6?$AA?9?$AA?5?$AAn?$AAo?$AAt?$AA?5?$AAe?$AAn?$AAo?$AAu?$AAg?$AAh?$AA?5?$AAs?$AAp?$AAa?$AAc?$AAe?$AA?5?$AAf?$AAo?$AAr?$AA?5?$AAe?$AAn@ 10001d40     LIBCMT:crt0msg.obj
 0001:00000d98       ??_C@_1FE@LLNEDJMD@?$AAR?$AA6?$AA0?$AA0?$AA8?$AA?$AN?$AA?6?$AA?9?$AA?5?$AAn?$AAo?$AAt?$AA?5?$AAe?$AAn?$AAo?$AAu?$AAg?$AAh?$AA?5?$AAs?$AAp?$AAa?$AAc?$AAe?$AA?5?$AAf?$AAo?$AAr?$AA?5?$AAa?$AAr@ 10001d98     LIBCMT:crt0msg.obj
 0001:00000df0       ??_C@_1FK@PGACCAFB@?$AAR?$AA6?$AA0?$AA0?$AA2?$AA?$AN?$AA?6?$AA?9?$AA?5?$AAf?$AAl?$AAo?$AAa?$AAt?$AAi?$AAn?$AAg?$AA?5?$AAp?$AAo?$AAi?$AAn?$AAt?$AA?5?$AAs?$AAu?$AAp?$AAp?$AAo?$AAr?$AAt?$AA?5@ 10001df0     LIBCMT:crt0msg.obj
 0001:00000f00       ??_C@_1EK@MBDPDCGA@?$AAM?$AAi?$AAc?$AAr?$AAo?$AAs?$AAo?$AAf?$AAt?$AA?5?$AAV?$AAi?$AAs?$AAu?$AAa?$AAl?$AA?5?$AAC?$AA?$CL?$AA?$CL?$AA?5?$AAR?$AAu?$AAn?$AAt?$AAi?$AAm?$AAe?$AA?5?$AAL?$AAi?$AAb@ 10001f00     LIBCMT:crt0msg.obj
 0001:00000f4c       ??_C@_15IABLJNFO@?$AA?6?$AA?6?$AA?$AA@ 10001f4c     LIBCMT:crt0msg.obj
 0001:00000f54       ??_C@_17LGKOMLJ@?$AA?4?$AA?4?$AA?4?$AA?$AA@ 10001f54     LIBCMT:crt0msg.obj
 0001:00000f5c       ??_C@_1CO@EAEJAADC@?$AA?$DM?$AAp?$AAr?$AAo?$AAg?$AAr?$AAa?$AAm?$AA?5?$AAn?$AAa?$AAm?$AAe?$AA?5?$AAu?$AAn?$AAk?$AAn?$AAo?$AAw?$AAn?$AA?$DO?$AA?$AA@ 10001f5c     LIBCMT:crt0msg.obj
 0001:00000f8c       ??_C@_1DE@JNGNBFGO@?$AAR?$AAu?$AAn?$AAt?$AAi?$AAm?$AAe?$AA?5?$AAE?$AAr?$AAr?$AAo?$AAr?$AA?$CB?$AA?6?$AA?6?$AAP?$AAr?$AAo?$AAg?$AAr?$AAa?$AAm?$AA?3?$AA?5?$AA?$AA@ 10001f8c     LIBCMT:crt0msg.obj
 0001:00000fc0       ??_C@_1BC@GDGBMEMK@?$AAH?$AAH?$AA?3?$AAm?$AAm?$AA?3?$AAs?$AAs?$AA?$AA@ 10001fc0     LIBCMT:nlsdata2.obj
 0001:00000fd4       ??_C@_1CI@KNAKOEBC@?$AAd?$AAd?$AAd?$AAd?$AA?0?$AA?5?$AAM?$AAM?$AAM?$AAM?$AA?5?$AAd?$AAd?$AA?0?$AA?5?$AAy?$AAy?$AAy?$AAy?$AA?$AA@ 10001fd4     LIBCMT:nlsdata2.obj
 0001:00000ffc       ??_C@_1BC@IEBCMHCM@?$AAM?$AAM?$AA?1?$AAd?$AAd?$AA?1?$AAy?$AAy?$AA?$AA@ 10001ffc     LIBCMT:nlsdata2.obj
 0001:00001010       ??_C@_15CLMNNGEL@?$AAP?$AAM?$AA?$AA@ 10002010     LIBCMT:nlsdata2.obj
 0001:00001018       ??_C@_15ODEHAHHF@?$AAA?$AAM?$AA?$AA@ 10002018     LIBCMT:nlsdata2.obj
 0001:00001020       ??_C@_1BC@FEMKIFH@?$AAD?$AAe?$AAc?$AAe?$AAm?$AAb?$AAe?$AAr?$AA?$AA@ 10002020     LIBCMT:nlsdata2.obj
 0001:00001034       ??_C@_1BC@BGLIFPF@?$AAN?$AAo?$AAv?$AAe?$AAm?$AAb?$AAe?$AAr?$AA?$AA@ 10002034     LIBCMT:nlsdata2.obj
 0001:00001048       ??_C@_1BA@EPANDLNG@?$AAO?$AAc?$AAt?$AAo?$AAb?$AAe?$AAr?$AA?$AA@ 10002048     LIBCMT:nlsdata2.obj
 0001:00001058       ??_C@_1BE@DKAAMBJL@?$AAS?$AAe?$AAp?$AAt?$AAe?$AAm?$AAb?$AAe?$AAr?$AA?$AA@ 10002058     LIBCMT:nlsdata2.obj
 0001:0000106c       ??_C@_1O@PAHLKOAC@?$AAA?$AAu?$AAg?$AAu?$AAs?$AAt?$AA?$AA@ 1000206c     LIBCMT:nlsdata2.obj
 0001:0000107c       ??_C@_19BIFMLPCD@?$AAJ?$AAu?$AAl?$AAy?$AA?$AA@ 1000207c     LIBCMT:nlsdata2.obj
 0001:00001088       ??_C@_19EPFLPGAP@?$AAJ?$AAu?$AAn?$AAe?$AA?$AA@ 10002088     LIBCMT:nlsdata2.obj
 0001:00001094       ??_C@_1M@GJNLMHFD@?$AAA?$AAp?$AAr?$AAi?$AAl?$AA?$AA@ 10002094     LIBCMT:nlsdata2.obj
 0001:000010a0       ??_C@_1M@IKEENEDF@?$AAM?$AAa?$AAr?$AAc?$AAh?$AA?$AA@ 100020a0     LIBCMT:nlsdata2.obj
 0001:000010ac       ??_C@_1BC@JGDDFFAM@?$AAF?$AAe?$AAb?$AAr?$AAu?$AAa?$AAr?$AAy?$AA?$AA@ 100020ac     LIBCMT:nlsdata2.obj
 0001:000010c0       ??_C@_1BA@EFMEIEBA@?$AAJ?$AAa?$AAn?$AAu?$AAa?$AAr?$AAy?$AA?$AA@ 100020c0     LIBCMT:nlsdata2.obj
 0001:000010d0       ??_C@_17EGKACKIF@?$AAD?$AAe?$AAc?$AA?$AA@ 100020d0     LIBCMT:nlsdata2.obj
 0001:000010d8       ??_C@_17BBDMLCIG@?$AAN?$AAo?$AAv?$AA?$AA@ 100020d8     LIBCMT:nlsdata2.obj
 0001:000010e0       ??_C@_17FNLKOI@?$AAO?$AAc?$AAt?$AA?$AA@ 100020e0     LIBCMT:nlsdata2.obj
 0001:000010e8       ??_C@_17HCHCOKMG@?$AAS?$AAe?$AAp?$AA?$AA@ 100020e8     LIBCMT:nlsdata2.obj
 0001:000010f0       ??_C@_17ICPELBCN@?$AAA?$AAu?$AAg?$AA?$AA@ 100020f0     LIBCMT:nlsdata2.obj
 0001:000010f8       ??_C@_17IJPCKHK@?$AAJ?$AAu?$AAl?$AA?$AA@ 100020f8     LIBCMT:nlsdata2.obj
 0001:00001100       ??_C@_17KCJGOCPB@?$AAJ?$AAu?$AAn?$AA?$AA@ 10002100     LIBCMT:nlsdata2.obj
 0001:00001108       ??_C@_17PNNKMEED@?$AAM?$AAa?$AAy?$AA?$AA@ 10002108     LIBCMT:nlsdata2.obj
 0001:00001110       ??_C@_17LFPOIHDD@?$AAA?$AAp?$AAr?$AA?$AA@ 10002110     LIBCMT:nlsdata2.obj
 0001:00001118       ??_C@_17CKNLEDEC@?$AAM?$AAa?$AAr?$AA?$AA@ 10002118     LIBCMT:nlsdata2.obj
 0001:00001120       ??_C@_17LMDJEKJN@?$AAF?$AAe?$AAb?$AA?$AA@ 10002120     LIBCMT:nlsdata2.obj
 0001:00001128       ??_C@_17DKNBKCHM@?$AAJ?$AAa?$AAn?$AA?$AA@ 10002128     LIBCMT:nlsdata2.obj
 0001:00001130       ??_C@_1BC@ENMNNPAJ@?$AAS?$AAa?$AAt?$AAu?$AAr?$AAd?$AAa?$AAy?$AA?$AA@ 10002130     LIBCMT:nlsdata2.obj
 0001:00001144       ??_C@_1O@PDICJHAG@?$AAF?$AAr?$AAi?$AAd?$AAa?$AAy?$AA?$AA@ 10002144     LIBCMT:nlsdata2.obj
 0001:00001154       ??_C@_1BC@HHMNLIHE@?$AAT?$AAh?$AAu?$AAr?$AAs?$AAd?$AAa?$AAy?$AA?$AA@ 10002154     LIBCMT:nlsdata2.obj
 0001:00001168       ??_C@_1BE@EBOGMDOH@?$AAW?$AAe?$AAd?$AAn?$AAe?$AAs?$AAd?$AAa?$AAy?$AA?$AA@ 10002168     LIBCMT:nlsdata2.obj
 0001:0000117c       ??_C@_1BA@ENFBFFEK@?$AAT?$AAu?$AAe?$AAs?$AAd?$AAa?$AAy?$AA?$AA@ 1000217c     LIBCMT:nlsdata2.obj
 0001:0000118c       ??_C@_1O@MMNBFLIA@?$AAM?$AAo?$AAn?$AAd?$AAa?$AAy?$AA?$AA@ 1000218c     LIBCMT:nlsdata2.obj
 0001:0000119c       ??_C@_1O@IHNHDHPB@?$AAS?$AAu?$AAn?$AAd?$AAa?$AAy?$AA?$AA@ 1000219c     LIBCMT:nlsdata2.obj
 0001:000011ac       ??_C@_17GGIBDPIH@?$AAS?$AAa?$AAt?$AA?$AA@ 100021ac     LIBCMT:nlsdata2.obj
 0001:000011b4       ??_C@_17HFOLPPLP@?$AAF?$AAr?$AAi?$AA?$AA@ 100021b4     LIBCMT:nlsdata2.obj
 0001:000011bc       ??_C@_17PDPHAADD@?$AAT?$AAh?$AAu?$AA?$AA@ 100021bc     LIBCMT:nlsdata2.obj
 0001:000011c4       ??_C@_17CJEDCEPE@?$AAW?$AAe?$AAd?$AA?$AA@ 100021c4     LIBCMT:nlsdata2.obj
 0001:000011cc       ??_C@_17BMKGEGOJ@?$AAT?$AAu?$AAe?$AA?$AA@ 100021cc     LIBCMT:nlsdata2.obj
 0001:000011d4       ??_C@_17KBOMKBF@?$AAM?$AAo?$AAn?$AA?$AA@ 100021d4     LIBCMT:nlsdata2.obj
 0001:000011dc       ??_C@_17MBGCMIPB@?$AAS?$AAu?$AAn?$AA?$AA@ 100021dc     LIBCMT:nlsdata2.obj
 0001:000011e4       ??_C@_08JCCMCCIL@HH?3mm?3ss?$AA@ 100021e4     LIBCMT:nlsdata2.obj
 0001:000011f0       ??_C@_0BE@CKGJFCPC@dddd?0?5MMMM?5dd?0?5yyyy?$AA@ 100021f0     LIBCMT:nlsdata2.obj
 0001:00001204       ??_C@_08BPBNCDIB@MM?1dd?1yy?$AA@ 10002204     LIBCMT:nlsdata2.obj
 0001:00001210       ??_C@_02CJNFDJBF@PM?$AA@   10002210     LIBCMT:nlsdata2.obj
 0001:00001214       ??_C@_02DEDBPAFC@AM?$AA@   10002214     LIBCMT:nlsdata2.obj
 0001:00001218       ??_C@_08EDHMEBNP@December?$AA@ 10002218     LIBCMT:nlsdata2.obj
 0001:00001224       ??_C@_08HCHEGEOA@November?$AA@ 10002224     LIBCMT:nlsdata2.obj
 0001:00001230       ??_C@_07JJNFCEND@October?$AA@ 10002230     LIBCMT:nlsdata2.obj
 0001:00001238       ??_C@_09BHHEALKD@September?$AA@ 10002238     LIBCMT:nlsdata2.obj
 0001:00001244       ??_C@_06LBBHFDDG@August?$AA@ 10002244     LIBCMT:nlsdata2.obj
 0001:0000124c       ??_C@_04MIEPOIFP@July?$AA@ 1000224c     LIBCMT:nlsdata2.obj
 0001:00001254       ??_C@_04CNLMGBGM@June?$AA@ 10002254     LIBCMT:nlsdata2.obj
 0001:0000125c       ??_C@_05DMJDNLEJ@April?$AA@ 1000225c     LIBCMT:nlsdata2.obj
 0001:00001264       ??_C@_05HPCKOFNC@March?$AA@ 10002264     LIBCMT:nlsdata2.obj
 0001:0000126c       ??_C@_08GNJGEPFN@February?$AA@ 1000226c     LIBCMT:nlsdata2.obj
 0001:00001278       ??_C@_07CGJPFGJA@January?$AA@ 10002278     LIBCMT:nlsdata2.obj
 0001:00001280       ??_C@_03MKABNOCG@Dec?$AA@  10002280     LIBCMT:nlsdata2.obj
 0001:00001284       ??_C@_03JPJOFNIA@Nov?$AA@  10002284     LIBCMT:nlsdata2.obj
 0001:00001288       ??_C@_03BMAOKBAD@Oct?$AA@  10002288     LIBCMT:nlsdata2.obj
 0001:0000128c       ??_C@_03GGCAPAJC@Sep?$AA@  1000228c     LIBCMT:nlsdata2.obj
 0001:00001290       ??_C@_03IFJFEIGA@Aug?$AA@  10002290     LIBCMT:nlsdata2.obj
 0001:00001294       ??_C@_03LBGABGKK@Jul?$AA@  10002294     LIBCMT:nlsdata2.obj
 0001:00001298       ??_C@_03IDFGHECI@Jun?$AA@  10002298     LIBCMT:nlsdata2.obj
 0001:0000129c       ??_C@_03CNMDKL@May?$AA@    1000229c     LIBCMT:nlsdata2.obj
 0001:000012a0       ??_C@_03LEOLGMJP@Apr?$AA@  100022a0     LIBCMT:nlsdata2.obj
 0001:000012a4       ??_C@_03ODNJBKGA@Mar?$AA@  100022a4     LIBCMT:nlsdata2.obj
 0001:000012a8       ??_C@_03HJBDCHOM@Feb?$AA@  100022a8     LIBCMT:nlsdata2.obj
 0001:000012ac       ??_C@_03JIHJHPIE@Jan?$AA@  100022ac     LIBCMT:nlsdata2.obj
 0001:000012b0       ??_C@_08INBOOONO@Saturday?$AA@ 100022b0     LIBCMT:nlsdata2.obj
 0001:000012bc       ??_C@_06JECMNKMI@Friday?$AA@ 100022bc     LIBCMT:nlsdata2.obj
 0001:000012c4       ??_C@_08HACCIKIA@Thursday?$AA@ 100022c4     LIBCMT:nlsdata2.obj
 0001:000012d0       ??_C@_09DLIGFAKA@Wednesday?$AA@ 100022d0     LIBCMT:nlsdata2.obj
 0001:000012dc       ??_C@_07BAAGCFCM@Tuesday?$AA@ 100022dc     LIBCMT:nlsdata2.obj
 0001:000012e4       ??_C@_06JLEDEDGH@Monday?$AA@ 100022e4     LIBCMT:nlsdata2.obj
 0001:000012ec       ??_C@_06OOPIFAJ@Sunday?$AA@ 100022ec     LIBCMT:nlsdata2.obj
 0001:000012f4       ??_C@_03FEFJNEK@Sat?$AA@   100022f4     LIBCMT:nlsdata2.obj
 0001:000012f8       ??_C@_03IDIOELNC@Fri?$AA@  100022f8     LIBCMT:nlsdata2.obj
 0001:000012fc       ??_C@_03IOFIKPDN@Thu?$AA@  100022fc     LIBCMT:nlsdata2.obj
 0001:00001300       ??_C@_03MHOMLAJA@Wed?$AA@  10002300     LIBCMT:nlsdata2.obj
 0001:00001304       ??_C@_03NAGEINEP@Tue?$AA@  10002304     LIBCMT:nlsdata2.obj
 0001:00001308       ??_C@_03PDAGKDH@Mon?$AA@   10002308     LIBCMT:nlsdata2.obj
 0001:0000130c       ??_C@_03KOEHGMDN@Sun?$AA@  1000230c     LIBCMT:nlsdata2.obj
 0001:00001310       ??_C@_0BK@CFCOFLF@?5Complete?5Object?5Locator?8?$AA@ 10002310     LIBCMT:undname.obj
 0001:0000132c       ??_C@_0BN@MECKDCOJ@?5Class?5Hierarchy?5Descriptor?8?$AA@ 1000232c     LIBCMT:undname.obj
 0001:0000134c       ??_C@_0BD@LGICGFMM@?5Base?5Class?5Array?8?$AA@ 1000234c     LIBCMT:undname.obj
 0001:00001360       ??_C@_0BM@LDKODKLH@?5Base?5Class?5Descriptor?5at?5?$CI?$AA@ 10002360     LIBCMT:undname.obj
 0001:0000137c       ??_C@_0BC@DAFEJGAK@?5Type?5Descriptor?8?$AA@ 1000237c     LIBCMT:undname.obj
 0001:00001390       ??_C@_0BM@PMGGMLDN@?$GAlocal?5static?5thread?5guard?8?$AA@ 10002390     LIBCMT:undname.obj
 0001:000013ac       ??_C@_0CL@FGIJHLCE@?$GAmanaged?5vector?5copy?5constructor@ 100023ac     LIBCMT:undname.obj
 0001:000013d8       ??_C@_0CJ@GJELGAMM@?$GAvector?5vbase?5copy?5constructor?5i@ 100023d8     LIBCMT:undname.obj
 0001:00001404       ??_C@_0CD@CGAJBKEJ@?$GAvector?5copy?5constructor?5iterato@ 10002404     LIBCMT:undname.obj
 0001:00001428       ??_C@_0CB@PDBIFEP@?$GAdynamic?5atexit?5destructor?5for?5?8@ 10002428     LIBCMT:undname.obj
 0001:0000144c       ??_C@_0BL@CLIPGLGB@?$GAdynamic?5initializer?5for?5?8?$AA@ 1000244c     LIBCMT:undname.obj
 0001:00001468       ??_C@_0CM@FCBBDIGB@?$GAeh?5vector?5vbase?5copy?5constructo@ 10002468     LIBCMT:undname.obj
 0001:00001494       ??_C@_0CG@HLDDJMAG@?$GAeh?5vector?5copy?5constructor?5iter@ 10002494     LIBCMT:undname.obj
 0001:000014bc       ??_C@_0CF@IMGKMJNO@?$GAmanaged?5vector?5destructor?5itera@ 100024bc     LIBCMT:undname.obj
 0001:000014e4       ??_C@_0CG@CFDHKGGD@?$GAmanaged?5vector?5constructor?5iter@ 100024e4     LIBCMT:undname.obj
 0001:0000150c       ??_C@_0BN@CKNJLHMB@?$GAplacement?5delete?$FL?$FN?5closure?8?$AA@ 1000250c     LIBCMT:undname.obj
 0001:0000152c       ??_C@_0BL@CNOONJFP@?$GAplacement?5delete?5closure?8?$AA@ 1000252c     LIBCMT:undname.obj
 0001:00001548       ??_C@_0P@HJKNJFNN@?$GAomni?5callsig?8?$AA@ 10002548     LIBCMT:undname.obj
 0001:00001558       ??_C@_09LBNFPBCA@?5delete?$FL?$FN?$AA@ 10002558     LIBCMT:undname.obj
 0001:00001564       ??_C@_06FHBGPFGH@?5new?$FL?$FN?$AA@ 10002564     LIBCMT:undname.obj
 0001:0000156c       ??_C@_0CE@IIHCMGGL@?$GAlocal?5vftable?5constructor?5closu@ 1000256c     LIBCMT:undname.obj
 0001:00001590       ??_C@_0BA@KKLDJDLB@?$GAlocal?5vftable?8?$AA@ 10002590     LIBCMT:undname.obj
 0001:000015a0       ??_C@_05KHLCHHI@?$GARTTI?$AA@ 100025a0     LIBCMT:undname.obj
 0001:000015a8       ??_C@_03KLGMFNMG@?$GAEH?$AA@ 100025a8     LIBCMT:undname.obj
 0001:000015ac       ??_C@_0BA@KBCDOMBN@?$GAudt?5returning?8?$AA@ 100025ac     LIBCMT:undname.obj
 0001:000015bc       ??_C@_0BL@LLKPOHJI@?$GAcopy?5constructor?5closure?8?$AA@ 100025bc     LIBCMT:undname.obj
 0001:000015d8       ??_C@_0CH@OOJPLCPH@?$GAeh?5vector?5vbase?5constructor?5ite@ 100025d8     LIBCMT:undname.obj
 0001:00001600       ??_C@_0CA@GCEOPDGL@?$GAeh?5vector?5destructor?5iterator?8?$AA@ 10002600     LIBCMT:undname.obj
 0001:00001620       ??_C@_0CB@JONCMFFK@?$GAeh?5vector?5constructor?5iterator?8@ 10002620     LIBCMT:undname.obj
 0001:00001644       ??_C@_0BL@NILFHHPC@?$GAvirtual?5displacement?5map?8?$AA@ 10002644     LIBCMT:undname.obj
 0001:00001660       ??_C@_0CE@IKBNEHA@?$GAvector?5vbase?5constructor?5iterat@ 10002660     LIBCMT:undname.obj
 0001:00001684       ??_C@_0BN@LFPFMEDL@?$GAvector?5destructor?5iterator?8?$AA@ 10002684     LIBCMT:undname.obj
 0001:000016a4       ??_C@_0BO@PFGOCPJJ@?$GAvector?5constructor?5iterator?8?$AA@ 100026a4     LIBCMT:undname.obj
 0001:000016c4       ??_C@_0BN@IMDCHIKM@?$GAscalar?5deleting?5destructor?8?$AA@ 100026c4     LIBCMT:undname.obj
 0001:000016e4       ??_C@_0BO@OBMKPJIG@?$GAdefault?5constructor?5closure?8?$AA@ 100026e4     LIBCMT:undname.obj
 0001:00001704       ??_C@_0BN@DEGPLNFK@?$GAvector?5deleting?5destructor?8?$AA@ 10002704     LIBCMT:undname.obj
 0001:00001724       ??_C@_0BD@JDLKDPAB@?$GAvbase?5destructor?8?$AA@ 10002724     LIBCMT:undname.obj
 0001:00001738       ??_C@_08OBABFOLI@?$GAstring?8?$AA@ 10002738     LIBCMT:undname.obj
 0001:00001744       ??_C@_0BF@KDPPACIK@?$GAlocal?5static?5guard?8?$AA@ 10002744     LIBCMT:undname.obj
 0001:0000175c       ??_C@_08LLFFHHDJ@?$GAtypeof?8?$AA@ 1000275c     LIBCMT:undname.obj
 0001:00001768       ??_C@_07FEEIOKP@?$GAvcall?8?$AA@ 10002768     LIBCMT:undname.obj
 0001:00001770       ??_C@_09BLBHBJP@?$GAvbtable?8?$AA@ 10002770     LIBCMT:undname.obj
 0001:0000177c       ??_C@_09IFPLHPGF@?$GAvftable?8?$AA@ 1000277c     LIBCMT:undname.obj
 0001:00001788       ??_C@_02MHEGNOJ@?$FO?$DN?$AA@ 10002788     LIBCMT:undname.obj
 0001:0000178c       ??_C@_02DHLNPPGH@?$HM?$DN?$AA@ 1000278c     LIBCMT:undname.obj
 0001:00001790       ??_C@_02FGJGFEAB@?$CG?$DN?$AA@ 10002790     LIBCMT:undname.obj
 0001:00001794       ??_C@_03CDNPDDLA@?$DM?$DM?$DN?$AA@ 10002794     LIBCMT:undname.obj
 0001:00001798       ??_C@_03IKFCCPFF@?$DO?$DO?$DN?$AA@ 10002798     LIBCMT:undname.obj
 0001:0000179c       ??_C@_02FENAOKFI@?$CF?$DN?$AA@ 1000279c     LIBCMT:undname.obj
 0001:000017a0       ??_C@_02FJEHGPIO@?1?$DN?$AA@ 100027a0     LIBCMT:undname.obj
 0001:000017a4       ??_C@_02FKMDLLOA@?9?$DN?$AA@ 100027a4     LIBCMT:undname.obj
 0001:000017a8       ??_C@_02FOEOMHFC@?$CL?$DN?$AA@ 100027a8     LIBCMT:undname.obj
 0001:000017ac       ??_C@_02FPIMKNGF@?$CK?$DN?$AA@ 100027ac     LIBCMT:undname.obj
 0001:000017b0       ??_C@_02NONPIBCD@?$HM?$HM?$AA@ 100027b0     LIBCMT:undname.obj
 0001:000017b4       ??_C@_02PPKAJPJL@?$CG?$CG?$AA@ 100027b4     LIBCMT:undname.obj
 0001:000017b8       ??_C@_01DNKMNLPK@?$HM?$AA@ 100027b8     LIBCMT:undname.obj
 0001:000017bc       ??_C@_01JKBOJNNK@?$FO?$AA@ 100027bc     LIBCMT:undname.obj
 0001:000017c0       ??_C@_01PJKLJHI@?$HO?$AA@  100027c0     LIBCMT:undname.obj
 0001:000017c4       ??_C@_02HCKGKOFO@?$CI?$CJ?$AA@ 100027c4     LIBCMT:undname.obj
 0001:000017c8       ??_C@_01IHBHIGKO@?0?$AA@   100027c8     LIBCMT:undname.obj
 0001:000017cc       ??_C@_02EEKDKGMJ@?$DO?$DN?$AA@ 100027cc     LIBCMT:undname.obj
 0001:000017d0       ??_C@_01PPODPGHN@?$DO?$AA@ 100027d0     LIBCMT:undname.obj
 0001:000017d4       ??_C@_02EHCHHCKH@?$DM?$DN?$AA@ 100027d4     LIBCMT:undname.obj
 0001:000017d8       ??_C@_01MNNFJEPP@?$DM?$AA@ 100027d8     LIBCMT:undname.obj
 0001:000017dc       ??_C@_01FGNFDNOH@?$CF?$AA@ 100027dc     LIBCMT:undname.obj
 0001:000017e0       ??_C@_01KMDKNFGN@?1?$AA@   100027e0     LIBCMT:undname.obj
 0001:000017e4       ??_C@_03MNHNFDLC@?9?$DO?$CK?$AA@ 100027e4     LIBCMT:undname.obj
 0001:000017e8       ??_C@_01HNPIGOCE@?$CG?$AA@ 100027e8     LIBCMT:undname.obj
 0001:000017ec       ??_C@_01MIFGBAGJ@?$CL?$AA@ 100027ec     LIBCMT:undname.obj
 0001:000017f0       ??_C@_01JOAMLHOP@?9?$AA@   100027f0     LIBCMT:undname.obj
 0001:000017f4       ??_C@_02BAABKJLB@?9?9?$AA@ 100027f4     LIBCMT:undname.obj
 0001:000017f8       ??_C@_02ECNGHCIF@?$CL?$CL?$AA@ 100027f8     LIBCMT:undname.obj
 0001:000017fc       ??_C@_01NBENCBCI@?$CK?$AA@ 100027fc     LIBCMT:undname.obj
 0001:00001800       ??_C@_02HBOOOICD@?9?$DO?$AA@ 10002800     LIBCMT:undname.obj
 0001:00001804       ??_C@_08LHJFAFGD@operator?$AA@ 10002804     LIBCMT:undname.obj
 0001:00001810       ??_C@_02GPECMEKF@?$FL?$FN?$AA@ 10002810     LIBCMT:undname.obj
 0001:00001814       ??_C@_02FDNJECIE@?$CB?$DN?$AA@ 10002814     LIBCMT:undname.obj
 0001:00001818       ??_C@_02EGOFBIJA@?$DN?$DN?$AA@ 10002818     LIBCMT:undname.obj
 0001:0000181c       ??_C@_01DCLJPIOD@?$CB?$AA@ 1000281c     LIBCMT:undname.obj
 0001:00001820       ??_C@_02FODMEDOG@?$DM?$DM?$AA@ 10002820     LIBCMT:undname.obj
 0001:00001824       ??_C@_02GPIOPFAK@?$DO?$DO?$AA@ 10002824     LIBCMT:undname.obj
 0001:00001828       ??_C@_01NEMOKFLO@?$DN?$AA@ 10002828     LIBCMT:undname.obj
 0001:0000182c       ??_C@_07FPCDHGMM@?5delete?$AA@ 1000282c     LIBCMT:undname.obj
 0001:00001834       ??_C@_04NIHEBCM@?5new?$AA@ 10002834     LIBCMT:undname.obj
 0001:00001839       ??_C@_00CNPNBAHC@?$AA@     10002839     LIBCMT:undname.obj
 0001:0000183c       ??_C@_0M@GFIIJFMG@__unaligned?$AA@ 1000283c     LIBCMT:undname.obj
 0001:00001848       ??_C@_0L@PILCLIHE@__restrict?$AA@ 10002848     LIBCMT:undname.obj
 0001:00001854       ??_C@_07JOMMBBKO@__ptr64?$AA@ 10002854     LIBCMT:undname.obj
 0001:0000185c       ??_C@_06GHPCKEAG@__eabi?$AA@ 1000285c     LIBCMT:undname.obj
 0001:00001864       ??_C@_09HIJEGCPM@__clrcall?$AA@ 10002864     LIBCMT:undname.obj
 0001:00001870       ??_C@_0L@JMKHOMEK@__fastcall?$AA@ 10002870     LIBCMT:undname.obj
 0001:0000187c       ??_C@_0L@NPHFGOKO@__thiscall?$AA@ 1000287c     LIBCMT:undname.obj
 0001:00001888       ??_C@_09IFJBGAPI@__stdcall?$AA@ 10002888     LIBCMT:undname.obj
 0001:00001894       ??_C@_08GHMPAG@__pascal?$AA@ 10002894     LIBCMT:undname.obj
 0001:000018a0       ??_C@_07KOLFKCDI@__cdecl?$AA@ 100028a0     LIBCMT:undname.obj
 0001:000018a8       ??_C@_08EHJDFFNH@__based?$CI?$AA@ 100028a8     LIBCMT:undname.obj
 0001:00001a3c       ??_C@_0BI@DFKBFLJE@GetProcessWindowStation?$AA@ 10002a3c     LIBCMT:crtmboxw.obj
 0001:00001a54       ??_C@_0BK@DEKFELLI@GetUserObjectInformationW?$AA@ 10002a54     LIBCMT:crtmboxw.obj
 0001:00001a70       ??_C@_0BD@HHGDFDBJ@GetLastActivePopup?$AA@ 10002a70     LIBCMT:crtmboxw.obj
 0001:00001a84       ??_C@_0BA@HNOPNCHB@GetActiveWindow?$AA@ 10002a84     LIBCMT:crtmboxw.obj
 0001:00001a94       ??_C@_0M@DLDCCGNP@MessageBoxW?$AA@ 10002a94     LIBCMT:crtmboxw.obj
 0001:00001aa0       ??_C@_1BG@GOEBHBDC@?$AAU?$AAS?$AAE?$AAR?$AA3?$AA2?$AA?4?$AAD?$AAL?$AAL?$AA?$AA@ 10002aa0     LIBCMT:crtmboxw.obj
 0001:00001ab8       ___newctype                10002ab8     LIBCMT:ctype.obj
 0001:00001db8       __wctype                   10002db8     LIBCMT:ctype.obj
 0001:00001fc0       ___newclmap                10002fc0     LIBCMT:ctype.obj
 0001:00002140       ___newcumap                10003140     LIBCMT:ctype.obj
 0001:00002348       __load_config_used         10003348     LIBCMT:loadcfg.obj
 0001:00002390       ??_R4bad_alloc@std@@6B@    10003390     LIBCMT:new.obj
 0001:000023a4       ??_R3bad_alloc@std@@8      100033a4     LIBCMT:new.obj
 0001:000023b4       ??_R2bad_alloc@std@@8      100033b4     LIBCMT:new.obj
 0001:000023c0       ??_R1A@?0A@EA@bad_alloc@std@@8 100033c0     LIBCMT:new.obj
 0001:000023dc       ??_R1A@?0A@EA@exception@std@@8 100033dc     LIBCMT:new.obj
 0001:000023f8       ??_R3exception@std@@8      100033f8     LIBCMT:new.obj
 0001:00002408       ??_R2exception@std@@8      10003408     LIBCMT:new.obj
 0001:00002410       ??_R4exception@std@@6B@    10003410     LIBCMT:stdexcpt.obj
 0001:00002424       ??_R4type_info@@6B@        10003424     LIBCMT:typinfo.obj
 0001:00002438       ??_R3type_info@@8          10003438     LIBCMT:typinfo.obj
 0001:00002448       ??_R2type_info@@8          10003448     LIBCMT:typinfo.obj
 0001:00002450       ??_R1A@?0A@EA@type_info@@8 10003450     LIBCMT:typinfo.obj
 0001:00002470       ___safe_se_handler_table   10003470     <linker-defined>
 0001:0000247c       ___rtc_iaa                 1000347c     LIBCMT:_initsect_.obj
 0001:00002480       ___rtc_izz                 10003480     LIBCMT:_initsect_.obj
 0001:00002484       ___rtc_taa                 10003484     LIBCMT:_initsect_.obj
 0001:00002488       ___rtc_tzz                 10003488     LIBCMT:_initsect_.obj
 0001:00002490       __chkstk                   10003490 f   chkstk.obj
 0001:00002490       __alloca_probe             10003490     chkstk.obj
 0001:000024c0       ?GetLangString@PluginDialogBuilder@@MAEPB_WH@Z 100034c0 f i Brackets.obj
 0001:000024e0       _GetGlobalInfoW@4          100034e0 f   Brackets.obj
 0001:00002560       _SetStartupInfoW@4         10003560 f   Brackets.obj
 0001:00002830       _GetPluginInfoW@4          10003830 f   Brackets.obj
 0001:00002880       ?SaveValue@?$DialogItemBinding@UFarDialogItem@@@@UAEXPAUFarDialogItem@@H@Z 10003880 f i Brackets.obj
 0001:00002880       ?InitDialogItem@?$DialogBuilderBase@UFarDialogItem@@@@MAEXPAUFarDialogItem@@PB_W@Z 10003880 f i Brackets.obj
 0001:00002890       ?TextWidth@?$DialogBuilderBase@UFarDialogItem@@@@MAEHABUFarDialogItem@@@Z 10003890 f i Brackets.obj
 0001:000028a0       ?DoShowDialog@?$DialogBuilderBase@UFarDialogItem@@@@MAEHXZ 100038a0 f i Brackets.obj
 0001:000028b0       ?CreateCheckBoxBinding@?$DialogBuilderBase@UFarDialogItem@@@@MAEPAU?$DialogItemBinding@UFarDialogItem@@@@PAHH@Z 100038b0 f i Brackets.obj
 0001:000028b0       ?AddIntEditField@?$DialogBuilderBase@UFarDialogItem@@@@UAEPAUFarDialogItem@@PAHH@Z 100038b0 f i Brackets.obj
 0001:000028b0       ?AddUIntEditField@?$DialogBuilderBase@UFarDialogItem@@@@UAEPAUFarDialogItem@@PAIH@Z 100038b0 f i Brackets.obj
 0001:000028c0       ?CreateRadioButtonBinding@?$DialogBuilderBase@UFarDialogItem@@@@MAEPAU?$DialogItemBinding@UFarDialogItem@@@@PAH@Z 100038c0 f i Brackets.obj
 0001:000028c0       ?GetLangString@?$DialogBuilderBase@UFarDialogItem@@@@MAEPB_WH@Z 100038c0 f i Brackets.obj
 0001:000028d0       ??1?$DialogBuilderBase@UFarDialogItem@@@@MAE@XZ 100038d0 f i Brackets.obj
 0001:00002920       ??_G?$DialogBuilderBase@UFarDialogItem@@@@MAEPAXI@Z 10003920 f i Brackets.obj
 0001:00002920       ??_E?$DialogBuilderBase@UFarDialogItem@@@@MAEPAXI@Z 10003920 f i Brackets.obj
 0001:00002940       ?ReallocDialogItems@?$DialogBuilderBase@UFarDialogItem@@@@IAEXXZ 10003940 f i Brackets.obj
 0001:00002a10       ?UpdateSecondColumnPosition@?$DialogBuilderBase@UFarDialogItem@@@@IAEXXZ 10003a10 f i Brackets.obj
 0001:00002a70       ?SaveValues@?$DialogBuilderBase@UFarDialogItem@@@@IAEXXZ 10003a70 f i Brackets.obj
 0001:00002ac0       ?MaxTextWidth@?$DialogBuilderBase@UFarDialogItem@@@@IAEHXZ 10003ac0 f i Brackets.obj
 0001:00002b80       ?SaveValue@PluginEditFieldBinding@@UAEXPAUFarDialogItem@@H@Z 10003b80 f i Brackets.obj
 0001:00002bb0       ?InitDialogItem@PluginDialogBuilder@@MAEXPAUFarDialogItem@@PB_W@Z 10003bb0 f i Brackets.obj
 0001:00002bd0       ?TextWidth@PluginDialogBuilder@@MAEHABUFarDialogItem@@@Z 10003bd0 f i Brackets.obj
 0001:00002bf0       ?DoShowDialog@PluginDialogBuilder@@MAEHXZ 10003bf0 f i Brackets.obj
 0001:00002c50       ?SaveValue@PluginCheckBoxBinding@@UAEXPAUFarDialogItem@@H@Z 10003c50 f i Brackets.obj
 0001:00002c90       ?SaveValue@PluginRadioButtonBinding@@UAEXPAUFarDialogItem@@H@Z 10003c90 f i Brackets.obj
 0001:00002cc0       ??0PluginIntEditFieldBinding@@QAE@ABUPluginStartupInfo@@PAPAXHPAHH@Z 10003cc0 f i Brackets.obj
 0001:00002d60       ?SaveValue@PluginIntEditFieldBinding@@UAEXPAUFarDialogItem@@H@Z 10003d60 f i Brackets.obj
 0001:00002d90       ??0PluginUIntEditFieldBinding@@QAE@ABUPluginStartupInfo@@PAPAXHPAIH@Z 10003d90 f i Brackets.obj
 0001:00002e30       ?SaveValue@PluginUIntEditFieldBinding@@UAEXPAUFarDialogItem@@H@Z 10003e30 f i Brackets.obj
 0001:00002e60       ?CreateCheckBoxBinding@PluginDialogBuilder@@MAEPAU?$DialogItemBinding@UFarDialogItem@@@@PAHH@Z 10003e60 f i Brackets.obj
 0001:00002eb0       ?CreateRadioButtonBinding@PluginDialogBuilder@@MAEPAU?$DialogItemBinding@UFarDialogItem@@@@PAH@Z 10003eb0 f i Brackets.obj
 0001:00002f00       ??_GPluginDialogBuilder@@UAEPAXI@Z 10003f00 f i Brackets.obj
 0001:00002f00       ??_EPluginDialogBuilder@@UAEPAXI@Z 10003f00 f i Brackets.obj
 0001:00002f40       ?AddCheckbox@?$DialogBuilderBase@UFarDialogItem@@@@QAEPAUFarDialogItem@@HPAHH_N@Z 10003f40 f i Brackets.obj
 0001:00003070       ?AddButtons@?$DialogBuilderBase@UFarDialogItem@@@@QAEXHPBHHH@Z 10004070 f i Brackets.obj
 0001:000031d0       ?UpdateBorderSize@?$DialogBuilderBase@UFarDialogItem@@@@IAEXXZ 100041d0 f i Brackets.obj
 0001:00003280       ?AddSeparator@?$DialogBuilderBase@UFarDialogItem@@@@QAEXPB_W@Z 10004280 f i Brackets.obj
 0001:000032f0       ??_EPluginUIntEditFieldBinding@@UAEPAXI@Z 100042f0 f i Brackets.obj
 0001:000032f0       ??_GPluginUIntEditFieldBinding@@UAEPAXI@Z 100042f0 f i Brackets.obj
 0001:000032f0       ??_E?$DialogItemBinding@UFarDialogItem@@@@UAEPAXI@Z 100042f0 f i Brackets.obj
 0001:000032f0       ??_EPluginEditFieldBinding@@UAEPAXI@Z 100042f0 f i Brackets.obj
 0001:000032f0       ??_GPluginRadioButtonBinding@@UAEPAXI@Z 100042f0 f i Brackets.obj
 0001:000032f0       ??_EPluginRadioButtonBinding@@UAEPAXI@Z 100042f0 f i Brackets.obj
 0001:000032f0       ??_EPluginCheckBoxBinding@@UAEPAXI@Z 100042f0 f i Brackets.obj
 0001:000032f0       ??_GPluginCheckBoxBinding@@UAEPAXI@Z 100042f0 f i Brackets.obj
 0001:000032f0       ??_G?$DialogItemBinding@UFarDialogItem@@@@UAEPAXI@Z 100042f0 f i Brackets.obj
 0001:000032f0       ??_EPluginIntEditFieldBinding@@UAEPAXI@Z 100042f0 f i Brackets.obj
 0001:000032f0       ??_GPluginIntEditFieldBinding@@UAEPAXI@Z 100042f0 f i Brackets.obj
 0001:000032f0       ??_GPluginEditFieldBinding@@UAEPAXI@Z 100042f0 f i Brackets.obj
 0001:00003310       ??0PluginDialogBuilder@@QAE@ABUPluginStartupInfo@@ABU_GUID@@1HPB_WP6GHPAXHH3@Z3_K@Z 10004310 f i Brackets.obj
 0001:00003420       ?AddIntEditField@PluginDialogBuilder@@UAEPAUFarDialogItem@@PAHH@Z 10004420 f i Brackets.obj
 0001:000034e0       ?AddUIntEditField@PluginDialogBuilder@@UAEPAUFarDialogItem@@PAIH@Z 100044e0 f i Brackets.obj
 0001:000035a0       ?AddFixEditField@PluginDialogBuilder@@QAEPAUFarDialogItem@@PA_WHHPB_W@Z 100045a0 f i Brackets.obj
 0001:00003680       ?Config@@YAHXZ             10004680 f   Brackets.obj
 0001:00003cf0       _ConfigureW@4              10004cf0 f   Brackets.obj
 0001:00003d00       ?ShowMenu@@YAHH@Z          10004d00 f   Brackets.obj
 0001:00003e20       _OpenW@4                   10004e20 f   Brackets.obj
 0001:00004930       _EncodePointerWrapper@4    10005930 f   vc_crt_fix_impl.obj
 0001:00004980       _DecodePointerWrapper@4    10005980 f   vc_crt_fix_impl.obj
 0001:000049d0       _GetModuleHandleExWWrapper@12 100059d0 f   vc_crt_fix_impl.obj
 0001:00004a13       ??_U@YAPAXI@Z              10005a13 f   libcpmt:newaop.obj
 0001:00004a1e       ??_V@YAXPAX@Z              10005a1e f   LIBCMT:delete2.obj
 0001:00004a29       ??3@YAXPAX@Z               10005a29 f   LIBCMT:delete.obj
 0001:00004a40       _memset                    10005a40 f   LIBCMT:memset.obj
 0001:00004aba       ??1bad_alloc@std@@UAE@XZ   10005aba f i LIBCMT:new.obj
 0001:00004ac5       ??_Gbad_alloc@std@@UAEPAXI@Z 10005ac5 f i LIBCMT:new.obj
 0001:00004ac5       ??_Ebad_alloc@std@@UAEPAXI@Z 10005ac5 f i LIBCMT:new.obj
 0001:00004aec       ??0bad_alloc@std@@QAE@ABV01@@Z 10005aec f i LIBCMT:new.obj
 0001:00004b09       ??2@YAPAXI@Z               10005b09 f   LIBCMT:new.obj
 0001:00004b90       __ftol2_sse                10005b90 f   LIBCMT:ftol2.obj
 0001:00004b99       __ftol2_pentium4           10005b99 f   LIBCMT:ftol2.obj
 0001:00004bac       __ftol2_sse_excpt          10005bac f   LIBCMT:ftol2.obj
 0001:00004bc6       __ftol2                    10005bc6 f   LIBCMT:ftol2.obj
 0001:00004c3b       __CRT_INIT@12              10005c3b f   LIBCMT:dllcrt0.obj
 0001:00004e95       __DllMainCRTStartup@12     10005e95 f   LIBCMT:dllcrt0.obj
 0001:00004eb8       _free                      10005eb8 f   LIBCMT:free.obj
 0001:00004ef2       __VEC_memzero              10005ef2 f   LIBCMT:p4_memset.obj
 0001:00004fac       ___sse2_available_init     10005fac f   LIBCMT:cpu_disp.obj
 0001:00004fbc       ??0exception@std@@QAE@ABQBDH@Z 10005fbc f   LIBCMT:stdexcpt.obj
 0001:00004fd9       ?what@exception@std@@UBEPBDXZ 10005fd9 f   LIBCMT:stdexcpt.obj
 0001:00004fe6       ?_Copy_str@exception@std@@AAEXPBD@Z 10005fe6 f   LIBCMT:stdexcpt.obj
 0001:00005026       ?_Tidy@exception@std@@AAEXXZ 10006026 f   LIBCMT:stdexcpt.obj
 0001:00005044       ??4exception@std@@QAEAAV01@ABV01@@Z 10006044 f   LIBCMT:stdexcpt.obj
 0001:00005079       ??1exception@std@@UAE@XZ   10006079 f   LIBCMT:stdexcpt.obj
 0001:00005084       ??_Gexception@std@@UAEPAXI@Z 10006084 f i LIBCMT:stdexcpt.obj
 0001:00005084       ??_Eexception@std@@UAEPAXI@Z 10006084 f i LIBCMT:stdexcpt.obj
 0001:000050ab       ??0exception@std@@QAE@ABV01@@Z 100060ab f   LIBCMT:stdexcpt.obj
 0001:000050d0       ??1type_info@@UAE@XZ       100060d0 f   LIBCMT:typinfo.obj
 0001:000050e0       ??_Gtype_info@@UAEPAXI@Z   100060e0 f i LIBCMT:typinfo.obj
 0001:000050e0       ??_Etype_info@@UAEPAXI@Z   100060e0 f i LIBCMT:typinfo.obj
 0001:000051b7       ___onexitinit              100061b7 f   LIBCMT:onexit.obj
 0001:000051e8       __onexit                   100061e8 f   LIBCMT:onexit.obj
 0001:00005224       _atexit                    10006224 f   LIBCMT:onexit.obj
 0001:0000523b       _malloc                    1000623b f   LIBCMT:malloc.obj
 0001:000052cf       __initp_heap_handler       100062cf f   LIBCMT:handler.obj
 0001:000052de       __callnewh                 100062de f   LIBCMT:handler.obj
 0001:00005306       __CxxThrowException@8      10006306 f   LIBCMT:throw.obj
 0001:00005352       __encoded_null             10006352 f   LIBCMT:tidtable.obj
 0001:0000535b       ___crtTlsAlloc@4           1000635b f   LIBCMT:tidtable.obj
 0001:00005364       ___set_flsgetvalue         10006364 f   LIBCMT:tidtable.obj
 0001:00005398       __mtterm                   10006398 f   LIBCMT:tidtable.obj
 0001:000053d5       __initptd                  100063d5 f   LIBCMT:tidtable.obj
 0001:00005489       __getptd_noexit            10006489 f   LIBCMT:tidtable.obj
 0001:00005502       __getptd                   10006502 f   LIBCMT:tidtable.obj
 0001:0000551c       __freefls@4                1000651c f   LIBCMT:tidtable.obj
 0001:0000564b       __freeptd                  1000664b f   LIBCMT:tidtable.obj
 0001:000056b9       __mtinit                   100066b9 f   LIBCMT:tidtable.obj
 0001:00005834       __malloc_crt               10006834 f   LIBCMT:crtheap.obj
 0001:00005879       __calloc_crt               10006879 f   LIBCMT:crtheap.obj
 0001:000058c5       __realloc_crt              100068c5 f   LIBCMT:crtheap.obj
 0001:00005913       ___crtCorExitProcess       10006913 f   LIBCMT:crt0dat.obj
 0001:0000593e       ___crtExitProcess          1000693e f   LIBCMT:crt0dat.obj
 0001:00005956       __lockexit                 10006956 f   LIBCMT:crt0dat.obj
 0001:0000595f       __unlockexit               1000695f f   LIBCMT:crt0dat.obj
 0001:00005968       __init_pointers            10006968 f   LIBCMT:crt0dat.obj
 0001:0000599b       __initterm_e               1000699b f   LIBCMT:crt0dat.obj
 0001:000059bf       __cinit                    100069bf f   LIBCMT:crt0dat.obj
 0001:00005b96       __exit                     10006b96 f   LIBCMT:crt0dat.obj
 0001:00005bac       __cexit                    10006bac f   LIBCMT:crt0dat.obj
 0001:00005bbb       __amsg_exit                10006bbb f   LIBCMT:crt0dat.obj
 0001:00005bd9       __ioinit                   10006bd9 f   LIBCMT:ioinit.obj
 0001:00005e1e       __ioterm                   10006e1e f   LIBCMT:ioinit.obj
 0001:00005e71       __setenvp                  10006e71 f   LIBCMT:stdenvp.obj
 0001:000060e7       __setargv                  100070e7 f   LIBCMT:stdargv.obj
 0001:000061a2       ___crtGetEnvironmentStringsA 100071a2 f   LIBCMT:a_env.obj
 0001:00006239       __RTC_Initialize           10007239 f   LIBCMT:_initsect_.obj
 0001:0000625f       __RTC_Terminate            1000725f f   LIBCMT:_initsect_.obj
 0001:00006285       __heap_init                10007285 f   LIBCMT:heapinit.obj
 0001:000062a3       __heap_term                100072a3 f   LIBCMT:heapinit.obj
 0001:000062c0       __SEH_prolog4              100072c0 f   LIBCMT:sehprolg4.obj
 0001:00006305       __SEH_epilog4              10007305 f   LIBCMT:sehprolg4.obj
 0001:00006320       __except_handler4          10007320 f   LIBCMT:chandler4.obj
 0001:000064af       __XcptFilter               100074af f   LIBCMT:winxfltr.obj
 0001:000065f9       ___CppXcptFilter           100075f9 f   LIBCMT:winxfltr.obj
 0001:00006619       _DllMain@12                10007619 f   LIBCMT:dllmain.obj
 0001:0000661f       ___security_init_cookie    1000761f f   LIBCMT:gs_support.obj
 0001:000066ba       __get_errno_from_oserr     100076ba f   LIBCMT:dosmap.obj
 0001:000066fc       __errno                    100076fc f   LIBCMT:dosmap.obj
 0001:0000670f       _strcpy_s                  1000770f f   LIBCMT:strcpy_s.obj
 0001:00006770       _strlen                    10007770 f   LIBCMT:strlen.obj
 0001:000067fb       ?_Type_info_dtor@type_info@@CAXPAV1@@Z 100077fb f   LIBCMT:typname.obj
 0001:00006870       _strcmp                    10007870 f   LIBCMT:strcmp.obj
 0001:000068f8       __msize                    100078f8 f   LIBCMT:msize.obj
 0001:0000692b       __GET_RTERRMSG             1000792b f   LIBCMT:crt0msg.obj
 0001:00006951       __NMSG_WRITE               10007951 f   LIBCMT:crt0msg.obj
 0001:00006b00       __FF_MSGBANNER             10007b00 f   LIBCMT:crt0msg.obj
 0001:00006b39       __mtinitlocks              10007b39 f   LIBCMT:mlock.obj
 0001:00006b83       __mtdeletelocks            10007b83 f   LIBCMT:mlock.obj
 0001:00006bda       __unlock                   10007bda f   LIBCMT:mlock.obj
 0001:00006bf1       __mtinitlocknum            10007bf1 f   LIBCMT:mlock.obj
 0001:00006cb3       __lock                     10007cb3 f   LIBCMT:mlock.obj
 0001:00006ce6       ___addlocaleref            10007ce6 f   LIBCMT:localref.obj
 0001:00006d75       ___removelocaleref         10007d75 f   LIBCMT:localref.obj
 0001:00006e0e       ___freetlocinfo            10007e0e f   LIBCMT:localref.obj
 0001:00006f59       __updatetlocinfoEx_nolock  10007f59 f   LIBCMT:localref.obj
 0001:00006fa6       ___updatetlocinfo          10007fa6 f   LIBCMT:localref.obj
 0001:00007242       ___updatetmbcinfo          10008242 f   LIBCMT:mbctype.obj
 0001:000072e6       ??0_LocaleUpdate@@QAE@PAUlocaleinfo_struct@@@Z 100082e6 f i LIBCMT:mbctype.obj
 0001:000073e9       __setmbcp_nolock           100083e9 f   LIBCMT:mbctype.obj
 0001:000075d2       __setmbcp                  100085d2 f   LIBCMT:mbctype.obj
 0001:0000776c       ___initmbctable            1000876c f   LIBCMT:mbctype.obj
 0001:0000778a       __calloc_impl              1000878a f   LIBCMT:calloc_impl.obj
 0001:0000780c       _realloc                   1000880c f   LIBCMT:realloc.obj
 0001:000078b9       ?terminate@@YAXXZ          100088b9 f   LIBCMT:hooks.obj
 0001:000078f2       __initp_eh_hooks           100088f2 f   LIBCMT:hooks.obj
 0001:00007903       __initp_misc_winsig        10008903 f   LIBCMT:winsig.obj
 0001:00007958       ___get_sigabrt             10008958 f   LIBCMT:winsig.obj
 0001:00007965       _raise                     10008965 f   LIBCMT:winsig.obj
 0001:00007b08       __initp_misc_rand_s        10008b08 f   LIBCMT:rand_s.obj
 0001:00007b17       __initp_misc_purevirt      10008b17 f   LIBCMT:inithelp.obj
 0001:00007b26       __initp_misc_invarg        10008b26 f   LIBCMT:invarg.obj
 0001:00007b35       __call_reportfault         10008b35 f   LIBCMT:invarg.obj
 0001:00007c5e       __invoke_watson            10008c5e f   LIBCMT:invarg.obj
 0001:00007c83       __invalid_parameter        10008c83 f   LIBCMT:invarg.obj
 0001:00007cb0       __invalid_parameter_noinfo 10008cb0 f   LIBCMT:invarg.obj
 0001:00007cc0       __initp_misc_cfltcvt_tab   10008cc0 f   LIBCMT:cmiscdat.obj
 0001:00007cf0       __ValidateImageBase        10008cf0 f   LIBCMT:pesect.obj
 0001:00007d30       __FindPESection            10008d30 f   LIBCMT:pesect.obj
 0001:00007d80       __IsNonwritableInCurrentImage 10008d80 f   LIBCMT:pesect.obj
 0001:00007e8f       __ismbblead                10008e8f f   LIBCMT:ismbbyte.obj
 0001:00007ea7       @__security_check_cookie@4 10008ea7 f   LIBCMT:secchk.obj
 0001:00007ec0       __local_unwind4            10008ec0 f   LIBCMT:exsup4.obj
 0001:00007f96       __seh_longjmp_unwind4@4    10008f96 f   LIBCMT:exsup4.obj
 0001:00007fb2       @_EH4_CallFilterFunc@8     10008fb2 f   LIBCMT:exsup4.obj
 0001:00007fc9       @_EH4_TransferToHandler@8  10008fc9 f   LIBCMT:exsup4.obj
 0001:00007fe2       @_EH4_GlobalUnwind2@8      10008fe2 f   LIBCMT:exsup4.obj
 0001:00007ffb       @_EH4_LocalUnwind@16       10008ffb f   LIBCMT:exsup4.obj
 0001:00008012       ___crtMessageBoxW          10009012 f   LIBCMT:crtmboxw.obj
 0001:0000817e       _wcscat_s                  1000917e f   LIBCMT:wcscat_s.obj
 0001:000081f3       _wcsncpy_s                 100091f3 f   LIBCMT:wcsncpy_s.obj
 0001:000082c0       _wcslen                    100092c0 f   LIBCMT:wcslen.obj
 0001:000082db       _wcscpy_s                  100092db f   LIBCMT:wcscpy_s.obj
 0001:0000833e       __set_error_mode           1000933e f   LIBCMT:errmode.obj
 0001:0000837d       ___free_lc_time            1000937d f   LIBCMT:inittime.obj
 0001:000086f4       ___free_lconv_num          100096f4 f   LIBCMT:initnum.obj
 0001:0000875d       ___free_lconv_mon          1000975d f   LIBCMT:initmon.obj
 0001:0000885b       __freea                    1000985b f i LIBCMT:a_map.obj
 0001:00008a62       ___crtLCMapStringA         10009a62 f   LIBCMT:a_map.obj
 0001:00008b8f       ___crtGetStringTypeA       10009b8f f   LIBCMT:a_str.obj
 0001:00008bcf       _abort                     10009bcf f   LIBCMT:abort.obj
 0001:00008c10       _memcpy                    10009c10 f   LIBCMT:memcpy.obj
 0001:00008f71       __crt_debugger_hook        10009f71 f   LIBCMT:dbghook.obj
 0001:00008f79       __fptrap                   10009f79 f   LIBCMT:crt0fp.obj
 0001:00008f82       ___report_gsfailure        10009f82 f   LIBCMT:gs_report.obj
 0001:00009090       __global_unwind2           1000a090 f   LIBCMT:exsup.obj
 0001:000090f5       __local_unwind2            1000a0f5 f   LIBCMT:exsup.obj
 0001:00009179       __abnormal_termination     1000a179 f   LIBCMT:exsup.obj
 0001:0000919c       __NLG_Notify1              1000a19c f   LIBCMT:exsup.obj
 0001:000091a5       __NLG_Notify               1000a1a5 f   LIBCMT:exsup.obj
 0001:000091bc       __NLG_Dispatch2            1000a1bc     LIBCMT:exsup.obj
 0001:000091bc       __NLG_Dispatch             1000a1bc     LIBCMT:exsup.obj
 0001:000091c4       __NLG_Call                 1000a1c4 f   LIBCMT:exsup.obj
 0001:000091c6       __NLG_Return2              1000a1c6     LIBCMT:exsup.obj
 0001:000091d0       __aulldvrm                 1000a1d0 f   LIBCMT:ulldvrm.obj
 0001:00009270       __alloca_probe_16          1000a270 f   LIBCMT:alloca16.obj
 0001:00009286       __alloca_probe_8           1000a286     LIBCMT:alloca16.obj
 0001:0000929c       __VEC_memcpy               1000a29c f   LIBCMT:p4_memcpy.obj
 0001:000093a0       __allmul                   1000a3a0 f   LIBCMT:llmul.obj
 0001:000093e0       _strcspn                   1000a3e0 f   LIBCMT:strcspn.obj
 0001:00009430       _strpbrk                   1000a430 f   LIBCMT:strpbrk.obj
 0001:00009470       ___ascii_strnicmp          1000a470 f   LIBCMT:_strnicm.obj
 0001:000094d2       _RtlUnwind@16              1000a4d2 f   kernel32:KERNEL32.dll
 0001:000094f0       __TI2?AVbad_alloc@std@@    1000a4f0     LIBCMT:new.obj
 0001:00009500       __CTA2?AVbad_alloc@std@@   1000a500     LIBCMT:new.obj
 0001:0000950c       __CT??_R0?AVbad_alloc@std@@@8??0bad_alloc@std@@QAE@ABV01@@Z12 1000a50c     LIBCMT:new.obj
 0001:00009528       __CT??_R0?AVexception@std@@@8??0exception@std@@QAE@ABV01@@Z12 1000a528     LIBCMT:new.obj
 0001:00009714       __IMPORT_DESCRIPTOR_KERNEL32 1000a714     kernel32:KERNEL32.dll
 0001:00009728       __IMPORT_DESCRIPTOR_USER32 1000a728     user32:USER32.dll
 0001:0000973c       __NULL_IMPORT_DESCRIPTOR   1000a73c     kernel32:KERNEL32.dll
 0002:00000040       ??_R0?AVbad_alloc@std@@@8  1000b040     LIBCMT:new.obj
 0002:0000005c       ??_R0?AVexception@std@@@8  1000b05c     LIBCMT:new.obj
 0002:00000080       ??_R0?AVtype_info@@@8      1000b080     LIBCMT:typinfo.obj
 0002:00000098       ___flsindex                1000b098     LIBCMT:tidtable.obj
 0002:0000009c       ___getvalueindex           1000b09c     LIBCMT:tidtable.obj
 0002:000000a0       ___badioinfo               1000b0a0     LIBCMT:ioinit.obj
 0002:00000370       ___clocalestr              1000b370     LIBCMT:nlsdata2.obj
 0002:00000378       ___lc_time_c               1000b378     LIBCMT:nlsdata2.obj
 0002:000004e0       ___initiallocinfo          1000b4e0     LIBCMT:nlsdata2.obj
 0002:000005b8       ___ptlocinfo               1000b5b8     LIBCMT:nlsdata2.obj
 0002:000005c0       ___initialmbcinfo          1000b5c0     LIBCMT:mbctype.obj
 0002:000007e0       __mbctype                  1000b7e0     LIBCMT:mbctype.obj
 0002:000008e8       __mbcasemap                1000b8e8     LIBCMT:mbctype.obj
 0002:000009e8       ___ptmbcinfo               1000b9e8     LIBCMT:mbctype.obj
 0002:00000ae0       __cfltcvt_tab              1000bae0     LIBCMT:cmiscdat.obj
 0002:00000b08       ___security_cookie         1000bb08     LIBCMT:gs_cookie.obj
 0002:00000b0c       ___security_cookie_complement 1000bb0c     LIBCMT:gs_cookie.obj
 0002:00000b10       ___lconv_static_decimal    1000bb10     LIBCMT:lconv.obj
 0002:00000b14       ___lconv_static_W_decimal  1000bb14     LIBCMT:lconv.obj
 0002:00000b18       ___lconv_c                 1000bb18     LIBCMT:lconv.obj
 0002:00000b68       ___lconv                   1000bb68     LIBCMT:lconv.obj
 0002:00000b6c       ___globallocalestatus      1000bb6c     LIBCMT:glstatus.obj
 0002:00000b70       __pctype                   1000bb70     LIBCMT:ctype.obj
 0002:00000b74       __pwctype                  1000bb74     LIBCMT:ctype.obj
 0002:00000b78       ___abort_behavior          1000bb78     LIBCMT:abort.obj
 0002:00000b80       __NLG_Destination          1000bb80     LIBCMT:exsup.obj
 0002:00000ba0       ___mb_cur_max              1000bba0     LIBCMT:nlsdata1.obj
 0002:00000ba4       ___decimal_point           1000bba4     LIBCMT:nlsdata1.obj
 0002:00000ba8       ___decimal_point_length    1000bba8     LIBCMT:nlsdata1.obj
 0002:00000d34       __aenvptr                  1000bd34     LIBCMT:dllcrt0.obj
 0002:00000d38       __wenvptr                  1000bd38     LIBCMT:dllcrt0.obj
 0002:00000d3c       ___error_mode              1000bd3c     LIBCMT:dllcrt0.obj
 0002:00000d40       ___app_type                1000bd40     LIBCMT:dllcrt0.obj
 0002:00000d44       ?_pnhHeap@@3P6AHI@ZA       1000bd44     LIBCMT:handler.obj
 0002:00000d48       _gpFlsAlloc                1000bd48     LIBCMT:tidtable.obj
 0002:00000d4c       _gpFlsGetValue             1000bd4c     LIBCMT:tidtable.obj
 0002:00000d50       _gpFlsSetValue             1000bd50     LIBCMT:tidtable.obj
 0002:00000d54       _gpFlsFree                 1000bd54     LIBCMT:tidtable.obj
 0002:00000d58       __maxwait                  1000bd58     LIBCMT:crtheap.obj
 0002:00000d5c       __umaskval                 1000bd5c     LIBCMT:crt0dat.obj
 0002:00000d60       ___argc                    1000bd60     LIBCMT:crt0dat.obj
 0002:00000d64       ___argv                    1000bd64     LIBCMT:crt0dat.obj
 0002:00000d68       ___wargv                   1000bd68     LIBCMT:crt0dat.obj
 0002:00000d6c       __environ                  1000bd6c     LIBCMT:crt0dat.obj
 0002:00000d70       ___initenv                 1000bd70     LIBCMT:crt0dat.obj
 0002:00000d74       __wenviron                 1000bd74     LIBCMT:crt0dat.obj
 0002:00000d78       ___winitenv                1000bd78     LIBCMT:crt0dat.obj
 0002:00000d7c       __pgmptr                   1000bd7c     LIBCMT:crt0dat.obj
 0002:00000d80       __wpgmptr                  1000bd80     LIBCMT:crt0dat.obj
 0002:00000d84       __exitflag                 1000bd84     LIBCMT:crt0dat.obj
 0002:00000d88       __C_Termination_Done       1000bd88     LIBCMT:crt0dat.obj
 0002:00000d8c       __C_Exit_Done              1000bd8c     LIBCMT:crt0dat.obj
 0002:00000e98       __crtheap                  1000be98     LIBCMT:heapinit.obj
 0002:000014d0       __newmode                  1000c4d0     LIBCMT:_newmode.obj
 0002:0000162c       ___mbulinfo                1000c62c     LIBCMT:mbctype.obj
 0002:00001638       ___mbcodepage              1000c638     LIBCMT:mbctype.obj
 0002:0000163c       ___ismbcodepage            1000c63c     LIBCMT:mbctype.obj
 0002:00001640       ___mblcid                  1000c640     LIBCMT:mbctype.obj
 0002:00001644       ?__pInconsistency@@3P6AXXZA 1000c644     LIBCMT:hooks.obj
 0002:00001660       ___pPurecall               1000c660     LIBCMT:inithelp.obj
 0002:00001664       ___pInvalidArgHandler      1000c664     LIBCMT:invarg.obj
 0002:0000167c       ?pArgList@UnDecorator@@0PAVReplicator@@A 1000c67c     LIBCMT:undname.obj
 0002:00001680       ?pZNameList@UnDecorator@@0PAVReplicator@@A 1000c680     LIBCMT:undname.obj
 0002:00001684       ?pTemplateArgList@UnDecorator@@0PAVReplicator@@A 1000c684     LIBCMT:undname.obj
 0002:00001688       ?gName@UnDecorator@@0PBDB  1000c688     LIBCMT:undname.obj
 0002:0000168c       ?name@UnDecorator@@0PBDB   1000c68c     LIBCMT:undname.obj
 0002:00001690       ?outputString@UnDecorator@@0PADA 1000c690     LIBCMT:undname.obj
 0002:00001694       ?maxStringLength@UnDecorator@@0HA 1000c694     LIBCMT:undname.obj
 0002:00001698       ?disableFlags@UnDecorator@@0KA 1000c698     LIBCMT:undname.obj
 0002:0000169c       ?m_pGetParameter@UnDecorator@@0P6APADJ@ZA 1000c69c     LIBCMT:undname.obj
 0002:000016a0       ?fExplicitTemplateParams@UnDecorator@@0_NA 1000c6a0     LIBCMT:undname.obj
 0002:000016a1       ?fGetTemplateArgumentList@UnDecorator@@0_NA 1000c6a1     LIBCMT:undname.obj
 0002:000016b8       ___lconv_static_null       1000c6b8     LIBCMT:lconv.obj
 0002:000016bc       ___lconv_static_W_null     1000c6bc     LIBCMT:lconv.obj
 0002:000019e4       ___locale_changed          1000c9e4     LIBCMT:setlocal.obj
 0002:000019e8       __debugger_hook_dummy      1000c9e8     <common>
 0002:000019ec       __pDestructExceptionObject 1000c9ec     <common>
 0002:000019f0       __nhandle                  1000c9f0     <common>
 0002:00001a00       ___pioinfo                 1000ca00     <common>
 0002:00001b00       ___env_initialized         1000cb00     <common>
 0002:00001b04       ___onexitend               1000cb04     <common>
 0002:00001b08       ___onexitbegin             1000cb08     <common>
 0002:00001b0c       ___mbctype_initialized     1000cb0c     <common>
 0002:00001b10       __FPinit                   1000cb10     <common>
 0002:00001b14       ___dyn_tls_init_callback   1000cb14     <common>
 0002:00001b18       ___sse2_available          1000cb18     <common>
 0002:00001b1c       __acmdln                   1000cb1c     <common>

 entry point at        0001:00004e95

 Static symbols

 0001:000048e0       ?DecodePointer@implementation@?1??DecodePointerWrapper@@9@4@SGPAXPAX@Z 100058e0 f   vc_crt_fix_impl.obj
 0001:000048e0       ?EncodePointer@implementation@?1??EncodePointerWrapper@@9@4@SGPAXPAX@Z 100058e0 f   vc_crt_fix_impl.obj
 0001:000048f0       ?GetModuleHandleExW@implementation@?1??GetModuleHandleExWWrapper@@9@12@SGHKPB_WPAPAUHINSTANCE__@@@Z 100058f0 f   vc_crt_fix_impl.obj
 0001:00004d9f       ___DllMainCRTStartup       10005d9f f   LIBCMT:dllcrt0.obj
 0001:00005101       __onexit_nolock            10006101 f   LIBCMT:onexit.obj
 0001:00005a56       _doexit                    10006a56 f   LIBCMT:crt0dat.obj
 0001:00005f4d       _parse_cmdline             10006f4d f   LIBCMT:stdargv.obj
 0001:0000701f       ?CPtoLCID@@YAHH@Z          1000801f f   LIBCMT:mbctype.obj
 0001:0000704e       ?setSBCS@@YAXPAUthreadmbcinfostruct@@@Z 1000804e f   LIBCMT:mbctype.obj
 0001:000070b2       ?setSBUpLow@@YAXPAUthreadmbcinfostruct@@@Z 100080b2 f   LIBCMT:mbctype.obj
 0001:0000736d       ?getSystemCP@@YAHH@Z       1000836d f   LIBCMT:mbctype.obj
 0001:00007921       _siglookup                 10008921 f   LIBCMT:winsig.obj
 0001:00007e3c       ?x_ismbbtype_l@@YAHPAUlocaleinfo_struct@@IHH@Z 10008e3c f   LIBCMT:ismbbyte.obj
 0001:00007f50       __unwind_handler4          10008f50 f   LIBCMT:exsup4.obj
 0001:0000887b       ?__crtLCMapStringA_stat@@YAHPAUlocaleinfo_struct@@KKPBDHPADHHH@Z 1000987b f   LIBCMT:a_map.obj
 0001:00008aa8       ?__crtGetStringTypeA_stat@@YAHPAUlocaleinfo_struct@@KPBDHPAGHHH@Z 10009aa8 f   LIBCMT:a_str.obj
 0001:000090b0       __unwind_handler           1000a0b0 f   LIBCMT:exsup.obj
 0001:000094d8       ??__Fnomem@?5???2@YAPAXI@Z@YAXXZ 1000a4d8 f   LIBCMT:new.obj
