 ConEmuTh.x64

 Timestamp is 5712d5e9 (Sun Apr 17 03:16:41 2016)

 Preferred load address is 0000000180000000

 Start         Length     Name                   Class
 0001:00000000 000001dbH .text                   CODE
 0001:000001e0 0001bae1H .text$mn                CODE
 0001:0001bcd0 00000012H .text$mn$00             CODE
 0001:0001bcf0 00000260H .text$x                 CODE
 0002:00000000 00000640H .idata$5                DATA
 0002:00000640 00000010H .00cfg                  DATA
 0002:00000650 00000008H .CRT$XCA                DATA
 0002:00000658 00000008H .CRT$XCZ                DATA
 0002:00000660 00000008H .CRT$XIA                DATA
 0002:00000668 00000018H .CRT$XIC                DATA
 0002:00000680 00000008H .CRT$XIZ                DATA
 0002:00000688 00000008H .CRT$XPA                DATA
 0002:00000690 00000010H .CRT$XPX                DATA
 0002:000006a0 00000008H .CRT$XPXA               DATA
 0002:000006a8 00000008H .CRT$XPZ                DATA
 0002:000006b0 00000008H .CRT$XTA                DATA
 0002:000006b8 00000008H .CRT$XTZ                DATA
 0002:000006c0 000084d4H .rdata                  DATA
 0002:00008b98 00000000H .rdata$r                DATA
 0002:00008b98 00000010H .rdata$zETW0            DATA
 0002:00008ba8 00000077H .rdata$zETW1            DATA
 0002:00008c1f 0000002cH .rdata$zETW2            DATA
 0002:00008c4b 00000001H .rdata$zETW9            DATA
 0002:00008c4c 00000314H .rdata$zzzdbg           DATA
 0002:00008f60 00000008H .rtc$IAA                DATA
 0002:00008f68 00000008H .rtc$IZZ                DATA
 0002:00008f70 00000008H .rtc$TAA                DATA
 0002:00008f78 00000008H .rtc$TZZ                DATA
 0002:00008f80 00001190H .xdata                  DATA
 0002:0000a110 0000016cH .edata                  DATA
 0002:0000a27c 0000008cH .idata$2                DATA
 0002:0000a308 00000014H .idata$3                DATA
 0002:0000a320 00000640H .idata$4                DATA
 0002:0000a960 00000dbcH .idata$6                DATA
 0003:00000000 000009f4H .data                   DATA
 0003:000009f8 00000000H .data$r                 DATA
 0003:00000a00 0002b018H .bss                    DATA
 0004:00000000 0000186cH .pdata                  DATA
 0005:00000000 0000007cH .gfids$x                DATA
 0005:0000007c 0000001cH .gfids$y                DATA
 0006:00000000 000000e8H .rsrc$01                DATA
 0006:000000f0 000013a8H .rsrc$02                DATA

  Address         Publics by Value              Rva+Base               Lib:Object

 0000:00000000       __guard_iat_table          0000000000000000     <absolute>
 0000:00000000       __guard_iat_count          0000000000000000     <absolute>
 0000:00000000       __guard_longjmp_table      0000000000000000     <absolute>
 0000:00000000       __guard_longjmp_count      0000000000000000     <absolute>
 0000:00000000       __guard_fids_count         0000000000000000     <absolute>
 0000:00000000       ___safe_se_handler_table   0000000000000000     <absolute>
 0000:00000000       ___safe_se_handler_count   0000000000000000     <absolute>
 0000:00000000       __guard_fids_table         0000000000000000     <absolute>
 0000:00000100       __guard_flags              0000000000000100     <absolute>
 0000:00000000       __ImageBase                0000000180000000     <linker-defined>
 0001:00000000       ?TraceLoggingRegister@__vcrt_trace_logging_provider@@YAJPEBU_TlgProvider_t@1@PEBU_GUID@@P6AX1KE_K2PEAU_EVENT_FILTER_DESCRIPTOR@@PEAX@Z4@Z 0000000180001000 f i libvcruntime:telemetry.obj
 0001:0000007c       ?_TlgEnableCallback@__vcrt_trace_logging_provider@@YAXPEBU_GUID@@KE_K1PEAU_EVENT_FILTER_DESCRIPTOR@@PEAX@Z 000000018000107c f i libvcruntime:telemetry.obj
 0001:00000140       ?_TlgWrite@__vcrt_trace_logging_provider@@YAJPEBU_TlgProvider_t@1@PEFBXPEBU_GUID@@2IPEAU_EVENT_DATA_DESCRIPTOR@@@Z 0000000180001140 f i libvcruntime:telemetry.obj
 0001:000001e0       ??0CEStr@@QEAA@PEB_W00000000@Z 00000001800011e0 f   CEStr.obj
 0001:00000288       ??1CEStr@@QEAA@XZ          0000000180001288 f   CEStr.obj
 0001:000002d4       ??BCEStr@@QEBAPEB_WXZ      00000001800012d4 f   CEStr.obj
 0001:000002d8       ?AttachInt@CEStr@@AEAAPEB_WAEAPEA_W@Z 00000001800012d8 f   CEStr.obj
 0001:0000035c       ?Empty@CEStr@@QEAAXXZ      000000018000135c f   CEStr.obj
 0001:0000037c       ?GetBuffer@CEStr@@QEAAPEA_W_J@Z 000000018000137c f   CEStr.obj
 0001:00000430       ?GetLen@CEStr@@QEBA_JXZ    0000000180001430 f   CEStr.obj
 0001:00000458       ?GetMaxCount@CEStr@@QEAA_JXZ 0000000180001458 f   CEStr.obj
 0001:00000484       ?SavePathVar@CEStr@@QEAAXPEB_W@Z 0000000180001484 f   CEStr.obj
 0001:000004bc       ?Set@CEStr@@QEAAPEB_WPEB_W_J@Z 00000001800014bc f   CEStr.obj
 0001:000005b0       ?StringCchCopyNW@@YAJPEA_W_KPEB_W1@Z 00000001800015b0 f i CEStr.obj
 0001:00000634       ?PointToExt@@YAPEB_WPEB_W@Z 0000000180001634 f   CmdLine.obj
 0001:00000658       ?PointToName@@YAPEB_WPEB_W@Z 0000000180001658 f   CmdLine.obj
 0001:000006b4       ?Unquote@@YAPEB_WPEA_W_N@Z 00000001800016b4 f   CmdLine.obj
 0001:0000071c       ?CommonShutdown@@YAXXZ     000000018000171c f   Common.obj
 0001:0000072c       ?ExecuteCmd@@YAPEAUCESERVER_REQ@@PEB_WPEAU1@KPEAUHWND__@@HKH@Z 000000018000172c f   ConEmuCheck.obj
 0001:0000091c       ?ExecuteFreeResult@@YAXAEAPEAUCESERVER_REQ@@@Z 000000018000191c f   ConEmuCheck.obj
 0001:0000093c       ?ExecuteGuiCmd@@YAPEAUCESERVER_REQ@@PEAUHWND__@@PEAU1@0H@Z 000000018000193c f   ConEmuCheck.obj
 0001:000009e8       ?ExecuteNewCmd@@YAPEAUCESERVER_REQ@@K_K@Z 00000001800019e8 f   ConEmuCheck.obj
 0001:00000a4c       ?ExecuteOpenPipe@@YAPEAXPEB_WAEAY0CAI@_W0KKHPEAXH@Z 0000000180001a4c f   ConEmuCheck.obj
 0001:00000bfc       ?ExecutePrepareCmd@@YAXPEAUCESERVER_REQ@@K_K@Z 0000000180001bfc f   ConEmuCheck.obj
 0001:00000c38       ?ExecutePrepareCmd@@YAXPEAUCESERVER_REQ_HDR@@K_K@Z 0000000180001c38 f   ConEmuCheck.obj
 0001:00000ca8       ?ModuleName@@YAPEB_WPEB_W@Z 0000000180001ca8 f   ConEmuCheck.obj
 0001:00000d48       ?StringCchCopyW@@YAJPEA_W_KPEB_W@Z 0000000180001d48 f i ConEmuCheck.obj
 0001:00000dc0       ProcessSynchroEventW       0000000180001dc0 f   ConEmuTh.obj
 0001:00000dc8       ?ExitFARW3@@YAXPEAX@Z      0000000180001dc8 f   ConEmuTh.obj
 0001:00000dc8       ExitFARW                   0000000180001dc8 f   ConEmuTh.obj
 0001:00000e00       ??_G?$MFileMapping@Utag_DetectedDialog@@@@QEAAPEAXI@Z 0000000180001e00 f i ConEmuTh.obj
 0001:00000fd8       ?CheckConEmu@@YAHH@Z       0000000180001fd8 f   ConEmuTh.obj
 0001:000010e0       ?CheckPanelSettings@@YAHH@Z 00000001800020e0 f   ConEmuTh.obj
 0001:00001118       ?CheckVarsInitialized@@YAXXZ 0000000180002118 f   ConEmuTh.obj
 0001:00001260       ?CheckWindows@@YA_NXZ      0000000180002260 f   ConEmuTh.obj
 0001:00001300       ?EntryPoint@@YAXH_J_N@Z    0000000180002300 f   ConEmuTh.obj
 0001:000014c4       ?ExecuteInMainThread@@YAXPEAUConEmuThSynchroArg@@@Z 00000001800024c4 f   ConEmuTh.obj
 0001:00001548       ?ExitPlugin@@YAXXZ         0000000180002548 f   ConEmuTh.obj
 0001:00001680       ?FreeItem@CePluginPanelItem@@QEAAXXZ 0000000180002680 f   ConEmuTh.obj
 0001:000016a0       ?FreeUserData@CePluginPanelItem@@QEAAXXZ 00000001800026a0 f   ConEmuTh.obj
 0001:000016f4       ?GetActivePanel@@YAPEAUCeFullPanelInfo@@XZ 00000001800026f4 f   ConEmuTh.obj
 0001:00001738       ?GetFarRect@@YAHPEAU_SMALL_RECT@@@Z 0000000180002738 f   ConEmuTh.obj
 0001:000017a8       ?GetFocusedThumbnails@@YAPEAUCeFullPanelInfo@@XZ 00000001800027a8 f   ConEmuTh.obj
 0001:00001804       ?GetMainThreadId@@YAKXZ    0000000180002804 f   ConEmuTh.obj
 0001:0000189c       ?GetMsgW@@YAPEB_WH@Z       000000018000289c f   ConEmuTh.obj
 0001:000018d8       ?GetPluginInfoWcmn@@YAXPEAX@Z 00000001800028d8 f   ConEmuTh.obj
 0001:000018fc       ?InitName@?$MFileMapping@Utag_DetectedDialog@@@@QEAAPEB_WPEB_WKK@Z 00000001800028fc f i ConEmuTh.obj
 0001:000018fc       ?InitName@?$MFileMapping@UPanelViewSetMapping@@@@QEAAPEB_WPEB_WKK@Z 00000001800028fc f i ConEmuTh.obj
 0001:00001994       ?InternalOpenCreate@?$MFileMapping@UPanelViewSetMapping@@@@IEAAPEAUPanelViewSetMapping@@HHH@Z 0000000180002994 f i ConEmuTh.obj
 0001:00001b40       ?InternalOpenCreate@?$MFileMapping@Utag_DetectedDialog@@@@IEAAPEAUtag_DetectedDialog@@HHH@Z 0000000180002b40 f i ConEmuTh.obj
 0001:00001cec       ?IsThumbnailsActive@@YAPEAUCeFullPanelInfo@@H@Z 0000000180002cec f   ConEmuTh.obj
 0001:00001ed8       ?LoadFarVersion@@YAHXZ     0000000180002ed8 f   ConEmuTh.obj
 0001:000021ec       ?LoadPanelItemInfo@@YAXPEAUCeFullPanelInfo@@_J@Z 00000001800031ec f   ConEmuTh.obj
 0001:00002224       ?LoadThSet@@YAHK@Z         0000000180003224 f   ConEmuTh.obj
 0001:00002440       ?OnPostPeekConsole@@YAHPEAXPEAU_INPUT_RECORD@@KPEAKPEAH@Z 0000000180003440 f   ConEmuTh.obj
 0001:00002480       ?OnPostReadConsole@@YAHPEAXPEAU_INPUT_RECORD@@KPEAKPEAH@Z 0000000180003480 f   ConEmuTh.obj
 0001:000024c4       ?OnPrePeekConsole@@YAHPEAXPEAU_INPUT_RECORD@@KPEAKPEAH@Z 00000001800034c4 f   ConEmuTh.obj
 0001:00002588       ?OnPreReadConsole@@YAHPEAXPEAU_INPUT_RECORD@@KPEAKPEAH@Z 0000000180003588 f   ConEmuTh.obj
 0001:000025a4       ?OnPreWriteConsoleOutput@@YAHPEAXPEBU_CHAR_INFO@@U_COORD@@2PEAU_SMALL_RECT@@@Z 00000001800035a4 f   ConEmuTh.obj
 0001:00002708       ?OnReadyForPanelsReload@@YAXXZ 0000000180003708 f   ConEmuTh.obj
 0001:00002870       ?OpenPluginWcmn@@YAPEAXH_J_N@Z 0000000180003870 f   ConEmuTh.obj
 0001:000028dc       ?OpenW@@YAPEAXPEBUOpenInfo@@@Z 00000001800038dc f   ConEmuTh.obj
 0001:0000290c       ?PostMacro@@YAXPEA_W@Z     000000018000390c f   ConEmuTh.obj
 0001:00002a84       ?ProcessConsoleInput@@YAHHPEAU_INPUT_RECORD@@KPEAK@Z 0000000180003a84 f   ConEmuTh.obj
 0001:00002d98       ?ProcessSynchroEventCommon@@YAHHPEAX@Z 0000000180003d98 f   ConEmuTh.obj
 0001:00002f04       ?ReloadPanelsInfo@@YAXXZ   0000000180003f04 f   ConEmuTh.obj
 0001:00003094       ?ReloadResourcesW@@YAXXZ   0000000180004094 f   ConEmuTh.obj
 0001:00003130       ?ResetUngetBuffer@@YAXXZ   0000000180004130 f   ConEmuTh.obj
 0001:00003140       ?SavePanelViewState@@YAXHK@Z 0000000180004140 f   ConEmuTh.obj
 0001:00003180       ?SettingsLoad@@YAHPEB_WPEAK@Z 0000000180004180 f   ConEmuTh.obj
 0001:000031b8       ?SettingsLoadOther@@YAXPEB_W@Z 00000001800041b8 f   ConEmuTh.obj
 0001:00003310       ?SettingsLoadReg@@YAHPEB_W0PEAK@Z 0000000180004310 f   ConEmuTh.obj
 0001:000033b0       ?SettingsSave@@YAXPEB_WPEAK@Z 00000001800043b0 f   ConEmuTh.obj
 0001:000033e8       ?SettingsSaveReg@@YAXPEB_W0PEAK@Z 00000001800043e8 f   ConEmuTh.obj
 0001:00003470       ?ShowLastError@@YAHXZ      0000000180004470 f   ConEmuTh.obj
 0001:000034e4       ?ShowMessage@@YAHHH@Z      00000001800044e4 f   ConEmuTh.obj
 0001:0000351c       ?ShowPluginMenu@@YAHXZ     000000018000451c f   ConEmuTh.obj
 0001:00003554       ?StartPlugin@@YAXH@Z       0000000180004554 f   ConEmuTh.obj
 0001:000036c0       ?StringCchCatW@@YAJPEA_W_KPEB_W@Z 00000001800046c0 f i ConEmuTh.obj
 0001:00003784       ?UpdateEnvVar@@YAXH@Z      0000000180004784 f   ConEmuTh.obj
 0001:000037b4       ?isPreloadByDefault@@YA_NXZ 00000001800047b4 f   ConEmuTh.obj
 0001:000037dc       DllMain                    00000001800047dc f   ConEmuTh.obj
 0001:000038a8       GetMinFarVersionW          00000001800048a8 f   ConEmuTh.obj
 0001:000038b0       SetStartupInfoW            00000001800048b0 f   ConEmuTh.obj
 0001:00003910       ?CheckFarPanelsW1900@@YA_NXZ 0000000180004910 f   ConEmuTh1900.obj
 0001:0000396c       ?CheckPanelSettingsW1900@@YAHH@Z 000000018000496c f   ConEmuTh1900.obj
 0001:00003a1c       ?Color2BgIndex@Far3Color@@SAXKHAEAGPEBK@Z 0000000180004a1c f i ConEmuTh1900.obj
 0001:00003b30       ?Color2FgIndex@Far3Color@@SAXKAEAGPEBK@Z 0000000180004b30 f i ConEmuTh1900.obj
 0001:00003c20       ?ExecuteInMainThreadW1900@@YAXPEAUConEmuThSynchroArg@@@Z 0000000180004c20 f   ConEmuTh1900.obj
 0001:00003c4c       ?ExitFARW1900@@YAXXZ       0000000180004c4c f   ConEmuTh1900.obj
 0001:00003c88       ?FarColor_3_2@@YAEAEBUFarColor@@@Z 0000000180004c88 f i ConEmuTh1900.obj
 0001:00003d34       ?GetFarRectW1900@@YAXPEAU_SMALL_RECT@@@Z 0000000180004d34 f   ConEmuTh1900.obj
 0001:00003dc8       ?GetMsgW1900@@YAPEB_WH@Z   0000000180004dc8 f   ConEmuTh1900.obj
 0001:00003df4       ?GetPluginInfoW1900@@YAXPEAX@Z 0000000180004df4 f   ConEmuTh1900.obj
 0001:00003f94       ?LoadPanelInfoW1900@@YAHH@Z 0000000180004f94 f   ConEmuTh1900.obj
 0001:000043f0       ?LoadPanelItemInfoW1900@@YAXPEAUCeFullPanelInfo@@_J@Z 00000001800053f0 f   ConEmuTh1900.obj
 0001:00004624       ?OpenW1900@@YAPEAXPEBX@Z   0000000180005624 f   ConEmuTh1900.obj
 0001:00004684       ?PostMacroW1900@@YAXPEA_W@Z 0000000180005684 f   ConEmuTh1900.obj
 0001:00004704       ?ReloadPanelsInfoW1900@@YAXXZ 0000000180005704 f   ConEmuTh1900.obj
 0001:00004728       ?SetCurrentPanelItemW1900@@YAXH_J0@Z 0000000180005728 f   ConEmuTh1900.obj
 0001:00004850       ?SetStartupInfoW1900@@YAXPEAX@Z 0000000180005850 f   ConEmuTh1900.obj
 0001:00004988       ?SettingsLoadW1900@@YAHPEB_WPEAK@Z 0000000180005988 f   ConEmuTh1900.obj
 0001:00004a54       ?SettingsSaveW1900@@YAXPEB_WPEAK@Z 0000000180005a54 f   ConEmuTh1900.obj
 0001:00004b2c       ?ShowMessageW1900@@YAHHH@Z 0000000180005b2c f   ConEmuTh1900.obj
 0001:00004b74       ?ShowMessageW1900@@YAHPEB_WH@Z 0000000180005b74 f   ConEmuTh1900.obj
 0001:00004be0       ?ShowPluginMenuW1900@@YAHXZ 0000000180005be0 f   ConEmuTh1900.obj
 0001:00004dd8       ?CheckFarPanelsW2800@@YA_NXZ 0000000180005dd8 f   ConEmuTh2800.obj
 0001:00004e4c       ?CheckPanelSettingsW2800@@YAHH@Z 0000000180005e4c f   ConEmuTh2800.obj
 0001:00004efc       ?ExecuteInMainThreadW2800@@YAXPEAUConEmuThSynchroArg@@@Z 0000000180005efc f   ConEmuTh2800.obj
 0001:00004f28       ?ExitFARW2800@@YAXXZ       0000000180005f28 f   ConEmuTh2800.obj
 0001:00004f64       ?FreePanelItemUserData2800@@YAXPEAX_KP6A_JXZ@Z 0000000180005f64 f   ConEmuTh2800.obj
 0001:00004f98       ?GetFarRectW2800@@YAXPEAU_SMALL_RECT@@@Z 0000000180005f98 f   ConEmuTh2800.obj
 0001:00005034       ?GetMsgW2800@@YAPEB_WH@Z   0000000180006034 f   ConEmuTh2800.obj
 0001:00005060       ?GetPluginInfoW2800@@YAXPEAX@Z 0000000180006060 f   ConEmuTh2800.obj
 0001:00005200       ?LoadPanelInfoW2800@@YAHH@Z 0000000180006200 f   ConEmuTh2800.obj
 0001:0000565c       ?LoadPanelItemInfoW2800@@YAXPEAUCeFullPanelInfo@@_J@Z 000000018000665c f   ConEmuTh2800.obj
 0001:000058c0       ?OpenW2800@@YAPEAXPEBX@Z   00000001800068c0 f   ConEmuTh2800.obj
 0001:00005980       ?PostMacroW2800@@YAXPEA_W@Z 0000000180006980 f   ConEmuTh2800.obj
 0001:00005a04       ?ProcessSynchroEventW3@@YA_JPEAX@Z 0000000180006a04 f   ConEmuTh2800.obj
 0001:00005a1c       ?ReloadPanelsInfoW2800@@YAXXZ 0000000180006a1c f   ConEmuTh2800.obj
 0001:00005a40       ?SetCurrentPanelItemW2800@@YAXH_J0@Z 0000000180006a40 f   ConEmuTh2800.obj
 0001:00005b6c       ?SetCurrentPanelItemW2800Int@@YAXH_J0@Z 0000000180006b6c f   ConEmuTh2800.obj
 0001:00005c94       ?SetStartupInfoW2800@@YAXPEAX@Z 0000000180006c94 f   ConEmuTh2800.obj
 0001:00005dcc       ?SettingsLoadW2800@@YAHPEB_WPEAK@Z 0000000180006dcc f   ConEmuTh2800.obj
 0001:00005ea0       ?SettingsSaveW2800@@YAXPEB_WPEAK@Z 0000000180006ea0 f   ConEmuTh2800.obj
 0001:00005f80       ?ShowMessageW2800@@YAHHH@Z 0000000180006f80 f   ConEmuTh2800.obj
 0001:00005fcc       ?ShowMessageW2800@@YAHPEB_WH@Z 0000000180006fcc f   ConEmuTh2800.obj
 0001:0000603c       ?ShowPluginMenuW2800@@YAHXZ 000000018000703c f   ConEmuTh2800.obj
 0001:00006248       GetGlobalInfoW             0000000180007248 f   ConEmuTh2800.obj
 0001:000062dc       ?CheckFarPanelsW995@@YA_NXZ 00000001800072dc f   ConEmuTh995.obj
 0001:00006338       ?CheckPanelSettingsW995@@YAHH@Z 0000000180007338 f   ConEmuTh995.obj
 0001:000063b4       ?ExecuteInMainThreadW995@@YAXPEAUConEmuThSynchroArg@@@Z 00000001800073b4 f   ConEmuTh995.obj
 0001:000063dc       ?ExitFARW995@@YAXXZ        00000001800073dc f   ConEmuTh995.obj
 0001:00006430       ?GetFarRectW995@@YAXPEAU_SMALL_RECT@@@Z 0000000180007430 f   ConEmuTh995.obj
 0001:00006470       ?GetMsgW995@@YAPEB_WH@Z    0000000180007470 f   ConEmuTh995.obj
 0001:00006498       ?GetPluginInfoW995@@YAXPEAX@Z 0000000180007498 f   ConEmuTh995.obj
 0001:0000656c       ?LoadPanelInfo995@@YAHH@Z  000000018000756c f   ConEmuTh995.obj
 0001:00006870       ?LoadPanelItemInfoW995@@YAXPEAUCeFullPanelInfo@@_J@Z 0000000180007870 f   ConEmuTh995.obj
 0001:000069fc       ?PostMacroW995@@YAXPEA_W@Z 00000001800079fc f   ConEmuTh995.obj
 0001:00006a60       ?ReloadPanelsInfoW995@@YAXXZ 0000000180007a60 f   ConEmuTh995.obj
 0001:00006a84       ?SetCurrentPanelItemW995@@YAXH_J0@Z 0000000180007a84 f   ConEmuTh995.obj
 0001:00006b90       ?SetStartupInfoW995@@YAXPEAX@Z 0000000180007b90 f   ConEmuTh995.obj
 0001:00006d30       ?SettingsLoadOtherW995@@YAXXZ 0000000180007d30 f   ConEmuTh995.obj
 0001:00006d3c       ?SettingsLoadW995@@YAHPEB_WPEAK@Z 0000000180007d3c f   ConEmuTh995.obj
 0001:00006d50       ?SettingsSaveW995@@YAXPEB_WPEAK@Z 0000000180007d50 f   ConEmuTh995.obj
 0001:00006d64       ?ShowMessageW995@@YAHHH@Z  0000000180007d64 f   ConEmuTh995.obj
 0001:00006da8       ?ShowMessageW995@@YAHPEB_WH@Z 0000000180007da8 f   ConEmuTh995.obj
 0001:00006de8       ?ShowPluginMenuW995@@YAHXZ 0000000180007de8 f   ConEmuTh995.obj
 0001:00006f78       OpenPluginW                0000000180007f78 f   ConEmuTh995.obj
 0001:00006f98       ?CheckFarPanelsA@@YA_NXZ   0000000180007f98 f   ConEmuThA.obj
 0001:00007000       ?CheckPanelSettingsA@@YAHH@Z 0000000180008000 f   ConEmuThA.obj
 0001:00007088       ?GetMsgA@@YAPEB_WHPEA_W@Z  0000000180008088 f   ConEmuThA.obj
 0001:00007184       ?LoadPanelInfoA@@YAHH@Z    0000000180008184 f   ConEmuThA.obj
 0001:00007540       ?PostMacroA@@YAXPEAD@Z     0000000180008540 f   ConEmuThA.obj
 0001:000075a0       ?ReloadPanelsInfoA@@YAXXZ  00000001800085a0 f   ConEmuThA.obj
 0001:000075c4       ?ReloadResourcesA@@YAXXZ   00000001800085c4 f   ConEmuThA.obj
 0001:00007680       ?SetCurrentPanelItemA@@YAXH_J0@Z 0000000180008680 f   ConEmuThA.obj
 0001:000077a0       ?SettingsLoadA@@YAHPEB_WPEAK@Z 00000001800087a0 f   ConEmuThA.obj
 0001:000077b4       ?SettingsLoadOtherA@@YAXXZ 00000001800087b4 f   ConEmuThA.obj
 0001:000077c0       ?SettingsSaveA@@YAXPEB_WPEAK@Z 00000001800087c0 f   ConEmuThA.obj
 0001:000077d4       ?ShowMessageA@@YAHHH@Z     00000001800087d4 f   ConEmuThA.obj
 0001:00007824       ?ShowMessageA@@YAHPEBDH@Z  0000000180008824 f   ConEmuThA.obj
 0001:00007868       ?ShowPluginMenuA@@YAHXZ    0000000180008868 f   ConEmuThA.obj
 0001:00007a40       ExitFAR                    0000000180008a40 f   ConEmuThA.obj
 0001:00007a9c       GetMinFarVersion           0000000180008a9c f   ConEmuThA.obj
 0001:00007ad4       GetPluginInfo              0000000180008ad4 f   ConEmuThA.obj
 0001:00007b54       OpenPlugin                 0000000180008b54 f   ConEmuThA.obj
 0001:00007b90       SetStartupInfo             0000000180008b90 f   ConEmuThA.obj
 0001:00007d58       ?BisItem2CeItem@CeFullPanelInfo@@QEAAH_JH_KKKHH@Z 0000000180008d58 f   Display.obj
 0001:00007df8       ?CalcTopPanelItem@CeFullPanelInfo@@QEAA_J_J0@Z 0000000180008df8 f   Display.obj
 0001:00007ecc       ?Close@CeFullPanelInfo@@QEAAXXZ 0000000180008ecc f   Display.obj
 0001:00007f10       ?CreateView@CeFullPanelInfo@@QEAAPEAUHWND__@@XZ 0000000180008f10 f   Display.obj
 0001:0000829c       ?DisplayReloadPanel@CeFullPanelInfo@@QEAAXXZ 000000018000929c f   Display.obj
 0001:000082d8       ?DisplayThread@CeFullPanelInfo@@SAKPEAX@Z 00000001800092d8 f   Display.obj
 0001:000083f8       ?DisplayWndProc@CeFullPanelInfo@@SA_JPEAUHWND__@@I_K_J@Z 00000001800093f8 f   Display.obj
 0001:00008940       ?DrawItemText@CeFullPanelInfo@@QEAAHPEAUHDC__@@PEAUtagRECT@@1PEAUCePluginPanelItem@@PEB_WPEAUHBRUSH__@@H@Z 0000000180009940 f   Display.obj
 0001:00008f4c       ?FarItem2CeItem@CeFullPanelInfo@@QEAAH_JPEB_W1KU_FILETIME@@_KHPEAX3P6A_JXZ3K@Z 0000000180009f4c f   Display.obj
 0001:000092ac       ?FinalRelease@CeFullPanelInfo@@QEAAXXZ 000000018000a2ac f   Display.obj
 0001:000093c0       ?GetConCoordFromIndex@CeFullPanelInfo@@QEAAH_JAEAU_COORD@@@Z 000000018000a3c0 f   Display.obj
 0001:00009470       ?GetIndexFromWndCoord@CeFullPanelInfo@@QEAAHHHAEA_J@Z 000000018000a470 f   Display.obj
 0001:00009508       ?GetItemColors@CeFullPanelInfo@@QEAAPEAUHBRUSH__@@_JPEAUCePluginPanelItem@@PEAUCePluginPanelItemColor@@HAEAK3@Z 000000018000a508 f   Display.obj
 0001:00009578       ?Invalidate@CeFullPanelInfo@@QEAAXXZ 000000018000a578 f   Display.obj
 0001:000095cc       ?InvalidateAll@CeFullPanelInfo@@SAXXZ 000000018000a5cc f   Display.obj
 0001:0000961c       ?LoadItemColors@CeFullPanelInfo@@QEAAX_JPEAUCePluginPanelItem@@PEAUCePluginPanelItemColor@@HH@Z 000000018000a61c f   Display.obj
 0001:00009898       ?OnSettingsChanged@CeFullPanelInfo@@QEAAHH@Z 000000018000a898 f   Display.obj
 0001:000099cc       ?Paint@CeFullPanelInfo@@QEAAXPEAUHWND__@@AEAUtagPAINTSTRUCT@@AEAUtagRECT@@@Z 000000018000a9cc f   Display.obj
 0001:0000a2d0       ?PaintItem@CeFullPanelInfo@@QEAAHPEAUHDC__@@_JHHPEAUCePluginPanelItem@@PEAUCePluginPanelItemColor@@HHPEAUHBRUSH__@@4K@Z 000000018000b2d0 f   Display.obj
 0001:0000a7d4       ?ReallocItems@CeFullPanelInfo@@QEAAH_J@Z 000000018000b7d4 f   Display.obj
 0001:0000a93c       ?RegisterPanelView@CeFullPanelInfo@@QEAAHXZ 000000018000b93c f   Display.obj
 0001:0000ac00       ?RequestSetPos@CeFullPanelInfo@@QEAAX_J0H@Z 000000018000bc00 f   Display.obj
 0001:0000ace4       ?UnregisterPanelView@CeFullPanelInfo@@QEAAH_N@Z 000000018000bce4 f   Display.obj
 0001:0000adfc       ?Init@HkFunc@@QEAA_NPEB_WPEAUHINSTANCE__@@@Z 000000018000bdfc f   HkFunc.obj
 0001:0000ae9c       ??$SafeDelete@UMSectionSimple@@@@YAXAEAPEAUMSectionSimple@@@Z 000000018000be9c f i ImgCache.obj
 0001:0000aed8       ??0?$CQueueProcessor@PEAUIMAGE_CACHE_INFO@@@@QEAA@XZ 000000018000bed8 f i ImgCache.obj
 0001:0000af4c       ??0CImgCache@@QEAA@PEAUHINSTANCE__@@@Z 000000018000bf4c f   ImgCache.obj
 0001:0000b088       ??1?$CQueueProcessor@PEAUIMAGE_CACHE_INFO@@@@UEAA@XZ 000000018000c088 f i ImgCache.obj
 0001:0000b13c       ??1CImgCache@@QEAA@XZ      000000018000c13c f   ImgCache.obj
 0001:0000b1f4       ??_E?$CQueueProcessor@PEAUIMAGE_CACHE_INFO@@@@UEAAPEAXI@Z 000000018000c1f4 f i ImgCache.obj
 0001:0000b1f4       ??_ECImgLoader@@UEAAPEAXI@Z 000000018000c1f4 f i ImgCache.obj
 0001:0000b1f4       ??_G?$CQueueProcessor@PEAUIMAGE_CACHE_INFO@@@@UEAAPEAXI@Z 000000018000c1f4 f i ImgCache.obj
 0001:0000b1f4       ??_GCImgLoader@@UEAAPEAXI@Z 000000018000c1f4 f i ImgCache.obj
 0001:0000b228       ?CheckDrawDibCreated@CImgCache@@IEAAHXZ 000000018000c228 f   ImgCache.obj
 0001:0000b37c       ?CheckLoadDibCreated@CImgCache@@IEAAHXZ 000000018000c37c f   ImgCache.obj
 0001:0000b4d0       ?CheckThread@?$CQueueProcessor@PEAUIMAGE_CACHE_INFO@@@@IEAAJXZ 000000018000c4d0 f i ImgCache.obj
 0001:0000b590       ?ClearQueue@?$CQueueProcessor@PEAUIMAGE_CACHE_INFO@@@@AEAAXXZ 000000018000c590 f i ImgCache.obj
 0001:0000b610       ?CopyBits@CImgCache@@IEAAXU_COORD@@PEAEK01@Z 000000018000c610 f   ImgCache.obj
 0001:0000b698       ?CopyItem@?$CQueueProcessor@PEAUIMAGE_CACHE_INFO@@@@MEAAXPEBQEAUIMAGE_CACHE_INFO@@PEAPEAU2@@Z 000000018000c698 f i ImgCache.obj
 0001:0000b6b8       ?FindInCache@CImgCache@@IEAAHPEAUCePluginPanelItem@@PEAHI@Z 000000018000c6b8 f   ImgCache.obj
 0001:0000b8c4       ?FindOrCreate@?$CQueueProcessor@PEAUIMAGE_CACHE_INFO@@@@AEAAPEAUProcessingItem@1@AEBQEAUIMAGE_CACHE_INFO@@_J_NW4ProcessingPriority@@@Z 000000018000c8c4 f i ImgCache.obj
 0001:0000bb0c       ?FreeModules@CImgCache@@IEAAXXZ 000000018000cb0c f   ImgCache.obj
 0001:0000bbd0       ?Init@CImgCache@@QEAAXK@Z  000000018000cbd0 f   ImgCache.obj
 0001:0000bc30       ?InitializeQueue@?$CQueueProcessor@PEAUIMAGE_CACHE_INFO@@@@AEAAXH@Z 000000018000cc30 f i ImgCache.obj
 0001:0000bcd4       ?IsEqual@?$CQueueProcessor@PEAUIMAGE_CACHE_INFO@@@@MEAA_NAEBQEAUIMAGE_CACHE_INFO@@_J01@Z 000000018000ccd4 f i ImgCache.obj
 0001:0000bcf4       ?IsEqual@CImgLoader@@UEAA_NAEAPEBUIMAGE_CACHE_INFO@@_JAEAPEAU2@1@Z 000000018000ccf4 f i ImgCache.obj
 0001:0000bd0c       ?IsStopRequested@?$CQueueProcessor@PEAUIMAGE_CACHE_INFO@@@@UEAA_NAEBQEAUIMAGE_CACHE_INFO@@@Z 000000018000cd0c f i ImgCache.obj
 0001:0000bd1c       ?IsTerminationRequested@?$CQueueProcessor@PEAUIMAGE_CACHE_INFO@@@@MEAA_NXZ 000000018000cd1c f i ImgCache.obj
 0001:0000bd1c       ?IsTerminationRequested@CImgLoader@@UEAA_NXZ 000000018000cd1c f i ImgCache.obj
 0001:0000bd20       ?LoadModules@CImgCache@@IEAAXXZ 000000018000cd20 f   ImgCache.obj
 0001:0000bfdc       ?LoadShellIcon@CImgCache@@QEAAHPEAUIMAGE_CACHE_INFO@@H@Z 000000018000cfdc f   ImgCache.obj
 0001:0000c2fc       ?LoadThumbnail@CImgCache@@QEAAHPEAUIMAGE_CACHE_INFO@@@Z 000000018000d2fc f   ImgCache.obj
 0001:0000c9f8       ?OnThreadStarted@?$CQueueProcessor@PEAUIMAGE_CACHE_INFO@@@@MEAAJXZ 000000018000d9f8 f i ImgCache.obj
 0001:0000c9fc       ?OnThreadStarted@CImgLoader@@UEAAJXZ 000000018000d9fc f i ImgCache.obj
 0001:0000ca10       ?OnThreadStopped@CImgLoader@@UEAAXXZ 000000018000da10 f i ImgCache.obj
 0001:0000ca18       ?PaintItem@CImgCache@@QEAAHPEAUHDC__@@HHHPEAUCePluginPanelItem@@PEAPEB_WPEAH@Z 000000018000da18 f   ImgCache.obj
 0001:0000cf28       ?ProcessItem@?$CQueueProcessor@PEAUIMAGE_CACHE_INFO@@@@IEAAJPEAUProcessingItem@1@@Z 000000018000df28 f i ImgCache.obj
 0001:0000cf54       ?ProcessItem@?$CQueueProcessor@PEAUIMAGE_CACHE_INFO@@@@MEAAJAEAPEAUIMAGE_CACHE_INFO@@_J@Z 000000018000df54 f i ImgCache.obj
 0001:0000cf5c       ?ProcessItem@CImgLoader@@UEAAJAEAPEAUIMAGE_CACHE_INFO@@_J@Z 000000018000df5c f i ImgCache.obj
 0001:0000cfb4       ?ProcessingStep@?$CQueueProcessor@PEAUIMAGE_CACHE_INFO@@@@IEAA_NXZ 000000018000dfb4 f i ImgCache.obj
 0001:0000d1bc       ?ProcessingThread@?$CQueueProcessor@PEAUIMAGE_CACHE_INFO@@@@KAKPEAX@Z 000000018000e1bc f i ImgCache.obj
 0001:0000d1ec       ?RequestItem@CImgCache@@QEAAHPEAUCePluginPanelItem@@I@Z 000000018000e1ec f   ImgCache.obj
 0001:0000d2ec       ?Reset@CImgCache@@QEAAXXZ  000000018000e2ec f   ImgCache.obj
 0001:0000d4c4       ?SetCacheLocation@CImgCache@@QEAAXPEB_W@Z 000000018000e4c4 f   ImgCache.obj
 0001:0000d53c       ??2@YAPEAX_K@Z             000000018000e53c f   Memory.obj
 0001:0000d53c       ?xf_malloc@@YAPEAX_K@Z     000000018000e53c f   Memory.obj
 0001:0000d53c       ??_U@YAPEAX_K@Z            000000018000e53c f   Memory.obj
 0001:0000d550       ??_V@YAXPEAX@Z             000000018000e550 f   Memory.obj
 0001:0000d550       ??3@YAXPEAX@Z              000000018000e550 f   Memory.obj
 0001:0000d558       ?HeapDeinitialize@@YAXXZ   000000018000e558 f   Memory.obj
 0001:0000d57c       ?HeapInitialize@@YA_NXZ    000000018000e57c f   Memory.obj
 0001:0000d5b4       ?xf_calloc@@YAPEAX_K0@Z    000000018000e5b4 f   Memory.obj
 0001:0000d5d0       ?xf_free@@YAXPEAX@Z        000000018000e5d0 f   Memory.obj
 0001:0000d5f8       ?xf_realloc@@YAPEAXPEAX_K@Z 000000018000e5f8 f   Memory.obj
 0001:0000d62c       ??1?$MToolHelp@UtagPROCESSENTRY32W@@$1?Process32FirstW@@YAHPEAXPEAU1@@Z$1?Process32NextW@@YAH01@Z@@UEAA@XZ 000000018000e62c f i MProcess.obj
 0001:0000d6c8       ??_G?$MToolHelp@UtagPROCESSENTRY32W@@$1?Process32FirstW@@YAHPEAXPEAU1@@Z$1?Process32NextW@@YAH01@Z@@UEAAPEAXI@Z 000000018000e6c8 f i MProcess.obj
 0001:0000d6c8       ??_GMToolHelpProcess@@UEAAPEAXI@Z 000000018000e6c8 f i MProcess.obj
 0001:0000d6c8       ??_E?$MToolHelp@UtagPROCESSENTRY32W@@$1?Process32FirstW@@YAHPEAXPEAU1@@Z$1?Process32NextW@@YAH01@Z@@UEAAPEAXI@Z 000000018000e6c8 f i MProcess.obj
 0001:0000d6c8       ??_EMToolHelpProcess@@UEAAPEAXI@Z 000000018000e6c8 f i MProcess.obj
 0001:0000d6fc       ?Find@?$MToolHelp@UtagPROCESSENTRY32W@@$1?Process32FirstW@@YAHPEAXPEAU1@@Z$1?Process32NextW@@YAH01@Z@@QEAA_NP6A_NPEAUtagPROCESSENTRY32W@@_J@Z10@Z 000000018000e6fc f i MProcess.obj
 0001:0000d7c8       ?Open@?$MToolHelp@UtagPROCESSENTRY32W@@$1?Process32FirstW@@YAHPEAXPEAU1@@Z$1?Process32NextW@@YAH01@Z@@QEAA_NXZ 000000018000e7c8 f i MProcess.obj
 0001:0000d85c       ?addsize@?$MArray@UtagPROCESSENTRY32W@@@@QEAAX_J@Z 000000018000e85c f i MProcess.obj
 0001:0000d8f4       ?getNext@?$MToolHelp@UtagPROCESSENTRY32W@@$1?Process32FirstW@@YAHPEAXPEAU1@@Z$1?Process32NextW@@YAH01@Z@@IEAA_NXZ 000000018000e8f4 f i MProcess.obj
 0001:0000d994       ?isTerminalMode@@YA_NXZ    000000018000e994 f   MProcess.obj
 0001:0000dafc       ?push_back@?$MArray@UtagPROCESSENTRY32W@@@@QEAA_JAEBUtagPROCESSENTRY32W@@@Z 000000018000eafc f i MProcess.obj
 0001:0000db70       ??0MSection@@QEAA@XZ       000000018000eb70 f   MSection.obj
 0001:0000dbf8       ??0MSectionLock@@QEAA@XZ   000000018000ebf8 f   MSection.obj
 0001:0000dc08       ??1MSection@@QEAA@XZ       000000018000ec08 f   MSection.obj
 0001:0000dc7c       ??1MSectionLock@@QEAA@XZ   000000018000ec7c f   MSection.obj
 0001:0000dca0       ?AddRef@MSection@@IEAAXK@Z 000000018000eca0 f   MSection.obj
 0001:0000dd34       ?Lock@MSection@@IEAAHHK@Z  000000018000ed34 f   MSection.obj
 0001:0000de34       ?Lock@MSectionLock@@QEAAHPEAVMSection@@HK@Z 000000018000ee34 f   MSection.obj
 0001:0000de88       ?MyEnterCriticalSection@MSection@@IEAA_NK@Z 000000018000ee88 f   MSection.obj
 0001:0000dfb8       ?ReleaseRef@MSection@@IEAAHK@Z 000000018000efb8 f   MSection.obj
 0001:0000e05c       ?Unlock@MSection@@IEAAXH@Z 000000018000f05c f   MSection.obj
 0001:0000e0b4       ?Unlock@MSectionLock@@QEAAXXZ 000000018000f0b4 f   MSection.obj
 0001:0000e0e0       ?WaitUnlocked@MSection@@IEAAXKK@Z 000000018000f0e0 f   MSection.obj
 0001:0000e174       ??0MSectionLockSimple@@QEAA@XZ 000000018000f174 f   MSectionSimple.obj
 0001:0000e180       ??0MSectionSimple@@QEAA@_N@Z 000000018000f180 f   MSectionSimple.obj
 0001:0000e1b8       ??1MSectionLockSimple@@QEAA@XZ 000000018000f1b8 f   MSectionSimple.obj
 0001:0000e1cc       ?Close@MSectionSimple@@QEAAXXZ 000000018000f1cc f   MSectionSimple.obj
 0001:0000e1cc       ??1MSectionSimple@@QEAA@XZ 000000018000f1cc f   MSectionSimple.obj
 0001:0000e1ec       ?Enter@MSectionSimple@@QEAAXXZ 000000018000f1ec f   MSectionSimple.obj
 0001:0000e1f4       ?Init@MSectionSimple@@QEAAXXZ 000000018000f1f4 f   MSectionSimple.obj
 0001:0000e214       ?Leave@MSectionSimple@@QEAAXXZ 000000018000f214 f   MSectionSimple.obj
 0001:0000e21c       ?Lock@MSectionLockSimple@@QEAAHPEAUMSectionSimple@@K@Z 000000018000f21c f   MSectionSimple.obj
 0001:0000e2b4       ?RecreateAndLock@MSectionSimple@@QEAA_NXZ 000000018000f2b4 f   MSectionSimple.obj
 0001:0000e324       ?TryEnter@MSectionSimple@@QEAA_NXZ 000000018000f324 f   MSectionSimple.obj
 0001:0000e34c       ?Unlock@MSectionLockSimple@@QEAAXXZ 000000018000f34c f   MSectionSimple.obj
 0001:0000e374       ??_GMNullDesc@@QEAAPEAXI@Z 000000018000f374 f i MSecurity.obj
 0001:0000e3ec       ?LoadAdvApi@MNullDesc@@IEAAHXZ 000000018000f3ec f i MSecurity.obj
 0001:0000e584       ?LocalSecurity@@YAPEAU_SECURITY_ATTRIBUTES@@XZ 000000018000f584 f   MSecurity.obj
 0001:0000e5e0       ?LocalSecurity@MNullDesc@@QEAAPEAU_SECURITY_ATTRIBUTES@@XZ 000000018000f5e0 f i MSecurity.obj
 0001:0000e74c       ?ShutdownSecurity@@YAXXZ   000000018000f74c f   MSecurity.obj
 0001:0000e774       ?lstrdup@@YAPEA_WPEB_W_K@Z 000000018000f774 f   MStrDup.obj
 0001:0000e7e8       ?lstrmerge@@YAPEA_WPEB_W00000000@Z 000000018000f7e8 f   MStrDup.obj
 0001:0000e8fc       ?msprintf@@YAPEB_WPEA_W_KPEB_WZZ 000000018000f8fc f   MStrSafe.obj
 0001:0000ed38       ??0CRgnDetect@@QEAA@XZ     000000018000fd38 f   RgnDetect.obj
 0001:0000edfc       ??1CRgnDetect@@QEAA@XZ     000000018000fdfc f   RgnDetect.obj
 0001:0000ee58       ?DetectDialog@CRgnDetect@@IEAA_NPEA_WPEAUtag_CharAttr@@HHHHPEAH2@Z 000000018000fe58 f   RgnDetect.obj
 0001:0000f208       ?ExpandDialogFrame@CRgnDetect@@IEAA_NPEA_WPEAUtag_CharAttr@@HHAEAH2HH22@Z 0000000180010208 f   RgnDetect.obj
 0001:0000f4c0       ?FindByBackground@CRgnDetect@@IEAA_NPEA_WPEAUtag_CharAttr@@HHAEAH222AEA_N@Z 00000001800104c0 f   RgnDetect.obj
 0001:0000f5ec       ?FindDialog_Any@CRgnDetect@@IEAA_NPEA_WPEAUtag_CharAttr@@HHAEAH222AEA_N@Z 00000001800105ec f   RgnDetect.obj
 0001:0000f898       ?FindDialog_Inner@CRgnDetect@@IEAA_NPEA_WPEAUtag_CharAttr@@HHAEAH2@Z 0000000180010898 f   RgnDetect.obj
 0001:0000fa10       ?FindDialog_Left@CRgnDetect@@IEAA_NPEA_WPEAUtag_CharAttr@@HHAEAH222AEA_N@Z 0000000180010a10 f   RgnDetect.obj
 0001:0000fc10       ?FindDialog_Right@CRgnDetect@@IEAA_NPEA_WPEAUtag_CharAttr@@HHAEAH222AEA_N@Z 0000000180010c10 f   RgnDetect.obj
 0001:0000fd78       ?FindDialog_TopLeft@CRgnDetect@@IEAA_NPEA_WPEAUtag_CharAttr@@HHAEAH222AEA_N@Z 0000000180010d78 f   RgnDetect.obj
 0001:0000fe84       ?FindDialog_TopRight@CRgnDetect@@IEAA_NPEA_WPEAUtag_CharAttr@@HHAEAH222AEA_N@Z 0000000180010e84 f   RgnDetect.obj
 0001:0000ff9c       ?FindFrameBottom_ByLeft@CRgnDetect@@IEAA_NPEA_WPEAUtag_CharAttr@@HHAEAH22@Z 0000000180010f9c f   RgnDetect.obj
 0001:00010044       ?FindFrameBottom_ByRight@CRgnDetect@@IEAA_NPEA_WPEAUtag_CharAttr@@HHAEAH22@Z 0000000180011044 f   RgnDetect.obj
 0001:00010110       ?FindFrameLeft_ByBottom@CRgnDetect@@IEAA_NPEA_WPEAUtag_CharAttr@@HHAEAH22@Z 0000000180011110 f   RgnDetect.obj
 0001:000101d8       ?FindFrameLeft_ByTop@CRgnDetect@@IEAA_NPEA_WPEAUtag_CharAttr@@HHAEAH22@Z 00000001800111d8 f   RgnDetect.obj
 0001:0001035c       ?FindFrameRight_ByBottom@CRgnDetect@@IEAA_NPEA_WPEAUtag_CharAttr@@HHAEAH22@Z 000000018001135c f   RgnDetect.obj
 0001:00010428       ?FindFrameRight_ByTop@CRgnDetect@@IEAA_NPEA_WPEAUtag_CharAttr@@HHAEAH22@Z 0000000180011428 f   RgnDetect.obj
 0001:00010568       ?FindFrameTop_ByLeft@CRgnDetect@@IEAA_NPEA_WPEAUtag_CharAttr@@HHAEAH22@Z 0000000180011568 f   RgnDetect.obj
 0001:00010610       ?FindFrameTop_ByRight@CRgnDetect@@IEAA_NPEA_WPEAUtag_CharAttr@@HHAEAH22@Z 0000000180011610 f   RgnDetect.obj
 0001:000106e0       ?FindFrame_TopLeft@CRgnDetect@@IEAA_NPEA_WPEAUtag_CharAttr@@HHAEAH222@Z 00000001800116e0 f   RgnDetect.obj
 0001:000107e4       ?GetCharAttr@CRgnDetect@@QEAAHHHAEA_WAEAUtag_CharAttr@@@Z 00000001800117e4 f   RgnDetect.obj
 0001:00010868       ?GetDetectedDialogsPtr@CRgnDetect@@QEBAPEBUtag_DetectedDialog@@XZ 0000000180011868 f   RgnDetect.obj
 0001:00010870       ?GetFlags@CRgnDetect@@QEBAKXZ 0000000180011870 f   RgnDetect.obj
 0001:00010878       ?InitializeSBI@CRgnDetect@@QEAAHPEBK@Z 0000000180011878 f   RgnDetect.obj
 0001:00010c60       ?MarkDialog@CRgnDetect@@IEAAHPEA_WPEAUtag_CharAttr@@HHHHHHI_NK@Z 0000000180011c60 f   RgnDetect.obj
 0001:00011548       ?OnWindowSizeChanged@CRgnDetect@@QEAAXXZ 0000000180012548 f   RgnDetect.obj
 0001:00011550       ?OnWriteConsoleOutput@CRgnDetect@@QEAAXPEBU_CHAR_INFO@@U_COORD@@1PEAU_SMALL_RECT@@PEBK@Z 0000000180012550 f   RgnDetect.obj
 0001:000117e8       ?PrepareTransparent@CRgnDetect@@QEAAXPEBUCEFAR_INFO_MAPPING@@PEBK@Z 00000001800127e8 f   RgnDetect.obj
 0001:000118bc       ?PrepareTransparent@CRgnDetect@@QEAAXPEBUCEFAR_INFO_MAPPING@@PEBKPEBU_CONSOLE_SCREEN_BUFFER_INFO@@PEA_WPEAUtag_CharAttr@@HH@Z 00000001800128bc f   RgnDetect.obj
 0001:00012090       ?SetFarRect@CRgnDetect@@QEAAXPEAU_SMALL_RECT@@@Z 0000000180013090 f   RgnDetect.obj
 0001:00012110       ?TextHeight@CRgnDetect@@QEAAHXZ 0000000180013110 f   RgnDetect.obj
 0001:0001213c       ?TextWidth@CRgnDetect@@QEAAHXZ 000000018001313c f   RgnDetect.obj
 0001:00012168       ?SearchAppPaths@@YA_NPEB_WAEAUCEStr@@_NPEAU1@@Z 0000000180013168 f   WFiles.obj
 0001:0001253c       ?ExpandEnvStr@@YAPEA_WPEB_W@Z 000000018001353c f   WObjects.obj
 0001:000125e4       ?FileExists@@YA_NPEB_WPEAK@Z 00000001800135e4 f   WObjects.obj
 0001:00012758       ?GetEnvVar@@YAPEA_WPEB_W@Z 0000000180013758 f   WObjects.obj
 0001:000127fc       ?IsWindows64@@YA_NXZ       00000001800137fc f   WObjects.obj
 0001:00012820       ?SetThreadName@@YAXKPEAD@Z 0000000180013820 f   WThreads.obj
 0001:00012858       ?apiCreateThread@@YAPEAXP6AKPEAX@Z0PEAKPEBDH@Z 0000000180013858 f   WThreads.obj
 0001:000129a8       ?apiTerminateThreadEx@@YAHPEAXKPEBDH@Z 00000001800139a8 f   WThreads.obj
 0001:00012ab4       ?apiThreadHelper@@YAKPEAX@Z 0000000180013ab4 f   WThreads.obj
 0001:00012c9c       ?apiShowWindow@@YA_NPEAUHWND__@@H@Z 0000000180013c9c f   WUser.obj
 0001:00012cb0       CreateToolhelp32Snapshot   0000000180013cb0 f   kernel32:KERNEL32.dll
 0001:00012cb6       Thread32First              0000000180013cb6 f   kernel32:KERNEL32.dll
 0001:00012cbc       Thread32Next               0000000180013cbc f   kernel32:KERNEL32.dll
 0001:00012cc2       Process32FirstW            0000000180013cc2 f   kernel32:KERNEL32.dll
 0001:00012cc8       Process32NextW             0000000180013cc8 f   kernel32:KERNEL32.dll
 0001:00012cce       GetFileVersionInfoSizeW    0000000180013cce f   version:VERSION.dll
 0001:00012cd4       GetFileVersionInfoW        0000000180013cd4 f   version:VERSION.dll
 0001:00012cda       VerQueryValueW             0000000180013cda f   version:VERSION.dll
 0001:00012ce0       ??3@YAXPEAX_K@Z            0000000180013ce0 f   LIBCMT:delete_scalar_size.obj
 0001:00013044       _DllMainCRTStartup         0000000180014044 f   LIBCMT:dll_dllmain.obj
 0001:00013084       __scrt_acquire_startup_lock 0000000180014084 f   LIBCMT:utility.obj
 0001:000130c0       __scrt_dllmain_after_initialize_c 00000001800140c0 f   LIBCMT:utility.obj
 0001:000130e0       __scrt_dllmain_before_initialize_c 00000001800140e0 f   LIBCMT:utility.obj
 0001:000130f8       __scrt_dllmain_crt_thread_attach 00000001800140f8 f   LIBCMT:utility.obj
 0001:00013120       __scrt_dllmain_crt_thread_detach 0000000180014120 f   LIBCMT:utility.obj
 0001:00013138       __scrt_dllmain_exception_filter 0000000180014138 f   LIBCMT:utility.obj
 0001:0001319c       __scrt_dllmain_uninitialize_c 000000018001419c f   LIBCMT:utility.obj
 0001:000131cc       __scrt_dllmain_uninitialize_critical 00000001800141cc f   LIBCMT:utility.obj
 0001:000131e0       __scrt_initialize_crt      00000001800141e0 f   LIBCMT:utility.obj
 0001:0001322c       __scrt_initialize_onexit_tables 000000018001422c f   LIBCMT:utility.obj
 0001:000132f8       __scrt_is_nonwritable_in_current_image 00000001800142f8 f   LIBCMT:utility.obj
 0001:00013394       __scrt_release_startup_lock 0000000180014394 f   LIBCMT:utility.obj
 0001:000133b8       __scrt_uninitialize_crt    00000001800143b8 f   LIBCMT:utility.obj
 0001:000133e4       _onexit                    00000001800143e4 f   LIBCMT:utility.obj
 0001:00013434       atexit                     0000000180014434 f   LIBCMT:utility.obj
 0001:0001344c       __security_init_cookie     000000018001444c f   LIBCMT:gs_support.obj
 0001:000134f8       ?__scrt_initialize_type_info@@YAXXZ 00000001800144f8 f   LIBCMT:tncleanup.obj
 0001:00013508       ?__scrt_uninitialize_type_info@@YAXXZ 0000000180014508 f   LIBCMT:tncleanup.obj
 0001:00013514       __local_stdio_printf_options 0000000180014514 f i LIBCMT:default_local_stdio_options.obj
 0001:0001351c       __local_stdio_scanf_options 000000018001451c f i LIBCMT:default_local_stdio_options.obj
 0001:00013524       __scrt_initialize_default_local_stdio_options 0000000180014524 f   LIBCMT:default_local_stdio_options.obj
 0001:00013540       __scrt_get_dyn_tls_init_callback 0000000180014540 f   LIBCMT:dyn_tls_init.obj
 0001:00013548       __crt_debugger_hook        0000000180014548 f   LIBCMT:utility_desktop.obj
 0001:00013550       __scrt_fastfail            0000000180014550 f   LIBCMT:utility_desktop.obj
 0001:00013698       _RTC_Initialize            0000000180014698 f   LIBCMT:_initsect_.obj
 0001:000136e4       _RTC_Terminate             00000001800146e4 f   LIBCMT:_initsect_.obj
 0001:00013730       _guard_check_icall         0000000180014730 f i LIBCMT:checkcfg.obj
 0001:00013738       __isa_available_init       0000000180014738 f   LIBCMT:_cpu_disp_.obj
 0001:000138fc       __scrt_is_ucrt_dll_in_use  00000001800148fc f   LIBCMT:ucrt_detection.obj
 0001:00013920       memcpy                     0000000180014920 f   libvcruntime:memcpy.obj
 0001:00013920       memmove                    0000000180014920 f   libvcruntime:memcpy.obj
 0001:00013d58       strrchr                    0000000180014d58 f   libvcruntime:strrchr.obj
 0001:00013e9c       wcschr                     0000000180014e9c f   libvcruntime:wcschr.obj
 0001:00013f28       wcsrchr                    0000000180014f28 f   libvcruntime:wcsrchr.obj
 0001:00013ff0       memset                     0000000180014ff0 f   libvcruntime:memset.obj
 0001:000141a0       memcmp                     00000001800151a0 f   libvcruntime:memcmp.obj
 0001:00014268       __C_specific_handler       0000000180015268 f   libvcruntime:_chandler_.obj
 0001:00014458       strchr                     0000000180015458 f   libvcruntime:strchr.obj
 0001:000144e8       __telemetry_main_invoke_trigger 00000001800154e8 f   libvcruntime:telemetry.obj
 0001:00014600       __telemetry_main_return_trigger 0000000180015600 f   libvcruntime:telemetry.obj
 0001:00014718       __vcrt_initialize_telemetry_provider 0000000180015718 f   libvcruntime:telemetry.obj
 0001:0001472c       __vcrt_uninitialize_telemetry_provider 000000018001572c f   libvcruntime:telemetry.obj
 0001:0001474c       __vcrt_initialize          000000018001574c f   libvcruntime:initialization.obj
 0001:00014784       __vcrt_thread_attach       0000000180015784 f   libvcruntime:initialization.obj
 0001:00014798       __vcrt_thread_detach       0000000180015798 f   libvcruntime:initialization.obj
 0001:000147ac       __vcrt_uninitialize        00000001800157ac f   libvcruntime:initialization.obj
 0001:000147d8       __vcrt_uninitialize_critical 00000001800157d8 f   libvcruntime:initialization.obj
 0001:000147e8       __std_type_info_destroy_list 00000001800157e8 f   libvcruntime:std_type_info.obj
 0001:00014830       _local_unwind              0000000180015830 f   libvcruntime:_jmpuwind_.obj
 0001:00014860       _NLG_Notify                0000000180015860 f   libvcruntime:_jmpuwind_.obj
 0001:00014880       __NLG_Dispatch2            0000000180015880 f   libvcruntime:_jmpuwind_.obj
 0001:00014890       __NLG_Return2              0000000180015890 f   libvcruntime:_jmpuwind_.obj
 0001:00014894       ?LoadPanelItemInfoA@@YAXPEAUCeFullPanelInfo@@_J@Z 0000000180015894 f   ConEmuThA.obj
 0001:00014894       __except_validate_context_record 0000000180015894 f   libvcruntime:jbcxrval.obj
 0001:00014894       ?SettingsLoadOtherW2800@@YAXXZ 0000000180015894 f   ConEmuTh2800.obj
 0001:00014894       ?OnThreadStopped@?$CQueueProcessor@PEAUIMAGE_CACHE_INFO@@@@MEAAXXZ 0000000180015894 f   ImgCache.obj
 0001:00014894       ?OnItemFailed@?$CQueueProcessor@PEAUIMAGE_CACHE_INFO@@@@MEAAXAEAPEAUIMAGE_CACHE_INFO@@_J@Z 0000000180015894 f   ImgCache.obj
 0001:00014894       ?OnItemReady@?$CQueueProcessor@PEAUIMAGE_CACHE_INFO@@@@MEAAXAEAPEAUIMAGE_CACHE_INFO@@_J@Z 0000000180015894 f   ImgCache.obj
 0001:00014894       ?ApplyChanges@?$CQueueProcessor@PEAUIMAGE_CACHE_INFO@@@@MEAAXAEAPEAUIMAGE_CACHE_INFO@@AEBQEAU2@@Z 0000000180015894 f   ImgCache.obj
 0001:00014894       ?FreeItem@?$CQueueProcessor@PEAUIMAGE_CACHE_INFO@@@@MEAAXAEBQEAUIMAGE_CACHE_INFO@@@Z 0000000180015894 f   ImgCache.obj
 0001:00014894       _guard_check_icall_nop     0000000180015894 f   LIBCMT:guard_support.obj
 0001:00014894       ?SettingsLoadOtherW1900@@YAXXZ 0000000180015894 f   ConEmuTh1900.obj
 0001:00014a60       __vcrt_EventRegister       0000000180015a60 f   libvcruntime:winapi_downlevel.obj
 0001:00014ae4       __vcrt_EventSetInformation 0000000180015ae4 f   libvcruntime:winapi_downlevel.obj
 0001:00014b68       __vcrt_EventUnregister     0000000180015b68 f   libvcruntime:winapi_downlevel.obj
 0001:00014bbc       __vcrt_EventWriteTransfer  0000000180015bbc f   libvcruntime:winapi_downlevel.obj
 0001:00014c54       __vcrt_FlsAlloc            0000000180015c54 f   libvcruntime:winapi_downlevel.obj
 0001:00014ca8       __vcrt_FlsFree             0000000180015ca8 f   libvcruntime:winapi_downlevel.obj
 0001:00014cfc       __vcrt_FlsGetValue         0000000180015cfc f   libvcruntime:winapi_downlevel.obj
 0001:00014d50       __vcrt_FlsSetValue         0000000180015d50 f   libvcruntime:winapi_downlevel.obj
 0001:00014db8       __vcrt_InitializeCriticalSectionEx 0000000180015db8 f   libvcruntime:winapi_downlevel.obj
 0001:00014e30       __vcrt_initialize_winapi_thunks 0000000180015e30 f   libvcruntime:winapi_downlevel.obj
 0001:00014e68       __vcrt_uninitialize_winapi_thunks 0000000180015e68 f   libvcruntime:winapi_downlevel.obj
 0001:00014ea8       __vcrt_freefls             0000000180015ea8 f   libvcruntime:per_thread_data.obj
 0001:00014ec8       __vcrt_freeptd             0000000180015ec8 f   libvcruntime:per_thread_data.obj
 0001:00014f18       __vcrt_getptd_noexit       0000000180015f18 f   libvcruntime:per_thread_data.obj
 0001:00014fc0       __vcrt_initialize_ptd      0000000180015fc0 f   libvcruntime:per_thread_data.obj
 0001:00015000       __vcrt_uninitialize_ptd    0000000180016000 f   libvcruntime:per_thread_data.obj
 0001:00015024       __vcrt_initialize_locks    0000000180016024 f   libvcruntime:locks.obj
 0001:0001506c       __vcrt_uninitialize_locks  000000018001606c f   libvcruntime:locks.obj
 0001:000150a4       __vcrt_initialize_pure_virtual_call_handler 00000001800160a4 f   libvcruntime:purevirt_data.obj
 0001:000150c8       wcspbrk                    00000001800160c8 f   libucrt:wcspbrk.obj
 0001:00015100       ??0_LocaleUpdate@@QEAA@QEAU__crt_locale_pointers@@@Z 0000000180016100 f i libucrt:strtox.obj
 0001:00015190       _initterm                  0000000180016190 f   libucrt:initterm.obj
 0001:00015208       _initterm_e                0000000180016208 f   libucrt:initterm.obj
 0001:00015254       _seh_filter_dll            0000000180016254 f   libucrt:exception_filter.obj
 0001:00015268       _seh_filter_exe            0000000180016268 f   libucrt:exception_filter.obj
 0001:00015628       __acrt_initialize_thread_local_exit_callback 0000000180016628 f   libucrt:exit.obj
 0001:00015630       _cexit                     0000000180016630 f   libucrt:exit.obj
 0001:00015640       _exit                      0000000180016640 f   libucrt:exit.obj
 0001:0001564c       _is_c_termination_complete 000000018001664c f   libucrt:exit.obj
 0001:00015838       __dcrt_uninitialize_environments_nolock 0000000180016838 f   libucrt:environment_initialization.obj
 0001:00015870       _initialize_narrow_environment 0000000180016870 f   libucrt:environment_initialization.obj
 0001:00015878       ??$?RV<lambda_b8c45f8f788dd370798f47cfe8ac3a86>@@AEAV<lambda_4e60a939b0d047cfe11ddc22648dfba9>@@V<lambda_332c3edc96d0294ec56c57d38c1cdfd5>@@@?$__crt_seh_guarded_call@H@@QEAAH$$QEAV<lambda_b8c45f8f788dd370798f47cfe8ac3a86>@@AEAV<lambda_4e60a939b0d047cfe11ddc22648dfba9>@@$$QEAV<lambda_332c3edc96d0294ec56c57d38c1cdfd5>@@@Z 0000000180016878 f i libucrt:onexit.obj
 0001:000158b4       ??$?RV<lambda_e24bbb7b643b32fcea6fa61b31d4c984>@@AEAV<lambda_275893d493268fdec8709772e3fcec0e>@@V<lambda_9d71df4d7cf3f480f8d633942495c3b0>@@@?$__crt_seh_guarded_call@H@@QEAAH$$QEAV<lambda_e24bbb7b643b32fcea6fa61b31d4c984>@@AEAV<lambda_275893d493268fdec8709772e3fcec0e>@@$$QEAV<lambda_9d71df4d7cf3f480f8d633942495c3b0>@@@Z 00000001800168b4 f i libucrt:onexit.obj
 0001:00015c30       _crt_atexit                0000000180016c30 f   libucrt:onexit.obj
 0001:00015c40       _execute_onexit_table      0000000180016c40 f   libucrt:onexit.obj
 0001:00015c7c       _initialize_onexit_table   0000000180016c7c f   libucrt:onexit.obj
 0001:00015cbc       _register_onexit_function  0000000180016cbc f   libucrt:onexit.obj
 0001:00015d4c       ?CheckHighPriority@CImgLoader@@UEAA_NAEAPEBUIMAGE_CACHE_INFO@@@Z 0000000180016d4c f   ImgCache.obj
 0001:00015d4c       __acrt_uninitialize_command_line 0000000180016d4c f   libucrt:argv_data.obj
 0001:00015d4c       ?CheckHighPriority@?$CQueueProcessor@PEAUIMAGE_CACHE_INFO@@@@MEAA_NAEBQEAUIMAGE_CACHE_INFO@@@Z 0000000180016d4c f   ImgCache.obj
 0001:00015d4c       ?Filter@?$MToolHelp@UtagPROCESSENTRY32W@@$1?Process32FirstW@@YAHPEAXPEAU1@@Z$1?Process32NextW@@YAH01@Z@@MEAA_NPEAUtagPROCESSENTRY32W@@@Z 0000000180016d4c f   MProcess.obj
 0001:00015e3c       __acrt_initialize          0000000180016e3c f   libucrt:initialization.obj
 0001:00015e50       __acrt_thread_attach       0000000180016e50 f   libucrt:initialization.obj
 0001:00015e64       __acrt_thread_detach       0000000180016e64 f   libucrt:initialization.obj
 0001:00015e74       __acrt_uninitialize        0000000180016e74 f   libucrt:initialization.obj
 0001:00015e88       __acrt_uninitialize_critical 0000000180016e88 f   libucrt:initialization.obj
 0001:00015e98       terminate                  0000000180016e98 f   libucrt:terminate.obj
 0001:00015ec0       _free_base                 0000000180016ec0 f   libucrt:free_base.obj
 0001:00015f00       _malloc_base               0000000180016f00 f   libucrt:malloc_base.obj
 0001:00015f60       strcpy_s                   0000000180016f60 f   libucrt:strcpy_s.obj
 0001:00015fc0       abort                      0000000180016fc0 f   libucrt:abort.obj
 0001:00016018       _calloc_base               0000000180017018 f   libucrt:calloc_base.obj
 0001:00016090       __acrt_call_reportfault    0000000180017090 f   libucrt:invalid_parameter.obj
 0001:000161ec       __acrt_initialize_invalid_parameter_handler 00000001800171ec f   libucrt:invalid_parameter.obj
 0001:000161f4       _invalid_parameter         00000001800171f4 f   libucrt:invalid_parameter.obj
 0001:0001629c       _invalid_parameter_noinfo  000000018001729c f   libucrt:invalid_parameter.obj
 0001:000162bc       _invoke_watson             00000001800172bc f   libucrt:invalid_parameter.obj
 0001:00016304       __acrt_errno_from_os_error 0000000180017304 f   libucrt:errno.obj
 0001:0001634c       __acrt_errno_map_os_error  000000018001734c f   libucrt:errno.obj
 0001:0001639c       __doserrno                 000000018001739c f   libucrt:errno.obj
 0001:000163bc       _errno                     00000001800173bc f   libucrt:errno.obj
 0001:000163dc       __pctype_func              00000001800173dc f   libucrt:ctype.obj
 0001:0001640c       ??$?RV<lambda_46352004c1216016012b18bd6f87e700>@@AEAV<lambda_3bd07e1a1191394380780325891bf33f>@@V<lambda_334532d3f185bcaa59b5be82d7d22bff>@@@?$__crt_seh_guarded_call@X@@QEAAX$$QEAV<lambda_46352004c1216016012b18bd6f87e700>@@AEAV<lambda_3bd07e1a1191394380780325891bf33f>@@$$QEAV<lambda_334532d3f185bcaa59b5be82d7d22bff>@@@Z 000000018001740c f i libucrt:per_thread_data.obj
 0001:0001646c       ??$?RV<lambda_5e887d1dcbef67a5eb4283622ba103bf>@@AEAV<lambda_4466841279450cc726390878d4a41900>@@V<lambda_341c25c0346d94847f1f3c463c57e077>@@@?$__crt_seh_guarded_call@X@@QEAAX$$QEAV<lambda_5e887d1dcbef67a5eb4283622ba103bf>@@AEAV<lambda_4466841279450cc726390878d4a41900>@@$$QEAV<lambda_341c25c0346d94847f1f3c463c57e077>@@@Z 000000018001746c f i libucrt:per_thread_data.obj
 0001:000164b4       ??$?RV<lambda_72d1df2b273a38828b1ce30cbf4cdab5>@@AEAV<lambda_876a65b173b8412d3a47c70a915b0cf4>@@V<lambda_41932305e351933ebe8f8be3ed8bb5dc>@@@?$__crt_seh_guarded_call@X@@QEAAX$$QEAV<lambda_72d1df2b273a38828b1ce30cbf4cdab5>@@AEAV<lambda_876a65b173b8412d3a47c70a915b0cf4>@@$$QEAV<lambda_41932305e351933ebe8f8be3ed8bb5dc>@@@Z 00000001800174b4 f i libucrt:per_thread_data.obj
 0001:000164f4       ??$?RV<lambda_fb3a7dec4e47f37f22dae91bb15c9095>@@AEAV<lambda_698284760c8add0bfb0756c19673e34b>@@V<lambda_dfb8eca1e75fef3034a8fb18dd509707>@@@?$__crt_seh_guarded_call@X@@QEAAX$$QEAV<lambda_fb3a7dec4e47f37f22dae91bb15c9095>@@AEAV<lambda_698284760c8add0bfb0756c19673e34b>@@$$QEAV<lambda_dfb8eca1e75fef3034a8fb18dd509707>@@@Z 00000001800174f4 f i libucrt:per_thread_data.obj
 0001:00016784       __acrt_freeptd             0000000180017784 f   libucrt:per_thread_data.obj
 0001:000167c8       __acrt_getptd              00000001800177c8 f   libucrt:per_thread_data.obj
 0001:0001685c       __acrt_getptd_noexit       000000018001785c f   libucrt:per_thread_data.obj
 0001:000168fc       __acrt_initialize_ptd      00000001800178fc f   libucrt:per_thread_data.obj
 0001:00016938       __acrt_uninitialize_ptd    0000000180017938 f   libucrt:per_thread_data.obj
 0001:0001695c       __acrt_update_locale_info  000000018001795c f   libucrt:locale_update.obj
 0001:00016990       __acrt_update_multibyte_info 0000000180017990 f   libucrt:locale_update.obj
 0001:000169c4       __acrt_set_locale_changed  00000001800179c4 f   libucrt:wsetlocale.obj
 0001:000169d0       __acrt_uninitialize_locale 00000001800179d0 f   libucrt:wsetlocale.obj
 0001:00016a18       __acrt_initialize_locks    0000000180017a18 f   libucrt:locks.obj
 0001:00016a60       __acrt_lock                0000000180017a60 f   libucrt:locks.obj
 0001:00016a7c       __acrt_uninitialize_locks  0000000180017a7c f   libucrt:locks.obj
 0001:00016ab4       __acrt_unlock              0000000180017ab4 f   libucrt:locks.obj
 0001:00016c70       __acrt_FlsAlloc            0000000180017c70 f   libucrt:winapi_thunks.obj
 0001:00016cc8       __acrt_FlsFree             0000000180017cc8 f   libucrt:winapi_thunks.obj
 0001:00016d20       __acrt_FlsGetValue         0000000180017d20 f   libucrt:winapi_thunks.obj
 0001:00016d78       __acrt_FlsSetValue         0000000180017d78 f   libucrt:winapi_thunks.obj
 0001:00016de0       __acrt_InitializeCriticalSectionEx 0000000180017de0 f   libucrt:winapi_thunks.obj
 0001:00016e58       __acrt_LCMapStringEx       0000000180017e58 f   libucrt:winapi_thunks.obj
 0001:00016f48       __acrt_LocaleNameToLCID    0000000180017f48 f   libucrt:winapi_thunks.obj
 0001:00016fb0       __acrt_initialize_winapi_thunks 0000000180017fb0 f   libucrt:winapi_thunks.obj
 0001:00016fe8       __acrt_is_packaged_app     0000000180017fe8 f   libucrt:winapi_thunks.obj
 0001:00017070       __acrt_uninitialize_winapi_thunks 0000000180018070 f   libucrt:winapi_thunks.obj
 0001:000170b4       ??$?RV<lambda_99476a1ad63dd22509b5d3e65b0ffc95>@@AEAV<lambda_ad1ced32f4ac17aa236e5ef05d6b3b7c>@@V<lambda_f7424dd8d45958661754dc4f2697e9c3>@@@?$__crt_seh_guarded_call@X@@QEAAX$$QEAV<lambda_99476a1ad63dd22509b5d3e65b0ffc95>@@AEAV<lambda_ad1ced32f4ac17aa236e5ef05d6b3b7c>@@$$QEAV<lambda_f7424dd8d45958661754dc4f2697e9c3>@@@Z 00000001800180b4 f i libucrt:mbctype.obj
 0001:000177b0       __acrt_initialize_multibyte 00000001800187b0 f   libucrt:mbctype.obj
 0001:000177d8       __acrt_update_thread_multibyte_data 00000001800187d8 f   libucrt:mbctype.obj
 0001:00017898       _setmbcp_nolock            0000000180018898 f   libucrt:mbctype.obj
 0001:00017b40       __dcrt_get_narrow_environment_from_os 0000000180018b40 f   libucrt:get_environment_from_os.obj
 0001:00017c44       _recalloc                  0000000180018c44 f   libucrt:recalloc.obj
 0001:00017c4c       _recalloc_base             0000000180018c4c f   libucrt:recalloc.obj
 0001:00017ce4       __acrt_initialize_heap     0000000180018ce4 f   libucrt:heap_handle.obj
 0001:00017d00       __acrt_uninitialize_heap   0000000180018d00 f   libucrt:heap_handle.obj
 0001:00017ef4       __acrt_initialize_lowio    0000000180018ef4 f   libucrt:ioinit.obj
 0001:00017f30       __acrt_uninitialize_lowio  0000000180018f30 f   libucrt:ioinit.obj
 0001:00017f70       __acrt_initialize_command_line 0000000180018f70 f   libucrt:argv_data.obj
 0001:00017f98       __acrt_execute_initializers 0000000180018f98 f   libucrt:shared_initialization.obj
 0001:0001802c       __acrt_execute_uninitializers 000000018001902c f   libucrt:shared_initialization.obj
 0001:0001807c       __acrt_initialize_new_handler 000000018001907c f   libucrt:new_handler.obj
 0001:00018084       _callnewh                  0000000180019084 f   libucrt:new_handler.obj
 0001:000180c4       _query_new_handler         00000001800190c4 f   libucrt:new_handler.obj
 0001:000180f8       ??$?RV<lambda_c36588078e9f5dfd39652860aa6b3aaf>@@AEAV<lambda_ec61778202f4f5fc7e7711acc23c3bca>@@V<lambda_dc9d2797ccde5d239b4a0efae8ebd7db>@@@?$__crt_seh_guarded_call@P6AXH@Z@@QEAAP6AXH@Z$$QEAV<lambda_c36588078e9f5dfd39652860aa6b3aaf>@@AEAV<lambda_ec61778202f4f5fc7e7711acc23c3bca>@@$$QEAV<lambda_dc9d2797ccde5d239b4a0efae8ebd7db>@@@Z 00000001800190f8 f i libucrt:signal.obj
 0001:00018140       __acrt_get_sigabrt_handler 0000000180019140 f   libucrt:signal.obj
 0001:00018170       __acrt_initialize_signal_handlers 0000000180019170 f   libucrt:signal.obj
 0001:00018190       raise                      0000000180019190 f   libucrt:signal.obj
 0001:0001842c       __acrt_has_user_matherr    000000018001942c f   libucrt:matherr.obj
 0001:0001844c       __acrt_initialize_user_matherr 000000018001944c f   libucrt:matherr.obj
 0001:00018454       __acrt_invoke_user_matherr 0000000180019454 f   libucrt:matherr.obj
 0001:0001849c       _query_new_mode            000000018001949c f   libucrt:new_mode.obj
 0001:000184a4       _mbtowc_l                  00000001800194a4 f   libucrt:mbtowc.obj
 0001:000185ec       mbtowc                     00000001800195ec f   libucrt:mbtowc.obj
 0001:000185f4       _fileno                    00000001800195f4 f   libucrt:fileno.obj
 0001:0001861c       __acrt_initialize_stdio    000000018001961c f   libucrt:_file.obj
 0001:0001873c       __acrt_uninitialize_stdio  000000018001973c f   libucrt:_file.obj
 0001:00018798       _lock_file                 0000000180019798 f   libucrt:_file.obj
 0001:000187a4       _unlock_file               00000001800197a4 f   libucrt:_file.obj
 0001:000187b0       _isleadbyte_l              00000001800197b0 f i libucrt:_wctype.obj
 0001:000187f0       __acrt_GetStringTypeA      00000001800197f0 f   libucrt:getstringtypea.obj
 0001:000189a4       __acrt_add_locale_ref      00000001800199a4 f   libucrt:locale_refcounting.obj
 0001:00018a30       __acrt_free_locale         0000000180019a30 f   libucrt:locale_refcounting.obj
 0001:00018ba8       __acrt_locale_add_lc_time_reference 0000000180019ba8 f   libucrt:locale_refcounting.obj
 0001:00018bd0       __acrt_locale_free_lc_time_if_unreferenced 0000000180019bd0 f   libucrt:locale_refcounting.obj
 0001:00018c08       __acrt_locale_release_lc_time_reference 0000000180019c08 f   libucrt:locale_refcounting.obj
 0001:00018c30       __acrt_release_locale_ref  0000000180019c30 f   libucrt:locale_refcounting.obj
 0001:00018cd8       __acrt_update_thread_locale_data 0000000180019cd8 f   libucrt:locale_refcounting.obj
 0001:00018d48       _updatetlocinfoEx_nolock   0000000180019d48 f   libucrt:locale_refcounting.obj
 0001:00018db0       __acrt_locale_free_monetary 0000000180019db0 f   libucrt:initmon.obj
 0001:00018ebc       __acrt_locale_free_numeric 0000000180019ebc f   libucrt:initnum.obj
 0001:00018f80       __acrt_locale_free_time    0000000180019f80 f   libucrt:inittime.obj
 0001:00019150       __acrt_DownlevelLocaleNameToLCID 000000018001a150 f   libucrt:lcidtoname_downlevel.obj
 0001:000194f8       __acrt_LCMapStringA        000000018001a4f8 f   libucrt:lcmapstringa.obj
 0001:00019590       _msize                     000000018001a590 f   libucrt:msize.obj
 0001:000195cc       _realloc_base              000000018001a5cc f   libucrt:realloc_base.obj
 0001:00019650       __acrt_lowio_create_handle_array 000000018001a650 f   libucrt:osfinfo.obj
 0001:000196e8       __acrt_lowio_destroy_handle_array 000000018001a6e8 f   libucrt:osfinfo.obj
 0001:00019738       __acrt_lowio_ensure_fh_exists 000000018001a738 f   libucrt:osfinfo.obj
 0001:000197f0       __acrt_lowio_lock_fh       000000018001a7f0 f   libucrt:osfinfo.obj
 0001:00019814       __acrt_lowio_unlock_fh     000000018001a814 f   libucrt:osfinfo.obj
 0001:00019838       _free_osfhnd               000000018001a838 f   libucrt:osfinfo.obj
 0001:000198f4       _get_osfhandle             000000018001a8f4 f   libucrt:osfinfo.obj
 0001:0001996c       _isatty                    000000018001a96c f   libucrt:isatty.obj
 0001:000199cc       __acrt_stdio_flush_nolock  000000018001a9cc f   libucrt:fflush.obj
 0001:00019a44       _fflush_nolock             000000018001aa44 f   libucrt:fflush.obj
 0001:00019a90       _flushall                  000000018001aa90 f   libucrt:fflush.obj
 0001:00019b80       _fcloseall                 000000018001ab80 f   libucrt:closeall.obj
 0001:00019c34       __acrt_stdio_free_buffer_nolock 000000018001ac34 f   libucrt:_freebuf.obj
 0001:00019c74       __strncnt                  000000018001ac74 f   libucrt:strncnt.obj
 0001:00019c8c       _query_app_type            000000018001ac8c f   libucrt:report_runtime_error.obj
 0001:00019c94       ??$?RV<lambda_b521505b218e5242e90febf6bfebc422>@@AEAV<lambda_6978c1fb23f02e42e1d9e99668cc68aa>@@V<lambda_314360699dd331753a4119843814e9a7>@@@?$__crt_seh_guarded_call@H@@QEAAH$$QEAV<lambda_b521505b218e5242e90febf6bfebc422>@@AEAV<lambda_6978c1fb23f02e42e1d9e99668cc68aa>@@$$QEAV<lambda_314360699dd331753a4119843814e9a7>@@@Z 000000018001ac94 f i libucrt:commit.obj
 0001:00019d20       _commit                    000000018001ad20 f   libucrt:commit.obj
 0001:0001a354       _write                     000000018001b354 f   libucrt:write.obj
 0001:0001a440       _write_nolock              000000018001b440 f   libucrt:write.obj
 0001:0001a730       log10                      000000018001b730 f   libucrt:log10.obj
 0001:0001ad78       _lseeki64_nolock           000000018001bd78 f   libucrt:lseek.obj
 0001:0001ad80       _fclose_nolock             000000018001bd80 f   libucrt:fclose.obj
 0001:0001ae04       fclose                     000000018001be04 f   libucrt:fclose.obj
 0001:0001ae70       _putwch_nolock             000000018001be70 f   libucrt:putwch.obj
 0001:0001aff0       _handle_error              000000018001bff0 f   libucrt:libm_error.obj
 0001:0001b120       __acrt_initialize_fma3     000000018001c120 f   libucrt:fma3_available.obj
 0001:0001b190       _log10_special             000000018001c190 f   libucrt:log_special.obj
 0001:0001b248       ??$?RV<lambda_bfedae4ebbf01fab1bb6dcc6a9e276e0>@@AEAV<lambda_2fe9b910cf3cbf4a0ab98a02ba45b3ec>@@V<lambda_237c231691f317818eb88cc1d5d642d6>@@@?$__crt_seh_guarded_call@H@@QEAAH$$QEAV<lambda_bfedae4ebbf01fab1bb6dcc6a9e276e0>@@AEAV<lambda_2fe9b910cf3cbf4a0ab98a02ba45b3ec>@@$$QEAV<lambda_237c231691f317818eb88cc1d5d642d6>@@@Z 000000018001c248 f i libucrt:close.obj
 0001:0001b2bc       _close                     000000018001c2bc f   libucrt:close.obj
 0001:0001b360       _close_nolock              000000018001c360 f   libucrt:close.obj
 0001:0001b41c       ?__acrt_stdio_free_stream@@YAXV__crt_stdio_stream@@@Z 000000018001c41c f   libucrt:stream.obj
 0001:0001b460       __dcrt_lowio_initialize_console_output 000000018001c460 f   libucrt:initcon.obj
 0001:0001b49c       __dcrt_terminate_console_output 000000018001c49c f   libucrt:initcon.obj
 0001:0001b4d0       _get_fpsr                  000000018001c4d0 f   libucrt:fpsr.obj
 0001:0001b4e0       _set_fpsr                  000000018001c4e0 f   libucrt:fpsr.obj
 0001:0001b4ea       _fclrf                     000000018001c4ea f   libucrt:fpsr.obj
 0001:0001b4fe       _frnd                      000000018001c4fe f   libucrt:fpsr.obj
 0001:0001b520       _raise_exc                 000000018001c520 f   libucrt:fpexcept.obj
 0001:0001b548       _raise_exc_ex              000000018001c548 f   libucrt:fpexcept.obj
 0001:0001b850       _set_errno_from_matherr    000000018001c850 f   libucrt:fpexcept.obj
 0001:0001b880       _clrfp                     000000018001c880 f   libucrt:fpctrl.obj
 0001:0001b8a0       _ctrlfp                    000000018001c8a0 f   libucrt:fpctrl.obj
 0001:0001b91c       _set_statfp                000000018001c91c f   libucrt:fpctrl.obj
 0001:0001b93c       _statfp                    000000018001c93c f   libucrt:fpctrl.obj
 0001:0001b94e       IsProcessorFeaturePresent  000000018001c94e f   kernel32:KERNEL32.dll
 0001:0001b954       RtlUnwindEx                000000018001c954 f   kernel32:KERNEL32.dll
 0001:0001b95a       SystemFunction036          000000018001c95a f   advapi32:ADVAPI32.dll
 0001:0001b960       _FindPESection             000000018001c960 f   LIBCMT:pesect.obj
 0001:0001b9b0       _IsNonwritableInCurrentImage 000000018001c9b0 f   LIBCMT:pesect.obj
 0001:0001ba00       _ValidateImageBase         000000018001ca00 f   LIBCMT:pesect.obj
 0001:0001ba30       __GSHandlerCheck           000000018001ca30 f   LIBCMT:_gshandler_.obj
 0001:0001ba50       __GSHandlerCheckCommon     000000018001ca50 f   LIBCMT:_gshandler_.obj
 0001:0001bac0       __security_check_cookie    000000018001cac0 f   LIBCMT:_amdsecgs_.obj
 0001:0001bae4       __raise_securityfailure    000000018001cae4 f   LIBCMT:gs_report.obj
 0001:0001bb18       __report_gsfailure         000000018001cb18 f   LIBCMT:gs_report.obj
 0001:0001bc70       _alloca_probe              000000018001cc70 f   LIBCMT:_chkstk_.obj
 0001:0001bc70       __chkstk                   000000018001cc70 f   LIBCMT:_chkstk_.obj
 0001:0001bce0       _guard_dispatch_icall_nop  000000018001cce0 f   LIBCMT:_guard_dispatch_.obj
 0002:00000000       __imp_SystemFunction036    000000018001d000     advapi32:ADVAPI32.dll
 0002:00000008       __imp_RegSetValueExW       000000018001d008     advapi32:ADVAPI32.dll
 0002:00000010       __imp_RegQueryValueExW     000000018001d010     advapi32:ADVAPI32.dll
 0002:00000018       __imp_RegOpenKeyExW        000000018001d018     advapi32:ADVAPI32.dll
 0002:00000020       __imp_RegCreateKeyExW      000000018001d020     advapi32:ADVAPI32.dll
 0002:00000028       __imp_RegCloseKey          000000018001d028     advapi32:ADVAPI32.dll
 0002:00000030       \177ADVAPI32_NULL_THUNK_DATA 000000018001d030     advapi32:ADVAPI32.dll
 0002:00000038       __imp_GetObjectW           000000018001d038     gdi32:GDI32.dll
 0002:00000040       __imp_CreateDIBSection     000000018001d040     gdi32:GDI32.dll
 0002:00000048       __imp_GdiAlphaBlend        000000018001d048     gdi32:GDI32.dll
 0002:00000050       __imp_SetStretchBltMode    000000018001d050     gdi32:GDI32.dll
 0002:00000058       __imp_StretchBlt           000000018001d058     gdi32:GDI32.dll
 0002:00000060       __imp_MoveToEx             000000018001d060     gdi32:GDI32.dll
 0002:00000068       __imp_SetTextColor         000000018001d068     gdi32:GDI32.dll
 0002:00000070       __imp_SetBkColor           000000018001d070     gdi32:GDI32.dll
 0002:00000078       __imp_SelectObject         000000018001d078     gdi32:GDI32.dll
 0002:00000080       __imp_Rectangle            000000018001d080     gdi32:GDI32.dll
 0002:00000088       __imp_LineTo               000000018001d088     gdi32:GDI32.dll
 0002:00000090       __imp_GetStockObject       000000018001d090     gdi32:GDI32.dll
 0002:00000098       __imp_DeleteObject         000000018001d098     gdi32:GDI32.dll
 0002:000000a0       __imp_DeleteDC             000000018001d0a0     gdi32:GDI32.dll
 0002:000000a8       __imp_CreateSolidBrush     000000018001d0a8     gdi32:GDI32.dll
 0002:000000b0       __imp_CreatePen            000000018001d0b0     gdi32:GDI32.dll
 0002:000000b8       __imp_CreateFontW          000000018001d0b8     gdi32:GDI32.dll
 0002:000000c0       __imp_CreateCompatibleDC   000000018001d0c0     gdi32:GDI32.dll
 0002:000000c8       __imp_CreateCompatibleBitmap 000000018001d0c8     gdi32:GDI32.dll
 0002:000000d0       __imp_BitBlt               000000018001d0d0     gdi32:GDI32.dll
 0002:000000d8       __imp_GdiFlush             000000018001d0d8     gdi32:GDI32.dll
 0002:000000e0       \177GDI32_NULL_THUNK_DATA  000000018001d0e0     gdi32:GDI32.dll
 0002:000000e8       __imp_CreateToolhelp32Snapshot 000000018001d0e8     kernel32:KERNEL32.dll
 0002:000000f0       __imp_Thread32First        000000018001d0f0     kernel32:KERNEL32.dll
 0002:000000f8       __imp_Thread32Next         000000018001d0f8     kernel32:KERNEL32.dll
 0002:00000100       __imp_lstrcpynA            000000018001d100     kernel32:KERNEL32.dll
 0002:00000108       __imp_lstrlenA             000000018001d108     kernel32:KERNEL32.dll
 0002:00000110       __imp_MultiByteToWideChar  000000018001d110     kernel32:KERNEL32.dll
 0002:00000118       __imp_SetEvent             000000018001d118     kernel32:KERNEL32.dll
 0002:00000120       __imp_CreateEventW         000000018001d120     kernel32:KERNEL32.dll
 0002:00000128       __imp_GetExitCodeThread    000000018001d128     kernel32:KERNEL32.dll
 0002:00000130       __imp_LocalAlloc           000000018001d130     kernel32:KERNEL32.dll
 0002:00000138       __imp_WaitForMultipleObjects 000000018001d138     kernel32:KERNEL32.dll
 0002:00000140       __imp_FileTimeToSystemTime 000000018001d140     kernel32:KERNEL32.dll
 0002:00000148       __imp_FindClose            000000018001d148     kernel32:KERNEL32.dll
 0002:00000150       __imp_FindFirstFileW       000000018001d150     kernel32:KERNEL32.dll
 0002:00000158       __imp_FindNextFileW        000000018001d158     kernel32:KERNEL32.dll
 0002:00000160       __imp_GetTempPathW         000000018001d160     kernel32:KERNEL32.dll
 0002:00000168       __imp_ResetEvent           000000018001d168     kernel32:KERNEL32.dll
 0002:00000170       __imp_FreeLibrary          000000018001d170     kernel32:KERNEL32.dll
 0002:00000178       __imp_LoadLibraryW         000000018001d178     kernel32:KERNEL32.dll
 0002:00000180       __imp_IsBadReadPtr         000000018001d180     kernel32:KERNEL32.dll
 0002:00000188       __imp_HeapCreate           000000018001d188     kernel32:KERNEL32.dll
 0002:00000190       __imp_HeapDestroy          000000018001d190     kernel32:KERNEL32.dll
 0002:00000198       __imp_HeapAlloc            000000018001d198     kernel32:KERNEL32.dll
 0002:000001a0       __imp_HeapReAlloc          000000018001d1a0     kernel32:KERNEL32.dll
 0002:000001a8       __imp_HeapFree             000000018001d1a8     kernel32:KERNEL32.dll
 0002:000001b0       __imp_Process32FirstW      000000018001d1b0     kernel32:KERNEL32.dll
 0002:000001b8       __imp_Process32NextW       000000018001d1b8     kernel32:KERNEL32.dll
 0002:000001c0       __imp_OpenThread           000000018001d1c0     kernel32:KERNEL32.dll
 0002:000001c8       __imp_InitializeCriticalSection 000000018001d1c8     kernel32:KERNEL32.dll
 0002:000001d0       __imp_EnterCriticalSection 000000018001d1d0     kernel32:KERNEL32.dll
 0002:000001d8       __imp_LeaveCriticalSection 000000018001d1d8     kernel32:KERNEL32.dll
 0002:000001e0       __imp_TryEnterCriticalSection 000000018001d1e0     kernel32:KERNEL32.dll
 0002:000001e8       __imp_DeleteCriticalSection 000000018001d1e8     kernel32:KERNEL32.dll
 0002:000001f0       __imp_VerSetConditionMask  000000018001d1f0     kernel32:KERNEL32.dll
 0002:000001f8       __imp_VerifyVersionInfoW   000000018001d1f8     kernel32:KERNEL32.dll
 0002:00000200       __imp_ReadConsoleOutputW   000000018001d200     kernel32:KERNEL32.dll
 0002:00000208       __imp_GetConsoleScreenBufferInfo 000000018001d208     kernel32:KERNEL32.dll
 0002:00000210       __imp_GetFileInformationByHandle 000000018001d210     kernel32:KERNEL32.dll
 0002:00000218       __imp_GetEnvironmentVariableW 000000018001d218     kernel32:KERNEL32.dll
 0002:00000220       __imp_ExpandEnvironmentStringsW 000000018001d220     kernel32:KERNEL32.dll
 0002:00000228       __imp_ReadConsoleInputW    000000018001d228     kernel32:KERNEL32.dll
 0002:00000230       __imp_CreateThread         000000018001d230     kernel32:KERNEL32.dll
 0002:00000238       __imp_TerminateThread      000000018001d238     kernel32:KERNEL32.dll
 0002:00000240       __imp_ResumeThread         000000018001d240     kernel32:KERNEL32.dll
 0002:00000248       __imp_GetCurrentProcess    000000018001d248     kernel32:KERNEL32.dll
 0002:00000250       __imp_WriteConsoleW        000000018001d250     kernel32:KERNEL32.dll
 0002:00000258       __imp_SetFilePointerEx     000000018001d258     kernel32:KERNEL32.dll
 0002:00000260       __imp_GetConsoleMode       000000018001d260     kernel32:KERNEL32.dll
 0002:00000268       __imp_GetConsoleCP         000000018001d268     kernel32:KERNEL32.dll
 0002:00000270       __imp_FlushFileBuffers     000000018001d270     kernel32:KERNEL32.dll
 0002:00000278       __imp_SetStdHandle         000000018001d278     kernel32:KERNEL32.dll
 0002:00000280       __imp_HeapSize             000000018001d280     kernel32:KERNEL32.dll
 0002:00000288       __imp_GetCommandLineW      000000018001d288     kernel32:KERNEL32.dll
 0002:00000290       __imp_GetCommandLineA      000000018001d290     kernel32:KERNEL32.dll
 0002:00000298       __imp_GetFileType          000000018001d298     kernel32:KERNEL32.dll
 0002:000002a0       __imp_GetProcessHeap       000000018001d2a0     kernel32:KERNEL32.dll
 0002:000002a8       __imp_FreeEnvironmentStringsW 000000018001d2a8     kernel32:KERNEL32.dll
 0002:000002b0       __imp_GetEnvironmentStringsW 000000018001d2b0     kernel32:KERNEL32.dll
 0002:000002b8       __imp_GetCPInfo            000000018001d2b8     kernel32:KERNEL32.dll
 0002:000002c0       __imp_GetOEMCP             000000018001d2c0     kernel32:KERNEL32.dll
 0002:000002c8       __imp_IsValidCodePage      000000018001d2c8     kernel32:KERNEL32.dll
 0002:000002d0       __imp_SetEnvironmentVariableW 000000018001d2d0     kernel32:KERNEL32.dll
 0002:000002d8       __imp_LCMapStringW         000000018001d2d8     kernel32:KERNEL32.dll
 0002:000002e0       __imp_GetACP               000000018001d2e0     kernel32:KERNEL32.dll
 0002:000002e8       __imp_GetStringTypeW       000000018001d2e8     kernel32:KERNEL32.dll
 0002:000002f0       __imp_GetModuleHandleExW   000000018001d2f0     kernel32:KERNEL32.dll
 0002:000002f8       __imp_TerminateProcess     000000018001d2f8     kernel32:KERNEL32.dll
 0002:00000300       __imp_ExitProcess          000000018001d300     kernel32:KERNEL32.dll
 0002:00000308       __imp_LoadLibraryExW       000000018001d308     kernel32:KERNEL32.dll
 0002:00000310       __imp_TlsFree              000000018001d310     kernel32:KERNEL32.dll
 0002:00000318       __imp_TlsSetValue          000000018001d318     kernel32:KERNEL32.dll
 0002:00000320       __imp_TlsGetValue          000000018001d320     kernel32:KERNEL32.dll
 0002:00000328       __imp_TlsAlloc             000000018001d328     kernel32:KERNEL32.dll
 0002:00000330       __imp_InitializeCriticalSectionAndSpinCount 000000018001d330     kernel32:KERNEL32.dll
 0002:00000338       __imp_InterlockedFlushSList 000000018001d338     kernel32:KERNEL32.dll
 0002:00000340       __imp_RtlUnwindEx          000000018001d340     kernel32:KERNEL32.dll
 0002:00000348       __imp_IsProcessorFeaturePresent 000000018001d348     kernel32:KERNEL32.dll
 0002:00000350       __imp_GetStartupInfoW      000000018001d350     kernel32:KERNEL32.dll
 0002:00000358       __imp_WriteConsoleInputW   000000018001d358     kernel32:KERNEL32.dll
 0002:00000360       __imp_WideCharToMultiByte  000000018001d360     kernel32:KERNEL32.dll
 0002:00000368       __imp_lstrcpyW             000000018001d368     kernel32:KERNEL32.dll
 0002:00000370       __imp_LocalFree            000000018001d370     kernel32:KERNEL32.dll
 0002:00000378       __imp_VirtualProtect       000000018001d378     kernel32:KERNEL32.dll
 0002:00000380       __imp_GetStdHandle         000000018001d380     kernel32:KERNEL32.dll
 0002:00000388       __imp_GetModuleFileNameW   000000018001d388     kernel32:KERNEL32.dll
 0002:00000390       __imp_UnmapViewOfFile      000000018001d390     kernel32:KERNEL32.dll
 0002:00000398       __imp_MapViewOfFile        000000018001d398     kernel32:KERNEL32.dll
 0002:000003a0       __imp_OpenFileMappingW     000000018001d3a0     kernel32:KERNEL32.dll
 0002:000003a8       __imp_CreateFileMappingW   000000018001d3a8     kernel32:KERNEL32.dll
 0002:000003b0       __imp_GetTickCount         000000018001d3b0     kernel32:KERNEL32.dll
 0002:000003b8       __imp_GetCurrentThreadId   000000018001d3b8     kernel32:KERNEL32.dll
 0002:000003c0       __imp_GetCurrentProcessId  000000018001d3c0     kernel32:KERNEL32.dll
 0002:000003c8       __imp_Sleep                000000018001d3c8     kernel32:KERNEL32.dll
 0002:000003d0       __imp_WaitForSingleObject  000000018001d3d0     kernel32:KERNEL32.dll
 0002:000003d8       __imp_WaitNamedPipeW       000000018001d3d8     kernel32:KERNEL32.dll
 0002:000003e0       __imp_TransactNamedPipe    000000018001d3e0     kernel32:KERNEL32.dll
 0002:000003e8       __imp_SetNamedPipeHandleState 000000018001d3e8     kernel32:KERNEL32.dll
 0002:000003f0       __imp_GetLastError         000000018001d3f0     kernel32:KERNEL32.dll
 0002:000003f8       __imp_SetLastError         000000018001d3f8     kernel32:KERNEL32.dll
 0002:00000400       __imp_CloseHandle          000000018001d400     kernel32:KERNEL32.dll
 0002:00000408       __imp_IsDebuggerPresent    000000018001d408     kernel32:KERNEL32.dll
 0002:00000410       __imp_WriteFile            000000018001d410     kernel32:KERNEL32.dll
 0002:00000418       __imp_ReadFile             000000018001d418     kernel32:KERNEL32.dll
 0002:00000420       __imp_CreateFileW          000000018001d420     kernel32:KERNEL32.dll
 0002:00000428       __imp_GetProcAddress       000000018001d428     kernel32:KERNEL32.dll
 0002:00000430       __imp_GetModuleHandleW     000000018001d430     kernel32:KERNEL32.dll
 0002:00000438       __imp_lstrlenW             000000018001d438     kernel32:KERNEL32.dll
 0002:00000440       __imp_lstrcpynW            000000018001d440     kernel32:KERNEL32.dll
 0002:00000448       __imp_lstrcmpiW            000000018001d448     kernel32:KERNEL32.dll
 0002:00000450       __imp_lstrcmpW             000000018001d450     kernel32:KERNEL32.dll
 0002:00000458       __imp_RaiseException       000000018001d458     kernel32:KERNEL32.dll
 0002:00000460       __imp_SetUnhandledExceptionFilter 000000018001d460     kernel32:KERNEL32.dll
 0002:00000468       __imp_UnhandledExceptionFilter 000000018001d468     kernel32:KERNEL32.dll
 0002:00000470       __imp_RtlVirtualUnwind     000000018001d470     kernel32:KERNEL32.dll
 0002:00000478       __imp_RtlLookupFunctionEntry 000000018001d478     kernel32:KERNEL32.dll
 0002:00000480       __imp_RtlCaptureContext    000000018001d480     kernel32:KERNEL32.dll
 0002:00000488       __imp_InitializeSListHead  000000018001d488     kernel32:KERNEL32.dll
 0002:00000490       __imp_GetSystemTimeAsFileTime 000000018001d490     kernel32:KERNEL32.dll
 0002:00000498       __imp_QueryPerformanceCounter 000000018001d498     kernel32:KERNEL32.dll
 0002:000004a0       \177KERNEL32_NULL_THUNK_DATA 000000018001d4a0     kernel32:KERNEL32.dll
 0002:000004a8       __imp_SHGetFileInfoW       000000018001d4a8     shell32:SHELL32.dll
 0002:000004b0       \177SHELL32_NULL_THUNK_DATA 000000018001d4b0     shell32:SHELL32.dll
 0002:000004b8       __imp_MapVirtualKeyW       000000018001d4b8     user32:USER32.dll
 0002:000004c0       __imp_IsWindow             000000018001d4c0     user32:USER32.dll
 0002:000004c8       __imp_MessageBoxW          000000018001d4c8     user32:USER32.dll
 0002:000004d0       __imp_GetWindowLongPtrW    000000018001d4d0     user32:USER32.dll
 0002:000004d8       __imp_DrawTextW            000000018001d4d8     user32:USER32.dll
 0002:000004e0       __imp_ShowWindow           000000018001d4e0     user32:USER32.dll
 0002:000004e8       __imp_wsprintfA            000000018001d4e8     user32:USER32.dll
 0002:000004f0       __imp_GetIconInfo          000000018001d4f0     user32:USER32.dll
 0002:000004f8       __imp_DrawIconEx           000000018001d4f8     user32:USER32.dll
 0002:00000500       __imp_DestroyIcon          000000018001d500     user32:USER32.dll
 0002:00000508       __imp_LoadIconW            000000018001d508     user32:USER32.dll
 0002:00000510       __imp_ReleaseDC            000000018001d510     user32:USER32.dll
 0002:00000518       __imp_GetDC                000000018001d518     user32:USER32.dll
 0002:00000520       __imp_LoadCursorW          000000018001d520     user32:USER32.dll
 0002:00000528       __imp_SetWindowLongPtrW    000000018001d528     user32:USER32.dll
 0002:00000530       __imp_SetWindowLongW       000000018001d530     user32:USER32.dll
 0002:00000538       __imp_FillRect             000000018001d538     user32:USER32.dll
 0002:00000540       __imp_InvalidateRect       000000018001d540     user32:USER32.dll
 0002:00000548       __imp_EndPaint             000000018001d548     user32:USER32.dll
 0002:00000550       __imp_BeginPaint           000000018001d550     user32:USER32.dll
 0002:00000558       __imp_CreateWindowExW      000000018001d558     user32:USER32.dll
 0002:00000560       __imp_ShowWindowAsync      000000018001d560     user32:USER32.dll
 0002:00000568       __imp_DestroyWindow        000000018001d568     user32:USER32.dll
 0002:00000570       __imp_UnregisterClassW     000000018001d570     user32:USER32.dll
 0002:00000578       __imp_RegisterClassW       000000018001d578     user32:USER32.dll
 0002:00000580       __imp_DefWindowProcW       000000018001d580     user32:USER32.dll
 0002:00000588       __imp_PostThreadMessageW   000000018001d588     user32:USER32.dll
 0002:00000590       __imp_PostMessageW         000000018001d590     user32:USER32.dll
 0002:00000598       __imp_DispatchMessageW     000000018001d598     user32:USER32.dll
 0002:000005a0       __imp_GetMessageW          000000018001d5a0     user32:USER32.dll
 0002:000005a8       __imp_RegisterWindowMessageW 000000018001d5a8     user32:USER32.dll
 0002:000005b0       __imp_GetWindowThreadProcessId 000000018001d5b0     user32:USER32.dll
 0002:000005b8       __imp_IntersectRect        000000018001d5b8     user32:USER32.dll
 0002:000005c0       __imp_ChildWindowFromPointEx 000000018001d5c0     user32:USER32.dll
 0002:000005c8       __imp_WindowFromPoint      000000018001d5c8     user32:USER32.dll
 0002:000005d0       __imp_MapWindowPoints      000000018001d5d0     user32:USER32.dll
 0002:000005d8       __imp_GetClientRect        000000018001d5d8     user32:USER32.dll
 0002:000005e0       __imp_GetKeyState          000000018001d5e0     user32:USER32.dll
 0002:000005e8       __imp_IsWindowVisible      000000018001d5e8     user32:USER32.dll
 0002:000005f0       __imp_wsprintfW            000000018001d5f0     user32:USER32.dll
 0002:000005f8       __imp_GetClassNameW        000000018001d5f8     user32:USER32.dll
 0002:00000600       \177USER32_NULL_THUNK_DATA 000000018001d600     user32:USER32.dll
 0002:00000608       __imp_VerQueryValueW       000000018001d608     version:VERSION.dll
 0002:00000610       __imp_GetFileVersionInfoW  000000018001d610     version:VERSION.dll
 0002:00000618       __imp_GetFileVersionInfoSizeW 000000018001d618     version:VERSION.dll
 0002:00000620       \177VERSION_NULL_THUNK_DATA 000000018001d620     version:VERSION.dll
 0002:00000628       __imp_CoInitialize         000000018001d628     ole32:ole32.dll
 0002:00000630       __imp_CoUninitialize       000000018001d630     ole32:ole32.dll
 0002:00000638       \177ole32_NULL_THUNK_DATA  000000018001d638     ole32:ole32.dll
 0002:00000640       __guard_check_icall_fptr   000000018001d640     LIBCMT:guard_support.obj
 0002:00000648       __guard_dispatch_icall_fptr 000000018001d648     LIBCMT:guard_support.obj
 0002:00000650       __xc_a                     000000018001d650     LIBCMT:initializers.obj
 0002:00000658       __xc_z                     000000018001d658     LIBCMT:initializers.obj
 0002:00000660       __xi_a                     000000018001d660     LIBCMT:initializers.obj
 0002:00000668       __acrt_multibyte_initializer 000000018001d668     libucrt:multibyte_initializer.obj
 0002:00000670       __acrt_stdio_initializer   000000018001d670     libucrt:stdio_initializer.obj
 0002:00000678       __acrt_tran_fma3_initializer 000000018001d678     libucrt:fma3_initializer.obj
 0002:00000680       __xi_z                     000000018001d680     LIBCMT:initializers.obj
 0002:00000688       __xp_a                     000000018001d688     LIBCMT:initializers.obj
 0002:00000690       __acrt_locale_terminator   000000018001d690     libucrt:locale_initializer.obj
 0002:00000698       __dcrt_console_output_terminator 000000018001d698     libucrt:console_output_initializer.obj
 0002:000006a0       __acrt_stdio_terminator    000000018001d6a0     libucrt:stdio_initializer.obj
 0002:000006a8       __xp_z                     000000018001d6a8     LIBCMT:initializers.obj
 0002:000006b0       __xt_a                     000000018001d6b0     LIBCMT:initializers.obj
 0002:000006b8       __xt_z                     000000018001d6b8     LIBCMT:initializers.obj
 0002:000006c0       ??_C@_19IJOJOJIB@?$AAP?$AAA?$AAT?$AAH?$AA?$AA@ 000000018001d6c0     CEStr.obj
 0002:000006d0       ??_C@_1EHK@JMHPNAMN@?$AAA?$AAC?$AAT?$AAI?$AAV?$AAA?$AAT?$AAE?$AA?$AA?$AAA?$AAL?$AAI?$AAA?$AAS?$AA?$AA?$AAA?$AAS?$AAS?$AAO?$AAC?$AA?$AA?$AAA?$AAT?$AAT?$AAR?$AAI?$AAB?$AA?$AA?$AAB?$AAE?$AAE?$AAP@ 000000018001d6d0     CmdLine.obj
 0002:00000b4c       ??_C@_11LOCGONAA@?$AA?$AA@ 000000018001db4c     CmdLine.obj
 0002:00000b50       ??_C@_19DOGDICKI@?$AA?4?$AAe?$AAx?$AAe?$AA?$AA@ 000000018001db50     CmdLine.obj
 0002:00000b5c       ??_C@_13FPGAJAPJ@?$AA?2?$AA?$AA@ 000000018001db5c     CmdLine.obj
 0002:00000b60       ??_C@_1BA@LEPJIIOK@?$AAU?$AAn?$AAk?$AAn?$AAo?$AAw?$AAn?$AA?$AA@ 000000018001db60     ConEmuCheck.obj
 0002:00000b70       ??_C@_1EM@INHGIPLC@?$AA?$CF?$AAs?$AA?4?$AA?$CF?$AAu?$AA?3?$AA?5?$AAC?$AAr?$AAe?$AAa?$AAt?$AAe?$AAF?$AAi?$AAl?$AAe?$AA?$CI?$AA?$CF?$AAs?$AA?$CJ?$AA?5?$AAf?$AAa?$AAi?$AAl?$AAe?$AAd?$AA?0?$AA?5?$AAc?$AAo@ 000000018001db70     ConEmuCheck.obj
 0002:00000bbc       ??_C@_13JOFGPIOO@?$AA?4?$AA?$AA@ 000000018001dbbc     ConEmuCheck.obj
 0002:00000bc0       ??_C@_1DC@MJLCOFMA@?$AA?2?$AA?2?$AA?$CF?$AAs?$AA?2?$AAp?$AAi?$AAp?$AAe?$AA?2?$AAC?$AAo?$AAn?$AAE?$AAm?$AAu?$AAG?$AAu?$AAi?$AA?4?$AA?$CF?$AA0?$AA8?$AAX?$AA?$AA@ 000000018001dbc0     ConEmuCheck.obj
 0002:00000c00       ??_C@_1GK@OGACKIKJ@?$AAI?$AAn?$AAt?$AAe?$AAr?$AAn?$AAa?$AAl?$AA?5?$AAe?$AAr?$AAr?$AAo?$AAr?$AA?4?$AA?5?$AAM?$AAa?$AAp?$AAp?$AAi?$AAn?$AAg?$AA?5?$AAf?$AAi?$AAl?$AAe?$AA?5?$AAn?$AAa?$AAm@ 000000018001dc00     ConEmuCheck.obj
 0002:00000c70       ??_C@_1O@KBENBEFG@?$AAc?$AAr?$AAe?$AAa?$AAt?$AAe?$AA?$AA@ 000000018001dc70     ConEmuCheck.obj
 0002:00000c80       ??_C@_19BDAJEHDN@?$AAo?$AAp?$AAe?$AAn?$AA?$AA@ 000000018001dc80     ConEmuCheck.obj
 0002:00000c90       ??_C@_1GM@LGOLGABE@?$AAC?$AAa?$AAn?$AA?8?$AAt?$AA?5?$AA?$CF?$AAs?$AA?5?$AAc?$AAo?$AAn?$AAs?$AAo?$AAl?$AAe?$AA?5?$AAd?$AAa?$AAt?$AAa?$AA?5?$AAf?$AAi?$AAl?$AAe?$AA?5?$AAm?$AAa?$AAp?$AAp?$AAi@ 000000018001dc90     ConEmuCheck.obj
 0002:00000d00       ??_C@_1BE@HADLJAO@?$AAR?$AAe?$AAa?$AAd?$AAW?$AAr?$AAi?$AAt?$AAe?$AA?$AA@ 000000018001dd00     ConEmuCheck.obj
 0002:00000d18       ??_C@_19EOHDNDII@?$AAR?$AAe?$AAa?$AAd?$AA?$AA@ 000000018001dd18     ConEmuCheck.obj
 0002:00000d30       ??_C@_1FO@BGAPBIGG@?$AAC?$AAa?$AAn?$AA?8?$AAt?$AA?5?$AAm?$AAa?$AAp?$AA?5?$AAc?$AAo?$AAn?$AAs?$AAo?$AAl?$AAe?$AA?5?$AAi?$AAn?$AAf?$AAo?$AA?5?$AA?$CI?$AA?$CF?$AAs?$AA?$CJ?$AA?4?$AA?5?$AAE?$AAr?$AAr@ 000000018001dd30     ConEmuCheck.obj
 0002:00000d90       ??_C@_08BCACMCCB@ExitFARW?$AA@ 000000018001dd90     ConEmuTh.obj
 0002:00000da0       ??_C@_0BF@NLPJFAHE@ProcessSynchroEventW?$AA@ 000000018001dda0     ConEmuTh.obj
 0002:00000dc0       ??_C@_1FG@DPPGENBC@?$AAL?$AAo?$AAa?$AAd?$AAA?$AAp?$AAp?$AAV?$AAe?$AAr?$AAs?$AAi?$AAo?$AAn?$AA?4?$AAV?$AAe?$AAr?$AAQ?$AAu?$AAe?$AAr?$AAy?$AAV?$AAa?$AAl?$AAu?$AAe?$AA?$CI?$AA?$CC?$AA?2?$AA?$CC@ 000000018001ddc0     ConEmuTh.obj
 0002:00000e20       ??_C@_1FK@HILEEFML@?$AAL?$AAo?$AAa?$AAd?$AAA?$AAp?$AAp?$AAV?$AAe?$AAr?$AAs?$AAi?$AAo?$AAn?$AA?4?$AAG?$AAe?$AAt?$AAF?$AAi?$AAl?$AAe?$AAV?$AAe?$AAr?$AAs?$AAi?$AAo?$AAn?$AAI?$AAn?$AAf@ 000000018001de20     ConEmuTh.obj
 0002:00000e80       ??_C@_1GC@BINFLBDC@?$AAL?$AAo?$AAa?$AAd?$AAA?$AAp?$AAp?$AAV?$AAe?$AAr?$AAs?$AAi?$AAo?$AAn?$AA?5?$AAf?$AAa?$AAi?$AAl?$AAe?$AAd?$AA?$CB?$AA?5?$AAC?$AAa?$AAn?$AA?8?$AAt?$AA?5?$AAa?$AAl?$AAl@ 000000018001de80     ConEmuTh.obj
 0002:00000ef0       ??_C@_1GC@CPPHDKJK@?$AAL?$AAo?$AAa?$AAd?$AAA?$AAp?$AAp?$AAV?$AAe?$AAr?$AAs?$AAi?$AAo?$AAn?$AA?4?$AAG?$AAe?$AAt?$AAF?$AAi?$AAl?$AAe?$AAV?$AAe?$AAr?$AAs?$AAi?$AAo?$AAn?$AAI?$AAn?$AAf@ 000000018001def0     ConEmuTh.obj
 0002:00000f60       ??_C@_1EG@IINOBDEG@?$AAI?$AAn?$AAv?$AAa?$AAl?$AAi?$AAd?$AA?5?$AAa?$AAs?$AAM?$AAo?$AAd?$AAu?$AAl?$AAe?$AAP?$AAa?$AAt?$AAh?$AA?5?$AAw?$AAa?$AAs?$AA?5?$AAs?$AAp?$AAe?$AAc?$AAi?$AAf?$AAi@ 000000018001df60     ConEmuTh.obj
 0002:00000fa8       ??_C@_1CA@GGFPMHLH@?$AA?6?$AAE?$AAr?$AAr?$AAC?$AAo?$AAd?$AAe?$AA?$DN?$AA0?$AAx?$AA?$CF?$AA0?$AA8?$AAX?$AA?$AA@ 000000018001dfa8     ConEmuTh.obj
 0002:00000fd0       ??_C@_1FG@LNADFPCE@?$AAL?$AAo?$AAa?$AAd?$AAF?$AAa?$AAr?$AAV?$AAe?$AAr?$AAs?$AAi?$AAo?$AAn?$AA?4?$AAG?$AAe?$AAt?$AAM?$AAo?$AAd?$AAu?$AAl?$AAe?$AAF?$AAi?$AAl?$AAe?$AAN?$AAa?$AAm?$AAe@ 000000018001dfd0     ConEmuTh.obj
 0002:00001028       ??_C@_1CC@MFEKNKAL@?$AAC?$AAo?$AAn?$AAE?$AAm?$AAu?$AAT?$AAh?$AA?4?$AAx?$AA6?$AA4?$AA?4?$AAd?$AAl?$AAl?$AA?$AA@ 000000018001e028     ConEmuTh.obj
 0002:00001050       ??_C@_1BO@ONHPLONP@?$AAC?$AAo?$AAn?$AAE?$AAm?$AAu?$AA?4?$AAx?$AA6?$AA4?$AA?4?$AAd?$AAl?$AAl?$AA?$AA@ 000000018001e050     ConEmuTh.obj
 0002:00001070       ??_C@_0BC@MKJHPCEO@RegisterPanelView?$AA@ 000000018001e070     ConEmuTh.obj
 0002:00001088       ??_C@_0M@FMNOKGGE@GetFarHWND2?$AA@ 000000018001e088     ConEmuTh.obj
 0002:00001098       ??_C@_1BM@HEIDIPPL@?$AAL?$AAe?$AAf?$AAt?$AAP?$AAa?$AAn?$AAe?$AAl?$AAV?$AAi?$AAe?$AAw?$AA?$AA@ 000000018001e098     ConEmuTh.obj
 0002:000010b8       ??_C@_1BO@KCLMEFLE@?$AAR?$AAi?$AAg?$AAh?$AAt?$AAP?$AAa?$AAn?$AAe?$AAl?$AAV?$AAi?$AAe?$AAw?$AA?$AA@ 000000018001e0b8     ConEmuTh.obj
 0002:000010d8       ??_C@_0N@IGDGKHAB@ConEmuTh?4cpp?$AA@ 000000018001e0d8     ConEmuTh.obj
 0002:000010e8       ??_C@_1DM@JLCDNDHD@?$AAC?$AAo?$AAn?$AAE?$AAm?$AAu?$AAP?$AAa?$AAn?$AAe?$AAl?$AAV?$AAi?$AAe?$AAw?$AAD?$AAl?$AAg?$AAs?$AAM?$AAa?$AAp?$AAp?$AAi?$AAn?$AAg?$AA?4?$AA?$CF?$AAu?$AA?$AA@ 000000018001e0e8     ConEmuTh.obj
 0002:00001128       ??_C@_1O@EMLLFJNI@?$AAA?$AAc?$AAt?$AAi?$AAv?$AAe?$AA?$AA@ 000000018001e128     ConEmuTh.obj
 0002:00001138       ??_C@_1BM@OLHABKH@?$AAF?$AAa?$AAr?$AAT?$AAh?$AAu?$AAm?$AAb?$AAn?$AAa?$AAi?$AAl?$AAs?$AA?$AA@ 000000018001e138     ConEmuTh.obj
 0002:00001158       ??_C@_1DG@DBEAEOKG@?$AAF?$AAa?$AAr?$AAP?$AAi?$AAc?$AAt?$AAu?$AAr?$AAe?$AAV?$AAi?$AAe?$AAw?$AAC?$AAo?$AAn?$AAt?$AAr?$AAo?$AAl?$AAC?$AAl?$AAa?$AAs?$AAs?$AA?$AA@ 000000018001e158     ConEmuTh.obj
 0002:00001190       ??_C@_1DC@FOGHAECG@?$AAF?$AAa?$AAr?$AAM?$AAu?$AAl?$AAt?$AAi?$AAV?$AAi?$AAe?$AAw?$AAC?$AAo?$AAn?$AAt?$AAr?$AAo?$AAl?$AAC?$AAl?$AAa?$AAs?$AAs?$AA?$AA@ 000000018001e190     ConEmuTh.obj
 0002:000011c8       ??_C@_1DA@BMIFHIMF@?$AAC?$AAo?$AAn?$AAE?$AAm?$AAu?$AAV?$AAi?$AAe?$AAw?$AAS?$AAe?$AAt?$AAM?$AAa?$AAp?$AAp?$AAi?$AAn?$AAg?$AA?4?$AA?$CF?$AAu?$AA?$AA@ 000000018001e1c8     ConEmuTh.obj
 0002:000011f8       ??_C@_1BC@DJOGOIHN@?$AAC?$AAo?$AAn?$AAE?$AAm?$AAu?$AAT?$AAh?$AA?$AA@ 000000018001e1f8     ConEmuTh.obj
 0002:00001210       ??_C@_1DM@OLPDHEPA@?$AAF?$AAa?$AAi?$AAl?$AAe?$AAd?$AA?5?$AAt?$AAo?$AA?5?$AAg?$AAe?$AAt?$AA?5?$AAC?$AAo?$AAn?$AAE?$AAm?$AAu?$AA?5?$AAp?$AAa?$AAl?$AAe?$AAt?$AAt?$AAe?$AA?$CB?$AA?$AA@ 000000018001e210     ConEmuTh.obj
 0002:00001250       ??_C@_1CG@HOMCPCN@?$AA?2?$AAP?$AAl?$AAu?$AAg?$AAi?$AAn?$AAs?$AA?2?$AAP?$AAa?$AAn?$AAe?$AAl?$AAT?$AAa?$AAb?$AAs?$AA?$AA@ 000000018001e250     ConEmuTh.obj
 0002:00001278       ??_C@_1BK@NFAPLMGI@?$AAS?$AAe?$AAp?$AAa?$AAr?$AAa?$AAt?$AAe?$AAT?$AAa?$AAb?$AAs?$AA?$AA@ 000000018001e278     ConEmuTh.obj
 0002:00001298       ??_C@_1BI@GILFJGEK@?$AAB?$AAu?$AAt?$AAt?$AAo?$AAn?$AAC?$AAo?$AAl?$AAo?$AAr?$AA?$AA@ 000000018001e298     ConEmuTh.obj
 0002:000012b0       ??_C@_17JLFEDMMI@?$AA?$DP?$AA?$DP?$AA?$DP?$AA?$AA@ 000000018001e2b0     ConEmuTh1900.obj
 0002:000012b8       ??_C@_1BI@EKLHEFDO@?$AAS?$AAh?$AAo?$AAw?$AAM?$AAe?$AAn?$AAu?$AAB?$AAa?$AAr?$AA?$AA@ 000000018001e2b8     ConEmuTh1900.obj
 0002:000012d0       ??_C@_1O@PDEOIOBG@?$AAK?$AAe?$AAy?$AAB?$AAa?$AAr?$AA?$AA@ 000000018001e2d0     ConEmuTh1900.obj
 0002:000012e0       ??_C@_1BK@MBFACEDG@?$AAC?$AAo?$AAl?$AAu?$AAm?$AAn?$AAT?$AAi?$AAt?$AAl?$AAe?$AAs?$AA?$AA@ 000000018001e2e0     ConEmuTh1900.obj
 0002:00001300       ??_C@_1BG@MHMKAABO@?$AAS?$AAt?$AAa?$AAt?$AAu?$AAs?$AAL?$AAi?$AAn?$AAe?$AA?$AA@ 000000018001e300     ConEmuTh1900.obj
 0002:00001318       ??_C@_1BC@IALIJCAM@?$AAS?$AAo?$AAr?$AAt?$AAM?$AAo?$AAd?$AAe?$AA?$AA@ 000000018001e318     ConEmuTh1900.obj
 0002:00001330       ??_C@_1CG@DMGPLFKD@?$AAC?$AAo?$AAn?$AAE?$AAm?$AAu?$AA?5?$AAP?$AAa?$AAn?$AAe?$AAl?$AA?5?$AAV?$AAi?$AAe?$AAw?$AAs?$AA?$AA@ 000000018001e330     ConEmuTh2800.obj
 0002:00001360       ??_C@_1EM@OOFEGLCO@?$AAT?$AAh?$AAu?$AAm?$AAb?$AAn?$AAa?$AAi?$AAl?$AAs?$AA?5?$AAa?$AAn?$AAd?$AA?5?$AAT?$AAi?$AAl?$AAe?$AAs?$AA?5?$AAi?$AAn?$AA?5?$AAC?$AAo?$AAn?$AAE?$AAm?$AAu?$AA?5?$AAw@ 000000018001e360     ConEmuTh2800.obj
 0002:000013b0       ??_C@_1DE@DJEAMLPH@?$AAC?$AAo?$AAn?$AAE?$AAm?$AAu?$AA?4?$AAM?$AAa?$AAx?$AAi?$AAm?$AAu?$AAs?$AA5?$AA?$EA?$AAg?$AAm?$AAa?$AAi?$AAl?$AA?4?$AAc?$AAo?$AAm?$AA?$AA@ 000000018001e3b0     ConEmuTh2800.obj
 0002:000013e8       ??_C@_1BG@LBJCGLOJ@?$AAS?$AAe?$AAt?$AAC?$AAu?$AAr?$AAI?$AAt?$AAe?$AAm?$AA?$AA@ 000000018001e3e8     ConEmuTh2800.obj
 0002:00001400       ??_C@_1EI@PNMHLKGC@?$AAi?$AAf?$AA?5?$AAA?$AAr?$AAe?$AAa?$AA?4?$AAS?$AAe?$AAa?$AAr?$AAc?$AAh?$AA?5?$AAt?$AAh?$AAe?$AAn?$AA?5?$AAK?$AAe?$AAy?$AAs?$AA?$CI?$AA?$CC?$AAE?$AAs?$AAc?$AA?$CC?$AA?$CJ?$AA?5@ 000000018001e400     ConEmuTh2800.obj
 0002:00001448       ??_C@_1CA@GIGEMLLA@?$AAP?$AAl?$AAu?$AAg?$AAi?$AAn?$AA?4?$AAS?$AAy?$AAn?$AAc?$AAC?$AAa?$AAl?$AAl?$AA?$AA@ 000000018001e448     ConEmuTh2800.obj
 0002:00001468       ??_C@_1CM@IICFOBPI@?$AA$?$AAi?$AAf?$AA?5?$AA?$CI?$AAS?$AAe?$AAa?$AAr?$AAc?$AAh?$AA?$CJ?$AA?5?$AAE?$AAs?$AAc?$AA?5?$AA$?$AAe?$AAn?$AAd?$AA?$AA@ 000000018001e468     ConEmuTh2800.obj
 0002:00001498       ??_C@_1BG@PKDGNNAF@?$AAc?$AAa?$AAl?$AAl?$AAp?$AAl?$AAu?$AAg?$AAi?$AAn?$AA?$AA@ 000000018001e498     ConEmuTh2800.obj
 0002:000014b0       ??_C@_1HI@BNDPAPFP@?$AA?$CF?$AAs?$AA?5?$AA?$CF?$AAs?$AA?$CI?$AA?$CC?$AAb?$AAd?$AA4?$AA5?$AA4?$AAd?$AA4?$AA8?$AA?9?$AA4?$AA4?$AA8?$AAe?$AA?9?$AA4?$AA6?$AAc?$AAc?$AA?9?$AA9?$AA0?$AA9?$AAd?$AA?9?$AAb@ 000000018001e4b0     ConEmuTh2800.obj
 0002:00001528       ??_C@_1BE@LFJLOEAN@?$AAC?$AAo?$AAn?$AAE?$AAm?$AAu?$AAT?$AAh?$AA?2?$AA?$AA@ 000000018001e528     ConEmuTh995.obj
 0002:00001560       ??_C@_0BG@FGMCOIHO@Thumbs?3?3DisplayThread?$AA@ 000000018001e560     Display.obj
 0002:00001578       ??_C@_19DKAIAFPE@?$AAL?$AAe?$AAf?$AAt?$AA?$AA@ 000000018001e578     Display.obj
 0002:00001588       ??_C@_1M@KDEMMBOH@?$AAR?$AAi?$AAg?$AAh?$AAt?$AA?$AA@ 000000018001e588     Display.obj
 0002:00001598       ??_C@_1CM@MJKKOLFD@?$AAC?$AAo?$AAn?$AAE?$AAm?$AAu?$AA?4?$AA?$CF?$AAs?$AAP?$AAa?$AAn?$AAe?$AAl?$AAV?$AAi?$AAe?$AAw?$AA?4?$AA?$CF?$AAi?$AA?$AA@ 000000018001e598     Display.obj
 0002:000015c8       ??_C@_1BO@IPKBELC@?$AAC?$AAo?$AAn?$AAE?$AAm?$AAu?$AAT?$AAh?$AA?3?$AA?3?$AAF?$AAa?$AAd?$AAe?$AA?$AA@ 000000018001e5c8     Display.obj
 0002:000015e8       ??_C@_1CG@OILEFJJN@?$AAC?$AAo?$AAn?$AAE?$AAm?$AAu?$AAT?$AAh?$AA?3?$AA?3?$AAS?$AAe?$AAt?$AAt?$AAi?$AAn?$AAg?$AAs?$AA?$AA@ 000000018001e5e8     Display.obj
 0002:00001610       ??_C@_1CI@GNBJKMME@?$AAC?$AAo?$AAn?$AAE?$AAm?$AAu?$AAT?$AAh?$AA?3?$AA?3?$AAM?$AAa?$AAp?$AAC?$AAo?$AAo?$AAr?$AAd?$AAs?$AA?$AA@ 000000018001e610     Display.obj
 0002:00001638       ??_C@_1CO@LEOKLKOD@?$AA?$CF?$AA0?$AA2?$AAi?$AA?4?$AA?$CF?$AA0?$AA2?$AAi?$AA?4?$AA?$CF?$AA0?$AA2?$AAi?$AA?5?$AA?$CF?$AAi?$AA?3?$AA?$CF?$AA0?$AA2?$AAi?$AA?$AA@ 000000018001e638     Display.obj
 0002:00001668       ??_C@_1O@NLGMKEDN@?$AAB?$AAK?$AAM?$AAG?$AAT?$AAP?$AA?$AA@ 000000018001e668     Display.obj
 0002:00001678       ??_C@_1BG@NLGHAGA@?$AA?$CF?$AAi?$AA?0?$AA?$CF?$AA0?$AA3?$AAi?$AA?5?$AA?$CF?$AAc?$AA?$AA@ 000000018001e678     Display.obj
 0002:00001690       ??_C@_1M@KOMOBEPM@?$AA?$CF?$AAi?$AA?5?$AA?$CF?$AAc?$AA?$AA@ 000000018001e690     Display.obj
 0002:000016a0       ??_C@_1EK@NOCLDABL@?$AAi?$AAf?$AA?5?$AA?$CF?$AAc?$AAP?$AAa?$AAn?$AAe?$AAl?$AA?4?$AAL?$AAe?$AAf?$AAt?$AA?5?$AAt?$AAh?$AAe?$AAn?$AA?5?$AAK?$AAe?$AAy?$AAs?$AA?$CI?$AA?$CC?$AAT?$AAa?$AAb?$AA?$CC?$AA?$CJ@ 000000018001e6a0     Display.obj
 0002:000016f0       ??_C@_1DI@DLGGKEIH@?$AA$?$AAI?$AAf?$AA?5?$AA?$CI?$AA?$CF?$AAc?$AAP?$AAa?$AAn?$AAe?$AAl?$AA?4?$AAL?$AAe?$AAf?$AAt?$AA?$CJ?$AA?5?$AAT?$AAa?$AAb?$AA?5?$AA$?$AAE?$AAn?$AAd?$AA?$AA@ 000000018001e6f0     Display.obj
 0002:00001728       ??_C@_1BO@MLCHEAGG@?$AAC?$AAo?$AAn?$AAE?$AAm?$AAu?$AAH?$AAk?$AA6?$AA4?$AA?4?$AAd?$AAl?$AAl?$AA?$AA@ 000000018001e728     HkFunc.obj
 0002:00001748       ??_C@_0BD@HGJIAJJM@RequestTrampolines?$AA@ 000000018001e748     HkFunc.obj
 0002:00001760       ??_7?$CQueueProcessor@PEAUIMAGE_CACHE_INFO@@@@6B@ 000000018001e760     ImgCache.obj
 0002:000017c8       ??_7CImgLoader@@6B@        000000018001e7c8     ImgCache.obj
 0002:00001840       ??_C@_1M@KCMICNEG@?$AA?$CK?$AA?4?$AAt?$AA6?$AA4?$AA?$AA@ 000000018001e840     ImgCache.obj
 0002:00001850       ??_C@_08DHJJJJMJ@CET_Init?$AA@ 000000018001e850     ImgCache.obj
 0002:00001860       ??_C@_08CBCDAPII@CET_Done?$AA@ 000000018001e860     ImgCache.obj
 0002:00001870       ??_C@_08DBEDCDF@CET_Load?$AA@ 000000018001e870     ImgCache.obj
 0002:00001880       ??_C@_08PFMFDMEL@CET_Free?$AA@ 000000018001e880     ImgCache.obj
 0002:00001890       ??_C@_0L@DOHHADLD@CET_Cancel?$AA@ 000000018001e890     ImgCache.obj
 0002:000018a0       ??_C@_1BO@EOFABIPH@?$AAC?$AAo?$AAn?$AAE?$AAm?$AAu?$AAT?$AAh?$AA?4?$AAc?$AAa?$AAc?$AAh?$AAe?$AA?$AA@ 000000018001e8a0     ImgCache.obj
 0002:000018c0       ??_C@_15DDHGOCBH@?$AA?4?$AA?4?$AA?$AA@ 000000018001e8c0     ImgCache.obj
 0002:000018c8       ??_C@_19DDLLJDOO@?$AAF?$AAi?$AAl?$AAe?$AA?$AA@ 000000018001e8c8     ImgCache.obj
 0002:000018d8       ??_C@_19HKLPDE@?$AA?4?$AAb?$AAm?$AAp?$AA?$AA@ 000000018001e8d8     ImgCache.obj
 0002:000018e8       ??_C@_19KGHJPLAF@?$AA?4?$AAg?$AAi?$AAf?$AA?$AA@ 000000018001e8e8     ImgCache.obj
 0002:000018f8       ??_C@_19GPGAIFNL@?$AA?4?$AAi?$AAc?$AAo?$AA?$AA@ 000000018001e8f8     ImgCache.obj
 0002:00001908       ??_C@_19HFLOJEOK@?$AA?4?$AAp?$AAn?$AAg?$AA?$AA@ 000000018001e908     ImgCache.obj
 0002:00001918       ??_C@_19EBFDIIDI@?$AA?4?$AAw?$AAm?$AAf?$AA?$AA@ 000000018001e918     ImgCache.obj
 0002:00001928       ??_C@_1BE@DFPCIADA@?$AAP?$AAB?$AAF?$AAa?$AAr?$AA?4?$AAd?$AAl?$AAl?$AA?$AA@ 000000018001e928     ImgCache.obj
 0002:00001940       ??_C@_0N@DDFPJHDO@_GetFileData?$AA@ 000000018001e940     ImgCache.obj
 0002:00001950       ??_C@_0DL@DGFCHJEK@t?3?2vcproject?2maximus5?2conemu?2src@ 000000018001e950     ImgCache.obj
 0002:00001990       ??_C@_0BJ@KDNBOADC@Thumbs?3?3ProcessingThread?$AA@ 000000018001e990     ImgCache.obj
 0002:000019b0       __xmm@00000020000000200000000000000000 000000018001e9b0     ImgCache.obj
 0002:000019c0       ??_7?$MToolHelp@UtagPROCESSENTRY32W@@$1?Process32FirstW@@YAHPEAXPEAU1@@Z$1?Process32NextW@@YAH01@Z@@6B@ 000000018001e9c0     MProcess.obj
 0002:000019c0       ??_7MToolHelpProcess@@6B@  000000018001e9c0     MProcess.obj
 0002:000019d0       ??_C@_1BK@HHKNEJDC@?$AAt?$AAl?$AAn?$AAt?$AAs?$AAe?$AAs?$AAs?$AA?4?$AAe?$AAx?$AAe?$AA?$AA@ 000000018001e9d0     MProcess.obj
 0002:000019f0       ??_C@_1BI@MPDCNJBA@?$AAt?$AAl?$AAn?$AAt?$AAs?$AAv?$AAr?$AA?4?$AAe?$AAx?$AAe?$AA?$AA@ 000000018001e9f0     MProcess.obj
 0002:00001a08       ??_C@_1BO@HJHEFHMO@?$AAK?$AAe?$AAr?$AAn?$AAe?$AAl?$AAB?$AAa?$AAs?$AAe?$AA?4?$AAd?$AAl?$AAl?$AA?$AA@ 000000018001ea08     MSecurity.obj
 0002:00001a28       ??_C@_1BK@BIGILECK@?$AAA?$AAd?$AAv?$AAa?$AAp?$AAi?$AA3?$AA2?$AA?4?$AAd?$AAl?$AAl?$AA?$AA@ 000000018001ea28     MSecurity.obj
 0002:00001a48       ??_C@_0BE@IPKPLIM@AddAccessAllowedAce?$AA@ 000000018001ea48     MSecurity.obj
 0002:00001a60       ??_C@_0BD@EIGAJLOG@AddAccessDeniedAce?$AA@ 000000018001ea60     MSecurity.obj
 0002:00001a78       ??_C@_0BJ@ECIKFEOL@AllocateAndInitializeSid?$AA@ 000000018001ea78     MSecurity.obj
 0002:00001a98       ??_C@_0N@HBKDHKNL@GetLengthSid?$AA@ 000000018001ea98     MSecurity.obj
 0002:00001aa8       ??_C@_0O@GKCEJBAA@InitializeAcl?$AA@ 000000018001eaa8     MSecurity.obj
 0002:00001ab8       ??_C@_0BN@FNLANPJJ@InitializeSecurityDescriptor?$AA@ 000000018001eab8     MSecurity.obj
 0002:00001ad8       ??_C@_0BK@DNNLOFO@SetSecurityDescriptorDacl?$AA@ 000000018001ead8     MSecurity.obj
 0002:00001af2       ??_C@_00CNPNBAHC@?$AA@     000000018001eaf2     MStrDup.obj
 0002:00001af8       ??_C@_1BC@LMIJMNIA@?$AA0?$AA0?$AA0?$AA0?$AA0?$AA0?$AA0?$AA0?$AA?$AA@ 000000018001eaf8     MStrSafe.obj
 0002:00001b10       ??_C@_19FBKLJMA@?$AA0?$AA0?$AA0?$AA0?$AA?$AA@ 000000018001eb10     MStrSafe.obj
 0002:00001b1c       ??_C@_15LKGMKBFA@?$AA0?$AA0?$AA?$AA@ 000000018001eb1c     MStrSafe.obj
 0002:00001b28       ??_C@_1CA@DHOHMJCG@?$AAU?$AAn?$AAi?$AAc?$AAo?$AAd?$AAe?$AA?5?$AAC?$AAh?$AAa?$AAr?$AAM?$AAa?$AAp?$AA?$AA@ 000000018001eb28     RgnDetect.obj
 0002:00001b50       ??_C@_1GK@PPEHOOAL@?$AAS?$AAO?$AAF?$AAT?$AAW?$AAA?$AAR?$AAE?$AA?2?$AAM?$AAi?$AAc?$AAr?$AAo?$AAs?$AAo?$AAf?$AAt?$AA?2?$AAW?$AAi?$AAn?$AAd?$AAo?$AAw?$AAs?$AA?2?$AAC?$AAu?$AAr?$AAr?$AAe@ 000000018001eb50     WFiles.obj
 0002:00001bbc       ??_C@_13PJJBFPED@?$AA?$DL?$AA?$AA@ 000000018001ebbc     WFiles.obj
 0002:00001bc0       ??_C@_05LCABBMOG@?$CFs?3?$CFi?$AA@ 000000018001ebc0     WThreads.obj
 0002:00001bc8       _pDefaultRawDllMain        000000018001ebc8     LIBCMT:dll_dllmain.obj
 0002:00001bc8       _pRawDllMain               000000018001ebc8     LIBCMT:dll_dllmain.obj
 0002:00001bd0       _Microsoft_CRTProvider     000000018001ebd0     libvcruntime:telemetry.obj
 0002:00001bd8       ??_C@_0O@JEOPJOMI@Main?5Invoked?4?$AA@ 000000018001ebd8     libvcruntime:telemetry.obj
 0002:00001be8       ??_C@_0P@NEAEIBDO@Main?5Returned?4?$AA@ 000000018001ebe8     libvcruntime:telemetry.obj
 0002:00001c18       ??_C@_1BC@DNHGCMLG@?$AAa?$AAd?$AAv?$AAa?$AAp?$AAi?$AA3?$AA2?$AA?$AA@ 000000018001ec18     libvcruntime:winapi_downlevel.obj
 0002:00001c30       ??_C@_1DM@KHCHBNEB@?$AAa?$AAp?$AAi?$AA?9?$AAm?$AAs?$AA?9?$AAw?$AAi?$AAn?$AA?9?$AAc?$AAo?$AAr?$AAe?$AA?9?$AAf?$AAi?$AAb?$AAe?$AAr?$AAs?$AA?9?$AAl?$AA1?$AA?9?$AA1?$AA?9?$AA1?$AA?$AA@ 000000018001ec30     libvcruntime:winapi_downlevel.obj
 0002:00001c70       ??_C@_1DK@LPPGFMPP@?$AAa?$AAp?$AAi?$AA?9?$AAm?$AAs?$AA?9?$AAw?$AAi?$AAn?$AA?9?$AAc?$AAo?$AAr?$AAe?$AA?9?$AAs?$AAy?$AAn?$AAc?$AAh?$AA?9?$AAl?$AA1?$AA?9?$AA2?$AA?9?$AA0?$AA?$AA@ 000000018001ec70     libvcruntime:winapi_downlevel.obj
 0002:00001cb0       ??_C@_1BC@GDMECMAK@?$AAk?$AAe?$AAr?$AAn?$AAe?$AAl?$AA3?$AA2?$AA?$AA@ 000000018001ecb0     libvcruntime:winapi_downlevel.obj
 0002:00001cc8       ??_C@_0O@BAMBGLIE@EventRegister?$AA@ 000000018001ecc8     libvcruntime:winapi_downlevel.obj
 0002:00001ce0       ??_C@_0BE@BJEEGHGK@EventSetInformation?$AA@ 000000018001ece0     libvcruntime:winapi_downlevel.obj
 0002:00001cf8       ??_C@_0BA@FAKLIPIC@EventUnregister?$AA@ 000000018001ecf8     libvcruntime:winapi_downlevel.obj
 0002:00001d10       ??_C@_0BD@PKLHJPHD@EventWriteTransfer?$AA@ 000000018001ed10     libvcruntime:winapi_downlevel.obj
 0002:00001d30       ??_C@_08KNHFBNJ@FlsAlloc?$AA@ 000000018001ed30     libvcruntime:winapi_downlevel.obj
 0002:00001d48       ??_C@_07PEJMOBNF@FlsFree?$AA@ 000000018001ed48     libvcruntime:winapi_downlevel.obj
 0002:00001d58       ??_C@_0M@GDNOONDI@FlsGetValue?$AA@ 000000018001ed58     libvcruntime:winapi_downlevel.obj
 0002:00001d70       ??_C@_0M@JCPCPOEF@FlsSetValue?$AA@ 000000018001ed70     libvcruntime:winapi_downlevel.obj
 0002:00001d88       ??_C@_0BM@HCFOFFN@InitializeCriticalSectionEx?$AA@ 000000018001ed88     libvcruntime:winapi_downlevel.obj
 0002:00001da4       ??_C@_01JOAMLHOP@?9?$AA@   000000018001eda4     libvcruntime:undname.obj
 0002:00001da8       ??_C@_01MIFGBAGJ@?$CL?$AA@ 000000018001eda8     libvcruntime:undname.obj
 0002:00001dac       ??_C@_01HNPIGOCE@?$CG?$AA@ 000000018001edac     libvcruntime:undname.obj
 0002:00001db0       ??_C@_03MNHNFDLC@?9?$DO?$CK?$AA@ 000000018001edb0     libvcruntime:undname.obj
 0002:00001db4       ??_C@_01KMDKNFGN@?1?$AA@   000000018001edb4     libvcruntime:undname.obj
 0002:00001db8       ??_C@_01FGNFDNOH@?$CF?$AA@ 000000018001edb8     libvcruntime:undname.obj
 0002:00001dbc       ??_C@_01MNNFJEPP@?$DM?$AA@ 000000018001edbc     libvcruntime:undname.obj
 0002:00001dc0       ??_C@_02EHCHHCKH@?$DM?$DN?$AA@ 000000018001edc0     libvcruntime:undname.obj
 0002:00001dc4       ??_C@_01PPODPGHN@?$DO?$AA@ 000000018001edc4     libvcruntime:undname.obj
 0002:00001dc8       ??_C@_02EEKDKGMJ@?$DO?$DN?$AA@ 000000018001edc8     libvcruntime:undname.obj
 0002:00001dcc       ??_C@_01IHBHIGKO@?0?$AA@   000000018001edcc     libvcruntime:undname.obj
 0002:00001dd0       ??_C@_02HCKGKOFO@?$CI?$CJ?$AA@ 000000018001edd0     libvcruntime:undname.obj
 0002:00001dd4       ??_C@_01PJKLJHI@?$HO?$AA@  000000018001edd4     libvcruntime:undname.obj
 0002:00001dd8       ??_C@_01JKBOJNNK@?$FO?$AA@ 000000018001edd8     libvcruntime:undname.obj
 0002:00001ddc       ??_C@_01DNKMNLPK@?$HM?$AA@ 000000018001eddc     libvcruntime:undname.obj
 0002:00001de0       ??_C@_02PPKAJPJL@?$CG?$CG?$AA@ 000000018001ede0     libvcruntime:undname.obj
 0002:00001de4       ??_C@_02NONPIBCD@?$HM?$HM?$AA@ 000000018001ede4     libvcruntime:undname.obj
 0002:00001de8       ??_C@_02FPIMKNGF@?$CK?$DN?$AA@ 000000018001ede8     libvcruntime:undname.obj
 0002:00001dec       ??_C@_02FOEOMHFC@?$CL?$DN?$AA@ 000000018001edec     libvcruntime:undname.obj
 0002:00001df0       ??_C@_02FKMDLLOA@?9?$DN?$AA@ 000000018001edf0     libvcruntime:undname.obj
 0002:00001df4       ??_C@_02FJEHGPIO@?1?$DN?$AA@ 000000018001edf4     libvcruntime:undname.obj
 0002:00001df8       ??_C@_02FENAOKFI@?$CF?$DN?$AA@ 000000018001edf8     libvcruntime:undname.obj
 0002:00001dfc       ??_C@_03IKFCCPFF@?$DO?$DO?$DN?$AA@ 000000018001edfc     libvcruntime:undname.obj
 0002:00001e00       ??_C@_03CDNPDDLA@?$DM?$DM?$DN?$AA@ 000000018001ee00     libvcruntime:undname.obj
 0002:00001e04       ??_C@_02FGJGFEAB@?$CG?$DN?$AA@ 000000018001ee04     libvcruntime:undname.obj
 0002:00001e08       ??_C@_02DHLNPPGH@?$HM?$DN?$AA@ 000000018001ee08     libvcruntime:undname.obj
 0002:00001e0c       ??_C@_02MHEGNOJ@?$FO?$DN?$AA@ 000000018001ee0c     libvcruntime:undname.obj
 0002:00001e10       ??_C@_09IFPLHPGF@?$GAvftable?8?$AA@ 000000018001ee10     libvcruntime:undname.obj
 0002:00001e20       ??_C@_09BLBHBJP@?$GAvbtable?8?$AA@ 000000018001ee20     libvcruntime:undname.obj
 0002:00001e30       ??_C@_07FEEIOKP@?$GAvcall?8?$AA@ 000000018001ee30     libvcruntime:undname.obj
 0002:00001e38       ??_C@_08LLFFHHDJ@?$GAtypeof?8?$AA@ 000000018001ee38     libvcruntime:undname.obj
 0002:00001e48       ??_C@_0BF@KDPPACIK@?$GAlocal?5static?5guard?8?$AA@ 000000018001ee48     libvcruntime:undname.obj
 0002:00001e60       ??_C@_08OBABFOLI@?$GAstring?8?$AA@ 000000018001ee60     libvcruntime:undname.obj
 0002:00001e70       ??_C@_0BD@JDLKDPAB@?$GAvbase?5destructor?8?$AA@ 000000018001ee70     libvcruntime:undname.obj
 0002:00001e88       ??_C@_0BN@DEGPLNFK@?$GAvector?5deleting?5destructor?8?$AA@ 000000018001ee88     libvcruntime:undname.obj
 0002:00001ea8       ??_C@_0BO@OBMKPJIG@?$GAdefault?5constructor?5closure?8?$AA@ 000000018001eea8     libvcruntime:undname.obj
 0002:00001ec8       ??_C@_0BN@IMDCHIKM@?$GAscalar?5deleting?5destructor?8?$AA@ 000000018001eec8     libvcruntime:undname.obj
 0002:00001ee8       ??_C@_0BO@PFGOCPJJ@?$GAvector?5constructor?5iterator?8?$AA@ 000000018001eee8     libvcruntime:undname.obj
 0002:00001f08       ??_C@_0BN@LFPFMEDL@?$GAvector?5destructor?5iterator?8?$AA@ 000000018001ef08     libvcruntime:undname.obj
 0002:00001f28       ??_C@_0CE@IKBNEHA@?$GAvector?5vbase?5constructor?5iterat@ 000000018001ef28     libvcruntime:undname.obj
 0002:00001f50       ??_C@_0BL@NILFHHPC@?$GAvirtual?5displacement?5map?8?$AA@ 000000018001ef50     libvcruntime:undname.obj
 0002:00001f70       ??_C@_0CB@JONCMFFK@?$GAeh?5vector?5constructor?5iterator?8@ 000000018001ef70     libvcruntime:undname.obj
 0002:00001f98       ??_C@_0CA@GCEOPDGL@?$GAeh?5vector?5destructor?5iterator?8?$AA@ 000000018001ef98     libvcruntime:undname.obj
 0002:00001fb8       ??_C@_0CH@OOJPLCPH@?$GAeh?5vector?5vbase?5constructor?5ite@ 000000018001efb8     libvcruntime:undname.obj
 0002:00001fe0       ??_C@_0BL@LLKPOHJI@?$GAcopy?5constructor?5closure?8?$AA@ 000000018001efe0     libvcruntime:undname.obj
 0002:00002000       ??_C@_0BA@KBCDOMBN@?$GAudt?5returning?8?$AA@ 000000018001f000     libvcruntime:undname.obj
 0002:00002010       ??_C@_03KLGMFNMG@?$GAEH?$AA@ 000000018001f010     libvcruntime:undname.obj
 0002:00002014       ??_C@_05KHLCHHI@?$GARTTI?$AA@ 000000018001f014     libvcruntime:undname.obj
 0002:00002020       ??_C@_0BA@KKLDJDLB@?$GAlocal?5vftable?8?$AA@ 000000018001f020     libvcruntime:undname.obj
 0002:00002030       ??_C@_0CE@IIHCMGGL@?$GAlocal?5vftable?5constructor?5closu@ 000000018001f030     libvcruntime:undname.obj
 0002:00002054       ??_C@_06FHBGPFGH@?5new?$FL?$FN?$AA@ 000000018001f054     libvcruntime:undname.obj
 0002:00002060       ??_C@_09LBNFPBCA@?5delete?$FL?$FN?$AA@ 000000018001f060     libvcruntime:undname.obj
 0002:00002070       ??_C@_0P@HJKNJFNN@?$GAomni?5callsig?8?$AA@ 000000018001f070     libvcruntime:undname.obj
 0002:00002080       ??_C@_0BL@CNOONJFP@?$GAplacement?5delete?5closure?8?$AA@ 000000018001f080     libvcruntime:undname.obj
 0002:000020a0       ??_C@_0BN@CKNJLHMB@?$GAplacement?5delete?$FL?$FN?5closure?8?$AA@ 000000018001f0a0     libvcruntime:undname.obj
 0002:000020c0       ??_C@_0CG@CFDHKGGD@?$GAmanaged?5vector?5constructor?5iter@ 000000018001f0c0     libvcruntime:undname.obj
 0002:000020e8       ??_C@_0CF@IMGKMJNO@?$GAmanaged?5vector?5destructor?5itera@ 000000018001f0e8     libvcruntime:undname.obj
 0002:00002110       ??_C@_0CG@HLDDJMAG@?$GAeh?5vector?5copy?5constructor?5iter@ 000000018001f110     libvcruntime:undname.obj
 0002:00002138       ??_C@_0CM@FCBBDIGB@?$GAeh?5vector?5vbase?5copy?5constructo@ 000000018001f138     libvcruntime:undname.obj
 0002:00002168       ??_C@_0BL@CLIPGLGB@?$GAdynamic?5initializer?5for?5?8?$AA@ 000000018001f168     libvcruntime:undname.obj
 0002:00002188       ??_C@_0CB@PDBIFEP@?$GAdynamic?5atexit?5destructor?5for?5?8@ 000000018001f188     libvcruntime:undname.obj
 0002:000021b0       ??_C@_0CD@CGAJBKEJ@?$GAvector?5copy?5constructor?5iterato@ 000000018001f1b0     libvcruntime:undname.obj
 0002:000021d8       ??_C@_0CJ@GJELGAMM@?$GAvector?5vbase?5copy?5constructor?5i@ 000000018001f1d8     libvcruntime:undname.obj
 0002:00002208       ??_C@_0CL@FGIJHLCE@?$GAmanaged?5vector?5copy?5constructor@ 000000018001f208     libvcruntime:undname.obj
 0002:00002238       ??_C@_0BM@PMGGMLDN@?$GAlocal?5static?5thread?5guard?8?$AA@ 000000018001f238     libvcruntime:undname.obj
 0002:00002258       ??_C@_0N@BDNMDMOL@operator?5?$CC?$CC?5?$AA@ 000000018001f258     libvcruntime:undname.obj
 0002:00002598       ??_C@_0BC@DAFEJGAK@?5Type?5Descriptor?8?$AA@ 000000018001f598     libvcruntime:undname.obj
 0002:000025b0       ??_C@_0BM@LDKODKLH@?5Base?5Class?5Descriptor?5at?5?$CI?$AA@ 000000018001f5b0     libvcruntime:undname.obj
 0002:000025d0       ??_C@_0BD@LGICGFMM@?5Base?5Class?5Array?8?$AA@ 000000018001f5d0     libvcruntime:undname.obj
 0002:000025e8       ??_C@_0BN@MECKDCOJ@?5Class?5Hierarchy?5Descriptor?8?$AA@ 000000018001f5e8     libvcruntime:undname.obj
 0002:00002608       ??_C@_0BK@CFCOFLF@?5Complete?5Object?5Locator?8?$AA@ 000000018001f608     libvcruntime:undname.obj
 0002:00002628       ??_C@_08EHJDFFNH@__based?$CI?$AA@ 000000018001f628     libvcruntime:undname.obj
 0002:00002638       ??_C@_07KOLFKCDI@__cdecl?$AA@ 000000018001f638     libvcruntime:undname.obj
 0002:00002640       ??_C@_08GHMPAG@__pascal?$AA@ 000000018001f640     libvcruntime:undname.obj
 0002:00002650       ??_C@_09IFJBGAPI@__stdcall?$AA@ 000000018001f650     libvcruntime:undname.obj
 0002:00002660       ??_C@_0L@NPHFGOKO@__thiscall?$AA@ 000000018001f660     libvcruntime:undname.obj
 0002:00002670       ??_C@_0L@JMKHOMEK@__fastcall?$AA@ 000000018001f670     libvcruntime:undname.obj
 0002:00002680       ??_C@_0N@BCKKPABJ@__vectorcall?$AA@ 000000018001f680     libvcruntime:undname.obj
 0002:00002690       ??_C@_09HIJEGCPM@__clrcall?$AA@ 000000018001f690     libvcruntime:undname.obj
 0002:0000269c       ??_C@_06GHPCKEAG@__eabi?$AA@ 000000018001f69c     libvcruntime:undname.obj
 0002:000026a8       ??_C@_07JOMMBBKO@__ptr64?$AA@ 000000018001f6a8     libvcruntime:undname.obj
 0002:000026b0       ??_C@_0L@PILCLIHE@__restrict?$AA@ 000000018001f6b0     libvcruntime:undname.obj
 0002:000026c0       ??_C@_0M@GFIIJFMG@__unaligned?$AA@ 000000018001f6c0     libvcruntime:undname.obj
 0002:000026d0       ??_C@_09DHDLOLLB@restrict?$CI?$AA@ 000000018001f6d0     libvcruntime:undname.obj
 0002:000026dc       ??_C@_04NIHEBCM@?5new?$AA@ 000000018001f6dc     libvcruntime:undname.obj
 0002:000026e8       ??_C@_07FPCDHGMM@?5delete?$AA@ 000000018001f6e8     libvcruntime:undname.obj
 0002:000026f0       ??_C@_01NEMOKFLO@?$DN?$AA@ 000000018001f6f0     libvcruntime:undname.obj
 0002:000026f4       ??_C@_02GPIOPFAK@?$DO?$DO?$AA@ 000000018001f6f4     libvcruntime:undname.obj
 0002:000026f8       ??_C@_02FODMEDOG@?$DM?$DM?$AA@ 000000018001f6f8     libvcruntime:undname.obj
 0002:000026fc       ??_C@_01DCLJPIOD@?$CB?$AA@ 000000018001f6fc     libvcruntime:undname.obj
 0002:00002700       ??_C@_02EGOFBIJA@?$DN?$DN?$AA@ 000000018001f700     libvcruntime:undname.obj
 0002:00002704       ??_C@_02FDNJECIE@?$CB?$DN?$AA@ 000000018001f704     libvcruntime:undname.obj
 0002:00002708       ??_C@_02GPECMEKF@?$FL?$FN?$AA@ 000000018001f708     libvcruntime:undname.obj
 0002:00002710       ??_C@_08LHJFAFGD@operator?$AA@ 000000018001f710     libvcruntime:undname.obj
 0002:0000271c       ??_C@_02HBOOOICD@?9?$DO?$AA@ 000000018001f71c     libvcruntime:undname.obj
 0002:00002720       ??_C@_01NBENCBCI@?$CK?$AA@ 000000018001f720     libvcruntime:undname.obj
 0002:00002724       ??_C@_02ECNGHCIF@?$CL?$CL?$AA@ 000000018001f724     libvcruntime:undname.obj
 0002:00002728       ??_C@_02BAABKJLB@?9?9?$AA@ 000000018001f728     libvcruntime:undname.obj
 0002:00002730       __acrt_exception_action_table 000000018001f730     libucrt:exception_filter.obj
 0002:000027f0       __acrt_signal_action_table_count 000000018001f7f0     libucrt:exception_filter.obj
 0002:000027f8       __acrt_signal_action_first_fpe_index 000000018001f7f8     libucrt:exception_filter.obj
 0002:00002800       __acrt_signal_action_fpe_count 000000018001f800     libucrt:exception_filter.obj
 0002:00002808       ??_C@_1BI@BGOHAHKC@?$AAm?$AAs?$AAc?$AAo?$AAr?$AAe?$AAe?$AA?4?$AAd?$AAl?$AAl?$AA?$AA@ 000000018001f808     libucrt:exit.obj
 0002:00002820       ??_C@_0P@MIGLKIOC@CorExitProcess?$AA@ 000000018001f820     libucrt:exit.obj
 0002:00002a90       __newctype                 000000018001fa90     libucrt:ctype.obj
 0002:00002d90       __newclmap                 000000018001fd90     libucrt:ctype.obj
 0002:00002f10       __newcumap                 000000018001ff10     libucrt:ctype.obj
 0002:00003090       __lc_time_c                0000000180020090     libucrt:nlsdata.obj
 0002:00003350       ??_C@_03KOEHGMDN@Sun?$AA@  0000000180020350     libucrt:nlsdata.obj
 0002:00003354       ??_C@_03PDAGKDH@Mon?$AA@   0000000180020354     libucrt:nlsdata.obj
 0002:00003358       ??_C@_03NAGEINEP@Tue?$AA@  0000000180020358     libucrt:nlsdata.obj
 0002:0000335c       ??_C@_03MHOMLAJA@Wed?$AA@  000000018002035c     libucrt:nlsdata.obj
 0002:00003360       ??_C@_03IOFIKPDN@Thu?$AA@  0000000180020360     libucrt:nlsdata.obj
 0002:00003364       ??_C@_03IDIOELNC@Fri?$AA@  0000000180020364     libucrt:nlsdata.obj
 0002:00003368       ??_C@_03FEFJNEK@Sat?$AA@   0000000180020368     libucrt:nlsdata.obj
 0002:0000336c       ??_C@_06OOPIFAJ@Sunday?$AA@ 000000018002036c     libucrt:nlsdata.obj
 0002:00003374       ??_C@_06JLEDEDGH@Monday?$AA@ 0000000180020374     libucrt:nlsdata.obj
 0002:00003380       ??_C@_07BAAGCFCM@Tuesday?$AA@ 0000000180020380     libucrt:nlsdata.obj
 0002:00003388       ??_C@_09DLIGFAKA@Wednesday?$AA@ 0000000180020388     libucrt:nlsdata.obj
 0002:00003398       ??_C@_08HACCIKIA@Thursday?$AA@ 0000000180020398     libucrt:nlsdata.obj
 0002:000033a4       ??_C@_06JECMNKMI@Friday?$AA@ 00000001800203a4     libucrt:nlsdata.obj
 0002:000033b0       ??_C@_08INBOOONO@Saturday?$AA@ 00000001800203b0     libucrt:nlsdata.obj
 0002:000033bc       ??_C@_03JIHJHPIE@Jan?$AA@  00000001800203bc     libucrt:nlsdata.obj
 0002:000033c0       ??_C@_03HJBDCHOM@Feb?$AA@  00000001800203c0     libucrt:nlsdata.obj
 0002:000033c4       ??_C@_03ODNJBKGA@Mar?$AA@  00000001800203c4     libucrt:nlsdata.obj
 0002:000033c8       ??_C@_03LEOLGMJP@Apr?$AA@  00000001800203c8     libucrt:nlsdata.obj
 0002:000033cc       ??_C@_03CNMDKL@May?$AA@    00000001800203cc     libucrt:nlsdata.obj
 0002:000033d0       ??_C@_03IDFGHECI@Jun?$AA@  00000001800203d0     libucrt:nlsdata.obj
 0002:000033d4       ??_C@_03LBGABGKK@Jul?$AA@  00000001800203d4     libucrt:nlsdata.obj
 0002:000033d8       ??_C@_03IFJFEIGA@Aug?$AA@  00000001800203d8     libucrt:nlsdata.obj
 0002:000033dc       ??_C@_03GGCAPAJC@Sep?$AA@  00000001800203dc     libucrt:nlsdata.obj
 0002:000033e0       ??_C@_03BMAOKBAD@Oct?$AA@  00000001800203e0     libucrt:nlsdata.obj
 0002:000033e4       ??_C@_03JPJOFNIA@Nov?$AA@  00000001800203e4     libucrt:nlsdata.obj
 0002:000033e8       ??_C@_03MKABNOCG@Dec?$AA@  00000001800203e8     libucrt:nlsdata.obj
 0002:000033f0       ??_C@_07CGJPFGJA@January?$AA@ 00000001800203f0     libucrt:nlsdata.obj
 0002:000033f8       ??_C@_08GNJGEPFN@February?$AA@ 00000001800203f8     libucrt:nlsdata.obj
 0002:00003404       ??_C@_05HPCKOFNC@March?$AA@ 0000000180020404     libucrt:nlsdata.obj
 0002:0000340c       ??_C@_05DMJDNLEJ@April?$AA@ 000000018002040c     libucrt:nlsdata.obj
 0002:00003414       ??_C@_04CNLMGBGM@June?$AA@ 0000000180020414     libucrt:nlsdata.obj
 0002:0000341c       ??_C@_04MIEPOIFP@July?$AA@ 000000018002041c     libucrt:nlsdata.obj
 0002:00003424       ??_C@_06LBBHFDDG@August?$AA@ 0000000180020424     libucrt:nlsdata.obj
 0002:00003430       ??_C@_09BHHEALKD@September?$AA@ 0000000180020430     libucrt:nlsdata.obj
 0002:00003440       ??_C@_07JJNFCEND@October?$AA@ 0000000180020440     libucrt:nlsdata.obj
 0002:00003448       ??_C@_08HCHEGEOA@November?$AA@ 0000000180020448     libucrt:nlsdata.obj
 0002:00003458       ??_C@_08EDHMEBNP@December?$AA@ 0000000180020458     libucrt:nlsdata.obj
 0002:00003464       ??_C@_02DEDBPAFC@AM?$AA@   0000000180020464     libucrt:nlsdata.obj
 0002:00003468       ??_C@_02CJNFDJBF@PM?$AA@   0000000180020468     libucrt:nlsdata.obj
 0002:00003470       ??_C@_08BPBNCDIB@MM?1dd?1yy?$AA@ 0000000180020470     libucrt:nlsdata.obj
 0002:00003480       ??_C@_0BE@CKGJFCPC@dddd?0?5MMMM?5dd?0?5yyyy?$AA@ 0000000180020480     libucrt:nlsdata.obj
 0002:00003498       ??_C@_08JCCMCCIL@HH?3mm?3ss?$AA@ 0000000180020498     libucrt:nlsdata.obj
 0002:000034a8       ??_C@_17MBGCMIPB@?$AAS?$AAu?$AAn?$AA?$AA@ 00000001800204a8     libucrt:nlsdata.obj
 0002:000034b0       ??_C@_17KBOMKBF@?$AAM?$AAo?$AAn?$AA?$AA@ 00000001800204b0     libucrt:nlsdata.obj
 0002:000034b8       ??_C@_17BMKGEGOJ@?$AAT?$AAu?$AAe?$AA?$AA@ 00000001800204b8     libucrt:nlsdata.obj
 0002:000034c0       ??_C@_17CJEDCEPE@?$AAW?$AAe?$AAd?$AA?$AA@ 00000001800204c0     libucrt:nlsdata.obj
 0002:000034c8       ??_C@_17PDPHAADD@?$AAT?$AAh?$AAu?$AA?$AA@ 00000001800204c8     libucrt:nlsdata.obj
 0002:000034d0       ??_C@_17HFOLPPLP@?$AAF?$AAr?$AAi?$AA?$AA@ 00000001800204d0     libucrt:nlsdata.obj
 0002:000034d8       ??_C@_17GGIBDPIH@?$AAS?$AAa?$AAt?$AA?$AA@ 00000001800204d8     libucrt:nlsdata.obj
 0002:000034e0       ??_C@_1O@IHNHDHPB@?$AAS?$AAu?$AAn?$AAd?$AAa?$AAy?$AA?$AA@ 00000001800204e0     libucrt:nlsdata.obj
 0002:000034f0       ??_C@_1O@MMNBFLIA@?$AAM?$AAo?$AAn?$AAd?$AAa?$AAy?$AA?$AA@ 00000001800204f0     libucrt:nlsdata.obj
 0002:00003500       ??_C@_1BA@ENFBFFEK@?$AAT?$AAu?$AAe?$AAs?$AAd?$AAa?$AAy?$AA?$AA@ 0000000180020500     libucrt:nlsdata.obj
 0002:00003510       ??_C@_1BE@EBOGMDOH@?$AAW?$AAe?$AAd?$AAn?$AAe?$AAs?$AAd?$AAa?$AAy?$AA?$AA@ 0000000180020510     libucrt:nlsdata.obj
 0002:00003528       ??_C@_1BC@HHMNLIHE@?$AAT?$AAh?$AAu?$AAr?$AAs?$AAd?$AAa?$AAy?$AA?$AA@ 0000000180020528     libucrt:nlsdata.obj
 0002:00003540       ??_C@_1O@PDICJHAG@?$AAF?$AAr?$AAi?$AAd?$AAa?$AAy?$AA?$AA@ 0000000180020540     libucrt:nlsdata.obj
 0002:00003550       ??_C@_1BC@ENMNNPAJ@?$AAS?$AAa?$AAt?$AAu?$AAr?$AAd?$AAa?$AAy?$AA?$AA@ 0000000180020550     libucrt:nlsdata.obj
 0002:00003568       ??_C@_17DKNBKCHM@?$AAJ?$AAa?$AAn?$AA?$AA@ 0000000180020568     libucrt:nlsdata.obj
 0002:00003570       ??_C@_17LMDJEKJN@?$AAF?$AAe?$AAb?$AA?$AA@ 0000000180020570     libucrt:nlsdata.obj
 0002:00003578       ??_C@_17CKNLEDEC@?$AAM?$AAa?$AAr?$AA?$AA@ 0000000180020578     libucrt:nlsdata.obj
 0002:00003580       ??_C@_17LFPOIHDD@?$AAA?$AAp?$AAr?$AA?$AA@ 0000000180020580     libucrt:nlsdata.obj
 0002:00003588       ??_C@_17PNNKMEED@?$AAM?$AAa?$AAy?$AA?$AA@ 0000000180020588     libucrt:nlsdata.obj
 0002:00003590       ??_C@_17KCJGOCPB@?$AAJ?$AAu?$AAn?$AA?$AA@ 0000000180020590     libucrt:nlsdata.obj
 0002:00003598       ??_C@_17IJPCKHK@?$AAJ?$AAu?$AAl?$AA?$AA@ 0000000180020598     libucrt:nlsdata.obj
 0002:000035a0       ??_C@_17ICPELBCN@?$AAA?$AAu?$AAg?$AA?$AA@ 00000001800205a0     libucrt:nlsdata.obj
 0002:000035a8       ??_C@_17HCHCOKMG@?$AAS?$AAe?$AAp?$AA?$AA@ 00000001800205a8     libucrt:nlsdata.obj
 0002:000035b0       ??_C@_17FNLKOI@?$AAO?$AAc?$AAt?$AA?$AA@ 00000001800205b0     libucrt:nlsdata.obj
 0002:000035b8       ??_C@_17BBDMLCIG@?$AAN?$AAo?$AAv?$AA?$AA@ 00000001800205b8     libucrt:nlsdata.obj
 0002:000035c0       ??_C@_17EGKACKIF@?$AAD?$AAe?$AAc?$AA?$AA@ 00000001800205c0     libucrt:nlsdata.obj
 0002:000035c8       ??_C@_1BA@EFMEIEBA@?$AAJ?$AAa?$AAn?$AAu?$AAa?$AAr?$AAy?$AA?$AA@ 00000001800205c8     libucrt:nlsdata.obj
 0002:000035d8       ??_C@_1BC@JGDDFFAM@?$AAF?$AAe?$AAb?$AAr?$AAu?$AAa?$AAr?$AAy?$AA?$AA@ 00000001800205d8     libucrt:nlsdata.obj
 0002:000035f0       ??_C@_1M@IKEENEDF@?$AAM?$AAa?$AAr?$AAc?$AAh?$AA?$AA@ 00000001800205f0     libucrt:nlsdata.obj
 0002:00003600       ??_C@_1M@GJNLMHFD@?$AAA?$AAp?$AAr?$AAi?$AAl?$AA?$AA@ 0000000180020600     libucrt:nlsdata.obj
 0002:00003610       ??_C@_19EPFLPGAP@?$AAJ?$AAu?$AAn?$AAe?$AA?$AA@ 0000000180020610     libucrt:nlsdata.obj
 0002:00003620       ??_C@_19BIFMLPCD@?$AAJ?$AAu?$AAl?$AAy?$AA?$AA@ 0000000180020620     libucrt:nlsdata.obj
 0002:00003630       ??_C@_1O@PAHLKOAC@?$AAA?$AAu?$AAg?$AAu?$AAs?$AAt?$AA?$AA@ 0000000180020630     libucrt:nlsdata.obj
 0002:00003640       ??_C@_1BE@DKAAMBJL@?$AAS?$AAe?$AAp?$AAt?$AAe?$AAm?$AAb?$AAe?$AAr?$AA?$AA@ 0000000180020640     libucrt:nlsdata.obj
 0002:00003658       ??_C@_1BA@EPANDLNG@?$AAO?$AAc?$AAt?$AAo?$AAb?$AAe?$AAr?$AA?$AA@ 0000000180020658     libucrt:nlsdata.obj
 0002:00003668       ??_C@_1BC@BGLIFPF@?$AAN?$AAo?$AAv?$AAe?$AAm?$AAb?$AAe?$AAr?$AA?$AA@ 0000000180020668     libucrt:nlsdata.obj
 0002:00003680       ??_C@_1BC@FEMKIFH@?$AAD?$AAe?$AAc?$AAe?$AAm?$AAb?$AAe?$AAr?$AA?$AA@ 0000000180020680     libucrt:nlsdata.obj
 0002:00003694       ??_C@_15ODEHAHHF@?$AAA?$AAM?$AA?$AA@ 0000000180020694     libucrt:nlsdata.obj
 0002:0000369c       ??_C@_15CLMNNGEL@?$AAP?$AAM?$AA?$AA@ 000000018002069c     libucrt:nlsdata.obj
 0002:000036a8       ??_C@_1BC@IEBCMHCM@?$AAM?$AAM?$AA?1?$AAd?$AAd?$AA?1?$AAy?$AAy?$AA?$AA@ 00000001800206a8     libucrt:nlsdata.obj
 0002:000036c0       ??_C@_1CI@KNAKOEBC@?$AAd?$AAd?$AAd?$AAd?$AA?0?$AA?5?$AAM?$AAM?$AAM?$AAM?$AA?5?$AAd?$AAd?$AA?0?$AA?5?$AAy?$AAy?$AAy?$AAy?$AA?$AA@ 00000001800206c0     libucrt:nlsdata.obj
 0002:000036e8       ??_C@_1BC@GDGBMEMK@?$AAH?$AAH?$AA?3?$AAm?$AAm?$AA?3?$AAs?$AAs?$AA?$AA@ 00000001800206e8     libucrt:nlsdata.obj
 0002:00003700       ??_C@_1M@BMHNFIME@?$AAe?$AAn?$AA?9?$AAU?$AAS?$AA?$AA@ 0000000180020700     libucrt:nlsdata.obj
 0002:000037b0       ??_C@_1EG@CNNIPFIM@?$AAa?$AAp?$AAi?$AA?9?$AAm?$AAs?$AA?9?$AAw?$AAi?$AAn?$AA?9?$AAa?$AAp?$AAp?$AAm?$AAo?$AAd?$AAe?$AAl?$AA?9?$AAr?$AAu?$AAn?$AAt?$AAi?$AAm?$AAe?$AA?9?$AAl?$AA1?$AA?9?$AA1@ 00000001800207b0     libucrt:winapi_thunks.obj
 0002:00003800       ??_C@_1EA@JGEFHKEI@?$AAa?$AAp?$AAi?$AA?9?$AAm?$AAs?$AA?9?$AAw?$AAi?$AAn?$AA?9?$AAc?$AAo?$AAr?$AAe?$AA?9?$AAd?$AAa?$AAt?$AAe?$AAt?$AAi?$AAm?$AAe?$AA?9?$AAl?$AA1?$AA?9?$AA1?$AA?9?$AA1?$AA?$AA@ 0000000180020800     libucrt:winapi_thunks.obj
 0002:00003840       ??_C@_1DI@GCIAAENM@?$AAa?$AAp?$AAi?$AA?9?$AAm?$AAs?$AA?9?$AAw?$AAi?$AAn?$AA?9?$AAc?$AAo?$AAr?$AAe?$AA?9?$AAf?$AAi?$AAl?$AAe?$AA?9?$AAl?$AA2?$AA?9?$AA1?$AA?9?$AA1?$AA?$AA@ 0000000180020840     libucrt:winapi_thunks.obj
 0002:00003880       ??_C@_1EI@MPIAOHOC@?$AAa?$AAp?$AAi?$AA?9?$AAm?$AAs?$AA?9?$AAw?$AAi?$AAn?$AA?9?$AAc?$AAo?$AAr?$AAe?$AA?9?$AAl?$AAo?$AAc?$AAa?$AAl?$AAi?$AAz?$AAa?$AAt?$AAi?$AAo?$AAn?$AA?9?$AAl?$AA1?$AA?9@ 0000000180020880     libucrt:winapi_thunks.obj
 0002:000038d0       ??_C@_1FK@FPHCKFIE@?$AAa?$AAp?$AAi?$AA?9?$AAm?$AAs?$AA?9?$AAw?$AAi?$AAn?$AA?9?$AAc?$AAo?$AAr?$AAe?$AA?9?$AAl?$AAo?$AAc?$AAa?$AAl?$AAi?$AAz?$AAa?$AAt?$AAi?$AAo?$AAn?$AA?9?$AAo?$AAb?$AAs@ 00000001800208d0     libucrt:winapi_thunks.obj
 0002:00003930       ??_C@_1EM@DILCGIIO@?$AAa?$AAp?$AAi?$AA?9?$AAm?$AAs?$AA?9?$AAw?$AAi?$AAn?$AA?9?$AAc?$AAo?$AAr?$AAe?$AA?9?$AAp?$AAr?$AAo?$AAc?$AAe?$AAs?$AAs?$AAt?$AAh?$AAr?$AAe?$AAa?$AAd?$AAs?$AA?9?$AAl@ 0000000180020930     libucrt:winapi_thunks.obj
 0002:00003980       ??_C@_1DM@LNCGDDPN@?$AAa?$AAp?$AAi?$AA?9?$AAm?$AAs?$AA?9?$AAw?$AAi?$AAn?$AA?9?$AAc?$AAo?$AAr?$AAe?$AA?9?$AAs?$AAt?$AAr?$AAi?$AAn?$AAg?$AA?9?$AAl?$AA1?$AA?9?$AA1?$AA?9?$AA0?$AA?$AA@ 0000000180020980     libucrt:winapi_thunks.obj
 0002:000039c0       ??_C@_1DO@FPAPJEMD@?$AAa?$AAp?$AAi?$AA?9?$AAm?$AAs?$AA?9?$AAw?$AAi?$AAn?$AA?9?$AAc?$AAo?$AAr?$AAe?$AA?9?$AAs?$AAy?$AAs?$AAi?$AAn?$AAf?$AAo?$AA?9?$AAl?$AA1?$AA?9?$AA2?$AA?9?$AA1?$AA?$AA@ 00000001800209c0     libucrt:winapi_thunks.obj
 0002:00003a00       ??_C@_1DK@NDHNAHIO@?$AAa?$AAp?$AAi?$AA?9?$AAm?$AAs?$AA?9?$AAw?$AAi?$AAn?$AA?9?$AAc?$AAo?$AAr?$AAe?$AA?9?$AAw?$AAi?$AAn?$AAr?$AAt?$AA?9?$AAl?$AA1?$AA?9?$AA1?$AA?9?$AA0?$AA?$AA@ 0000000180020a00     libucrt:winapi_thunks.obj
 0002:00003a40       ??_C@_1DM@KGHDGBCM@?$AAa?$AAp?$AAi?$AA?9?$AAm?$AAs?$AA?9?$AAw?$AAi?$AAn?$AA?9?$AAc?$AAo?$AAr?$AAe?$AA?9?$AAx?$AAs?$AAt?$AAa?$AAt?$AAe?$AA?9?$AAl?$AA2?$AA?9?$AA1?$AA?9?$AA0?$AA?$AA@ 0000000180020a40     libucrt:winapi_thunks.obj
 0002:00003a80       ??_C@_1EO@IJIOEFOH@?$AAa?$AAp?$AAi?$AA?9?$AAm?$AAs?$AA?9?$AAw?$AAi?$AAn?$AA?9?$AAr?$AAt?$AAc?$AAo?$AAr?$AAe?$AA?9?$AAn?$AAt?$AAu?$AAs?$AAe?$AAr?$AA?9?$AAw?$AAi?$AAn?$AAd?$AAo?$AAw?$AA?9@ 0000000180020a80     libucrt:winapi_thunks.obj
 0002:00003ad0       ??_C@_1FG@HHGEKANL@?$AAa?$AAp?$AAi?$AA?9?$AAm?$AAs?$AA?9?$AAw?$AAi?$AAn?$AA?9?$AAs?$AAe?$AAc?$AAu?$AAr?$AAi?$AAt?$AAy?$AA?9?$AAs?$AAy?$AAs?$AAt?$AAe?$AAm?$AAf?$AAu?$AAn?$AAc?$AAt?$AAi@ 0000000180020ad0     libucrt:winapi_thunks.obj
 0002:00003b30       ??_C@_1FG@NCKKOLKO@?$AAe?$AAx?$AAt?$AA?9?$AAm?$AAs?$AA?9?$AAw?$AAi?$AAn?$AA?9?$AAk?$AAe?$AAr?$AAn?$AAe?$AAl?$AA3?$AA2?$AA?9?$AAp?$AAa?$AAc?$AAk?$AAa?$AAg?$AAe?$AA?9?$AAc?$AAu?$AAr?$AAr@ 0000000180020b30     libucrt:winapi_thunks.obj
 0002:00003b90       ??_C@_1EG@DBIOJECG@?$AAe?$AAx?$AAt?$AA?9?$AAm?$AAs?$AA?9?$AAw?$AAi?$AAn?$AA?9?$AAn?$AAt?$AAu?$AAs?$AAe?$AAr?$AA?9?$AAd?$AAi?$AAa?$AAl?$AAo?$AAg?$AAb?$AAo?$AAx?$AA?9?$AAl?$AA1?$AA?9?$AA1@ 0000000180020b90     libucrt:winapi_thunks.obj
 0002:00003be0       ??_C@_1EO@FIHMJCLF@?$AAe?$AAx?$AAt?$AA?9?$AAm?$AAs?$AA?9?$AAw?$AAi?$AAn?$AA?9?$AAn?$AAt?$AAu?$AAs?$AAe?$AAr?$AA?9?$AAw?$AAi?$AAn?$AAd?$AAo?$AAw?$AAs?$AAt?$AAa?$AAt?$AAi?$AAo?$AAn?$AA?9@ 0000000180020be0     libucrt:winapi_thunks.obj
 0002:00003c30       ??_C@_1O@BCCLBEOE@?$AAu?$AAs?$AAe?$AAr?$AA3?$AA2?$AA?$AA@ 0000000180020c30     libucrt:winapi_thunks.obj
 0002:00003c68       ??_C@_0BE@JOGNEJCI@GetCurrentPackageId?$AA@ 0000000180020c68     libucrt:winapi_thunks.obj
 0002:00003c90       ??_C@_0O@KKBNKAPF@LCMapStringEx?$AA@ 0000000180020c90     libucrt:winapi_thunks.obj
 0002:00003ca8       ??_C@_0BB@HBDEELFH@LocaleNameToLCID?$AA@ 0000000180020ca8     libucrt:winapi_thunks.obj
 0002:00003ce0       ??_C@_1M@HPNHIDJI@?$AAj?$AAa?$AA?9?$AAJ?$AAP?$AA?$AA@ 0000000180020ce0     libucrt:mbctype.obj
 0002:00003cf0       ??_C@_1M@BIBDDEMK@?$AAz?$AAh?$AA?9?$AAC?$AAN?$AA?$AA@ 0000000180020cf0     libucrt:mbctype.obj
 0002:00003d00       ??_C@_1M@JLOOOEGK@?$AAk?$AAo?$AA?9?$AAK?$AAR?$AA?$AA@ 0000000180020d00     libucrt:mbctype.obj
 0002:00003d10       ??_C@_1M@CLNBBOPM@?$AAz?$AAh?$AA?9?$AAT?$AAW?$AA?$AA@ 0000000180020d10     libucrt:mbctype.obj
 0002:00003d1c       ??_C@_15PJPFLCCM@?$AAu?$AAk?$AA?$AA@ 0000000180020d1c     libucrt:get_qualified_locale.obj
 0002:00004b70       ??_C@_15EMKDOKLE@?$AAa?$AAr?$AA?$AA@ 0000000180021b70     libucrt:lcidtoname_downlevel.obj
 0002:00004b78       ??_C@_15KNPADPLH@?$AAb?$AAg?$AA?$AA@ 0000000180021b78     libucrt:lcidtoname_downlevel.obj
 0002:00004b80       ??_C@_15EDMHLDMO@?$AAc?$AAa?$AA?$AA@ 0000000180021b80     libucrt:lcidtoname_downlevel.obj
 0002:00004b88       ??_C@_1O@BPEAJADD@?$AAz?$AAh?$AA?9?$AAC?$AAH?$AAS?$AA?$AA@ 0000000180021b88     libucrt:lcidtoname_downlevel.obj
 0002:00004b98       ??_C@_15LJNHCMNK@?$AAc?$AAs?$AA?$AA@ 0000000180021b98     libucrt:lcidtoname_downlevel.obj
 0002:00004ba0       ??_C@_15FOMCIDHG@?$AAd?$AAa?$AA?$AA@ 0000000180021ba0     libucrt:lcidtoname_downlevel.obj
 0002:00004ba8       ??_C@_15NBKABECB@?$AAd?$AAe?$AA?$AA@ 0000000180021ba8     libucrt:lcidtoname_downlevel.obj
 0002:00004bb0       ??_C@_15GHPEIIAO@?$AAe?$AAl?$AA?$AA@ 0000000180021bb0     libucrt:lcidtoname_downlevel.obj
 0002:00004bb8       ??_C@_15MNPNEAIF@?$AAe?$AAn?$AA?$AA@ 0000000180021bb8     libucrt:lcidtoname_downlevel.obj
 0002:00004bc0       ??_C@_15GPIOMPMH@?$AAe?$AAs?$AA?$AA@ 0000000180021bc0     libucrt:lcidtoname_downlevel.obj
 0002:00004bc8       ??_C@_15NGLOAKJC@?$AAf?$AAi?$AA?$AA@ 0000000180021bc8     libucrt:lcidtoname_downlevel.obj
 0002:00004bd0       ??_C@_15FBKGNKAM@?$AAf?$AAr?$AA?$AA@ 0000000180021bd0     libucrt:lcidtoname_downlevel.obj
 0002:00004bd8       ??_C@_15KGGCNEFK@?$AAh?$AAe?$AA?$AA@ 0000000180021bd8     libucrt:lcidtoname_downlevel.obj
 0002:00004be0       ??_C@_15PGHLIDMF@?$AAh?$AAu?$AA?$AA@ 0000000180021be0     libucrt:lcidtoname_downlevel.obj
 0002:00004be8       ??_C@_15BIEMAPLM@?$AAi?$AAs?$AA?$AA@ 0000000180021be8     libucrt:lcidtoname_downlevel.obj
 0002:00004bf0       ??_C@_15IFJLDHAF@?$AAi?$AAt?$AA?$AA@ 0000000180021bf0     libucrt:lcidtoname_downlevel.obj
 0002:00004bf8       ??_C@_15GEMIOCAG@?$AAj?$AAa?$AA?$AA@ 0000000180021bf8     libucrt:lcidtoname_downlevel.obj
 0002:00004c00       ??_C@_15EPELEGJA@?$AAk?$AAo?$AA?$AA@ 0000000180021c00     libucrt:lcidtoname_downlevel.obj
 0002:00004c08       ??_C@_15NDDHIMN@?$AAn?$AAl?$AA?$AA@ 0000000180021c08     libucrt:lcidtoname_downlevel.obj
 0002:00004c10       ??_C@_15BPIGNHCD@?$AAn?$AAo?$AA?$AA@ 0000000180021c10     libucrt:lcidtoname_downlevel.obj
 0002:00004c18       ??_C@_15DEOPBLCG@?$AAp?$AAl?$AA?$AA@ 0000000180021c18     libucrt:lcidtoname_downlevel.obj
 0002:00004c20       ??_C@_15KBECGEFG@?$AAp?$AAt?$AA?$AA@ 0000000180021c20     libucrt:lcidtoname_downlevel.obj
 0002:00004c28       ??_C@_15GLJCBFMD@?$AAr?$AAo?$AA?$AA@ 0000000180021c28     libucrt:lcidtoname_downlevel.obj
 0002:00004c30       ??_C@_15FEDGKCDI@?$AAr?$AAu?$AA?$AA@ 0000000180021c30     libucrt:lcidtoname_downlevel.obj
 0002:00004c38       ??_C@_15GLKMLLHM@?$AAh?$AAr?$AA?$AA@ 0000000180021c38     libucrt:lcidtoname_downlevel.obj
 0002:00004c40       ??_C@_15CPKMFBDB@?$AAs?$AAk?$AA?$AA@ 0000000180021c40     libucrt:lcidtoname_downlevel.obj
 0002:00004c48       ??_C@_15BAAIOGMK@?$AAs?$AAq?$AA?$AA@ 0000000180021c48     libucrt:lcidtoname_downlevel.obj
 0002:00004c50       ??_C@_15INNPNOHD@?$AAs?$AAv?$AA?$AA@ 0000000180021c50     libucrt:lcidtoname_downlevel.obj
 0002:00004c58       ??_C@_15CABMMOGH@?$AAt?$AAh?$AA?$AA@ 0000000180021c58     libucrt:lcidtoname_downlevel.obj
 0002:00004c60       ??_C@_15BPLIHJJM@?$AAt?$AAr?$AA?$AA@ 0000000180021c60     libucrt:lcidtoname_downlevel.obj
 0002:00004c68       ??_C@_15NEOEKKDJ@?$AAu?$AAr?$AA?$AA@ 0000000180021c68     libucrt:lcidtoname_downlevel.obj
 0002:00004c70       ??_C@_15NFICGAJK@?$AAi?$AAd?$AA?$AA@ 0000000180021c70     libucrt:lcidtoname_downlevel.obj
 0002:00004c78       ??_C@_15HPJPHDM@?$AAb?$AAe?$AA?$AA@ 0000000180021c78     libucrt:lcidtoname_downlevel.obj
 0002:00004c80       ??_C@_15LCHLGJII@?$AAs?$AAl?$AA?$AA@ 0000000180021c80     libucrt:lcidtoname_downlevel.obj
 0002:00004c88       ??_C@_15PCFJPHHO@?$AAe?$AAt?$AA?$AA@ 0000000180021c88     libucrt:lcidtoname_downlevel.obj
 0002:00004c90       ??_C@_15HPFPGODN@?$AAl?$AAv?$AA?$AA@ 0000000180021c90     libucrt:lcidtoname_downlevel.obj
 0002:00004c98       ??_C@_15NFFGKGLG@?$AAl?$AAt?$AA?$AA@ 0000000180021c98     libucrt:lcidtoname_downlevel.obj
 0002:00004ca0       ??_C@_15BDAKCCHN@?$AAf?$AAa?$AA?$AA@ 0000000180021ca0     libucrt:lcidtoname_downlevel.obj
 0002:00004ca8       ??_C@_15NFGIAIAJ@?$AAv?$AAi?$AA?$AA@ 0000000180021ca8     libucrt:lcidtoname_downlevel.obj
 0002:00004cb0       ??_C@_15LMKNDMHN@?$AAh?$AAy?$AA?$AA@ 0000000180021cb0     libucrt:lcidtoname_downlevel.obj
 0002:00004cb8       ??_C@_15IJBHMCFL@?$AAa?$AAz?$AA?$AA@ 0000000180021cb8     libucrt:lcidtoname_downlevel.obj
 0002:00004cc0       ??_C@_15EKOFJABL@?$AAe?$AAu?$AA?$AA@ 0000000180021cc0     libucrt:lcidtoname_downlevel.obj
 0002:00004cc8       ??_C@_15BGHADCNK@?$AAm?$AAk?$AA?$AA@ 0000000180021cc8     libucrt:lcidtoname_downlevel.obj
 0002:00004cd0       ??_C@_15JDNICKHM@?$AAa?$AAf?$AA?$AA@ 0000000180021cd0     libucrt:lcidtoname_downlevel.obj
 0002:00004cd8       ??_C@_15KPJEDBKD@?$AAk?$AAa?$AA?$AA@ 0000000180021cd8     libucrt:lcidtoname_downlevel.obj
 0002:00004ce0       ??_C@_15PDNFFFEO@?$AAf?$AAo?$AA?$AA@ 0000000180021ce0     libucrt:lcidtoname_downlevel.obj
 0002:00004ce8       ??_C@_15OMLEGLOC@?$AAh?$AAi?$AA?$AA@ 0000000180021ce8     libucrt:lcidtoname_downlevel.obj
 0002:00004cf0       ??_C@_15IDNNENKK@?$AAm?$AAs?$AA?$AA@ 0000000180021cf0     libucrt:lcidtoname_downlevel.obj
 0002:00004cf8       ??_C@_15MACJNBMH@?$AAk?$AAk?$AA?$AA@ 0000000180021cf8     libucrt:lcidtoname_downlevel.obj
 0002:00004d00       ??_C@_15DKDJEOND@?$AAk?$AAy?$AA?$AA@ 0000000180021d00     libucrt:lcidtoname_downlevel.obj
 0002:00004d08       ??_C@_15DFGDLJBG@?$AAs?$AAw?$AA?$AA@ 0000000180021d08     libucrt:lcidtoname_downlevel.obj
 0002:00004d10       ??_C@_15BBFAICNG@?$AAu?$AAz?$AA?$AA@ 0000000180021d10     libucrt:lcidtoname_downlevel.obj
 0002:00004d18       ??_C@_15DKNDCGEA@?$AAt?$AAt?$AA?$AA@ 0000000180021d18     libucrt:lcidtoname_downlevel.obj
 0002:00004d20       ??_C@_15MGIFMDPL@?$AAp?$AAa?$AA?$AA@ 0000000180021d20     libucrt:lcidtoname_downlevel.obj
 0002:00004d28       ??_C@_15HCNDBBA@?$AAg?$AAu?$AA?$AA@ 0000000180021d28     libucrt:lcidtoname_downlevel.obj
 0002:00004d30       ??_C@_15FNBEIBON@?$AAt?$AAa?$AA?$AA@ 0000000180021d30     libucrt:lcidtoname_downlevel.obj
 0002:00004d38       ??_C@_15NCHGBGLK@?$AAt?$AAe?$AA?$AA@ 0000000180021d38     libucrt:lcidtoname_downlevel.obj
 0002:00004d40       ??_C@_15PHPHCBPF@?$AAk?$AAn?$AA?$AA@ 0000000180021d40     libucrt:lcidtoname_downlevel.obj
 0002:00004d48       ??_C@_15DLGBCKMP@?$AAm?$AAr?$AA?$AA@ 0000000180021d48     libucrt:lcidtoname_downlevel.obj
 0002:00004d50       ??_C@_15EABBLBFF@?$AAs?$AAa?$AA?$AA@ 0000000180021d50     libucrt:lcidtoname_downlevel.obj
 0002:00004d58       ??_C@_15CBKOMCOI@?$AAm?$AAn?$AA?$AA@ 0000000180021d58     libucrt:lcidtoname_downlevel.obj
 0002:00004d60       ??_C@_15CKDMCJAF@?$AAg?$AAl?$AA?$AA@ 0000000180021d60     libucrt:lcidtoname_downlevel.obj
 0002:00004d68       ??_C@_17CNJFBPG@?$AAk?$AAo?$AAk?$AA?$AA@ 0000000180021d68     libucrt:lcidtoname_downlevel.obj
 0002:00004d70       ??_C@_17FFBJICPL@?$AAs?$AAy?$AAr?$AA?$AA@ 0000000180021d70     libucrt:lcidtoname_downlevel.obj
 0002:00004d78       ??_C@_17KPNDCPAF@?$AAd?$AAi?$AAv?$AA?$AA@ 0000000180021d78     libucrt:lcidtoname_downlevel.obj
 0002:00004d80       ??_C@_1M@OKAHONE@?$AAa?$AAr?$AA?9?$AAS?$AAA?$AA?$AA@ 0000000180021d80     libucrt:lcidtoname_downlevel.obj
 0002:00004d90       ??_C@_1M@FFFIGIGK@?$AAb?$AAg?$AA?9?$AAB?$AAG?$AA?$AA@ 0000000180021d90     libucrt:lcidtoname_downlevel.obj
 0002:00004da0       ??_C@_1M@BJNKEDC@?$AAc?$AAa?$AA?9?$AAE?$AAS?$AA?$AA@ 0000000180021da0     libucrt:lcidtoname_downlevel.obj
 0002:00004db0       ??_C@_1M@IJJHFJHA@?$AAc?$AAs?$AA?9?$AAC?$AAZ?$AA?$AA@ 0000000180021db0     libucrt:lcidtoname_downlevel.obj
 0002:00004dc0       ??_C@_1M@CLPEOBGI@?$AAd?$AAa?$AA?9?$AAD?$AAK?$AA?$AA@ 0000000180021dc0     libucrt:lcidtoname_downlevel.obj
 0002:00004dd0       ??_C@_1M@MCMADGCB@?$AAd?$AAe?$AA?9?$AAD?$AAE?$AA?$AA@ 0000000180021dd0     libucrt:lcidtoname_downlevel.obj
 0002:00004de0       ??_C@_1M@OOCKEMAM@?$AAe?$AAl?$AA?9?$AAG?$AAR?$AA?$AA@ 0000000180021de0     libucrt:lcidtoname_downlevel.obj
 0002:00004df0       ??_C@_1M@DDNJFGID@?$AAf?$AAi?$AA?9?$AAF?$AAI?$AA?$AA@ 0000000180021df0     libucrt:lcidtoname_downlevel.obj
 0002:00004e00       ??_C@_1M@GLIPPMAC@?$AAf?$AAr?$AA?9?$AAF?$AAR?$AA?$AA@ 0000000180021e00     libucrt:lcidtoname_downlevel.obj
 0002:00004e10       ??_C@_1M@GFMCHPE@?$AAh?$AAe?$AA?9?$AAI?$AAL?$AA?$AA@ 0000000180021e10     libucrt:lcidtoname_downlevel.obj
 0002:00004e20       ??_C@_1M@MHLPGNKM@?$AAh?$AAu?$AA?9?$AAH?$AAU?$AA?$AA@ 0000000180021e20     libucrt:lcidtoname_downlevel.obj
 0002:00004e30       ??_C@_1M@LPDDNNPN@?$AAi?$AAs?$AA?9?$AAI?$AAS?$AA?$AA@ 0000000180021e30     libucrt:lcidtoname_downlevel.obj
 0002:00004e40       ??_C@_1M@MADIPODN@?$AAi?$AAt?$AA?9?$AAI?$AAT?$AA?$AA@ 0000000180021e40     libucrt:lcidtoname_downlevel.obj
 0002:00004e50       ??_C@_1M@IHBJJGG@?$AAn?$AAl?$AA?9?$AAN?$AAL?$AA?$AA@ 0000000180021e50     libucrt:lcidtoname_downlevel.obj
 0002:00004e60       ??_C@_1M@EANAGDL@?$AAn?$AAb?$AA?9?$AAN?$AAO?$AA?$AA@ 0000000180021e60     libucrt:lcidtoname_downlevel.obj
 0002:00004e70       ??_C@_1M@NEIEMEGP@?$AAp?$AAl?$AA?9?$AAP?$AAL?$AA?$AA@ 0000000180021e70     libucrt:lcidtoname_downlevel.obj
 0002:00004e80       ??_C@_1M@BOCFIGEP@?$AAp?$AAt?$AA?9?$AAB?$AAR?$AA?$AA@ 0000000180021e80     libucrt:lcidtoname_downlevel.obj
 0002:00004e90       ??_C@_1M@IMPFOPBG@?$AAr?$AAo?$AA?9?$AAR?$AAO?$AA?$AA@ 0000000180021e90     libucrt:lcidtoname_downlevel.obj
 0002:00004ea0       ??_C@_1M@IDNNEJMM@?$AAr?$AAu?$AA?9?$AAR?$AAU?$AA?$AA@ 0000000180021ea0     libucrt:lcidtoname_downlevel.obj
 0002:00004eb0       ??_C@_1M@LILEEOGM@?$AAh?$AAr?$AA?9?$AAH?$AAR?$AA?$AA@ 0000000180021eb0     libucrt:lcidtoname_downlevel.obj
 0002:00004ec0       ??_C@_1M@FKIFEHPB@?$AAs?$AAk?$AA?9?$AAS?$AAK?$AA?$AA@ 0000000180021ec0     libucrt:lcidtoname_downlevel.obj
 0002:00004ed0       ??_C@_1M@LJMAMNPJ@?$AAs?$AAq?$AA?9?$AAA?$AAL?$AA?$AA@ 0000000180021ed0     libucrt:lcidtoname_downlevel.obj
 0002:00004ee0       ??_C@_1M@GIAKDKJK@?$AAs?$AAv?$AA?9?$AAS?$AAE?$AA?$AA@ 0000000180021ee0     libucrt:lcidtoname_downlevel.obj
 0002:00004ef0       ??_C@_1M@MKJKIKCL@?$AAt?$AAh?$AA?9?$AAT?$AAH?$AA?$AA@ 0000000180021ef0     libucrt:lcidtoname_downlevel.obj
 0002:00004f00       ??_C@_1M@MFLCCMPB@?$AAt?$AAr?$AA?9?$AAT?$AAR?$AA?$AA@ 0000000180021f00     libucrt:lcidtoname_downlevel.obj
 0002:00004f10       ??_C@_1M@OIJHDKJN@?$AAu?$AAr?$AA?9?$AAP?$AAK?$AA?$AA@ 0000000180021f10     libucrt:lcidtoname_downlevel.obj
 0002:00004f20       ??_C@_1M@LHIPCIEK@?$AAi?$AAd?$AA?9?$AAI?$AAD?$AA?$AA@ 0000000180021f20     libucrt:lcidtoname_downlevel.obj
 0002:00004f30       ??_C@_1M@MFMOBGI@?$AAu?$AAk?$AA?9?$AAU?$AAA?$AA?$AA@ 0000000180021f30     libucrt:lcidtoname_downlevel.obj
 0002:00004f40       ??_C@_1M@OBGLJIPL@?$AAb?$AAe?$AA?9?$AAB?$AAY?$AA?$AA@ 0000000180021f40     libucrt:lcidtoname_downlevel.obj
 0002:00004f50       ??_C@_1M@BCFAJEAD@?$AAs?$AAl?$AA?9?$AAS?$AAI?$AA?$AA@ 0000000180021f50     libucrt:lcidtoname_downlevel.obj
 0002:00004f60       ??_C@_1M@FKFFEDDN@?$AAe?$AAt?$AA?9?$AAE?$AAE?$AA?$AA@ 0000000180021f60     libucrt:lcidtoname_downlevel.obj
 0002:00004f70       ??_C@_1M@KGKKAACI@?$AAl?$AAv?$AA?9?$AAL?$AAV?$AA?$AA@ 0000000180021f70     libucrt:lcidtoname_downlevel.obj
 0002:00004f80       ??_C@_1M@IFGBIJO@?$AAl?$AAt?$AA?9?$AAL?$AAT?$AA?$AA@ 0000000180021f80     libucrt:lcidtoname_downlevel.obj
 0002:00004f90       ??_C@_1M@FGEAHEDM@?$AAf?$AAa?$AA?9?$AAI?$AAR?$AA?$AA@ 0000000180021f90     libucrt:lcidtoname_downlevel.obj
 0002:00004fa0       ??_C@_1M@KBMAIBFN@?$AAv?$AAi?$AA?9?$AAV?$AAN?$AA?$AA@ 0000000180021fa0     libucrt:lcidtoname_downlevel.obj
 0002:00004fb0       ??_C@_1M@GPCBKDJK@?$AAh?$AAy?$AA?9?$AAA?$AAM?$AA?$AA@ 0000000180021fb0     libucrt:lcidtoname_downlevel.obj
 0002:00004fc0       ??_C@_1BG@BECMDDJB@?$AAa?$AAz?$AA?9?$AAA?$AAZ?$AA?9?$AAL?$AAa?$AAt?$AAn?$AA?$AA@ 0000000180021fc0     libucrt:lcidtoname_downlevel.obj
 0002:00004fd8       ??_C@_1M@MAOFCAEA@?$AAe?$AAu?$AA?9?$AAE?$AAS?$AA?$AA@ 0000000180021fd8     libucrt:lcidtoname_downlevel.obj
 0002:00004fe8       ??_C@_1M@IGHABKPI@?$AAm?$AAk?$AA?9?$AAM?$AAK?$AA?$AA@ 0000000180021fe8     libucrt:lcidtoname_downlevel.obj
 0002:00004ff8       ??_C@_1M@IAIGNEJG@?$AAt?$AAn?$AA?9?$AAZ?$AAA?$AA?$AA@ 0000000180021ff8     libucrt:lcidtoname_downlevel.obj
 0002:00005008       ??_C@_1M@IIJCOJFA@?$AAx?$AAh?$AA?9?$AAZ?$AAA?$AA?$AA@ 0000000180022008     libucrt:lcidtoname_downlevel.obj
 0002:00005018       ??_C@_1M@LGPJHNJH@?$AAz?$AAu?$AA?9?$AAZ?$AAA?$AA?$AA@ 0000000180022018     libucrt:lcidtoname_downlevel.obj
 0002:00005028       ??_C@_1M@HOKAOIO@?$AAa?$AAf?$AA?9?$AAZ?$AAA?$AA?$AA@ 0000000180022028     libucrt:lcidtoname_downlevel.obj
 0002:00005038       ??_C@_1M@DPCLHLIE@?$AAk?$AAa?$AA?9?$AAG?$AAE?$AA?$AA@ 0000000180022038     libucrt:lcidtoname_downlevel.obj
 0002:00005048       ??_C@_1M@BLKMHJBI@?$AAf?$AAo?$AA?9?$AAF?$AAO?$AA?$AA@ 0000000180022048     libucrt:lcidtoname_downlevel.obj
 0002:00005058       ??_C@_1M@LGGJAPPB@?$AAh?$AAi?$AA?9?$AAI?$AAN?$AA?$AA@ 0000000180022058     libucrt:lcidtoname_downlevel.obj
 0002:00005068       ??_C@_1M@FIKPIHFE@?$AAm?$AAt?$AA?9?$AAM?$AAT?$AA?$AA@ 0000000180022068     libucrt:lcidtoname_downlevel.obj
 0002:00005078       ??_C@_1M@HEGGPBFA@?$AAs?$AAe?$AA?9?$AAN?$AAO?$AA?$AA@ 0000000180022078     libucrt:lcidtoname_downlevel.obj
 0002:00005088       ??_C@_1M@EIBJEEPA@?$AAm?$AAs?$AA?9?$AAM?$AAY?$AA?$AA@ 0000000180022088     libucrt:lcidtoname_downlevel.obj
 0002:00005098       ??_C@_1M@FHLBGMPP@?$AAk?$AAk?$AA?9?$AAK?$AAZ?$AA?$AA@ 0000000180022098     libucrt:lcidtoname_downlevel.obj
 0002:000050a8       ??_C@_1M@NGJJLCGI@?$AAk?$AAy?$AA?9?$AAK?$AAG?$AA?$AA@ 00000001800220a8     libucrt:lcidtoname_downlevel.obj
 0002:000050b8       ??_C@_1M@GIENNBFC@?$AAs?$AAw?$AA?9?$AAK?$AAE?$AA?$AA@ 00000001800220b8     libucrt:lcidtoname_downlevel.obj
 0002:000050c8       ??_C@_1BG@NDGMJIMJ@?$AAu?$AAz?$AA?9?$AAU?$AAZ?$AA?9?$AAL?$AAa?$AAt?$AAn?$AA?$AA@ 00000001800220c8     libucrt:lcidtoname_downlevel.obj
 0002:000050e0       ??_C@_1M@IDCCIHBC@?$AAt?$AAt?$AA?9?$AAR?$AAU?$AA?$AA@ 00000001800220e0     libucrt:lcidtoname_downlevel.obj
 0002:000050f0       ??_C@_1M@LOICPMOJ@?$AAb?$AAn?$AA?9?$AAI?$AAN?$AA?$AA@ 00000001800220f0     libucrt:lcidtoname_downlevel.obj
 0002:00005100       ??_C@_1M@KPKKNEAH@?$AAp?$AAa?$AA?9?$AAI?$AAN?$AA?$AA@ 0000000180022100     libucrt:lcidtoname_downlevel.obj
 0002:00005110       ??_C@_1M@PJGPPBOG@?$AAg?$AAu?$AA?9?$AAI?$AAN?$AA?$AA@ 0000000180022110     libucrt:lcidtoname_downlevel.obj
 0002:00005120       ??_C@_1M@KMKMOPHI@?$AAt?$AAa?$AA?9?$AAI?$AAN?$AA?$AA@ 0000000180022120     libucrt:lcidtoname_downlevel.obj
 0002:00005130       ??_C@_1M@KFEHEPAC@?$AAt?$AAe?$AA?9?$AAI?$AAN?$AA?$AA@ 0000000180022130     libucrt:lcidtoname_downlevel.obj
 0002:00005140       ??_C@_1M@CDCLMGHI@?$AAk?$AAn?$AA?9?$AAI?$AAN?$AA?$AA@ 0000000180022140     libucrt:lcidtoname_downlevel.obj
 0002:00005150       ??_C@_1M@MIODLDKF@?$AAm?$AAl?$AA?9?$AAI?$AAN?$AA?$AA@ 0000000180022150     libucrt:lcidtoname_downlevel.obj
 0002:00005160       ??_C@_1M@PBIEACPO@?$AAm?$AAr?$AA?9?$AAI?$AAN?$AA?$AA@ 0000000180022160     libucrt:lcidtoname_downlevel.obj
 0002:00005170       ??_C@_1M@NIDEAGPH@?$AAs?$AAa?$AA?9?$AAI?$AAN?$AA?$AA@ 0000000180022170     libucrt:lcidtoname_downlevel.obj
 0002:00005180       ??_C@_1M@FHIHCBIO@?$AAm?$AAn?$AA?9?$AAM?$AAN?$AA?$AA@ 0000000180022180     libucrt:lcidtoname_downlevel.obj
 0002:00005190       ??_C@_1M@JAIJPENP@?$AAc?$AAy?$AA?9?$AAG?$AAB?$AA?$AA@ 0000000180022190     libucrt:lcidtoname_downlevel.obj
 0002:000051a0       ??_C@_1M@PHGFBEPN@?$AAg?$AAl?$AA?9?$AAE?$AAS?$AA?$AA@ 00000001800221a0     libucrt:lcidtoname_downlevel.obj
 0002:000051b0       ??_C@_1O@KPIPDNCP@?$AAk?$AAo?$AAk?$AA?9?$AAI?$AAN?$AA?$AA@ 00000001800221b0     libucrt:lcidtoname_downlevel.obj
 0002:000051c0       ??_C@_1O@KNHJLDJA@?$AAs?$AAy?$AAr?$AA?9?$AAS?$AAY?$AA?$AA@ 00000001800221c0     libucrt:lcidtoname_downlevel.obj
 0002:000051d0       ??_C@_1O@MKEKBLAH@?$AAd?$AAi?$AAv?$AA?9?$AAM?$AAV?$AA?$AA@ 00000001800221d0     libucrt:lcidtoname_downlevel.obj
 0002:000051e0       ??_C@_1O@OHDCKDDF@?$AAq?$AAu?$AAz?$AA?9?$AAB?$AAO?$AA?$AA@ 00000001800221e0     libucrt:lcidtoname_downlevel.obj
 0002:000051f0       ??_C@_1M@LEPJNLFD@?$AAn?$AAs?$AA?9?$AAZ?$AAA?$AA?$AA@ 00000001800221f0     libucrt:lcidtoname_downlevel.obj
 0002:00005200       ??_C@_1M@OMLEIIJB@?$AAm?$AAi?$AA?9?$AAN?$AAZ?$AA?$AA@ 0000000180022200     libucrt:lcidtoname_downlevel.obj
 0002:00005210       ??_C@_1M@PMPEAILG@?$AAa?$AAr?$AA?9?$AAI?$AAQ?$AA?$AA@ 0000000180022210     libucrt:lcidtoname_downlevel.obj
 0002:00005220       ??_C@_1M@CNKPNOEE@?$AAd?$AAe?$AA?9?$AAC?$AAH?$AA?$AA@ 0000000180022220     libucrt:lcidtoname_downlevel.obj
 0002:00005230       ??_C@_1M@LKMGMLKO@?$AAe?$AAn?$AA?9?$AAG?$AAB?$AA?$AA@ 0000000180022230     libucrt:lcidtoname_downlevel.obj
 0002:00005240       ??_C@_1M@PGKJFFGL@?$AAe?$AAs?$AA?9?$AAM?$AAX?$AA?$AA@ 0000000180022240     libucrt:lcidtoname_downlevel.obj
 0002:00005250       ??_C@_1M@DNNANBDC@?$AAf?$AAr?$AA?9?$AAB?$AAE?$AA?$AA@ 0000000180022250     libucrt:lcidtoname_downlevel.obj
 0002:00005260       ??_C@_1M@HLGMDFHM@?$AAi?$AAt?$AA?9?$AAC?$AAH?$AA?$AA@ 0000000180022260     libucrt:lcidtoname_downlevel.obj
 0002:00005270       ??_C@_1M@CLLBGJH@?$AAn?$AAl?$AA?9?$AAB?$AAE?$AA?$AA@ 0000000180022270     libucrt:lcidtoname_downlevel.obj
 0002:00005280       ??_C@_1M@BODBOGLF@?$AAn?$AAn?$AA?9?$AAN?$AAO?$AA?$AA@ 0000000180022280     libucrt:lcidtoname_downlevel.obj
 0002:00005290       ??_C@_1M@HFFAHKAD@?$AAp?$AAt?$AA?9?$AAP?$AAT?$AA?$AA@ 0000000180022290     libucrt:lcidtoname_downlevel.obj
 0002:000052a0       ??_C@_1BG@LNOAKHIE@?$AAs?$AAr?$AA?9?$AAS?$AAP?$AA?9?$AAL?$AAa?$AAt?$AAn?$AA?$AA@ 00000001800222a0     libucrt:lcidtoname_downlevel.obj
 0002:000052b8       ??_C@_1M@HBMHBGAK@?$AAs?$AAv?$AA?9?$AAF?$AAI?$AA?$AA@ 00000001800222b8     libucrt:lcidtoname_downlevel.obj
 0002:000052c8       ??_C@_1BG@DGCJGJBE@?$AAa?$AAz?$AA?9?$AAA?$AAZ?$AA?9?$AAC?$AAy?$AAr?$AAl?$AA?$AA@ 00000001800222c8     libucrt:lcidtoname_downlevel.obj
 0002:000052e0       ??_C@_1M@KEJDAAHB@?$AAs?$AAe?$AA?9?$AAS?$AAE?$AA?$AA@ 00000001800222e0     libucrt:lcidtoname_downlevel.obj
 0002:000052f0       ??_C@_1M@HEIBJJAD@?$AAm?$AAs?$AA?9?$AAB?$AAN?$AA?$AA@ 00000001800222f0     libucrt:lcidtoname_downlevel.obj
 0002:00005300       ??_C@_1BG@PBGJMCEM@?$AAu?$AAz?$AA?9?$AAU?$AAZ?$AA?9?$AAC?$AAy?$AAr?$AAl?$AA?$AA@ 0000000180022300     libucrt:lcidtoname_downlevel.obj
 0002:00005318       ??_C@_1O@LAOBCMDF@?$AAq?$AAu?$AAz?$AA?9?$AAE?$AAC?$AA?$AA@ 0000000180022318     libucrt:lcidtoname_downlevel.obj
 0002:00005328       ??_C@_1M@POEEMAIO@?$AAa?$AAr?$AA?9?$AAE?$AAG?$AA?$AA@ 0000000180022328     libucrt:lcidtoname_downlevel.obj
 0002:00005338       ??_C@_1M@EFAKDEDL@?$AAz?$AAh?$AA?9?$AAH?$AAK?$AA?$AA@ 0000000180022338     libucrt:lcidtoname_downlevel.obj
 0002:00005348       ??_C@_1M@HKKIJHGI@?$AAd?$AAe?$AA?9?$AAA?$AAT?$AA?$AA@ 0000000180022348     libucrt:lcidtoname_downlevel.obj
 0002:00005358       ??_C@_1M@KBFBEHJF@?$AAe?$AAn?$AA?9?$AAA?$AAU?$AA?$AA@ 0000000180022358     libucrt:lcidtoname_downlevel.obj
 0002:00005368       ??_C@_1M@MNPLFAAH@?$AAe?$AAs?$AA?9?$AAE?$AAS?$AA?$AA@ 0000000180022368     libucrt:lcidtoname_downlevel.obj
 0002:00005378       ??_C@_1M@HJOOJFMA@?$AAf?$AAr?$AA?9?$AAC?$AAA?$AA?$AA@ 0000000180022378     libucrt:lcidtoname_downlevel.obj
 0002:00005388       ??_C@_1BG@JPOFPNAB@?$AAs?$AAr?$AA?9?$AAS?$AAP?$AA?9?$AAC?$AAy?$AAr?$AAl?$AA?$AA@ 0000000180022388     libucrt:lcidtoname_downlevel.obj
 0002:000053a0       ??_C@_1M@LNFOCMOB@?$AAs?$AAe?$AA?9?$AAF?$AAI?$AA?$AA@ 00000001800223a0     libucrt:lcidtoname_downlevel.obj
 0002:000053b0       ??_C@_1O@MGJBOAMB@?$AAq?$AAu?$AAz?$AA?9?$AAP?$AAE?$AA?$AA@ 00000001800223b0     libucrt:lcidtoname_downlevel.obj
 0002:000053c0       ??_C@_1M@GJINLBOK@?$AAa?$AAr?$AA?9?$AAL?$AAY?$AA?$AA@ 00000001800223c0     libucrt:lcidtoname_downlevel.obj
 0002:000053d0       ??_C@_1M@GGMNHJNL@?$AAz?$AAh?$AA?9?$AAS?$AAG?$AA?$AA@ 00000001800223d0     libucrt:lcidtoname_downlevel.obj
 0002:000053e0       ??_C@_1M@HOIKODND@?$AAd?$AAe?$AA?9?$AAL?$AAU?$AA?$AA@ 00000001800223e0     libucrt:lcidtoname_downlevel.obj
 0002:000053f0       ??_C@_1M@DDOCCGFG@?$AAe?$AAn?$AA?9?$AAC?$AAA?$AA?$AA@ 00000001800223f0     libucrt:lcidtoname_downlevel.obj
 0002:00005400       ??_C@_1M@BNOEMJLF@?$AAe?$AAs?$AA?9?$AAG?$AAT?$AA?$AA@ 0000000180022400     libucrt:lcidtoname_downlevel.obj
 0002:00005410       ??_C@_1M@EOGNKEK@?$AAf?$AAr?$AA?9?$AAC?$AAH?$AA?$AA@ 0000000180022410     libucrt:lcidtoname_downlevel.obj
 0002:00005420       ??_C@_1M@FLIDJFHL@?$AAh?$AAr?$AA?9?$AAB?$AAA?$AA?$AA@ 0000000180022420     libucrt:lcidtoname_downlevel.obj
 0002:00005430       ??_C@_1O@FMCELNAJ@?$AAs?$AAm?$AAj?$AA?9?$AAN?$AAO?$AA?$AA@ 0000000180022430     libucrt:lcidtoname_downlevel.obj
 0002:00005440       ??_C@_1M@JHGLJMGJ@?$AAa?$AAr?$AA?9?$AAD?$AAZ?$AA?$AA@ 0000000180022440     libucrt:lcidtoname_downlevel.obj
 0002:00005450       ??_C@_1M@JKKFDCNP@?$AAz?$AAh?$AA?9?$AAM?$AAO?$AA?$AA@ 0000000180022450     libucrt:lcidtoname_downlevel.obj
 0002:00005460       ??_C@_1M@GEEFALPE@?$AAd?$AAe?$AA?9?$AAL?$AAI?$AA?$AA@ 0000000180022460     libucrt:lcidtoname_downlevel.obj
 0002:00005470       ??_C@_1M@IGEOFBG@?$AAe?$AAn?$AA?9?$AAN?$AAZ?$AA?$AA@ 0000000180022470     libucrt:lcidtoname_downlevel.obj
 0002:00005480       ??_C@_1M@KDBONEHP@?$AAe?$AAs?$AA?9?$AAC?$AAR?$AA?$AA@ 0000000180022480     libucrt:lcidtoname_downlevel.obj
 0002:00005490       ??_C@_1M@FHMDOHNN@?$AAf?$AAr?$AA?9?$AAL?$AAU?$AA?$AA@ 0000000180022490     libucrt:lcidtoname_downlevel.obj
 0002:000054a0       ??_C@_1BG@NFKKMAFG@?$AAb?$AAs?$AA?9?$AAB?$AAA?$AA?9?$AAL?$AAa?$AAt?$AAn?$AA?$AA@ 00000001800224a0     libucrt:lcidtoname_downlevel.obj
 0002:000054b8       ??_C@_1O@IMNBEMCI@?$AAs?$AAm?$AAj?$AA?9?$AAS?$AAE?$AA?$AA@ 00000001800224b8     libucrt:lcidtoname_downlevel.obj
 0002:000054c8       ??_C@_1M@DHHMBNDP@?$AAa?$AAr?$AA?9?$AAM?$AAA?$AA?$AA@ 00000001800224c8     libucrt:lcidtoname_downlevel.obj
 0002:000054d8       ??_C@_1M@BNBLJCGH@?$AAe?$AAn?$AA?9?$AAI?$AAE?$AA?$AA@ 00000001800224d8     libucrt:lcidtoname_downlevel.obj
 0002:000054e8       ??_C@_1M@GEPAFMDL@?$AAe?$AAs?$AA?9?$AAP?$AAA?$AA?$AA@ 00000001800224e8     libucrt:lcidtoname_downlevel.obj
 0002:000054f8       ??_C@_1M@OJONDMDL@?$AAf?$AAr?$AA?9?$AAM?$AAC?$AA?$AA@ 00000001800224f8     libucrt:lcidtoname_downlevel.obj
 0002:00005508       ??_C@_1BG@OBCNFJB@?$AAs?$AAr?$AA?9?$AAB?$AAA?$AA?9?$AAL?$AAa?$AAt?$AAn?$AA?$AA@ 0000000180022508     libucrt:lcidtoname_downlevel.obj
 0002:00005520       ??_C@_1O@KEMEEGPO@?$AAs?$AAm?$AAa?$AA?9?$AAN?$AAO?$AA?$AA@ 0000000180022520     libucrt:lcidtoname_downlevel.obj
 0002:00005530       ??_C@_1M@ELMGFODK@?$AAa?$AAr?$AA?9?$AAT?$AAN?$AA?$AA@ 0000000180022530     libucrt:lcidtoname_downlevel.obj
 0002:00005540       ??_C@_1M@BHDLHFAF@?$AAe?$AAn?$AA?9?$AAZ?$AAA?$AA?$AA@ 0000000180022540     libucrt:lcidtoname_downlevel.obj
 0002:00005550       ??_C@_1M@BMGIGLIF@?$AAe?$AAs?$AA?9?$AAD?$AAO?$AA?$AA@ 0000000180022550     libucrt:lcidtoname_downlevel.obj
 0002:00005560       ??_C@_1BG@CMBHIPBE@?$AAs?$AAr?$AA?9?$AAB?$AAA?$AA?9?$AAC?$AAy?$AAr?$AAl?$AA?$AA@ 0000000180022560     libucrt:lcidtoname_downlevel.obj
 0002:00005578       ??_C@_1O@HEDBLHNP@?$AAs?$AAm?$AAa?$AA?9?$AAS?$AAE?$AA?$AA@ 0000000180022578     libucrt:lcidtoname_downlevel.obj
 0002:00005588       ??_C@_1M@DAGCADIM@?$AAa?$AAr?$AA?9?$AAO?$AAM?$AA?$AA@ 0000000180022588     libucrt:lcidtoname_downlevel.obj
 0002:00005598       ??_C@_1M@FODLMICG@?$AAe?$AAn?$AA?9?$AAJ?$AAM?$AA?$AA@ 0000000180022598     libucrt:lcidtoname_downlevel.obj
 0002:000055a8       ??_C@_1M@DNMLCIHB@?$AAe?$AAs?$AA?9?$AAV?$AAE?$AA?$AA@ 00000001800225a8     libucrt:lcidtoname_downlevel.obj
 0002:000055b8       ??_C@_1O@EOKHMKJK@?$AAs?$AAm?$AAs?$AA?9?$AAF?$AAI?$AA?$AA@ 00000001800225b8     libucrt:lcidtoname_downlevel.obj
 0002:000055c8       ??_C@_1M@CAFJMKOF@?$AAa?$AAr?$AA?9?$AAY?$AAE?$AA?$AA@ 00000001800225c8     libucrt:lcidtoname_downlevel.obj
 0002:000055d8       ??_C@_1M@CBFHIJLI@?$AAe?$AAn?$AA?9?$AAC?$AAB?$AA?$AA@ 00000001800225d8     libucrt:lcidtoname_downlevel.obj
 0002:000055e8       ??_C@_1M@BGNFLDN@?$AAe?$AAs?$AA?9?$AAC?$AAO?$AA?$AA@ 00000001800225e8     libucrt:lcidtoname_downlevel.obj
 0002:000055f8       ??_C@_1O@JMPHMAMC@?$AAs?$AAm?$AAn?$AA?9?$AAF?$AAI?$AA?$AA@ 00000001800225f8     libucrt:lcidtoname_downlevel.obj
 0002:00005608       ??_C@_1M@JLANABKE@?$AAa?$AAr?$AA?9?$AAS?$AAY?$AA?$AA@ 0000000180022608     libucrt:lcidtoname_downlevel.obj
 0002:00005618       ??_C@_1M@HPKGCFGN@?$AAe?$AAn?$AA?9?$AAB?$AAZ?$AA?$AA@ 0000000180022618     libucrt:lcidtoname_downlevel.obj
 0002:00005628       ??_C@_1M@OLJCMLGM@?$AAe?$AAs?$AA?9?$AAP?$AAE?$AA?$AA@ 0000000180022628     libucrt:lcidtoname_downlevel.obj
 0002:00005638       ??_C@_1M@MKKGFKLE@?$AAa?$AAr?$AA?9?$AAJ?$AAO?$AA?$AA@ 0000000180022638     libucrt:lcidtoname_downlevel.obj
 0002:00005648       ??_C@_1M@EKPGLDNI@?$AAe?$AAn?$AA?9?$AAT?$AAT?$AA?$AA@ 0000000180022648     libucrt:lcidtoname_downlevel.obj
 0002:00005658       ??_C@_1M@OONGHFHE@?$AAe?$AAs?$AA?9?$AAA?$AAR?$AA?$AA@ 0000000180022658     libucrt:lcidtoname_downlevel.obj
 0002:00005668       ??_C@_1M@OOJFGBHE@?$AAa?$AAr?$AA?9?$AAL?$AAB?$AA?$AA@ 0000000180022668     libucrt:lcidtoname_downlevel.obj
 0002:00005678       ??_C@_1M@GCEJHNEG@?$AAe?$AAn?$AA?9?$AAZ?$AAW?$AA?$AA@ 0000000180022678     libucrt:lcidtoname_downlevel.obj
 0002:00005688       ??_C@_1M@JNOCAHJI@?$AAe?$AAs?$AA?9?$AAE?$AAC?$AA?$AA@ 0000000180022688     libucrt:lcidtoname_downlevel.obj
 0002:00005698       ??_C@_1M@JEFHPGGB@?$AAa?$AAr?$AA?9?$AAK?$AAW?$AA?$AA@ 0000000180022698     libucrt:lcidtoname_downlevel.obj
 0002:000056a8       ??_C@_1M@MLKIBJOJ@?$AAe?$AAn?$AA?9?$AAP?$AAH?$AA?$AA@ 00000001800226a8     libucrt:lcidtoname_downlevel.obj
 0002:000056b8       ??_C@_1M@BDNIPEND@?$AAe?$AAs?$AA?9?$AAC?$AAL?$AA?$AA@ 00000001800226b8     libucrt:lcidtoname_downlevel.obj
 0002:000056c8       ??_C@_1M@MPNMEKBD@?$AAa?$AAr?$AA?9?$AAA?$AAE?$AA?$AA@ 00000001800226c8     libucrt:lcidtoname_downlevel.obj
 0002:000056d8       ??_C@_1M@KBJALCPI@?$AAe?$AAs?$AA?9?$AAU?$AAY?$AA?$AA@ 00000001800226d8     libucrt:lcidtoname_downlevel.obj
 0002:000056e8       ??_C@_1M@LLCCOAGA@?$AAa?$AAr?$AA?9?$AAB?$AAH?$AA?$AA@ 00000001800226e8     libucrt:lcidtoname_downlevel.obj
 0002:000056f8       ??_C@_1M@PBFNCDEL@?$AAe?$AAs?$AA?9?$AAP?$AAY?$AA?$AA@ 00000001800226f8     libucrt:lcidtoname_downlevel.obj
 0002:00005708       ??_C@_1M@EDGINPNP@?$AAa?$AAr?$AA?9?$AAQ?$AAA?$AA?$AA@ 0000000180022708     libucrt:lcidtoname_downlevel.obj
 0002:00005718       ??_C@_1M@MKDBIIJI@?$AAe?$AAs?$AA?9?$AAB?$AAO?$AA?$AA@ 0000000180022718     libucrt:lcidtoname_downlevel.obj
 0002:00005728       ??_C@_1M@CPKKEBLD@?$AAe?$AAs?$AA?9?$AAS?$AAV?$AA?$AA@ 0000000180022728     libucrt:lcidtoname_downlevel.obj
 0002:00005738       ??_C@_1M@NDBGMMJL@?$AAe?$AAs?$AA?9?$AAH?$AAN?$AA?$AA@ 0000000180022738     libucrt:lcidtoname_downlevel.obj
 0002:00005748       ??_C@_1M@JIJIBHDP@?$AAe?$AAs?$AA?9?$AAN?$AAI?$AA?$AA@ 0000000180022748     libucrt:lcidtoname_downlevel.obj
 0002:00005758       ??_C@_1M@CGFMKEEK@?$AAe?$AAs?$AA?9?$AAP?$AAR?$AA?$AA@ 0000000180022758     libucrt:lcidtoname_downlevel.obj
 0002:00005768       ??_C@_1O@ICJHKIIK@?$AAz?$AAh?$AA?9?$AAC?$AAH?$AAT?$AA?$AA@ 0000000180022768     libucrt:lcidtoname_downlevel.obj
 0002:00005778       ??_C@_15CLNEJCE@?$AAs?$AAr?$AA?$AA@ 0000000180022778     libucrt:lcidtoname_downlevel.obj
 0002:000065c0       ??_C@_1M@KAHEKEIG@?$AAa?$AAf?$AA?9?$AAz?$AAa?$AA?$AA@ 00000001800235c0     libucrt:lcidtoname_downlevel.obj
 0002:000065d0       ??_C@_1M@GIECOABL@?$AAa?$AAr?$AA?9?$AAa?$AAe?$AA?$AA@ 00000001800235d0     libucrt:lcidtoname_downlevel.obj
 0002:000065e0       ??_C@_1M@BMLMEKGI@?$AAa?$AAr?$AA?9?$AAb?$AAh?$AA?$AA@ 00000001800235e0     libucrt:lcidtoname_downlevel.obj
 0002:000065f0       ??_C@_1M@DAPFDGGB@?$AAa?$AAr?$AA?9?$AAd?$AAz?$AA?$AA@ 00000001800235f0     libucrt:lcidtoname_downlevel.obj
 0002:00006600       ??_C@_1M@FJNKGKIG@?$AAa?$AAr?$AA?9?$AAe?$AAg?$AA?$AA@ 0000000180023600     libucrt:lcidtoname_downlevel.obj
 0002:00006610       ??_C@_1M@FLGKKCLO@?$AAa?$AAr?$AA?9?$AAi?$AAq?$AA?$AA@ 0000000180023610     libucrt:lcidtoname_downlevel.obj
 0002:00006620       ??_C@_1M@GNDIPALM@?$AAa?$AAr?$AA?9?$AAj?$AAo?$AA?$AA@ 0000000180023620     libucrt:lcidtoname_downlevel.obj
 0002:00006630       ??_C@_1M@DDMJFMGJ@?$AAa?$AAr?$AA?9?$AAk?$AAw?$AA?$AA@ 0000000180023630     libucrt:lcidtoname_downlevel.obj
 0002:00006640       ??_C@_1M@EJALMLHM@?$AAa?$AAr?$AA?9?$AAl?$AAb?$AA?$AA@ 0000000180023640     libucrt:lcidtoname_downlevel.obj
 0002:00006650       ??_C@_1M@MOBDBLOC@?$AAa?$AAr?$AA?9?$AAl?$AAy?$AA?$AA@ 0000000180023650     libucrt:lcidtoname_downlevel.obj
 0002:00006660       ??_C@_1M@JAOCLHDH@?$AAa?$AAr?$AA?9?$AAm?$AAa?$AA?$AA@ 0000000180023660     libucrt:lcidtoname_downlevel.obj
 0002:00006670       ??_C@_1M@JHPMKJIE@?$AAa?$AAr?$AA?9?$AAo?$AAm?$AA?$AA@ 0000000180023670     libucrt:lcidtoname_downlevel.obj
 0002:00006680       ??_C@_1M@OEPGHFNH@?$AAa?$AAr?$AA?9?$AAq?$AAa?$AA?$AA@ 0000000180023680     libucrt:lcidtoname_downlevel.obj
 0002:00006690       ??_C@_1M@KJDONENM@?$AAa?$AAr?$AA?9?$AAs?$AAa?$AA?$AA@ 0000000180023690     libucrt:lcidtoname_downlevel.obj
 0002:000066a0       ??_C@_1M@DMJDKLKM@?$AAa?$AAr?$AA?9?$AAs?$AAy?$AA?$AA@ 00000001800236a0     libucrt:lcidtoname_downlevel.obj
 0002:000066b0       ??_C@_1M@OMFIPEDC@?$AAa?$AAr?$AA?9?$AAt?$AAn?$AA?$AA@ 00000001800236b0     libucrt:lcidtoname_downlevel.obj
 0002:000066c0       ??_C@_1M@IHMHGAON@?$AAa?$AAr?$AA?9?$AAy?$AAe?$AA?$AA@ 00000001800236c0     libucrt:lcidtoname_downlevel.obj
 0002:000066d0       ??_C@_1BG@KDCPGJGB@?$AAa?$AAz?$AA?9?$AAa?$AAz?$AA?9?$AAc?$AAy?$AAr?$AAl?$AA?$AA@ 00000001800236d0     libucrt:lcidtoname_downlevel.obj
 0002:000066e8       ??_C@_1BG@IBCKDDOE@?$AAa?$AAz?$AA?9?$AAa?$AAz?$AA?9?$AAl?$AAa?$AAt?$AAn?$AA?$AA@ 00000001800236e8     libucrt:lcidtoname_downlevel.obj
 0002:00006700       ??_C@_1M@EGPFDCPD@?$AAb?$AAe?$AA?9?$AAb?$AAy?$AA?$AA@ 0000000180023700     libucrt:lcidtoname_downlevel.obj
 0002:00006710       ??_C@_1M@PCMGMCGC@?$AAb?$AAg?$AA?9?$AAb?$AAg?$AA?$AA@ 0000000180023710     libucrt:lcidtoname_downlevel.obj
 0002:00006720       ??_C@_1M@BJBMFGOB@?$AAb?$AAn?$AA?9?$AAi?$AAn?$AA?$AA@ 0000000180023720     libucrt:lcidtoname_downlevel.obj
 0002:00006730       ??_C@_1BG@EAKMMACD@?$AAb?$AAs?$AA?9?$AAb?$AAa?$AA?9?$AAl?$AAa?$AAt?$AAn?$AA?$AA@ 0000000180023730     libucrt:lcidtoname_downlevel.obj
 0002:00006748       ??_C@_1M@KGADAODK@?$AAc?$AAa?$AA?9?$AAe?$AAs?$AA?$AA@ 0000000180023748     libucrt:lcidtoname_downlevel.obj
 0002:00006758       ??_C@_1M@COAJPDHI@?$AAc?$AAs?$AA?9?$AAc?$AAz?$AA?$AA@ 0000000180023758     libucrt:lcidtoname_downlevel.obj
 0002:00006768       ??_C@_1M@DHBHFONH@?$AAc?$AAy?$AA?9?$AAg?$AAb?$AA?$AA@ 0000000180023768     libucrt:lcidtoname_downlevel.obj
 0002:00006778       ??_C@_1M@IMGKELGA@?$AAd?$AAa?$AA?9?$AAd?$AAk?$AA?$AA@ 0000000180023778     libucrt:lcidtoname_downlevel.obj
 0002:00006788       ??_C@_1M@NNDGDNGA@?$AAd?$AAe?$AA?9?$AAa?$AAt?$AA?$AA@ 0000000180023788     libucrt:lcidtoname_downlevel.obj
 0002:00006798       ??_C@_1M@IKDBHEEM@?$AAd?$AAe?$AA?9?$AAc?$AAh?$AA?$AA@ 0000000180023798     libucrt:lcidtoname_downlevel.obj
 0002:000067a8       ??_C@_1M@GFFOJMCJ@?$AAd?$AAe?$AA?9?$AAd?$AAe?$AA?$AA@ 00000001800237a8     libucrt:lcidtoname_downlevel.obj
 0002:000067b8       ??_C@_1M@MDNLKBPM@?$AAd?$AAe?$AA?9?$AAl?$AAi?$AA?$AA@ 00000001800237b8     libucrt:lcidtoname_downlevel.obj
 0002:000067c8       ??_C@_1M@NJBEEJNL@?$AAd?$AAe?$AA?9?$AAl?$AAu?$AA?$AA@ 00000001800237c8     libucrt:lcidtoname_downlevel.obj
 0002:000067d8       ??_C@_1O@GNNELBAP@?$AAd?$AAi?$AAv?$AA?9?$AAm?$AAv?$AA?$AA@ 00000001800237d8     libucrt:lcidtoname_downlevel.obj
 0002:000067e8       ??_C@_1M@EJLEOGAE@?$AAe?$AAl?$AA?9?$AAg?$AAr?$AA?$AA@ 00000001800237e8     libucrt:lcidtoname_downlevel.obj
 0002:000067f8       ??_C@_1M@GMPONJN@?$AAe?$AAn?$AA?9?$AAa?$AAu?$AA?$AA@ 00000001800237f8     libucrt:lcidtoname_downlevel.obj
 0002:00006808       ??_C@_1M@NIDIIPGF@?$AAe?$AAn?$AA?9?$AAb?$AAz?$AA?$AA@ 0000000180023808     libucrt:lcidtoname_downlevel.obj
 0002:00006818       ??_C@_1M@JEHMIMFO@?$AAe?$AAn?$AA?9?$AAc?$AAa?$AA?$AA@ 0000000180023818     libucrt:lcidtoname_downlevel.obj
 0002:00006828       ??_C@_1M@IGMJCDLA@?$AAe?$AAn?$AA?9?$AAc?$AAb?$AA?$AA@ 0000000180023828     libucrt:lcidtoname_downlevel.obj
 0002:00006838       ??_C@_1M@BNFIGBKG@?$AAe?$AAn?$AA?9?$AAg?$AAb?$AA?$AA@ 0000000180023838     libucrt:lcidtoname_downlevel.obj
 0002:00006848       ??_C@_1M@LKIFDIGP@?$AAe?$AAn?$AA?9?$AAi?$AAe?$AA?$AA@ 0000000180023848     libucrt:lcidtoname_downlevel.obj
 0002:00006858       ??_C@_1M@PJKFGCCO@?$AAe?$AAn?$AA?9?$AAj?$AAm?$AA?$AA@ 0000000180023858     libucrt:lcidtoname_downlevel.obj
 0002:00006868       ??_C@_1M@KPPKEPBO@?$AAe?$AAn?$AA?9?$AAn?$AAz?$AA?$AA@ 0000000180023868     libucrt:lcidtoname_downlevel.obj
 0002:00006878       ??_C@_1M@GMDGLDOB@?$AAe?$AAn?$AA?9?$AAp?$AAh?$AA?$AA@ 0000000180023878     libucrt:lcidtoname_downlevel.obj
 0002:00006888       ??_C@_1M@ONGIBJNA@?$AAe?$AAn?$AA?9?$AAt?$AAt?$AA?$AA@ 0000000180023888     libucrt:lcidtoname_downlevel.obj
 0002:00006898       ??_C@_1M@LLODPCMM@?$AAe?$AAn?$AA?9?$AAu?$AAs?$AA?$AA@ 0000000180023898     libucrt:lcidtoname_downlevel.obj
 0002:000068a8       ??_C@_1M@LAKFNPAN@?$AAe?$AAn?$AA?9?$AAz?$AAa?$AA?$AA@ 00000001800238a8     libucrt:lcidtoname_downlevel.obj
 0002:000068b8       ??_C@_1M@MFNHNHEO@?$AAe?$AAn?$AA?9?$AAz?$AAw?$AA?$AA@ 00000001800238b8     libucrt:lcidtoname_downlevel.obj
 0002:000068c8       ??_C@_1M@EJEINPHM@?$AAe?$AAs?$AA?9?$AAa?$AAr?$AA?$AA@ 00000001800238c8     libucrt:lcidtoname_downlevel.obj
 0002:000068d8       ??_C@_1M@GNKPCCJA@?$AAe?$AAs?$AA?9?$AAb?$AAo?$AA?$AA@ 00000001800238d8     libucrt:lcidtoname_downlevel.obj
 0002:000068e8       ??_C@_1M@LEEGFONL@?$AAe?$AAs?$AA?9?$AAc?$AAl?$AA?$AA@ 00000001800238e8     libucrt:lcidtoname_downlevel.obj
 0002:000068f8       ??_C@_1M@KGPDPBDF@?$AAe?$AAs?$AA?9?$AAc?$AAo?$AA?$AA@ 00000001800238f8     libucrt:lcidtoname_downlevel.obj
 0002:00006908       ??_C@_1M@EIAHOHH@?$AAe?$AAs?$AA?9?$AAc?$AAr?$AA?$AA@ 0000000180023908     libucrt:lcidtoname_downlevel.obj
 0002:00006918       ??_C@_1M@LLPGMBIN@?$AAe?$AAs?$AA?9?$AAd?$AAo?$AA?$AA@ 0000000180023918     libucrt:lcidtoname_downlevel.obj
 0002:00006928       ??_C@_1M@DKHMKNJA@?$AAe?$AAs?$AA?9?$AAe?$AAc?$AA?$AA@ 0000000180023928     libucrt:lcidtoname_downlevel.obj
 0002:00006938       ??_C@_1M@GKGFPKAP@?$AAe?$AAs?$AA?9?$AAe?$AAs?$AA?$AA@ 0000000180023938     libucrt:lcidtoname_downlevel.obj
 0002:00006948       ??_C@_1M@LKHKGDLN@?$AAe?$AAs?$AA?9?$AAg?$AAt?$AA?$AA@ 0000000180023948     libucrt:lcidtoname_downlevel.obj
 0002:00006958       ??_C@_1M@HEIIGGJD@?$AAe?$AAs?$AA?9?$AAh?$AAn?$AA?$AA@ 0000000180023958     libucrt:lcidtoname_downlevel.obj
 0002:00006968       ??_C@_1M@FBDHPPGD@?$AAe?$AAs?$AA?9?$AAm?$AAx?$AA?$AA@ 0000000180023968     libucrt:lcidtoname_downlevel.obj
 0002:00006978       ??_C@_1M@DPAGLNDH@?$AAe?$AAs?$AA?9?$AAn?$AAi?$AA?$AA@ 0000000180023978     libucrt:lcidtoname_downlevel.obj
 0002:00006988       ??_C@_1M@MDGOPGDD@?$AAe?$AAs?$AA?9?$AAp?$AAa?$AA?$AA@ 0000000180023988     libucrt:lcidtoname_downlevel.obj
 0002:00006998       ??_C@_1M@EMAMGBGE@?$AAe?$AAs?$AA?9?$AAp?$AAe?$AA?$AA@ 0000000180023998     libucrt:lcidtoname_downlevel.obj
 0002:000069a8       ??_C@_1M@IBMCAOEC@?$AAe?$AAs?$AA?9?$AAp?$AAr?$AA?$AA@ 00000001800239a8     libucrt:lcidtoname_downlevel.obj
 0002:000069b8       ??_C@_1M@FGMDIJED@?$AAe?$AAs?$AA?9?$AAp?$AAy?$AA?$AA@ 00000001800239b8     libucrt:lcidtoname_downlevel.obj
 0002:000069c8       ??_C@_1M@IIDEOLLL@?$AAe?$AAs?$AA?9?$AAs?$AAv?$AA?$AA@ 00000001800239c8     libucrt:lcidtoname_downlevel.obj
 0002:000069d8       ??_C@_1M@GAOBIPA@?$AAe?$AAs?$AA?9?$AAu?$AAy?$AA?$AA@ 00000001800239d8     libucrt:lcidtoname_downlevel.obj
 0002:000069e8       ??_C@_1M@JKFFICHJ@?$AAe?$AAs?$AA?9?$AAv?$AAe?$AA?$AA@ 00000001800239e8     libucrt:lcidtoname_downlevel.obj
 0002:000069f8       ??_C@_1M@PNMLOJDF@?$AAe?$AAt?$AA?9?$AAe?$AAe?$AA?$AA@ 00000001800239f8     libucrt:lcidtoname_downlevel.obj
 0002:00006a08       ??_C@_1M@GHHLIKEI@?$AAe?$AAu?$AA?9?$AAe?$AAs?$AA?$AA@ 0000000180023a08     libucrt:lcidtoname_downlevel.obj
 0002:00006a18       ??_C@_1M@PBNONODE@?$AAf?$AAa?$AA?9?$AAi?$AAr?$AA?$AA@ 0000000180023a18     libucrt:lcidtoname_downlevel.obj
 0002:00006a28       ??_C@_1M@JEEHPMIL@?$AAf?$AAi?$AA?9?$AAf?$AAi?$AA?$AA@ 0000000180023a28     libucrt:lcidtoname_downlevel.obj
 0002:00006a38       ??_C@_1M@LMDCNDBA@?$AAf?$AAo?$AA?9?$AAf?$AAo?$AA?$AA@ 0000000180023a38     libucrt:lcidtoname_downlevel.obj
 0002:00006a48       ??_C@_1M@JKEOHLDK@?$AAf?$AAr?$AA?9?$AAb?$AAe?$AA?$AA@ 0000000180023a48     libucrt:lcidtoname_downlevel.obj
 0002:00006a58       ??_C@_1M@NOHADPMI@?$AAf?$AAr?$AA?9?$AAc?$AAa?$AA?$AA@ 0000000180023a58     libucrt:lcidtoname_downlevel.obj
 0002:00006a68       ??_C@_1M@KDHIHAEC@?$AAf?$AAr?$AA?9?$AAc?$AAh?$AA?$AA@ 0000000180023a68     libucrt:lcidtoname_downlevel.obj
 0002:00006a78       ??_C@_1M@MMBBFGAK@?$AAf?$AAr?$AA?9?$AAf?$AAr?$AA?$AA@ 0000000180023a78     libucrt:lcidtoname_downlevel.obj
 0002:00006a88       ??_C@_1M@PAFNENNF@?$AAf?$AAr?$AA?9?$AAl?$AAu?$AA?$AA@ 0000000180023a88     libucrt:lcidtoname_downlevel.obj
 0002:00006a98       ??_C@_1M@EOHDJGDD@?$AAf?$AAr?$AA?9?$AAm?$AAc?$AA?$AA@ 0000000180023a98     libucrt:lcidtoname_downlevel.obj
 0002:00006aa8       ??_C@_1M@FAPLLOPF@?$AAg?$AAl?$AA?9?$AAe?$AAs?$AA?$AA@ 0000000180023aa8     libucrt:lcidtoname_downlevel.obj
 0002:00006ab8       ??_C@_1M@FOPBFLOO@?$AAg?$AAu?$AA?9?$AAi?$AAn?$AA?$AA@ 0000000180023ab8     libucrt:lcidtoname_downlevel.obj
 0002:00006ac8       ??_C@_1M@KBMCINPM@?$AAh?$AAe?$AA?9?$AAi?$AAl?$AA?$AA@ 0000000180023ac8     libucrt:lcidtoname_downlevel.obj
 0002:00006ad8       ??_C@_1M@BBPHKFPJ@?$AAh?$AAi?$AA?9?$AAi?$AAn?$AA?$AA@ 0000000180023ad8     libucrt:lcidtoname_downlevel.obj
 0002:00006ae8       ??_C@_1M@PMBNDPHD@?$AAh?$AAr?$AA?9?$AAb?$AAa?$AA?$AA@ 0000000180023ae8     libucrt:lcidtoname_downlevel.obj
 0002:00006af8       ??_C@_1M@BPCKOEGE@?$AAh?$AAr?$AA?9?$AAh?$AAr?$AA?$AA@ 0000000180023af8     libucrt:lcidtoname_downlevel.obj
 0002:00006b08       ??_C@_1M@GACBMHKE@?$AAh?$AAu?$AA?9?$AAh?$AAu?$AA?$AA@ 0000000180023b08     libucrt:lcidtoname_downlevel.obj
 0002:00006b18       ??_C@_1M@MILPAJJC@?$AAh?$AAy?$AA?9?$AAa?$AAm?$AA?$AA@ 0000000180023b18     libucrt:lcidtoname_downlevel.obj
 0002:00006b28       ??_C@_1M@BABBICEC@?$AAi?$AAd?$AA?9?$AAi?$AAd?$AA?$AA@ 0000000180023b28     libucrt:lcidtoname_downlevel.obj
 0002:00006b38       ??_C@_1M@BIKNHHPF@?$AAi?$AAs?$AA?9?$AAi?$AAs?$AA?$AA@ 0000000180023b38     libucrt:lcidtoname_downlevel.obj
 0002:00006b48       ??_C@_1M@NMPCJPHE@?$AAi?$AAt?$AA?9?$AAc?$AAh?$AA?$AA@ 0000000180023b48     libucrt:lcidtoname_downlevel.obj
 0002:00006b58       ??_C@_1M@GHKGFEDF@?$AAi?$AAt?$AA?9?$AAi?$AAt?$AA?$AA@ 0000000180023b58     libucrt:lcidtoname_downlevel.obj
 0002:00006b68       ??_C@_1M@NIEJCJJA@?$AAj?$AAa?$AA?9?$AAj?$AAp?$AA?$AA@ 0000000180023b68     libucrt:lcidtoname_downlevel.obj
 0002:00006b78       ??_C@_1M@JILFNBIM@?$AAk?$AAa?$AA?9?$AAg?$AAe?$AA?$AA@ 0000000180023b78     libucrt:lcidtoname_downlevel.obj
 0002:00006b88       ??_C@_1M@PACPMGPH@?$AAk?$AAk?$AA?9?$AAk?$AAz?$AA?$AA@ 0000000180023b88     libucrt:lcidtoname_downlevel.obj
 0002:00006b98       ??_C@_1M@IELFGMHA@?$AAk?$AAn?$AA?9?$AAi?$AAn?$AA?$AA@ 0000000180023b98     libucrt:lcidtoname_downlevel.obj
 0002:00006ba8       ??_C@_1O@IBBJHCH@?$AAk?$AAo?$AAk?$AA?9?$AAi?$AAn?$AA?$AA@ 0000000180023ba8     libucrt:lcidtoname_downlevel.obj
 0002:00006bb8       ??_C@_1M@DMHAEOGC@?$AAk?$AAo?$AA?9?$AAk?$AAr?$AA?$AA@ 0000000180023bb8     libucrt:lcidtoname_downlevel.obj
 0002:00006bc8       ??_C@_1M@HBAHBIGA@?$AAk?$AAy?$AA?9?$AAk?$AAg?$AA?$AA@ 0000000180023bc8     libucrt:lcidtoname_downlevel.obj
 0002:00006bd8       ??_C@_1M@KPMILCJG@?$AAl?$AAt?$AA?9?$AAl?$AAt?$AA?$AA@ 0000000180023bd8     libucrt:lcidtoname_downlevel.obj
 0002:00006be8       ??_C@_1M@BDEKKCA@?$AAl?$AAv?$AA?9?$AAl?$AAv?$AA?$AA@ 0000000180023be8     libucrt:lcidtoname_downlevel.obj
 0002:00006bf8       ??_C@_1M@ELCKCCJJ@?$AAm?$AAi?$AA?9?$AAn?$AAz?$AA?$AA@ 0000000180023bf8     libucrt:lcidtoname_downlevel.obj
 0002:00006c08       ??_C@_1M@CBOOLAPA@?$AAm?$AAk?$AA?9?$AAm?$AAk?$AA?$AA@ 0000000180023c08     libucrt:lcidtoname_downlevel.obj
 0002:00006c18       ??_C@_1M@GPHNBJKN@?$AAm?$AAl?$AA?9?$AAi?$AAn?$AA?$AA@ 0000000180023c18     libucrt:lcidtoname_downlevel.obj
 0002:00006c28       ??_C@_1M@PABJILIG@?$AAm?$AAn?$AA?9?$AAm?$AAn?$AA?$AA@ 0000000180023c28     libucrt:lcidtoname_downlevel.obj
 0002:00006c38       ??_C@_1M@FGBKKIPG@?$AAm?$AAr?$AA?9?$AAi?$AAn?$AA?$AA@ 0000000180023c38     libucrt:lcidtoname_downlevel.obj
 0002:00006c48       ??_C@_1M@NDBPDDAL@?$AAm?$AAs?$AA?9?$AAb?$AAn?$AA?$AA@ 0000000180023c48     libucrt:lcidtoname_downlevel.obj
 0002:00006c58       ??_C@_1M@OPIHOOPI@?$AAm?$AAs?$AA?9?$AAm?$AAy?$AA?$AA@ 0000000180023c58     libucrt:lcidtoname_downlevel.obj
 0002:00006c68       ??_C@_1M@PPDBCNFM@?$AAm?$AAt?$AA?9?$AAm?$AAt?$AA?$AA@ 0000000180023c68     libucrt:lcidtoname_downlevel.obj
 0002:00006c78       ??_C@_1M@KDJDKMDD@?$AAn?$AAb?$AA?9?$AAn?$AAo?$AA?$AA@ 0000000180023c78     libucrt:lcidtoname_downlevel.obj
 0002:00006c88       ??_C@_1M@KFCFLMJP@?$AAn?$AAl?$AA?9?$AAb?$AAe?$AA?$AA@ 0000000180023c88     libucrt:lcidtoname_downlevel.obj
 0002:00006c98       ??_C@_1M@KPOPDDGO@?$AAn?$AAl?$AA?9?$AAn?$AAl?$AA?$AA@ 0000000180023c98     libucrt:lcidtoname_downlevel.obj
 0002:00006ca8       ??_C@_1M@LJKPEMLN@?$AAn?$AAn?$AA?9?$AAn?$AAo?$AA?$AA@ 0000000180023ca8     libucrt:lcidtoname_downlevel.obj
 0002:00006cb8       ??_C@_1M@BDGHHBFL@?$AAn?$AAs?$AA?9?$AAz?$AAa?$AA?$AA@ 0000000180023cb8     libucrt:lcidtoname_downlevel.obj
 0002:00006cc8       ??_C@_1M@IDEHOAP@?$AAp?$AAa?$AA?9?$AAi?$AAn?$AA?$AA@ 0000000180023cc8     libucrt:lcidtoname_downlevel.obj
 0002:00006cd8       ??_C@_1M@HDBKGOGH@?$AAp?$AAl?$AA?9?$AAp?$AAl?$AA?$AA@ 0000000180023cd8     libucrt:lcidtoname_downlevel.obj
 0002:00006ce8       ??_C@_1M@LJLLCMEH@?$AAp?$AAt?$AA?9?$AAb?$AAr?$AA?$AA@ 0000000180023ce8     libucrt:lcidtoname_downlevel.obj
 0002:00006cf8       ??_C@_1M@NCMONAAL@?$AAp?$AAt?$AA?9?$AAp?$AAt?$AA?$AA@ 0000000180023cf8     libucrt:lcidtoname_downlevel.obj
 0002:00006d08       ??_C@_1O@EAKMAJDN@?$AAq?$AAu?$AAz?$AA?9?$AAb?$AAo?$AA?$AA@ 0000000180023d08     libucrt:lcidtoname_downlevel.obj
 0002:00006d18       ??_C@_1O@BHHPIGDN@?$AAq?$AAu?$AAz?$AA?9?$AAe?$AAc?$AA?$AA@ 0000000180023d18     libucrt:lcidtoname_downlevel.obj
 0002:00006d28       ??_C@_1O@GBAPEKMJ@?$AAq?$AAu?$AAz?$AA?9?$AAp?$AAe?$AA?$AA@ 0000000180023d28     libucrt:lcidtoname_downlevel.obj
 0002:00006d38       ??_C@_1M@CLGLEFBO@?$AAr?$AAo?$AA?9?$AAr?$AAo?$AA?$AA@ 0000000180023d38     libucrt:lcidtoname_downlevel.obj
 0002:00006d48       ??_C@_1M@CEEDODME@?$AAr?$AAu?$AA?9?$AAr?$AAu?$AA?$AA@ 0000000180023d48     libucrt:lcidtoname_downlevel.obj
 0002:00006d58       ??_C@_1M@HPKKKMPP@?$AAs?$AAa?$AA?9?$AAi?$AAn?$AA?$AA@ 0000000180023d58     libucrt:lcidtoname_downlevel.obj
 0002:00006d68       ??_C@_1M@BKMAIGOJ@?$AAs?$AAe?$AA?9?$AAf?$AAi?$AA?$AA@ 0000000180023d68     libucrt:lcidtoname_downlevel.obj
 0002:00006d78       ??_C@_1M@NDPIFLFI@?$AAs?$AAe?$AA?9?$AAn?$AAo?$AA?$AA@ 0000000180023d78     libucrt:lcidtoname_downlevel.obj
 0002:00006d88       ??_C@_1M@DANKKHJ@?$AAs?$AAe?$AA?9?$AAs?$AAe?$AA?$AA@ 0000000180023d88     libucrt:lcidtoname_downlevel.obj
 0002:00006d98       ??_C@_1M@PNBLONPJ@?$AAs?$AAk?$AA?9?$AAs?$AAk?$AA?$AA@ 0000000180023d98     libucrt:lcidtoname_downlevel.obj
 0002:00006da8       ??_C@_1M@LFMODOAL@?$AAs?$AAl?$AA?9?$AAs?$AAi?$AA?$AA@ 0000000180023da8     libucrt:lcidtoname_downlevel.obj
 0002:00006db8       ??_C@_1O@DFKOMPG@?$AAs?$AAm?$AAa?$AA?9?$AAn?$AAo?$AA?$AA@ 0000000180023db8     libucrt:lcidtoname_downlevel.obj
 0002:00006dc8       ??_C@_1O@NDKPBNNH@?$AAs?$AAm?$AAa?$AA?9?$AAs?$AAe?$AA?$AA@ 0000000180023dc8     libucrt:lcidtoname_downlevel.obj
 0002:00006dd8       ??_C@_1O@PLLKBHAB@?$AAs?$AAm?$AAj?$AA?9?$AAn?$AAo?$AA?$AA@ 0000000180023dd8     libucrt:lcidtoname_downlevel.obj
 0002:00006de8       ??_C@_1O@CLEPOGCA@?$AAs?$AAm?$AAj?$AA?9?$AAs?$AAe?$AA?$AA@ 0000000180023de8     libucrt:lcidtoname_downlevel.obj
 0002:00006df8       ??_C@_1O@DLGJGKMK@?$AAs?$AAm?$AAn?$AA?9?$AAf?$AAi?$AA?$AA@ 0000000180023df8     libucrt:lcidtoname_downlevel.obj
 0002:00006e08       ??_C@_1O@OJDJGAJC@?$AAs?$AAm?$AAs?$AA?9?$AAf?$AAi?$AA?$AA@ 0000000180023e08     libucrt:lcidtoname_downlevel.obj
 0002:00006e18       ??_C@_1M@BOFOGHPB@?$AAs?$AAq?$AA?9?$AAa?$AAl?$AA?$AA@ 0000000180023e18     libucrt:lcidtoname_downlevel.obj
 0002:00006e28       ??_C@_1BG@LJBBIPGB@?$AAs?$AAr?$AA?9?$AAb?$AAa?$AA?9?$AAc?$AAy?$AAr?$AAl?$AA?$AA@ 0000000180023e28     libucrt:lcidtoname_downlevel.obj
 0002:00006e40       ??_C@_1BG@JLBENFOE@?$AAs?$AAr?$AA?9?$AAb?$AAa?$AA?9?$AAl?$AAa?$AAt?$AAn?$AA?$AA@ 0000000180023e40     libucrt:lcidtoname_downlevel.obj
 0002:00006e58       ??_C@_1BG@KODPNHE@?$AAs?$AAr?$AA?9?$AAs?$AAp?$AA?9?$AAc?$AAy?$AAr?$AAl?$AA?$AA@ 0000000180023e58     libucrt:lcidtoname_downlevel.obj
 0002:00006e70       ??_C@_1BG@CIOGKHPB@?$AAs?$AAr?$AA?9?$AAs?$AAp?$AA?9?$AAl?$AAa?$AAt?$AAn?$AA?$AA@ 0000000180023e70     libucrt:lcidtoname_downlevel.obj
 0002:00006e88       ??_C@_1M@NGFJLMAC@?$AAs?$AAv?$AA?9?$AAf?$AAi?$AA?$AA@ 0000000180023e88     libucrt:lcidtoname_downlevel.obj
 0002:00006e98       ??_C@_1M@MPJEJAJC@?$AAs?$AAv?$AA?9?$AAs?$AAe?$AA?$AA@ 0000000180023e98     libucrt:lcidtoname_downlevel.obj
 0002:00006ea8       ??_C@_1M@MPNDHLFK@?$AAs?$AAw?$AA?9?$AAk?$AAe?$AA?$AA@ 0000000180023ea8     libucrt:lcidtoname_downlevel.obj
 0002:00006eb8       ??_C@_1O@KOHBJJI@?$AAs?$AAy?$AAr?$AA?9?$AAs?$AAy?$AA?$AA@ 0000000180023eb8     libucrt:lcidtoname_downlevel.obj
 0002:00006ec8       ??_C@_1M@LDCEFHA@?$AAt?$AAa?$AA?9?$AAi?$AAn?$AA?$AA@ 0000000180023ec8     libucrt:lcidtoname_downlevel.obj
 0002:00006ed8       ??_C@_1M@CNJOFAK@?$AAt?$AAe?$AA?9?$AAi?$AAn?$AA?$AA@ 0000000180023ed8     libucrt:lcidtoname_downlevel.obj
 0002:00006ee8       ??_C@_1M@GNAECACD@?$AAt?$AAh?$AA?9?$AAt?$AAh?$AA?$AA@ 0000000180023ee8     libucrt:lcidtoname_downlevel.obj
 0002:00006ef8       ??_C@_1M@CHBIHOJO@?$AAt?$AAn?$AA?9?$AAz?$AAa?$AA?$AA@ 0000000180023ef8     libucrt:lcidtoname_downlevel.obj
 0002:00006f08       ??_C@_1M@GCCMIGPJ@?$AAt?$AAr?$AA?9?$AAt?$AAr?$AA?$AA@ 0000000180023f08     libucrt:lcidtoname_downlevel.obj
 0002:00006f18       ??_C@_1M@CELMCNBK@?$AAt?$AAt?$AA?9?$AAr?$AAu?$AA?$AA@ 0000000180023f18     libucrt:lcidtoname_downlevel.obj
 0002:00006f28       ??_C@_1M@KLMCELGA@?$AAu?$AAk?$AA?9?$AAu?$AAa?$AA?$AA@ 0000000180023f28     libucrt:lcidtoname_downlevel.obj
 0002:00006f38       ??_C@_1M@EPAJJAJF@?$AAu?$AAr?$AA?9?$AAp?$AAk?$AA?$AA@ 0000000180023f38     libucrt:lcidtoname_downlevel.obj
 0002:00006f48       ??_C@_1BG@GEGPMCDJ@?$AAu?$AAz?$AA?9?$AAu?$AAz?$AA?9?$AAc?$AAy?$AAr?$AAl?$AA?$AA@ 0000000180023f48     libucrt:lcidtoname_downlevel.obj
 0002:00006f60       ??_C@_1BG@EGGKJILM@?$AAu?$AAz?$AA?9?$AAu?$AAz?$AA?9?$AAl?$AAa?$AAt?$AAn?$AA?$AA@ 0000000180023f60     libucrt:lcidtoname_downlevel.obj
 0002:00006f78       ??_C@_1M@GFOCLFF@?$AAv?$AAi?$AA?9?$AAv?$AAn?$AA?$AA@ 0000000180023f78     libucrt:lcidtoname_downlevel.obj
 0002:00006f88       ??_C@_1M@CPAMEDFI@?$AAx?$AAh?$AA?9?$AAz?$AAa?$AA?$AA@ 0000000180023f88     libucrt:lcidtoname_downlevel.obj
 0002:00006f98       ??_C@_1O@EBKIFIGN@?$AAz?$AAh?$AA?9?$AAc?$AAh?$AAs?$AA?$AA@ 0000000180023f98     libucrt:lcidtoname_downlevel.obj
 0002:00006fa8       ??_C@_1O@NMHPGANE@?$AAz?$AAh?$AA?9?$AAc?$AAh?$AAt?$AA?$AA@ 0000000180023fa8     libucrt:lcidtoname_downlevel.obj
 0002:00006fb8       ??_C@_1M@LPINJOMC@?$AAz?$AAh?$AA?9?$AAc?$AAn?$AA?$AA@ 0000000180023fb8     libucrt:lcidtoname_downlevel.obj
 0002:00006fc8       ??_C@_1M@OCJEJODD@?$AAz?$AAh?$AA?9?$AAh?$AAk?$AA?$AA@ 0000000180023fc8     libucrt:lcidtoname_downlevel.obj
 0002:00006fd8       ??_C@_1M@DNDLJINH@?$AAz?$AAh?$AA?9?$AAm?$AAo?$AA?$AA@ 0000000180023fd8     libucrt:lcidtoname_downlevel.obj
 0002:00006fe8       ??_C@_1M@MBFDNDND@?$AAz?$AAh?$AA?9?$AAs?$AAg?$AA?$AA@ 0000000180023fe8     libucrt:lcidtoname_downlevel.obj
 0002:00006ff8       ??_C@_1M@IMEPLEPE@?$AAz?$AAh?$AA?9?$AAt?$AAw?$AA?$AA@ 0000000180023ff8     libucrt:lcidtoname_downlevel.obj
 0002:00007008       ??_C@_1M@BBGHNHJP@?$AAz?$AAu?$AA?9?$AAz?$AAa?$AA?$AA@ 0000000180024008     libucrt:lcidtoname_downlevel.obj
 0002:00007270       __log10_256_lead           0000000180024270     libucrt:log10_256_lead_tail_table.obj
 0002:00007a80       __log10_256_tail           0000000180024a80     libucrt:log10_256_lead_tail_table.obj
 0002:00008290       __log_F_inv_qword          0000000180025290     libucrt:log_f_inv_qword_table.obj
 0002:00008aa0       ??_C@_05HGHHAHAP@log10?$AA@ 0000000180025aa0     libucrt:log_special.obj
 0002:00008aa8       ??_C@_1BA@BALFACEM@?$AAC?$AAO?$AAN?$AAO?$AAU?$AAT?$AA$?$AA?$AA@ 0000000180025aa8     libucrt:initcon.obj
 0002:00008b00       _load_config_used          0000000180025b00     LIBCMT:loadcfg.obj
 0002:00008b98       ?_TraceLoggingMetadata@?1??_TlgWrite@__vcrt_trace_logging_provider@@YAJPEBU_TlgProvider_t@2@PEFBXPEBU_GUID@@2IPEAU_EVENT_DATA_DESCRIPTOR@@@Z@4U_TraceLoggingMetadata_t@2@B 0000000180025b98     libvcruntime:telemetry.obj
 0002:00008c4b       ?_TraceLoggingMetadataEnd@?1??_TlgWrite@__vcrt_trace_logging_provider@@YAJPEBU_TlgProvider_t@2@PEFBXPEBU_GUID@@2IPEAU_EVENT_DATA_DESCRIPTOR@@@Z@4EB 0000000180025c4b     libvcruntime:telemetry.obj
 0002:00008f60       __rtc_iaa                  0000000180025f60     LIBCMT:_initsect_.obj
 0002:00008f68       __rtc_izz                  0000000180025f68     LIBCMT:_initsect_.obj
 0002:00008f70       __rtc_taa                  0000000180025f70     LIBCMT:_initsect_.obj
 0002:00008f78       __rtc_tzz                  0000000180025f78     LIBCMT:_initsect_.obj
 0002:0000a27c       __IMPORT_DESCRIPTOR_KERNEL32 000000018002727c     kernel32:KERNEL32.dll
 0002:0000a290       __IMPORT_DESCRIPTOR_USER32 0000000180027290     user32:USER32.dll
 0002:0000a2a4       __IMPORT_DESCRIPTOR_GDI32  00000001800272a4     gdi32:GDI32.dll
 0002:0000a2b8       __IMPORT_DESCRIPTOR_ADVAPI32 00000001800272b8     advapi32:ADVAPI32.dll
 0002:0000a2cc       __IMPORT_DESCRIPTOR_SHELL32 00000001800272cc     shell32:SHELL32.dll
 0002:0000a2e0       __IMPORT_DESCRIPTOR_ole32  00000001800272e0     ole32:ole32.dll
 0002:0000a2f4       __IMPORT_DESCRIPTOR_VERSION 00000001800272f4     version:VERSION.dll
 0002:0000a308       __NULL_IMPORT_DESCRIPTOR   0000000180027308     kernel32:KERNEL32.dll
 0003:00000000       ?gsInternalCommands@@3PEB_WEB 0000000180029000     CmdLine.obj
 0003:00000010       ?Far3Func@@3PAUExportFunc@@A 0000000180029010     ConEmuTh.obj
 0003:00000058       ?gcrCurColors@@3PEAKEA     0000000180029058     ConEmuTh.obj
 0003:00000060       ?gbPreloadByDefault@@3HA   0000000180029060     ConEmuTh.obj
 0003:00000070       ?StdPalette@?1??GetStdPalette@Far3Color@@SAPEBKXZ@4PAKA 0000000180029070     ConEmuTh1900.obj
 0003:000000b0       ?guid_ConEmuTh@@3U_GUID@@A 00000001800290b0     ConEmuTh2800.obj
 0003:000000c0       ?guid_ConEmuThPluginMenu@@3U_GUID@@A 00000001800290c0     ConEmuTh2800.obj
 0003:000000d0       ?g_TerminatedThreadIdx@@3JA 00000001800290d0     WThreads.obj
 0003:000000d4       __scrt_native_dllmain_reason 00000001800290d4     LIBCMT:utility.obj
 0003:000000d8       __isa_available            00000001800290d8     LIBCMT:_cpu_disp_.obj
 0003:000000dc       __isa_enabled              00000001800290dc     LIBCMT:_cpu_disp_.obj
 0003:000000e0       __memcpy_nt_iters          00000001800290e0     LIBCMT:_cpu_disp_.obj
 0003:000000e8       __security_cookie          00000001800290e8     LIBCMT:gs_cookie.obj
 0003:000000f0       __security_cookie_complement 00000001800290f0     LIBCMT:gs_cookie.obj
 0003:00000154       __abort_behavior           0000000180029154     libucrt:abort.obj
 0003:00000170       __acrt_initial_locale_data 0000000180029170     libucrt:nlsdata.obj
 0003:000002c8       __acrt_initial_locale_pointers 00000001800292c8     libucrt:nlsdata.obj
 0003:000002d8       __acrt_wide_c_locale_string 00000001800292d8     libucrt:nlsdata.obj
 0003:000002e0       __acrt_initial_multibyte_data 00000001800292e0     libucrt:mbctype.obj
 0003:00000508       __acrt_current_multibyte_data 0000000180029508     libucrt:mbctype.obj
 0003:00000610       _mbctype                   0000000180029610     libucrt:mbctype.obj
 0003:00000720       _mbcasemap                 0000000180029720     libucrt:mbctype.obj
 0003:00000820       _iob                       0000000180029820     libucrt:_file.obj
 0003:00000928       __globallocalestatus       0000000180029928     libucrt:glstatus.obj
 0003:00000930       __acrt_lconv_c             0000000180029930     libucrt:localeconv.obj
 0003:000009c8       __acrt_lconv_static_decimal 00000001800299c8     libucrt:localeconv.obj
 0003:000009cc       __acrt_lconv_static_W_decimal 00000001800299cc     libucrt:localeconv.obj
 0003:000009d0       __dcrt_lowio_console_output_handle 00000001800299d0     libucrt:initcon.obj
 0003:000009f0       _fltused                   00000001800299f0     LIBCMT:fltused.obj
 0003:00000a00       ?gbInCommonShutdown@@3HA   0000000180029a00     Common.obj
 0003:00000a08       ?gpLocalSecurity@@3PEAU_SECURITY_ATTRIBUTES@@EA 0000000180029a08     ConEmuCheck.obj
 0003:00000a10       ?ghWorkingModule@@3_KA     0000000180029a10     ConEmuCheck.obj
 0003:00000a18       ?gfGetRealConsoleWindow@@3P6APEAUHWND__@@XZEA 0000000180029a18     ConEmuCheck.obj
 0003:00000a60       ?gThSet@@3UPanelViewSetMapping@@A 0000000180029a60     ConEmuTh.obj
 0003:00000c78       ?ghConEmuRoot@@3PEAUHWND__@@EA 0000000180029c78     ConEmuTh.obj
 0003:00000c80       ?gThPal@@3UCESERVER_PALETTE@@A 0000000180029c80     ConEmuTh.obj
 0003:00000d00       ?ghConEmuWnd@@3PEAUHWND__@@EA 0000000180029d00     ConEmuTh.obj
 0003:00000d08       ?ghPluginModule@@3PEAUHINSTANCE__@@EA 0000000180029d08     ConEmuTh.obj
 0003:00000d10       ?gnSelfPID@@3KA            0000000180029d10     ConEmuTh.obj
 0003:00000d14       ?gnMainThreadId@@3KA       0000000180029d14     ConEmuTh.obj
 0003:00000d18       ?gFarVersion@@3UFarVersion@@A 0000000180029d18     ConEmuTh.obj
 0003:00000d24       ?gnDisplayThreadId@@3KA    0000000180029d24     ConEmuTh.obj
 0003:00000d28       ?ghDisplayThread@@3PEAXEA  0000000180029d28     ConEmuTh.obj
 0003:00000d30       ?pviLeft@@3UCeFullPanelInfo@@A 0000000180029d30     ConEmuTh.obj
 0003:00000ff0       ?pviRight@@3UCeFullPanelInfo@@A 0000000180029ff0     ConEmuTh.obj
 0003:000012b0       ?gnWaitForKeySeqTick@@3KA  000000018002a2b0     ConEmuTh.obj
 0003:000012b4       ?gFarPanelSettings@@3UCEFarPanelSettings@@A 000000018002a2b4     ConEmuTh.obj
 0003:000012b8       ?gFarInterfaceSettings@@3UCEFarInterfaceSettings@@A 000000018002a2b8     ConEmuTh.obj
 0003:000012bc       ?gbFadeColors@@3_NA        000000018002a2bc     ConEmuTh.obj
 0003:000012bd       ?gbFarPanelsReady@@3_NA    000000018002a2bd     ConEmuTh.obj
 0003:000012be       ?gbSynchoRedrawPanelRequested@@3_NA 000000018002a2be     ConEmuTh.obj
 0003:000012bf       ?gbConsoleChangesSyncho@@3_NA 000000018002a2bf     ConEmuTh.obj
 0003:000012c0       ?gsFolder@@3PA_WA          000000018002a2c0     ConEmuTh.obj
 0003:00001340       ?gsSymLink@@3PA_WA         000000018002a340     ConEmuTh.obj
 0003:000013c0       ?gsJunction@@3PA_WA        000000018002a3c0     ConEmuTh.obj
 0003:00001440       ?gsTitleThumbs@@3PA_WA     000000018002a440     ConEmuTh.obj
 0003:000014c0       ?gsTitleTiles@@3PA_WA      000000018002a4c0     ConEmuTh.obj
 0003:00001540       ?gpRgnDetect@@3PEAVCRgnDetect@@EA 000000018002a540     ConEmuTh.obj
 0003:00001548       ?gnRgnDetectFlags@@3KA     000000018002a548     ConEmuTh.obj
 0003:0000154c       ?TerminalMode@@3HA         000000018002a54c     ConEmuTh.obj
 0003:00001550       ?gFarInfo@@3UCEFAR_INFO_MAPPING@@A 000000018002a550     ConEmuTh.obj
 0003:00021888       ?gpLastSynchroArg@@3PEAUConEmuThSynchroArg@@EA 000000018004a888     ConEmuTh.obj
 0003:00021890       ?gfRegisterPanelView@@3P6AHPEAUPanelViewInit@@@ZEA 000000018004a890     ConEmuTh.obj
 0003:00021898       ?gfGetFarHWND2@@3P6APEAUHWND__@@H@ZEA 000000018004a898     ConEmuTh.obj
 0003:000218a0       ?gdwModes@@3PAKA           000000018004a8a0     ConEmuTh.obj
 0003:000218a8       ?gnMainThreadIdInitial@@3KA 000000018004a8a8     ConEmuTh.obj
 0003:000218ac       ?wScanCodeUp@@3GA          000000018004a8ac     ConEmuTh.obj
 0003:000218b0       ?gsHardLink@@3PA_WA        000000018004a8b0     ConEmuTh.obj
 0003:00021930       ?wScanCodeDown@@3GA        000000018004a930     ConEmuTh.obj
 0003:00021934       ?gnConsoleChanges@@3KA     000000018004a934     ConEmuTh.obj
 0003:00021938       ?gpDbgDlg@@3PEAV?$MFileMapping@Utag_DetectedDialog@@@@EA 000000018004a938     ConEmuTh.obj
 0003:00021940       ?gbInfoW_OK@@3HA           000000018004a940     ConEmuTh.obj
 0003:00021948       ?gpImgCache@@3PEAVCImgCache@@EA 000000018004a948     ConEmuTh.obj
 0003:00021958       ?InfoW1900@@3PEAUPluginStartupInfo@@EA 000000018004a958     ConEmuTh1900.obj
 0003:00021960       ?FSFW1900@@3PEAUFarStandardFunctions@@EA 000000018004a960     ConEmuTh1900.obj
 0003:00021968       ?LastColor@?1??Color2FgIndex@Far3Color@@SAXKAEAGPEBK@Z@4KA 000000018004a968     ConEmuTh1900.obj
 0003:0002196c       ?LastIndex@?1??Color2FgIndex@Far3Color@@SAXKAEAGPEBK@Z@4HA 000000018004a96c     ConEmuTh1900.obj
 0003:00021970       ?LastColor@?1??Color2BgIndex@Far3Color@@SAXKHAEAGPEBK@Z@4KA 000000018004a970     ConEmuTh1900.obj
 0003:00021974       ?LastIndex@?1??Color2BgIndex@Far3Color@@SAXKHAEAGPEBK@Z@4HA 000000018004a974     ConEmuTh1900.obj
 0003:00021b80       ?InfoW2800@@3PEAUPluginStartupInfo@@EA 000000018004ab80     ConEmuTh2800.obj
 0003:00021b88       ?FSFW2800@@3PEAUFarStandardFunctions@@EA 000000018004ab88     ConEmuTh2800.obj
 0003:00021da0       ?InfoW995@@3PEAUPluginStartupInfo@@EA 000000018004ada0     ConEmuTh995.obj
 0003:00021da8       ?FSFW995@@3PEAUFarStandardFunctions@@EA 000000018004ada8     ConEmuTh995.obj
 0003:00021fc0       ?InfoA@@3PEAUPluginStartupInfo@@EA 000000018004afc0     ConEmuThA.obj
 0003:00021fc8       ?FSFA@@3PEAUFarStandardFunctions@@EA 000000018004afc8     ConEmuThA.obj
 0003:000220e8       ?ghCreateEvent@@3PEAXEA    000000018004b0e8     Display.obj
 0003:000220f0       ?gnConEmuFadeMsg@@3IA      000000018004b0f0     Display.obj
 0003:000220f4       ?gnConEmuSettingsMsg@@3IA  000000018004b0f4     Display.obj
 0003:000220f8       ?gnMapCoordMsg@@3IA        000000018004b0f8     Display.obj
 0003:000220fc       ?gbCancelAll@@3HA          000000018004b0fc     Display.obj
 0003:00022100       ?gnCreateViewError@@3HA    000000018004b100     Display.obj
 0003:00022104       ?gnWin32Error@@3KA         000000018004b104     Display.obj
 0003:00022108       ?hkFunc@@3UHkFunc@@A       000000018004b108     HkFunc.obj
 0003:00022110       ?ghUpIcon@@3PEAUHICON__@@EA 000000018004b110     ImgCache.obj
 0003:00022118       ?AssertMsgBox@@3P6AHPEB_WI0PEAUHWND__@@_N@ZEA 000000018004b118     MAssert.obj
 0003:00022120       ?gfnHooksUnlockerProc@@3P6A_N_N@ZEA 000000018004b120     MAssert.obj
 0003:00022128       ?ghHeap@@3PEAXEA           000000018004b128     Memory.obj
 0003:00022138       ?gNullDesc@@3PEAVMNullDesc@@EA 000000018004b138     MSecurity.obj
 0003:00022148       ?gfnSearchAppPaths@@3P6A_NPEB_WAEAUCEStr@@_NPEAU1@@ZEA 000000018004b148     WObjects.obj
 0003:00022160       ?g_ThreadsIdx@@3JA         000000018004b160     WThreads.obj
 0003:0002a978       __scrt_current_native_startup_state 0000000180053978     LIBCMT:utility.obj
 0003:0002a980       __scrt_native_startup_lock 0000000180053980     LIBCMT:utility.obj
 0003:0002a9c0       ?__type_info_root_node@@3U__type_info_node@@A 00000001800539c0     LIBCMT:tncleanup.obj
 0003:0002a9d0       ?_OptionsStorage@?1??__local_stdio_printf_options@@9@4_KA 00000001800539d0     LIBCMT:default_local_stdio_options.obj
 0003:0002a9d8       ?_OptionsStorage@?1??__local_stdio_scanf_options@@9@4_KA 00000001800539d8     LIBCMT:default_local_stdio_options.obj
 0003:0002a9e0       __scrt_debugger_hook_flag  00000001800539e0     LIBCMT:utility_desktop.obj
 0003:0002a9e4       __favor                    00000001800539e4     LIBCMT:_cpu_disp_.obj
 0003:0002ab08       __pPurecall                0000000180053b08     libvcruntime:purevirt_data.obj
 0003:0002ab10       ?pArgList@UnDecorator@@0PEAVReplicator@@EA 0000000180053b10     libvcruntime:undname.obj
 0003:0002ab18       ?pZNameList@UnDecorator@@0PEAVReplicator@@EA 0000000180053b18     libvcruntime:undname.obj
 0003:0002ab20       ?pTemplateArgList@UnDecorator@@0PEAVReplicator@@EA 0000000180053b20     libvcruntime:undname.obj
 0003:0002ab28       ?gName@UnDecorator@@0PEBDEB 0000000180053b28     libvcruntime:undname.obj
 0003:0002ab30       ?name@UnDecorator@@0PEBDEB 0000000180053b30     libvcruntime:undname.obj
 0003:0002ab38       ?outputString@UnDecorator@@0PEADEA 0000000180053b38     libvcruntime:undname.obj
 0003:0002ab40       ?maxStringLength@UnDecorator@@0HA 0000000180053b40     libvcruntime:undname.obj
 0003:0002ab44       ?disableFlags@UnDecorator@@0KA 0000000180053b44     libvcruntime:undname.obj
 0003:0002ab48       ?fExplicitTemplateParams@UnDecorator@@0_NA 0000000180053b48     libvcruntime:undname.obj
 0003:0002ab49       ?fGetTemplateArgumentList@UnDecorator@@0_NA 0000000180053b49     libvcruntime:undname.obj
 0003:0002ab50       ?m_pGetParameter@UnDecorator@@0P6APEADJ@ZEA 0000000180053b50     libvcruntime:undname.obj
 0003:0002ab98       _environ_table             0000000180053b98     libucrt:environment_initialization.obj
 0003:0002aba0       _wenviron_table            0000000180053ba0     libucrt:environment_initialization.obj
 0003:0002aba8       __dcrt_initial_wide_environment 0000000180053ba8     libucrt:environment_initialization.obj
 0003:0002abb0       __dcrt_initial_narrow_environment 0000000180053bb0     libucrt:environment_initialization.obj
 0003:0002abb8       __acrt_atexit_table        0000000180053bb8     libucrt:onexit.obj
 0003:0002abd0       __acrt_at_quick_exit_table 0000000180053bd0     libucrt:onexit.obj
 0003:0002abf0       __acrt_locale_changed_data 0000000180053bf0     libucrt:wsetlocale.obj
 0003:0002abf8       __acrt_current_locale_data 0000000180053bf8     libucrt:nlsdata.obj
 0003:0002afb4       __mbcodepage               0000000180053fb4     libucrt:mbctype.obj
 0003:0002afb8       __ismbcodepage             0000000180053fb8     libucrt:mbctype.obj
 0003:0002afc0       __mbulinfo                 0000000180053fc0     libucrt:mbctype.obj
 0003:0002afd0       __mblocalename             0000000180053fd0     libucrt:mbctype.obj
 0003:0002afe0       __acrt_heap                0000000180053fe0     libucrt:heap_handle.obj
 0003:0002aff0       __pioinfo                  0000000180053ff0     libucrt:ioinit.obj
 0003:0002b3f0       _nhandle                   00000001800543f0     libucrt:ioinit.obj
 0003:0002b3f8       __argv                     00000001800543f8     libucrt:argv_data.obj
 0003:0002b400       __wargv                    0000000180054400     libucrt:argv_data.obj
 0003:0002b408       _acmdln                    0000000180054408     libucrt:argv_data.obj
 0003:0002b410       _wcmdln                    0000000180054410     libucrt:argv_data.obj
 0003:0002b448       __acrt_stdout_buffer       0000000180054448     libucrt:_sftbuf.obj
 0003:0002b450       __acrt_stderr_buffer       0000000180054450     libucrt:_sftbuf.obj
 0003:0002b460       _nstream                   0000000180054460     libucrt:_file.obj
 0003:0002b468       __piob                     0000000180054468     libucrt:_file.obj
 0003:0002b470       __acrt_lconv_static_null   0000000180054470     libucrt:localeconv.obj
 0003:0002b474       __acrt_lconv_static_W_null 0000000180054474     libucrt:localeconv.obj
 0003:0002b47c       __fma3_is_available        000000018005447c     libucrt:fma3_available.obj
 0003:0002b480       __use_fma3_lib             0000000180054480     libucrt:fma3_available.obj
 0003:0002ba00       __scrt_ucrt_dll_is_in_use  0000000180054a00     <common>
 0003:0002ba08       __dyn_tls_init_callback    0000000180054a08     <common>
 0003:0002ba10       _pDestructExceptionObject  0000000180054a10     <common>

 entry point at        0001:00013044

 Static symbols

 0001:00000e74       ?ChangeExports@@YA_NPEBUExportFunc@@PEAUHINSTANCE__@@@Z 0000000180001e74 f   ConEmuTh.obj
 0001:00001ff4       ?LoadModuleVersion@@YA_NPEB_WAEAUtagVS_FIXEDFILEINFO@@PEA_W_K@Z 0000000180002ff4 f   ConEmuTh.obj
 0001:00003d78       ?GetFarSetting@@YAHPEAX_KPEB_W@Z 0000000180004d78 f   ConEmuTh1900.obj
 0001:00003e64       ?LoadFarSettingsW1900@@YAXPEAUCEFarInterfaceSettings@@PEAUCEFarPanelSettings@@@Z 0000000180004e64 f   ConEmuTh1900.obj
 0001:00004fdc       ?GetFarSetting@@YAHPEAX_KPEB_W@Z 0000000180005fdc f   ConEmuTh2800.obj
 0001:000050d0       ?LoadFarSettingsW2800@@YAXPEAUCEFarInterfaceSettings@@PEAUCEFarPanelSettings@@@Z 00000001800060d0 f   ConEmuTh2800.obj
 0001:00006510       ?LoadFarSettingsW995@@YAXPEAUCEFarInterfaceSettings@@PEAUCEFarPanelSettings@@@Z 0000000180007510 f   ConEmuTh995.obj
 0001:00007124       ?LoadFarSettingsA@@YAXPEAUCEFarInterfaceSettings@@PEAUCEFarPanelSettings@@@Z 0000000180008124 f   ConEmuThA.obj
 0001:0000d8ec       ?compare@cmp@?1??Find@MToolHelpProcess@@QEAA_NKPEAUtagPROCESSENTRY32W@@@Z@SA_N0_J@Z 000000018000e8ec f   MProcess.obj
 0001:00012ce8       ?dllmain_crt_dispatch@@YAHQEAUHINSTANCE__@@KQEAX@Z 0000000180013ce8 f   LIBCMT:dll_dllmain.obj
 0001:00012d38       ?dllmain_crt_process_attach@@YAHQEAUHINSTANCE__@@QEAX@Z 0000000180013d38 f   LIBCMT:dll_dllmain.obj
 0001:00012e64       ?dllmain_crt_process_detach@@YAH_N@Z 0000000180013e64 f   LIBCMT:dll_dllmain.obj
 0001:00012ee8       ?dllmain_dispatch@@YAHQEAUHINSTANCE__@@KQEAX@Z 0000000180013ee8 f   LIBCMT:dll_dllmain.obj
 0001:00012ff0       ?dllmain_raw@@YAHQEAUHINSTANCE__@@KQEAX@Z 0000000180013ff0 f   LIBCMT:dll_dllmain.obj
 0001:00013910       $$000000                   0000000180014910     libvcruntime:memcpy.obj
 0001:000139b7       MoveSmall                  00000001800149b7     libvcruntime:memcpy.obj
 0001:00013fe0       $$000000                   0000000180014fe0     libvcruntime:memset.obj
 0001:000140cc       MsetTab                    00000001800150cc     libvcruntime:memset.obj
 0001:00014190       $$000000                   0000000180015190     libvcruntime:memcmp.obj
 0001:000144e4       _TlgDefineProvider_annotation__Tlg_Microsoft_CRTProviderProv 00000001800154e4 f   libvcruntime:telemetry.obj
 0001:00014820       $$000000                   0000000180015820     libvcruntime:_jmpuwind_.obj
 0001:00014898       ?try_get_function@@YAPEAXW4function_id@?A0x61ce2399@@QEBDQEBW4module_id@2@2@Z 0000000180015898 f   libvcruntime:winapi_downlevel.obj
 0001:000153f8       ?atexit_exception_filter@@YAHK@Z 00000001800163f8 f   libucrt:exit.obj
 0001:00015404       ?common_exit@@YAXHW4_crt_exit_cleanup_mode@@W4_crt_exit_return_mode@@@Z 0000000180016404 f   libucrt:exit.obj
 0001:00015570       ?exit_or_terminate_process@@YAXI@Z 0000000180016570 f   libucrt:exit.obj
 0001:000155bc       ?try_cor_exit_process@@YAXI@Z 00000001800165bc f   libucrt:exit.obj
 0001:00015654       ??$common_initialize_environment_nolock@D@@YAHXZ 0000000180016654 f   libucrt:environment_initialization.obj
 0001:000156c0       ??$create_environment@D@@YAQEAPEADQEAD@Z 00000001800166c0 f   libucrt:environment_initialization.obj
 0001:000157bc       ??$free_environment@_W@@YAXQEAPEA_W@Z 00000001800167bc f   libucrt:environment_initialization.obj
 0001:000157bc       ??$free_environment@D@@YAXQEAPEAD@Z 00000001800167bc f   libucrt:environment_initialization.obj
 0001:00015800       ??$uninitialize_environment_internal@D@@YAXAEAPEAPEAD@Z 0000000180016800 f   libucrt:environment_initialization.obj
 0001:0001581c       ??$uninitialize_environment_internal@_W@@YAXAEAPEAPEA_W@Z 000000018001681c f   libucrt:environment_initialization.obj
 0001:00015a54       ??R<lambda_4e60a939b0d047cfe11ddc22648dfba9>@@QEBAHXZ 0000000180016a54 f   libucrt:onexit.obj
 0001:00015d04       initialize_global_variables 0000000180016d04 f   libucrt:initialization.obj
 0001:00015d18       initialize_c               0000000180016d18 f   libucrt:initialization.obj
 0001:00015d3c       uninitialize_environment   0000000180016d3c f   libucrt:initialization.obj
 0001:00015d4c       uninitialize_c             0000000180016d4c f   libucrt:initialization.obj
 0001:00015d4c       report_memory_leaks        0000000180016d4c f   libucrt:initialization.obj
 0001:00015d4c       initialize_global_state_isolation 0000000180016d4c f   libucrt:initialization.obj
 0001:00015d4c       uninitialize_global_state_isolation 0000000180016d4c f   libucrt:initialization.obj
 0001:00015d4c       initialize_environment     0000000180016d4c f   libucrt:initialization.obj
 0001:00015d50       initialize_pointers        0000000180016d50 f   libucrt:initialization.obj
 0001:00015da4       uninitialize_vcruntime     0000000180016da4 f   libucrt:initialization.obj
 0001:00015dac       uninitialize_allocated_memory 0000000180016dac f   libucrt:initialization.obj
 0001:00016534       ?construct_ptd_array@@YAXQEAU__acrt_ptd@@@Z 0000000180017534 f   libucrt:per_thread_data.obj
 0001:00016604       ?destroy_fls@@YAXPEAX@Z    0000000180017604 f   libucrt:per_thread_data.obj
 0001:00016624       ?destroy_ptd_array@@YAXQEAU__acrt_ptd@@@Z 0000000180017624 f   libucrt:per_thread_data.obj
 0001:0001671c       ?replace_current_thread_locale_nolock@@YAXQEAU__acrt_ptd@@QEAU__crt_locale_data@@@Z 000000018001771c f   libucrt:per_thread_data.obj
 0001:00016ad0       ?try_get_function@@YAPEAXW4function_id@?A0x63058377@@QEBDQEBW4module_id@2@2@Z 0000000180017ad0 f   libucrt:winapi_thunks.obj
 0001:000170ec       ??R<lambda_ad1ced32f4ac17aa236e5ef05d6b3b7c>@@QEBAXXZ 00000001800180ec f   libucrt:mbctype.obj
 0001:00017304       ?getSystemCP@@YAHH@Z       0000000180018304 f   libucrt:mbctype.obj
 0001:00017384       ?setSBCS@@YAXPEAU__crt_multibyte_data@@@Z 0000000180018384 f   libucrt:mbctype.obj
 0001:00017414       ?setSBUpLow@@YAXPEAU__crt_multibyte_data@@@Z 0000000180018414 f   libucrt:mbctype.obj
 0001:000175f8       ?setmbcp_internal@@YAHH_N@Z 00000001800185f8 f   libucrt:mbctype.obj
 0001:00017d0c       ?initialize_inherited_file_handles_nolock@@YAXXZ 0000000180018d0c f   libucrt:ioinit.obj
 0001:00017df8       ?initialize_stdio_handles_nolock@@YAXXZ 0000000180018df8 f   libucrt:ioinit.obj
 0001:00018f28       ?free_crt_array_internal@@YAXQEAPEBX_K@Z 0000000180019f28 f   libucrt:inittime.obj
 0001:00019088       ?GetTableIndexFromLocaleName@@YAHPEB_W@Z 000000018001a088 f   libucrt:lcidtoname_downlevel.obj
 0001:00019184       ?initialize_multibyte@@YAHXZ 000000018001a184 f   libucrt:multibyte_initializer.obj
 0001:0001919c       ?__acrt_LCMapStringA_stat@@YAHPEAU__crt_locale_pointers@@PEB_WKPEBDHPEADHHH@Z 000000018001a19c f   libucrt:lcmapstringa.obj
 0001:00019a9c       common_flush_all           000000018001aa9c f   libucrt:fflush.obj
 0001:00019db4       ?write_double_translated_ansi_nolock@@YA?AUwrite_result@?A0x9c548279@@HQEBDI@Z 000000018001adb4 f   libucrt:write.obj
 0001:00019fbc       ?write_text_ansi_nolock@@YA?AUwrite_result@?A0x9c548279@@HQEBDI@Z 000000018001afbc f   libucrt:write.obj
 0001:0001a0c4       ?write_text_utf16le_nolock@@YA?AUwrite_result@?A0x9c548279@@HQEBDI@Z 000000018001b0c4 f   libucrt:write.obj
 0001:0001a1e0       ?write_text_utf8_nolock@@YA?AUwrite_result@?A0x9c548279@@HQEBDI@Z 000000018001b1e0 f   libucrt:write.obj
 0001:0001a730       $$000000                   000000018001b730     libucrt:log10.obj
 0001:0001acdc       ??$common_lseek_nolock@_J@@YA_JH_JH@Z 000000018001bcdc f   libucrt:lseek.obj
 0001:0001aecc       _call_matherr              000000018001becc f   libucrt:libm_error.obj
 0001:0001af34       _exception_enabled         000000018001bf34 f   libucrt:libm_error.obj
 0001:0001b1b0       _log_special_common        000000018001c1b0 f   libucrt:log_special.obj
 0001:0001b4c0       $$000000                   000000018001c4c0     libucrt:fpsr.obj
 0001:0001bab0       $$000000                   000000018001cab0     LIBCMT:_amdsecgs_.obj
 0001:0001bbec       capture_previous_context   000000018001cbec f   LIBCMT:gs_report.obj
 0001:0001bc60       $$000000                   000000018001cc60     LIBCMT:_chkstk_.obj
 0001:0001bcd0       $$000000                   000000018001ccd0     LIBCMT:_guard_dispatch_.obj
 0001:0001bcf0       ?fin$0@?0??dllmain_crt_process_attach@@YAHQEAUHINSTANCE__@@QEAX@Z@4HA 000000018001ccf0 f   LIBCMT:dll_dllmain.obj
 0001:0001bd07       ?fin$0@?0??dllmain_crt_process_detach@@YAH_N@Z@4HA 000000018001cd07 f   LIBCMT:dll_dllmain.obj
 0001:0001bd23       ?filt$0@?0??dllmain_dispatch@@YAHQEAUHINSTANCE__@@KQEAX@Z@4HA 000000018001cd23 f   LIBCMT:dll_dllmain.obj
 0001:0001bd59       __scrt_is_nonwritable_in_current_image$filt$0 000000018001cd59 f   LIBCMT:utility.obj
 0001:0001bd71       ?filt$0@?0??common_exit@@YAXHW4_crt_exit_cleanup_mode@@W4_crt_exit_return_mode@@@Z@4HA 000000018001cd71 f   libucrt:exit.obj
 0001:0001bd8c       ?fin$1@?0??common_exit@@YAXHW4_crt_exit_cleanup_mode@@W4_crt_exit_return_mode@@@Z@4HA 000000018001cd8c f   libucrt:exit.obj
 0001:0001bda5       ?fin$0@?0???$?RV<lambda_e24bbb7b643b32fcea6fa61b31d4c984>@@AEAV<lambda_275893d493268fdec8709772e3fcec0e>@@V<lambda_9d71df4d7cf3f480f8d633942495c3b0>@@@?$__crt_seh_guarded_call@H@@QEAAH$$QEAV<lambda_e24bbb7b643b32fcea6fa61b31d4c984>@@AEAV<lambda_275893d493268fdec8709772e3fcec0e>@@$$QEAV<lambda_9d71df4d7cf3f480f8d633942495c3b0>@@@Z@4HA 000000018001cda5 f   libucrt:onexit.obj
 0001:0001bdc2       ?fin$0@?0???$?RV<lambda_5e887d1dcbef67a5eb4283622ba103bf>@@AEAV<lambda_4466841279450cc726390878d4a41900>@@V<lambda_341c25c0346d94847f1f3c463c57e077>@@@?$__crt_seh_guarded_call@X@@QEAAX$$QEAV<lambda_5e887d1dcbef67a5eb4283622ba103bf>@@AEAV<lambda_4466841279450cc726390878d4a41900>@@$$QEAV<lambda_341c25c0346d94847f1f3c463c57e077>@@@Z@4HA 000000018001cdc2 f   libucrt:per_thread_data.obj
 0001:0001bdc2       ?fin$0@?0???$?RV<lambda_99476a1ad63dd22509b5d3e65b0ffc95>@@AEAV<lambda_ad1ced32f4ac17aa236e5ef05d6b3b7c>@@V<lambda_f7424dd8d45958661754dc4f2697e9c3>@@@?$__crt_seh_guarded_call@X@@QEAAX$$QEAV<lambda_99476a1ad63dd22509b5d3e65b0ffc95>@@AEAV<lambda_ad1ced32f4ac17aa236e5ef05d6b3b7c>@@$$QEAV<lambda_f7424dd8d45958661754dc4f2697e9c3>@@@Z@4HA 000000018001cdc2 f   libucrt:mbctype.obj
 0001:0001bdc2       ?fin$0@?0???$?RV<lambda_fb3a7dec4e47f37f22dae91bb15c9095>@@AEAV<lambda_698284760c8add0bfb0756c19673e34b>@@V<lambda_dfb8eca1e75fef3034a8fb18dd509707>@@@?$__crt_seh_guarded_call@X@@QEAAX$$QEAV<lambda_fb3a7dec4e47f37f22dae91bb15c9095>@@AEAV<lambda_698284760c8add0bfb0756c19673e34b>@@$$QEAV<lambda_dfb8eca1e75fef3034a8fb18dd509707>@@@Z@4HA 000000018001cdc2 f   libucrt:per_thread_data.obj
 0001:0001bdc2       ?fin$0@?0???$?RV<lambda_72d1df2b273a38828b1ce30cbf4cdab5>@@AEAV<lambda_876a65b173b8412d3a47c70a915b0cf4>@@V<lambda_41932305e351933ebe8f8be3ed8bb5dc>@@@?$__crt_seh_guarded_call@X@@QEAAX$$QEAV<lambda_72d1df2b273a38828b1ce30cbf4cdab5>@@AEAV<lambda_876a65b173b8412d3a47c70a915b0cf4>@@$$QEAV<lambda_41932305e351933ebe8f8be3ed8bb5dc>@@@Z@4HA 000000018001cdc2 f   libucrt:per_thread_data.obj
 0001:0001bdc2       ?fin$0@?0???$?RV<lambda_46352004c1216016012b18bd6f87e700>@@AEAV<lambda_3bd07e1a1191394380780325891bf33f>@@V<lambda_334532d3f185bcaa59b5be82d7d22bff>@@@?$__crt_seh_guarded_call@X@@QEAAX$$QEAV<lambda_46352004c1216016012b18bd6f87e700>@@AEAV<lambda_3bd07e1a1191394380780325891bf33f>@@$$QEAV<lambda_334532d3f185bcaa59b5be82d7d22bff>@@@Z@4HA 000000018001cdc2 f   libucrt:per_thread_data.obj
 0001:0001bdc2       ?fin$0@?0???$?RV<lambda_c36588078e9f5dfd39652860aa6b3aaf>@@AEAV<lambda_ec61778202f4f5fc7e7711acc23c3bca>@@V<lambda_dc9d2797ccde5d239b4a0efae8ebd7db>@@@?$__crt_seh_guarded_call@P6AXH@Z@@QEAAP6AXH@Z$$QEAV<lambda_c36588078e9f5dfd39652860aa6b3aaf>@@AEAV<lambda_ec61778202f4f5fc7e7711acc23c3bca>@@$$QEAV<lambda_dc9d2797ccde5d239b4a0efae8ebd7db>@@@Z@4HA 000000018001cdc2 f   libucrt:signal.obj
 0001:0001bdc2       ?fin$0@?0???$?RV<lambda_b8c45f8f788dd370798f47cfe8ac3a86>@@AEAV<lambda_4e60a939b0d047cfe11ddc22648dfba9>@@V<lambda_332c3edc96d0294ec56c57d38c1cdfd5>@@@?$__crt_seh_guarded_call@H@@QEAAH$$QEAV<lambda_b8c45f8f788dd370798f47cfe8ac3a86>@@AEAV<lambda_4e60a939b0d047cfe11ddc22648dfba9>@@$$QEAV<lambda_332c3edc96d0294ec56c57d38c1cdfd5>@@@Z@4HA 000000018001cdc2 f   libucrt:onexit.obj
 0001:0001bddc       __acrt_update_thread_locale_data$fin$0 000000018001cddc f   libucrt:locale_refcounting.obj
 0001:0001bddc       __acrt_uninitialize_locale$fin$0 000000018001cddc f   libucrt:wsetlocale.obj
 0001:0001bdf5       __acrt_update_thread_multibyte_data$fin$0 000000018001cdf5 f   libucrt:mbctype.obj
 0001:0001be0e       _query_new_handler$fin$0   000000018001ce0e f   libucrt:new_handler.obj
 0001:0001be24       raise$fin$0                000000018001ce24 f   libucrt:signal.obj
 0001:0001be48       __acrt_lowio_ensure_fh_exists$fin$0 000000018001ce48 f   libucrt:osfinfo.obj
 0001:0001be48       __acrt_initialize_lowio$fin$0 000000018001ce48 f   libucrt:ioinit.obj
 0001:0001be61       common_flush_all$fin$0     000000018001ce61 f   libucrt:fflush.obj
 0001:0001be7b       common_flush_all$fin$1     000000018001ce7b f   libucrt:fflush.obj
 0001:0001be94       _fcloseall$fin$0           000000018001ce94 f   libucrt:closeall.obj
 0001:0001bead       ?fin$0@?0???$?RV<lambda_b521505b218e5242e90febf6bfebc422>@@AEAV<lambda_6978c1fb23f02e42e1d9e99668cc68aa>@@V<lambda_314360699dd331753a4119843814e9a7>@@@?$__crt_seh_guarded_call@H@@QEAAH$$QEAV<lambda_b521505b218e5242e90febf6bfebc422>@@AEAV<lambda_6978c1fb23f02e42e1d9e99668cc68aa>@@$$QEAV<lambda_314360699dd331753a4119843814e9a7>@@@Z@4HA 000000018001cead f   libucrt:commit.obj
 0001:0001bead       ?fin$0@?0???$?RV<lambda_bfedae4ebbf01fab1bb6dcc6a9e276e0>@@AEAV<lambda_2fe9b910cf3cbf4a0ab98a02ba45b3ec>@@V<lambda_237c231691f317818eb88cc1d5d642d6>@@@?$__crt_seh_guarded_call@H@@QEAAH$$QEAV<lambda_bfedae4ebbf01fab1bb6dcc6a9e276e0>@@AEAV<lambda_2fe9b910cf3cbf4a0ab98a02ba45b3ec>@@$$QEAV<lambda_237c231691f317818eb88cc1d5d642d6>@@@Z@4HA 000000018001cead f   libucrt:close.obj
 0001:0001bec7       _write$fin$0               000000018001cec7 f   libucrt:write.obj
 0001:0001bede       fclose$fin$0               000000018001cede f   libucrt:fclose.obj
 0001:0001bef6       _ctrlfp$filt$0             000000018001cef6 f   libucrt:fpctrl.obj
 0001:0001bf30       _IsNonwritableInCurrentImage$filt$0 000000018001cf30 f   LIBCMT:pesect.obj
 0002:00001540       ?gsDisplayClassName@@3QB_WB 000000018001e540     Display.obj
 0002:00001bf8       ?module_names@?A0x61ce2399@@3QBQEB_WB 000000018001ebf8     libvcruntime:winapi_downlevel.obj
 0002:00001cc4       ?candidate_modules@?1??try_get_EventRegister@@YAP6AKPEBU_GUID@@P6AX0KE_K1PEAU_EVENT_FILTER_DESCRIPTOR@@PEAX@Z3PEA_K@ZXZ@4QBW4module_id@?A0x61ce2399@@B 000000018001ecc4     libvcruntime:winapi_downlevel.obj
 0002:00001cd8       ?candidate_modules@?1??try_get_EventSetInformation@@YAP6AK_KW4_EVENT_INFO_CLASS@@PEAXK@ZXZ@4QBW4module_id@?A0x61ce2399@@B 000000018001ecd8     libvcruntime:winapi_downlevel.obj
 0002:00001cf4       ?candidate_modules@?1??try_get_EventUnregister@@YAP6AK_K@ZXZ@4QBW4module_id@?A0x61ce2399@@B 000000018001ecf4     libvcruntime:winapi_downlevel.obj
 0002:00001d08       ?candidate_modules@?1??try_get_EventWriteTransfer@@YAP6AK_KPEBU_EVENT_DESCRIPTOR@@PEBU_GUID@@2KPEAU_EVENT_DATA_DESCRIPTOR@@@ZXZ@4QBW4module_id@?A0x61ce2399@@B 000000018001ed08     libvcruntime:winapi_downlevel.obj
 0002:00001d28       ?candidate_modules@?1??try_get_FlsAlloc@@YAP6AKP6AXPEAX@Z@ZXZ@4QBW4module_id@?A0x61ce2399@@B 000000018001ed28     libvcruntime:winapi_downlevel.obj
 0002:00001d40       ?candidate_modules@?1??try_get_FlsFree@@YAP6AHK@ZXZ@4QBW4module_id@?A0x61ce2399@@B 000000018001ed40     libvcruntime:winapi_downlevel.obj
 0002:00001d50       ?candidate_modules@?1??try_get_FlsGetValue@@YAP6APEAXK@ZXZ@4QBW4module_id@?A0x61ce2399@@B 000000018001ed50     libvcruntime:winapi_downlevel.obj
 0002:00001d68       ?candidate_modules@?1??try_get_FlsSetValue@@YAP6AHKPEAX@ZXZ@4QBW4module_id@?A0x61ce2399@@B 000000018001ed68     libvcruntime:winapi_downlevel.obj
 0002:00001d80       ?candidate_modules@?1??try_get_InitializeCriticalSectionEx@@YAP6AHPEAU_RTL_CRITICAL_SECTION@@KK@ZXZ@4QBW4module_id@?A0x61ce2399@@B 000000018001ed80     libvcruntime:winapi_downlevel.obj
 0002:00002270       ?rttiTable@@3QBQEBDB       000000018001f270     libvcruntime:undname.obj
 0002:000022a0       ?tokenTable@@3QBQEBDB      000000018001f2a0     libvcruntime:undname.obj
 0002:00002310       ?nameTable@@3QBQEBDB       000000018001f310     libvcruntime:undname.obj
 0002:00002830       __acrt_initializers        000000018001f830     libucrt:initialization.obj
 0002:00002920       errtable                   000000018001f920     libucrt:errno.obj
 0002:00003710       module_names               0000000180020710     libucrt:winapi_thunks.obj
 0002:00003c40       ?candidate_modules@?1??try_get_FlsAlloc@@YAP6AKP6AXPEAX@Z@ZXZ@4QBW4module_id@?A0x63058377@@B 0000000180020c40     libucrt:winapi_thunks.obj
 0002:00003c48       ?candidate_modules@?1??try_get_FlsFree@@YAP6AHK@ZXZ@4QBW4module_id@?A0x63058377@@B 0000000180020c48     libucrt:winapi_thunks.obj
 0002:00003c50       ?candidate_modules@?1??try_get_FlsGetValue@@YAP6APEAXK@ZXZ@4QBW4module_id@?A0x63058377@@B 0000000180020c50     libucrt:winapi_thunks.obj
 0002:00003c58       ?candidate_modules@?1??try_get_FlsSetValue@@YAP6AHKPEAX@ZXZ@4QBW4module_id@?A0x63058377@@B 0000000180020c58     libucrt:winapi_thunks.obj
 0002:00003c60       ?candidate_modules@?1??try_get_GetCurrentPackageId@@YAP6AJPEAIPEAE@ZXZ@4QBW4module_id@?A0x63058377@@B 0000000180020c60     libucrt:winapi_thunks.obj
 0002:00003c80       ?candidate_modules@?1??try_get_InitializeCriticalSectionEx@@YAP6AHPEAU_RTL_CRITICAL_SECTION@@KK@ZXZ@4QBW4module_id@?A0x63058377@@B 0000000180020c80     libucrt:winapi_thunks.obj
 0002:00003c88       ?candidate_modules@?1??try_get_LCMapStringEx@@YAP6AHPEB_WK0HPEA_WHPEAU_nlsversioninfo@@PEAX_J@ZXZ@4QBW4module_id@?A0x63058377@@B 0000000180020c88     libucrt:winapi_thunks.obj
 0002:00003ca0       ?candidate_modules@?1??try_get_LocaleNameToLCID@@YAP6AKPEB_WK@ZXZ@4QBW4module_id@?A0x63058377@@B 0000000180020ca0     libucrt:winapi_thunks.obj
 0002:00003cc0       _mb_locale_names           0000000180020cc0     libucrt:mbctype.obj
 0002:00003d30       LcidToLocaleNameTable      0000000180020d30     libucrt:lcidtoname_downlevel.obj
 0002:00005780       LocaleNameToIndexTable     0000000180022780     libucrt:lcidtoname_downlevel.obj
 0002:00007020       __real_ninf                0000000180024020     libucrt:log10.obj
 0002:00007030       __real_inf                 0000000180024030     libucrt:log10.obj
 0002:00007040       __real_neg_qnan            0000000180024040     libucrt:log10.obj
 0002:00007050       __real_qnanbit             0000000180024050     libucrt:log10.obj
 0002:00007060       __int_1023                 0000000180024060     libucrt:log10.obj
 0002:00007070       __mask_001                 0000000180024070     libucrt:log10.obj
 0002:00007080       __mask_mant                0000000180024080     libucrt:log10.obj
 0002:00007090       __mask_mant_top8           0000000180024090     libucrt:log10.obj
 0002:000070a0       __mask_mant9               00000001800240a0     libucrt:log10.obj
 0002:000070b0       __real_log10_e             00000001800240b0     libucrt:log10.obj
 0002:000070c0       __real_log10_e_lead        00000001800240c0     libucrt:log10.obj
 0002:000070d0       __real_log10_e_tail        00000001800240d0     libucrt:log10.obj
 0002:000070e0       __real_log10_2_lead        00000001800240e0     libucrt:log10.obj
 0002:000070f0       __real_log10_2_tail        00000001800240f0     libucrt:log10.obj
 0002:00007100       __real_two                 0000000180024100     libucrt:log10.obj
 0002:00007110       __real_one                 0000000180024110     libucrt:log10.obj
 0002:00007120       __real_half                0000000180024120     libucrt:log10.obj
 0002:00007130       __mask_100                 0000000180024130     libucrt:log10.obj
 0002:00007140       __real_1_over_512          0000000180024140     libucrt:log10.obj
 0002:00007150       __real_1_over_2            0000000180024150     libucrt:log10.obj
 0002:00007160       __real_1_over_3            0000000180024160     libucrt:log10.obj
 0002:00007170       __real_1_over_4            0000000180024170     libucrt:log10.obj
 0002:00007180       __real_1_over_5            0000000180024180     libucrt:log10.obj
 0002:00007190       __real_1_over_6            0000000180024190     libucrt:log10.obj
 0002:000071a0       __real_neg_1023            00000001800241a0     libucrt:log10.obj
 0002:000071b0       __mask_2045                00000001800241b0     libucrt:log10.obj
 0002:000071c0       __real_threshold           00000001800241c0     libucrt:log10.obj
 0002:000071d0       __real_near_one_lt         00000001800241d0     libucrt:log10.obj
 0002:000071e0       __real_near_one_gt         00000001800241e0     libucrt:log10.obj
 0002:000071f0       __real_min_norm            00000001800241f0     libucrt:log10.obj
 0002:00007200       __real_notsign             0000000180024200     libucrt:log10.obj
 0002:00007210       __real_ca1                 0000000180024210     libucrt:log10.obj
 0002:00007220       __real_ca2                 0000000180024220     libucrt:log10.obj
 0002:00007230       __real_ca3                 0000000180024230     libucrt:log10.obj
 0002:00007240       __real_ca4                 0000000180024240     libucrt:log10.obj
 0002:00007250       __mask_lower               0000000180024250     libucrt:log10.obj
 0002:00007260       __flag_x_zero              0000000180024260     libucrt:log10.obj
 0002:00007264       __flag_x_neg               0000000180024264     libucrt:log10.obj
 0002:00007268       __flag_x_nan               0000000180024268     libucrt:log10.obj
 0002:00008ac0       __real@433fffffffffffff    0000000180025ac0     libucrt:fpsr.obj
 0002:00008ac8       __real@c33fffffffffffff    0000000180025ac8     libucrt:fpsr.obj
 0002:00008ad0       GS_ExceptionPointers       0000000180025ad0     LIBCMT:gs_report.obj
 0002:00008ba8       ?_TlgEvent@?3??__telemetry_main_invoke_trigger@@9@4U<unnamed-type-_TlgEvent>@?3??1@YAXQEAUHINSTANCE__@@@Z@B 0000000180025ba8     libvcruntime:telemetry.obj
 0002:00008be4       ?_TlgEvent@?3??__telemetry_main_return_trigger@@9@4U<unnamed-type-_TlgEvent>@?3??1@YAXQEAUHINSTANCE__@@@Z@B 0000000180025be4     libvcruntime:telemetry.obj
 0002:00008c1f       ?_Tlg_Microsoft_CRTProviderProv_Meta@@3U<unnamed-type-_Tlg_Microsoft_CRTProviderProv_Meta>@@B 0000000180025c1f     libvcruntime:telemetry.obj
 0002:00008f80       $unwind$??0CEStr@@QEAA@PEB_W00000000@Z 0000000180025f80     CEStr.obj
 0002:00008f8c       $unwind$?ExecuteOpenPipe@@YAPEAXPEB_WAEAY0CAI@_W0KKHPEAXH@Z 0000000180025f8c     ConEmuCheck.obj
 0002:00008fa4       $unwind$?ExecutePrepareCmd@@YAXPEAUCESERVER_REQ@@K_K@Z 0000000180025fa4     ConEmuCheck.obj
 0002:00008fa4       $unwind$??$free_environment@D@@YAXQEAPEAD@Z 0000000180025fa4     libucrt:environment_initialization.obj
 0002:00008fa4       $unwind$??$free_environment@_W@@YAXQEAPEA_W@Z 0000000180025fa4     libucrt:environment_initialization.obj
 0002:00008fa4       $unwind$?ExecutePrepareCmd@@YAXPEAUCESERVER_REQ_HDR@@K_K@Z 0000000180025fa4     ConEmuCheck.obj
 0002:00008fb0       $unwind$?ExecuteGuiCmd@@YAPEAUCESERVER_REQ@@PEAUHWND__@@PEAU1@0H@Z 0000000180025fb0     ConEmuCheck.obj
 0002:00008fcc       $unwind$?ExecuteCmd@@YAPEAUCESERVER_REQ@@PEB_WPEAU1@KPEAUHWND__@@HKH@Z 0000000180025fcc     ConEmuCheck.obj
 0002:00008fec       $unwind$?ModuleName@@YAPEB_WPEB_W@Z 0000000180025fec     ConEmuCheck.obj
 0002:00008ff8       $unwind$?LoadModuleVersion@@YA_NPEB_WAEAUtagVS_FIXEDFILEINFO@@PEA_W_K@Z 0000000180025ff8     ConEmuTh.obj
 0002:00009010       $unwind$?Invalidate@CeFullPanelInfo@@QEAAXXZ 0000000180026010     Display.obj
 0002:00009010       $unwind$?ExecuteInMainThread@@YAXPEAUConEmuThSynchroArg@@@Z 0000000180026010     ConEmuTh.obj
 0002:00009010       $unwind$__acrt_locale_free_numeric 0000000180026010     libucrt:initnum.obj
 0002:00009010       $unwind$__acrt_locale_free_lc_time_if_unreferenced 0000000180026010     libucrt:locale_refcounting.obj
 0002:00009010       $unwind$?FreeUserData@CePluginPanelItem@@QEAAXXZ 0000000180026010     ConEmuTh.obj
 0002:00009010       $unwind$?FreeItem@CePluginPanelItem@@QEAAXXZ 0000000180026010     ConEmuTh.obj
 0002:00009010       $unwind$_free_base         0000000180026010     libucrt:free_base.obj
 0002:00009010       $unwind$?destroy_fls@@YAXPEAX@Z 0000000180026010     libucrt:per_thread_data.obj
 0002:00009018       $unwind$?LoadThSet@@YAHK@Z 0000000180026018     ConEmuTh.obj
 0002:0000902c       $unwind$?SettingsLoadReg@@YAHPEB_W0PEAK@Z 000000018002602c     ConEmuTh.obj
 0002:0000903c       $unwind$?SettingsLoadOther@@YAXPEB_W@Z 000000018002603c     ConEmuTh.obj
 0002:00009050       $unwind$?SettingsSaveReg@@YAXPEB_W0PEAK@Z 0000000180026050     ConEmuTh.obj
 0002:0000905c       $unwind$?SavePanelViewState@@YAXHK@Z 000000018002605c     ConEmuTh.obj
 0002:00009064       $unwind$?LoadFarVersion@@YAHXZ 0000000180026064     ConEmuTh.obj
 0002:00009074       $unwind$?StartPlugin@@YAXH@Z 0000000180026074     ConEmuTh.obj
 0002:00009074       $unwind$?InitName@?$MFileMapping@UPanelViewSetMapping@@@@QEAAPEB_WPEB_WKK@Z 0000000180026074     ConEmuTh.obj
 0002:00009074       $unwind$?ReallocItems@CeFullPanelInfo@@QEAAH_J@Z 0000000180026074     Display.obj
 0002:00009074       $unwind$?InitName@?$MFileMapping@Utag_DetectedDialog@@@@QEAAPEB_WPEB_WKK@Z 0000000180026074     ConEmuTh.obj
 0002:00009088       $unwind$?PostMacro@@YAXPEA_W@Z 0000000180026088     ConEmuTh.obj
 0002:000090a0       $unwind$?ReloadPanelsInfo@@YAXXZ 00000001800260a0     ConEmuTh.obj
 0002:000090b4       $unwind$?IsThumbnailsActive@@YAPEAUCeFullPanelInfo@@H@Z 00000001800260b4     ConEmuTh.obj
 0002:000090cc       $unwind$?OnPreWriteConsoleOutput@@YAHPEAXPEBU_CHAR_INFO@@U_COORD@@2PEAU_SMALL_RECT@@@Z 00000001800260cc     ConEmuTh.obj
 0002:000090dc       $unwind$?ShowLastError@@YAHXZ 00000001800260dc     ConEmuTh.obj
 0002:000090e8       $unwind$?ProcessConsoleInput@@YAHHPEAU_INPUT_RECORD@@KPEAK@Z 00000001800260e8     ConEmuTh.obj
 0002:00009104       $unwind$?ChangeExports@@YA_NPEBUExportFunc@@PEAUHINSTANCE__@@@Z 0000000180026104     ConEmuTh.obj
 0002:00009120       $unwind$??0?$CQueueProcessor@PEAUIMAGE_CACHE_INFO@@@@QEAA@XZ 0000000180026120     ImgCache.obj
 0002:00009120       $unwind$??_GMNullDesc@@QEAAPEAXI@Z 0000000180026120     MSecurity.obj
 0002:00009120       $unwind$?GetPluginInfoW995@@YAXPEAX@Z 0000000180026120     ConEmuTh995.obj
 0002:00009120       $unwind$__vcrt_EventUnregister 0000000180026120     libvcruntime:winapi_downlevel.obj
 0002:00009120       $unwind$?Unlock@MSection@@IEAAXH@Z 0000000180026120     MSection.obj
 0002:00009120       $unwind$?SetCacheLocation@CImgCache@@QEAAXPEB_W@Z 0000000180026120     ImgCache.obj
 0002:00009120       $unwind$__vcrt_FlsFree     0000000180026120     libvcruntime:winapi_downlevel.obj
 0002:00009120       $unwind$__vcrt_FlsGetValue 0000000180026120     libvcruntime:winapi_downlevel.obj
 0002:00009120       $unwind$?try_cor_exit_process@@YAXI@Z 0000000180026120     libucrt:exit.obj
 0002:00009120       $unwind$?GetPluginInfoW2800@@YAXPEAX@Z 0000000180026120     ConEmuTh2800.obj
 0002:00009120       $unwind$?GetFarRectW995@@YAXPEAU_SMALL_RECT@@@Z 0000000180026120     ConEmuTh995.obj
 0002:00009120       $unwind$__acrt_errno_map_os_error 0000000180026120     libucrt:errno.obj
 0002:00009120       $unwind$?LoadFarSettingsA@@YAXPEAUCEFarInterfaceSettings@@PEAUCEFarPanelSettings@@@Z 0000000180026120     ConEmuThA.obj
 0002:00009120       $unwind$__acrt_FlsFree     0000000180026120     libucrt:winapi_thunks.obj
 0002:00009120       $unwind$??_G?$CQueueProcessor@PEAUIMAGE_CACHE_INFO@@@@UEAAPEAXI@Z 0000000180026120     ImgCache.obj
 0002:00009120       $unwind$??0MSection@@QEAA@XZ 0000000180026120     MSection.obj
 0002:00009120       $unwind$?GetFarRectW2800@@YAXPEAU_SMALL_RECT@@@Z 0000000180026120     ConEmuTh2800.obj
 0002:00009120       $unwind$__acrt_FlsAlloc    0000000180026120     libucrt:winapi_thunks.obj
 0002:00009120       $unwind$__vcrt_FlsAlloc    0000000180026120     libvcruntime:winapi_downlevel.obj
 0002:00009120       $unwind$?GetFarRectW1900@@YAXPEAU_SMALL_RECT@@@Z 0000000180026120     ConEmuTh1900.obj
 0002:00009120       $unwind$??_GCImgLoader@@UEAAPEAXI@Z 0000000180026120     ImgCache.obj
 0002:00009120       $unwind$?replace_current_thread_locale_nolock@@YAXQEAU__acrt_ptd@@QEAU__crt_locale_data@@@Z 0000000180026120     libucrt:per_thread_data.obj
 0002:00009120       $unwind$??$SafeDelete@UMSectionSimple@@@@YAXAEAPEAUMSectionSimple@@@Z 0000000180026120     ImgCache.obj
 0002:00009120       $unwind$__acrt_FlsGetValue 0000000180026120     libucrt:winapi_thunks.obj
 0002:00009120       $unwind$?getNext@?$MToolHelp@UtagPROCESSENTRY32W@@$1?Process32FirstW@@YAHPEAXPEAU1@@Z$1?Process32NextW@@YAH01@Z@@IEAA_NXZ 0000000180026120     MProcess.obj
 0002:00009120       $unwind$?GetFarRect@@YAHPEAU_SMALL_RECT@@@Z 0000000180026120     ConEmuTh.obj
 0002:00009120       $unwind$??1?$MToolHelp@UtagPROCESSENTRY32W@@$1?Process32FirstW@@YAHPEAXPEAU1@@Z$1?Process32NextW@@YAH01@Z@@UEAA@XZ 0000000180026120     MProcess.obj
 0002:00009120       $unwind$_close_nolock      0000000180026120     libucrt:close.obj
 0002:00009120       $unwind$?CheckConEmu@@YAHH@Z 0000000180026120     ConEmuTh.obj
 0002:00009120       $unwind$?OnPrePeekConsole@@YAHPEAXPEAU_INPUT_RECORD@@KPEAKPEAH@Z 0000000180026120     ConEmuTh.obj
 0002:00009120       $unwind$??$common_initialize_environment_nolock@D@@YAHXZ 0000000180026120     libucrt:environment_initialization.obj
 0002:00009120       $unwind$??0_LocaleUpdate@@QEAA@QEAU__crt_locale_pointers@@@Z 0000000180026120     libucrt:strtox.obj
 0002:00009120       $unwind$??_G?$MToolHelp@UtagPROCESSENTRY32W@@$1?Process32FirstW@@YAHPEAXPEAU1@@Z$1?Process32NextW@@YAH01@Z@@UEAAPEAXI@Z 0000000180026120     MProcess.obj
 0002:00009120       $unwind$_callnewh          0000000180026120     libucrt:new_handler.obj
 0002:00009120       $unwind$??_GMToolHelpProcess@@UEAAPEAXI@Z 0000000180026120     MProcess.obj
 0002:00009120       $unwind$_realloc_base      0000000180026120     libucrt:realloc_base.obj
 0002:00009120       $unwind$??1MSection@@QEAA@XZ 0000000180026120     MSection.obj
 0002:00009120       $unwind$?LoadFarSettingsW995@@YAXPEAUCEFarInterfaceSettings@@PEAUCEFarPanelSettings@@@Z 0000000180026120     ConEmuTh995.obj
 0002:00009120       $unwind$__acrt_getptd      0000000180026120     libucrt:per_thread_data.obj
 0002:00009120       $unwind$??1CEStr@@QEAA@XZ  0000000180026120     CEStr.obj
 0002:00009120       $unwind$?DisplayReloadPanel@CeFullPanelInfo@@QEAAXXZ 0000000180026120     Display.obj
 0002:00009120       $unwind$??0CRgnDetect@@QEAA@XZ 0000000180026120     RgnDetect.obj
 0002:00009120       $unwind$OpenPlugin         0000000180026120     ConEmuThA.obj
 0002:00009120       $unwind$_fclose_nolock     0000000180026120     libucrt:fclose.obj
 0002:00009120       $unwind$__acrt_invoke_user_matherr 0000000180026120     libucrt:matherr.obj
 0002:00009120       $unwind$?GetPluginInfoW1900@@YAXPEAX@Z 0000000180026120     ConEmuTh1900.obj
 0002:00009120       $unwind$GetPluginInfo      0000000180026120     ConEmuThA.obj
 0002:00009120       $unwind$??_G?$MFileMapping@Utag_DetectedDialog@@@@QEAAPEAXI@Z 0000000180026120     ConEmuTh.obj
 0002:00009120       $unwind$?OpenW2800@@YAPEAXPEBX@Z 0000000180026120     ConEmuTh2800.obj
 0002:00009120       $unwind$?GetItemColors@CeFullPanelInfo@@QEAAPEAUHBRUSH__@@_JPEAUCePluginPanelItem@@PEAUCePluginPanelItemColor@@HAEAK3@Z 0000000180026120     Display.obj
 0002:00009120       $unwind$__acrt_uninitialize_lowio 0000000180026120     libucrt:ioinit.obj
 0002:00009120       $unwind$_updatetlocinfoEx_nolock 0000000180026120     libucrt:locale_refcounting.obj
 0002:00009120       $unwind$?PointToName@@YAPEB_WPEB_W@Z 0000000180026120     CmdLine.obj
 0002:0000912c       $unwind$?ProcessingStep@?$CQueueProcessor@PEAUIMAGE_CACHE_INFO@@@@IEAA_NXZ 000000018002612c     ImgCache.obj
 0002:0000912c       $unwind$?InternalOpenCreate@?$MFileMapping@UPanelViewSetMapping@@@@IEAAPEAUPanelViewSetMapping@@HHH@Z 000000018002612c     ConEmuTh.obj
 0002:0000912c       $unwind$?InternalOpenCreate@?$MFileMapping@Utag_DetectedDialog@@@@IEAAPEAUtag_DetectedDialog@@HHH@Z 000000018002612c     ConEmuTh.obj
 0002:00009148       $unwind$?SettingsSaveW1900@@YAXPEB_WPEAK@Z 0000000180026148     ConEmuTh1900.obj
 0002:00009148       $unwind$?SettingsSaveW2800@@YAXPEB_WPEAK@Z 0000000180026148     ConEmuTh2800.obj
 0002:0000915c       $unwind$?SetStartupInfoW1900@@YAXPEAX@Z 000000018002615c     ConEmuTh1900.obj
 0002:0000915c       $unwind$?SetStartupInfoW2800@@YAXPEAX@Z 000000018002615c     ConEmuTh2800.obj
 0002:00009170       $unwind$?ShowPluginMenuW1900@@YAHXZ 0000000180026170     ConEmuTh1900.obj
 0002:00009184       $unwind$?LoadPanelInfoW2800@@YAHH@Z 0000000180026184     ConEmuTh2800.obj
 0002:00009184       $unwind$?LoadPanelInfoW1900@@YAHH@Z 0000000180026184     ConEmuTh1900.obj
 0002:000091a0       $unwind$?LoadPanelItemInfoW1900@@YAXPEAUCeFullPanelInfo@@_J@Z 00000001800261a0     ConEmuTh1900.obj
 0002:000091bc       $unwind$?SetCurrentPanelItemW1900@@YAXH_J0@Z 00000001800261bc     ConEmuTh1900.obj
 0002:000091d8       $unwind$?StringCchCopyNW@@YAJPEA_W_KPEB_W1@Z 00000001800261d8     CEStr.obj
 0002:000091d8       $unwind$?CalcTopPanelItem@CeFullPanelInfo@@QEAA_J_J0@Z 00000001800261d8     Display.obj
 0002:000091d8       $unwind$?StringCchCopyW@@YAJPEA_W_KPEB_W@Z 00000001800261d8     ConEmuCheck.obj
 0002:000091d8       $unwind$?Color2FgIndex@Far3Color@@SAXKAEAGPEBK@Z 00000001800261d8     ConEmuTh1900.obj
 0002:000091d8       $unwind$?GetIndexFromWndCoord@CeFullPanelInfo@@QEAAHHHAEA_J@Z 00000001800261d8     Display.obj
 0002:000091e0       $unwind$?FarColor_3_2@@YAEAEBUFarColor@@@Z 00000001800261e0     ConEmuTh1900.obj
 0002:000091f0       $unwind$?GetFarSetting@@YAHPEAX_KPEB_W@Z 00000001800261f0     ConEmuTh1900.obj
 0002:000091f0       $unwind$?GetFarSetting@@YAHPEAX_KPEB_W@Z 00000001800261f0     ConEmuTh2800.obj
 0002:000091f0       $unwind$_call_matherr      00000001800261f0     libucrt:libm_error.obj
 0002:000091f8       $unwind$GetGlobalInfoW     00000001800261f8     ConEmuTh2800.obj
 0002:00009200       $unwind$?SettingsLoadW1900@@YAHPEB_WPEAK@Z 0000000180026200     ConEmuTh1900.obj
 0002:00009200       $unwind$?SettingsLoadW2800@@YAHPEB_WPEAK@Z 0000000180026200     ConEmuTh2800.obj
 0002:00009210       $unwind$?ShowMessageW2800@@YAHPEB_WH@Z 0000000180026210     ConEmuTh2800.obj
 0002:00009210       $unwind$?construct_ptd_array@@YAXQEAU__acrt_ptd@@@Z 0000000180026210     libucrt:per_thread_data.obj
 0002:00009210       $unwind$?ShowMessageW1900@@YAHPEB_WH@Z 0000000180026210     ConEmuTh1900.obj
 0002:00009218       $unwind$?PostMacroW2800@@YAXPEA_W@Z 0000000180026218     ConEmuTh2800.obj
 0002:00009218       $unwind$?PostMacroW1900@@YAXPEA_W@Z 0000000180026218     ConEmuTh1900.obj
 0002:00009224       $unwind$?ShowPluginMenuW2800@@YAHXZ 0000000180026224     ConEmuTh2800.obj
 0002:0000923c       $unwind$?LoadPanelItemInfoW2800@@YAXPEAUCeFullPanelInfo@@_J@Z 000000018002623c     ConEmuTh2800.obj
 0002:0000925c       $unwind$?CheckPanelSettingsW2800@@YAHH@Z 000000018002625c     ConEmuTh2800.obj
 0002:0000925c       $unwind$?CheckPanelSettingsW1900@@YAHH@Z 000000018002625c     ConEmuTh1900.obj
 0002:00009268       $unwind$?SetCurrentPanelItemW2800@@YAXH_J0@Z 0000000180026268     ConEmuTh2800.obj
 0002:00009278       $unwind$?SetCurrentPanelItemW2800Int@@YAXH_J0@Z 0000000180026278     ConEmuTh2800.obj
 0002:00009294       $unwind$?LoadFarSettingsW1900@@YAXPEAUCEFarInterfaceSettings@@PEAUCEFarPanelSettings@@@Z 0000000180026294     ConEmuTh1900.obj
 0002:00009294       $unwind$?LoadFarSettingsW2800@@YAXPEAUCEFarInterfaceSettings@@PEAUCEFarPanelSettings@@@Z 0000000180026294     ConEmuTh2800.obj
 0002:000092a4       $unwind$?SetStartupInfoW995@@YAXPEAX@Z 00000001800262a4     ConEmuTh995.obj
 0002:000092b4       $unwind$?PostMacroA@@YAXPEAD@Z 00000001800262b4     ConEmuThA.obj
 0002:000092b4       $unwind$_raise_exc         00000001800262b4     libucrt:fpexcept.obj
 0002:000092b4       $unwind$__dcrt_lowio_initialize_console_output 00000001800262b4     libucrt:initcon.obj
 0002:000092b4       $unwind$?PostMacroW995@@YAXPEA_W@Z 00000001800262b4     ConEmuTh995.obj
 0002:000092bc       $unwind$?ShowPluginMenuW995@@YAHXZ 00000001800262bc     ConEmuTh995.obj
 0002:000092cc       $unwind$?LoadPanelItemInfoW995@@YAXPEAUCeFullPanelInfo@@_J@Z 00000001800262cc     ConEmuTh995.obj
 0002:000092e4       $unwind$?CheckFarPanelsW995@@YA_NXZ 00000001800262e4     ConEmuTh995.obj
 0002:000092ec       $unwind$?SetCurrentPanelItemW995@@YAXH_J0@Z 00000001800262ec     ConEmuTh995.obj
 0002:00009304       $unwind$?LoadPanelInfo995@@YAHH@Z 0000000180026304     ConEmuTh995.obj
 0002:0000931c       $unwind$SetStartupInfo     000000018002631c     ConEmuThA.obj
 0002:00009330       $unwind$?GetMsgA@@YAPEB_WHPEA_W@Z 0000000180026330     ConEmuThA.obj
 0002:00009340       $unwind$?ShowPluginMenuA@@YAHXZ 0000000180026340     ConEmuThA.obj
 0002:00009358       $unwind$?LoadPanelInfoA@@YAHH@Z 0000000180026358     ConEmuThA.obj
 0002:00009370       $unwind$?CheckFarPanelsA@@YA_NXZ 0000000180026370     ConEmuThA.obj
 0002:0000937c       $unwind$?CheckPanelSettingsW995@@YAHH@Z 000000018002637c     ConEmuTh995.obj
 0002:0000937c       $unwind$?CheckThread@?$CQueueProcessor@PEAUIMAGE_CACHE_INFO@@@@IEAAJXZ 000000018002637c     ImgCache.obj
 0002:0000937c       $unwind$?CheckPanelSettingsA@@YAHH@Z 000000018002637c     ConEmuThA.obj
 0002:00009384       $unwind$?SetCurrentPanelItemA@@YAXH_J0@Z 0000000180026384     ConEmuThA.obj
 0002:0000939c       $unwind$?ReloadResourcesA@@YAXXZ 000000018002639c     ConEmuThA.obj
 0002:000093a8       $unwind$?RegisterPanelView@CeFullPanelInfo@@QEAAHXZ 00000001800263a8     Display.obj
 0002:000093bc       $unwind$?UnregisterPanelView@CeFullPanelInfo@@QEAAH_N@Z 00000001800263bc     Display.obj
 0002:000093d0       $unwind$?CreateView@CeFullPanelInfo@@QEAAPEAUHWND__@@XZ 00000001800263d0     Display.obj
 0002:000093ec       $unwind$?RequestSetPos@CeFullPanelInfo@@QEAAX_J0H@Z 00000001800263ec     Display.obj
 0002:000093fc       $unwind$?DisplayWndProc@CeFullPanelInfo@@SA_JPEAUHWND__@@I_K_J@Z 00000001800263fc     Display.obj
 0002:0000941c       $unwind$?DisplayThread@CeFullPanelInfo@@SAKPEAX@Z 000000018002641c     Display.obj
 0002:0000942c       $unwind$?Paint@CeFullPanelInfo@@QEAAXPEAUHWND__@@AEAUtagPAINTSTRUCT@@AEAUtagRECT@@@Z 000000018002642c     Display.obj
 0002:00009448       $unwind$?PaintItem@CeFullPanelInfo@@QEAAHPEAUHDC__@@_JHHPEAUCePluginPanelItem@@PEAUCePluginPanelItemColor@@HHPEAUHBRUSH__@@4K@Z 0000000180026448     Display.obj
 0002:00009468       $unwind$?DrawItemText@CeFullPanelInfo@@QEAAHPEAUHDC__@@PEAUtagRECT@@1PEAUCePluginPanelItem@@PEB_WPEAUHBRUSH__@@H@Z 0000000180026468     Display.obj
 0002:00009484       $unwind$?CheckDrawDibCreated@CImgCache@@IEAAHXZ 0000000180026484     ImgCache.obj
 0002:00009484       $unwind$?CheckLoadDibCreated@CImgCache@@IEAAHXZ 0000000180026484     ImgCache.obj
 0002:00009498       $unwind$?FindInCache@CImgCache@@IEAAHPEAUCePluginPanelItem@@PEAHI@Z 0000000180026498     ImgCache.obj
 0002:000094b0       $unwind$?CopyBits@CImgCache@@IEAAXU_COORD@@PEAEK01@Z 00000001800264b0     ImgCache.obj
 0002:000094c8       $unwind$?LoadModules@CImgCache@@IEAAXXZ 00000001800264c8     ImgCache.obj
 0002:00009528       $unwind$?FreeModules@CImgCache@@IEAAXXZ 0000000180026528     ImgCache.obj
 0002:0000955c       $unwind$?RequestItem@CImgCache@@QEAAHPEAUCePluginPanelItem@@I@Z 000000018002655c     ImgCache.obj
 0002:00009570       $unwind$?PaintItem@CImgCache@@QEAAHPEAUHDC__@@HHHPEAUCePluginPanelItem@@PEAPEB_WPEAH@Z 0000000180026570     ImgCache.obj
 0002:00009590       $unwind$?LoadThumbnail@CImgCache@@QEAAHPEAUIMAGE_CACHE_INFO@@@Z 0000000180026590     ImgCache.obj
 0002:000095fc       $unwind$?LoadShellIcon@CImgCache@@QEAAHPEAUIMAGE_CACHE_INFO@@H@Z 00000001800265fc     ImgCache.obj
 0002:00009618       $unwind$?ProcessItem@?$CQueueProcessor@PEAUIMAGE_CACHE_INFO@@@@IEAAJPEAUProcessingItem@1@@Z 0000000180026618     ImgCache.obj
 0002:00009638       $unwind$?isTerminalMode@@YA_NXZ 0000000180026638     MProcess.obj
 0002:00009648       $unwind$?Find@?$MToolHelp@UtagPROCESSENTRY32W@@$1?Process32FirstW@@YAHPEAXPEAU1@@Z$1?Process32NextW@@YAH01@Z@@QEAA_NP6A_NPEAUtagPROCESSENTRY32W@@_J@Z10@Z 0000000180026648     MProcess.obj
 0002:00009660       $unwind$?Lock@MSection@@IEAAHHK@Z 0000000180026660     MSection.obj
 0002:00009674       $unwind$__scrt_release_startup_lock 0000000180026674     LIBCMT:utility.obj
 0002:00009674       $unwind$??1?$CQueueProcessor@PEAUIMAGE_CACHE_INFO@@@@UEAA@XZ 0000000180026674     ImgCache.obj
 0002:00009674       $unwind$__acrt_stdio_free_buffer_nolock 0000000180026674     libucrt:_freebuf.obj
 0002:00009674       $unwind$__raise_securityfailure 0000000180026674     LIBCMT:gs_report.obj
 0002:00009674       $unwind$__scrt_initialize_crt 0000000180026674     LIBCMT:utility.obj
 0002:00009674       $unwind$__acrt_update_multibyte_info 0000000180026674     libucrt:locale_update.obj
 0002:00009674       $unwind$uninitialize_allocated_memory 0000000180026674     libucrt:initialization.obj
 0002:00009674       $unwind$initialize_pointers 0000000180026674     libucrt:initialization.obj
 0002:00009674       $unwind$?Close@CeFullPanelInfo@@QEAAXXZ 0000000180026674     Display.obj
 0002:00009674       $unwind$?CheckWindows@@YA_NXZ 0000000180026674     ConEmuTh.obj
 0002:00009674       $unwind$__scrt_uninitialize_crt 0000000180026674     LIBCMT:utility.obj
 0002:00009674       $unwind$??0MSectionSimple@@QEAA@_N@Z 0000000180026674     MSectionSimple.obj
 0002:00009674       $unwind$??1CImgCache@@QEAA@XZ 0000000180026674     ImgCache.obj
 0002:00009674       $unwind$??1CRgnDetect@@QEAA@XZ 0000000180026674     RgnDetect.obj
 0002:00009674       $unwind$?ProcessingThread@?$CQueueProcessor@PEAUIMAGE_CACHE_INFO@@@@KAKPEAX@Z 0000000180026674     ImgCache.obj
 0002:00009674       $unwind$_clrfp             0000000180026674     libucrt:fpctrl.obj
 0002:00009674       $unwind$_fflush_nolock     0000000180026674     libucrt:fflush.obj
 0002:00009674       $unwind$?ShowMessageA@@YAHHH@Z 0000000180026674     ConEmuThA.obj
 0002:00009674       $unwind$?ExitPlugin@@YAXXZ 0000000180026674     ConEmuTh.obj
 0002:00009674       $unwind$strcpy_s           0000000180026674     libucrt:strcpy_s.obj
 0002:00009674       $unwind$_malloc_base       0000000180026674     libucrt:malloc_base.obj
 0002:00009674       $unwind$?Init@MSectionSimple@@QEAAXXZ 0000000180026674     MSectionSimple.obj
 0002:00009674       $unwind$_onexit            0000000180026674     LIBCMT:utility.obj
 0002:00009674       $unwind$__acrt_initialize_locks 0000000180026674     libucrt:locks.obj
 0002:00009674       $unwind$?ShowMessageW995@@YAHHH@Z 0000000180026674     ConEmuTh995.obj
 0002:00009674       $unwind$?Close@MSectionSimple@@QEAAXXZ 0000000180026674     MSectionSimple.obj
 0002:00009674       $unwind$?TryEnter@MSectionSimple@@QEAA_NXZ 0000000180026674     MSectionSimple.obj
 0002:00009674       $unwind$?ShowMessageW2800@@YAHHH@Z 0000000180026674     ConEmuTh2800.obj
 0002:00009674       $unwind$?HeapInitialize@@YA_NXZ 0000000180026674     Memory.obj
 0002:00009674       $unwind$?OnReadyForPanelsReload@@YAXXZ 0000000180026674     ConEmuTh.obj
 0002:00009674       $unwind$SetStartupInfoW    0000000180026674     ConEmuTh.obj
 0002:00009674       $unwind$?ProcessItem@CImgLoader@@UEAAJAEAPEAUIMAGE_CACHE_INFO@@_J@Z 0000000180026674     ImgCache.obj
 0002:00009674       $unwind$?Unlock@MSectionLockSimple@@QEAAXXZ 0000000180026674     MSectionSimple.obj
 0002:00009674       $unwind$?ReloadResourcesW@@YAXXZ 0000000180026674     ConEmuTh.obj
 0002:00009674       $unwind$_set_statfp        0000000180026674     libucrt:fpctrl.obj
 0002:00009674       $unwind$??1MSectionLock@@QEAA@XZ 0000000180026674     MSection.obj
 0002:00009674       $unwind$?Unlock@MSectionLock@@QEAAXXZ 0000000180026674     MSection.obj
 0002:00009674       $unwind$_calloc_base       0000000180026674     libucrt:calloc_base.obj
 0002:00009674       $unwind$__acrt_freeptd     0000000180026674     libucrt:per_thread_data.obj
 0002:00009674       $unwind$?OnPostPeekConsole@@YAHPEAXPEAU_INPUT_RECORD@@KPEAKPEAH@Z 0000000180026674     ConEmuTh.obj
 0002:00009674       $unwind$?Lock@MSectionLock@@QEAAHPEAVMSection@@HK@Z 0000000180026674     MSection.obj
 0002:00009674       $unwind$?exit_or_terminate_process@@YAXI@Z 0000000180026674     libucrt:exit.obj
 0002:00009674       $unwind$?ShowMessageW1900@@YAHHH@Z 0000000180026674     ConEmuTh1900.obj
 0002:00009674       $unwind$?SavePathVar@CEStr@@QEAAXPEB_W@Z 0000000180026674     CEStr.obj
 0002:00009674       $unwind$??1MSectionSimple@@QEAA@XZ 0000000180026674     MSectionSimple.obj
 0002:00009674       $unwind$__std_type_info_destroy_list 0000000180026674     libvcruntime:std_type_info.obj
 0002:00009674       $unwind$__vcrt_uninitialize 0000000180026674     libvcruntime:initialization.obj
 0002:00009674       $unwind$?GetMaxCount@CEStr@@QEAA_JXZ 0000000180026674     CEStr.obj
 0002:00009674       $unwind$__vcrt_initialize_locks 0000000180026674     libvcruntime:locks.obj
 0002:00009674       $unwind$?OnPostReadConsole@@YAHPEAXPEAU_INPUT_RECORD@@KPEAKPEAH@Z 0000000180026674     ConEmuTh.obj
 0002:00009674       $unwind$__vcrt_uninitialize_locks 0000000180026674     libvcruntime:locks.obj
 0002:00009674       $unwind$__acrt_uninitialize_winapi_thunks 0000000180026674     libucrt:winapi_thunks.obj
 0002:00009674       $unwind$__acrt_uninitialize_locks 0000000180026674     libucrt:locks.obj
 0002:00009674       $unwind$__acrt_update_locale_info 0000000180026674     libucrt:locale_update.obj
 0002:00009674       $unwind$__acrt_uninitialize_stdio 0000000180026674     libucrt:_file.obj
 0002:00009674       $unwind$__vcrt_freeptd     0000000180026674     libvcruntime:per_thread_data.obj
 0002:0000967c       $unwind$?RecreateAndLock@MSectionSimple@@QEAA_NXZ 000000018002667c     MSectionSimple.obj
 0002:00009684       $unwind$?Lock@MSectionLockSimple@@QEAAHPEAUMSectionSimple@@K@Z 0000000180026684     MSectionSimple.obj
 0002:00009684       $unwind$?Init@HkFunc@@QEAA_NPEB_WPEAUHINSTANCE__@@@Z 0000000180026684     HkFunc.obj
 0002:00009684       $unwind$?EntryPoint@@YAXH_J_N@Z 0000000180026684     ConEmuTh.obj
 0002:00009684       $unwind$?WaitUnlocked@MSection@@IEAAXKK@Z 0000000180026684     MSection.obj
 0002:00009684       $unwind$__vcrt_EventRegister 0000000180026684     libvcruntime:winapi_downlevel.obj
 0002:00009684       $unwind$__vcrt_EventSetInformation 0000000180026684     libvcruntime:winapi_downlevel.obj
 0002:00009684       $unwind$?GetBuffer@CEStr@@QEAAPEA_W_J@Z 0000000180026684     CEStr.obj
 0002:00009684       $unwind$_initterm          0000000180026684     libucrt:initterm.obj
 0002:00009684       $unwind$__acrt_initialize_stdio 0000000180026684     libucrt:_file.obj
 0002:0000969c       $unwind$?LoadAdvApi@MNullDesc@@IEAAHXZ 000000018002669c     MSecurity.obj
 0002:000096a8       $unwind$?LocalSecurity@MNullDesc@@QEAAPEAU_SECURITY_ATTRIBUTES@@XZ 00000001800266a8     MSecurity.obj
 0002:000096c0       $unwind$?lstrmerge@@YAPEA_WPEB_W00000000@Z 00000001800266c0     MStrDup.obj
 0002:000096e0       $unwind$?msprintf@@YAPEB_WPEA_W_KPEB_WZZ 00000001800266e0     MStrSafe.obj
 0002:000096f8       $unwind$?PrepareTransparent@CRgnDetect@@QEAAXPEBUCEFAR_INFO_MAPPING@@PEBKPEBU_CONSOLE_SCREEN_BUFFER_INFO@@PEA_WPEAUtag_CharAttr@@HH@Z 00000001800266f8     RgnDetect.obj
 0002:00009710       $unwind$?GetMainThreadId@@YAKXZ 0000000180026710     ConEmuTh.obj
 0002:00009710       $unwind$?PrepareTransparent@CRgnDetect@@QEAAXPEBUCEFAR_INFO_MAPPING@@PEBK@Z 0000000180026710     RgnDetect.obj
 0002:00009720       $unwind$?OnWriteConsoleOutput@CRgnDetect@@QEAAXPEBU_CHAR_INFO@@U_COORD@@1PEAU_SMALL_RECT@@PEBK@Z 0000000180026720     RgnDetect.obj
 0002:00009738       $unwind$?InitializeSBI@CRgnDetect@@QEAAHPEBK@Z 0000000180026738     RgnDetect.obj
 0002:00009750       $unwind$?DetectDialog@CRgnDetect@@IEAA_NPEA_WPEAUtag_CharAttr@@HHHHPEAH2@Z 0000000180026750     RgnDetect.obj
 0002:00009760       $unwind$?FindDialog_TopLeft@CRgnDetect@@IEAA_NPEA_WPEAUtag_CharAttr@@HHAEAH222AEA_N@Z 0000000180026760     RgnDetect.obj
 0002:00009760       $unwind$?FindDialog_TopRight@CRgnDetect@@IEAA_NPEA_WPEAUtag_CharAttr@@HHAEAH222AEA_N@Z 0000000180026760     RgnDetect.obj
 0002:00009760       $unwind$?FindFrameRight_ByTop@CRgnDetect@@IEAA_NPEA_WPEAUtag_CharAttr@@HHAEAH22@Z 0000000180026760     RgnDetect.obj
 0002:00009760       $unwind$?FindDialog_Right@CRgnDetect@@IEAA_NPEA_WPEAUtag_CharAttr@@HHAEAH222AEA_N@Z 0000000180026760     RgnDetect.obj
 0002:00009760       $unwind$__C_specific_handler 0000000180026760     libvcruntime:_chandler_.obj
 0002:00009760       $unwind$?FindFrameLeft_ByTop@CRgnDetect@@IEAA_NPEA_WPEAUtag_CharAttr@@HHAEAH22@Z 0000000180026760     RgnDetect.obj
 0002:0000977c       $unwind$?FindDialog_Left@CRgnDetect@@IEAA_NPEA_WPEAUtag_CharAttr@@HHAEAH222AEA_N@Z 000000018002677c     RgnDetect.obj
 0002:00009794       $unwind$?FindDialog_Any@CRgnDetect@@IEAA_NPEA_WPEAUtag_CharAttr@@HHAEAH222AEA_N@Z 0000000180026794     RgnDetect.obj
 0002:000097ac       $unwind$?FindDialog_Inner@CRgnDetect@@IEAA_NPEA_WPEAUtag_CharAttr@@HHAEAH2@Z 00000001800267ac     RgnDetect.obj
 0002:000097c8       $unwind$?FindFrame_TopLeft@CRgnDetect@@IEAA_NPEA_WPEAUtag_CharAttr@@HHAEAH222@Z 00000001800267c8     RgnDetect.obj
 0002:000097e4       $unwind$?FindFrameBottom_ByLeft@CRgnDetect@@IEAA_NPEA_WPEAUtag_CharAttr@@HHAEAH22@Z 00000001800267e4     RgnDetect.obj
 0002:000097e4       $unwind$?FindFrameTop_ByRight@CRgnDetect@@IEAA_NPEA_WPEAUtag_CharAttr@@HHAEAH22@Z 00000001800267e4     RgnDetect.obj
 0002:000097e4       $unwind$?FindFrameRight_ByBottom@CRgnDetect@@IEAA_NPEA_WPEAUtag_CharAttr@@HHAEAH22@Z 00000001800267e4     RgnDetect.obj
 0002:000097e4       $unwind$?FindFrameTop_ByLeft@CRgnDetect@@IEAA_NPEA_WPEAUtag_CharAttr@@HHAEAH22@Z 00000001800267e4     RgnDetect.obj
 0002:000097e4       $unwind$?FindFrameBottom_ByRight@CRgnDetect@@IEAA_NPEA_WPEAUtag_CharAttr@@HHAEAH22@Z 00000001800267e4     RgnDetect.obj
 0002:000097e4       $unwind$?FindFrameLeft_ByBottom@CRgnDetect@@IEAA_NPEA_WPEAUtag_CharAttr@@HHAEAH22@Z 00000001800267e4     RgnDetect.obj
 0002:000097e4       $unwind$?StringCchCatW@@YAJPEA_W_KPEB_W@Z 00000001800267e4     ConEmuTh.obj
 0002:000097e4       $unwind$?Color2BgIndex@Far3Color@@SAXKHAEAGPEBK@Z 00000001800267e4     ConEmuTh1900.obj
 0002:000097f0       $unwind$?FindByBackground@CRgnDetect@@IEAA_NPEA_WPEAUtag_CharAttr@@HHAEAH222AEA_N@Z 00000001800267f0     RgnDetect.obj
 0002:00009808       $unwind$?ExpandDialogFrame@CRgnDetect@@IEAA_NPEA_WPEAUtag_CharAttr@@HHAEAH2HH22@Z 0000000180026808     RgnDetect.obj
 0002:00009820       $unwind$?MarkDialog@CRgnDetect@@IEAAHPEA_WPEAUtag_CharAttr@@HHHHHHI_NK@Z 0000000180026820     RgnDetect.obj
 0002:00009834       $unwind$?SearchAppPaths@@YA_NPEB_WAEAUCEStr@@_NPEAU1@@Z 0000000180026834     WFiles.obj
 0002:0000984c       $unwind$?FileExists@@YA_NPEB_WPEAK@Z 000000018002684c     WObjects.obj
 0002:00009868       $unwind$?SetThreadName@@YAXKPEAD@Z 0000000180026868     WThreads.obj
 0002:00009888       $unwind$?apiThreadHelper@@YAKPEAX@Z 0000000180026888     WThreads.obj
 0002:00009894       $unwind$?ExecuteFreeResult@@YAXAEAPEAUCESERVER_REQ@@@Z 0000000180026894     ConEmuCheck.obj
 0002:00009894       $unwind$_fileno            0000000180026894     libucrt:fileno.obj
 0002:00009894       $unwind$__acrt_uninitialize_critical 0000000180026894     libucrt:initialization.obj
 0002:00009894       $unwind$__vcrt_uninitialize_critical 0000000180026894     libvcruntime:initialization.obj
 0002:00009894       $unwind$?ExecuteInMainThreadW995@@YAXPEAUConEmuThSynchroArg@@@Z 0000000180026894     ConEmuTh995.obj
 0002:00009894       $unwind$__acrt_thread_attach 0000000180026894     libucrt:initialization.obj
 0002:00009894       $unwind$?LocalSecurity@@YAPEAU_SECURITY_ATTRIBUTES@@XZ 0000000180026894     MSecurity.obj
 0002:00009894       $unwind$__scrt_acquire_startup_lock 0000000180026894     LIBCMT:utility.obj
 0002:00009894       $unwind$?ReloadPanelsInfoW995@@YAXXZ 0000000180026894     ConEmuTh995.obj
 0002:00009894       $unwind$atexit             0000000180026894     LIBCMT:utility.obj
 0002:00009894       $unwind$__acrt_initialize_ptd 0000000180026894     libucrt:per_thread_data.obj
 0002:00009894       $unwind$__acrt_initialize_multibyte 0000000180026894     libucrt:mbctype.obj
 0002:00009894       $unwind$?ExecuteInMainThreadW2800@@YAXPEAUConEmuThSynchroArg@@@Z 0000000180026894     ConEmuTh2800.obj
 0002:00009894       $unwind$__vcrt_thread_attach 0000000180026894     libvcruntime:initialization.obj
 0002:00009894       $unwind$ExitFARW           0000000180026894     ConEmuTh.obj
 0002:00009894       $unwind$?PointToExt@@YAPEB_WPEB_W@Z 0000000180026894     CmdLine.obj
 0002:00009894       $unwind$_statfp            0000000180026894     libucrt:fpctrl.obj
 0002:00009894       $unwind$__scrt_dllmain_before_initialize_c 0000000180026894     LIBCMT:utility.obj
 0002:00009894       $unwind$?ShutdownSecurity@@YAXXZ 0000000180026894     MSecurity.obj
 0002:00009894       $unwind$DllMain            0000000180026894     ConEmuTh.obj
 0002:00009894       $unwind$__scrt_dllmain_uninitialize_critical 0000000180026894     LIBCMT:utility.obj
 0002:00009894       $unwind$?dllmain_crt_dispatch@@YAHQEAUHINSTANCE__@@KQEAX@Z 0000000180026894     LIBCMT:dll_dllmain.obj
 0002:00009894       $unwind$_invoke_watson     0000000180026894     libucrt:invalid_parameter.obj
 0002:00009894       $unwind$_msize             0000000180026894     libucrt:msize.obj
 0002:00009894       $unwind$GetMinFarVersion   0000000180026894     ConEmuThA.obj
 0002:00009894       $unwind$__acrt_uninitialize_ptd 0000000180026894     libucrt:per_thread_data.obj
 0002:00009894       $unwind$ExitFAR            0000000180026894     ConEmuThA.obj
 0002:00009894       $unwind$?initialize_multibyte@@YAHXZ 0000000180026894     libucrt:multibyte_initializer.obj
 0002:00009894       $unwind$__vcrt_thread_detach 0000000180026894     libvcruntime:initialization.obj
 0002:00009894       $unwind$__GSHandlerCheck   0000000180026894     LIBCMT:_gshandler_.obj
 0002:00009894       $unwind$__scrt_dllmain_after_initialize_c 0000000180026894     LIBCMT:utility.obj
 0002:00009894       $unwind$__scrt_dllmain_uninitialize_c 0000000180026894     LIBCMT:utility.obj
 0002:00009894       $unwind$?ExecuteInMainThreadW1900@@YAXPEAUConEmuThSynchroArg@@@Z 0000000180026894     ConEmuTh1900.obj
 0002:00009894       $unwind$_get_osfhandle     0000000180026894     libucrt:osfinfo.obj
 0002:00009894       $unwind$__vcrt_uninitialize_telemetry_provider 0000000180026894     libvcruntime:telemetry.obj
 0002:00009894       $unwind$?ExitFARW3@@YAXPEAX@Z 0000000180026894     ConEmuTh.obj
 0002:00009894       $unwind$?ProcessSynchroEventW3@@YA_JPEAX@Z 0000000180026894     ConEmuTh2800.obj
 0002:00009894       $unwind$__scrt_dllmain_crt_thread_attach 0000000180026894     LIBCMT:utility.obj
 0002:00009894       $unwind$__scrt_dllmain_crt_thread_detach 0000000180026894     LIBCMT:utility.obj
 0002:00009894       $unwind$_isatty            0000000180026894     libucrt:isatty.obj
 0002:00009894       $unwind$?OpenW@@YAPEAXPEBUOpenInfo@@@Z 0000000180026894     ConEmuTh.obj
 0002:00009894       $unwind$__acrt_thread_detach 0000000180026894     libucrt:initialization.obj
 0002:00009894       $unwind$_set_errno_from_matherr 0000000180026894     libucrt:fpexcept.obj
 0002:00009894       $unwind$?ExitFARW2800@@YAXXZ 0000000180026894     ConEmuTh2800.obj
 0002:00009894       $unwind$?ReloadPanelsInfoW1900@@YAXXZ 0000000180026894     ConEmuTh1900.obj
 0002:00009894       $unwind$?xf_free@@YAXPEAX@Z 0000000180026894     Memory.obj
 0002:00009894       $unwind$?HeapDeinitialize@@YAXXZ 0000000180026894     Memory.obj
 0002:00009894       $unwind$__scrt_initialize_default_local_stdio_options 0000000180026894     LIBCMT:default_local_stdio_options.obj
 0002:00009894       $unwind$?ExitFARW995@@YAXXZ 0000000180026894     ConEmuTh995.obj
 0002:00009894       $unwind$__acrt_initialize_heap 0000000180026894     libucrt:heap_handle.obj
 0002:00009894       $unwind$?UpdateEnvVar@@YAXH@Z 0000000180026894     ConEmuTh.obj
 0002:00009894       $unwind$?apiShowWindow@@YA_NPEAUHWND__@@H@Z 0000000180026894     WUser.obj
 0002:00009894       $unwind$?ExitFARW1900@@YAXXZ 0000000180026894     ConEmuTh1900.obj
 0002:00009894       $unwind$__vcrt_initialize  0000000180026894     libvcruntime:initialization.obj
 0002:00009894       $unwind$?ReloadPanelsInfoW2800@@YAXXZ 0000000180026894     ConEmuTh2800.obj
 0002:00009894       $unwind$?CopyItem@?$CQueueProcessor@PEAUIMAGE_CACHE_INFO@@@@MEAAXPEBQEAUIMAGE_CACHE_INFO@@PEAPEAU2@@Z 0000000180026894     ImgCache.obj
 0002:00009894       $unwind$__doserrno         0000000180026894     libucrt:errno.obj
 0002:00009894       $unwind$?OnThreadStarted@CImgLoader@@UEAAJXZ 0000000180026894     ImgCache.obj
 0002:00009894       $unwind$__acrt_DownlevelLocaleNameToLCID 0000000180026894     libucrt:lcidtoname_downlevel.obj
 0002:00009894       $unwind$__vcrt_initialize_ptd 0000000180026894     libvcruntime:per_thread_data.obj
 0002:00009894       $unwind$??1MSectionLockSimple@@QEAA@XZ 0000000180026894     MSectionSimple.obj
 0002:00009894       $unwind$__acrt_initialize_command_line 0000000180026894     libucrt:argv_data.obj
 0002:00009894       $unwind$__dcrt_uninitialize_environments_nolock 0000000180026894     libucrt:environment_initialization.obj
 0002:00009894       $unwind$__vcrt_freefls     0000000180026894     libvcruntime:per_thread_data.obj
 0002:00009894       $unwind$?ReloadPanelsInfoA@@YAXXZ 0000000180026894     ConEmuThA.obj
 0002:00009894       $unwind$??$uninitialize_environment_internal@D@@YAXAEAPEAPEAD@Z 0000000180026894     libucrt:environment_initialization.obj
 0002:00009894       $unwind$abort              0000000180026894     libucrt:abort.obj
 0002:00009894       $unwind$??$uninitialize_environment_internal@_W@@YAXAEAPEAPEA_W@Z 0000000180026894     libucrt:environment_initialization.obj
 0002:00009894       $unwind$__pctype_func      0000000180026894     libucrt:ctype.obj
 0002:00009894       $unwind$_errno             0000000180026894     libucrt:errno.obj
 0002:00009894       $unwind$?CheckVarsInitialized@@YAXXZ 0000000180026894     ConEmuTh.obj
 0002:00009894       $unwind$__acrt_release_locale_ref 0000000180026894     libucrt:locale_refcounting.obj
 0002:00009894       $unwind$__vcrt_uninitialize_ptd 0000000180026894     libvcruntime:per_thread_data.obj
 0002:00009894       $unwind$uninitialize_environment 0000000180026894     libucrt:initialization.obj
 0002:00009894       $unwind$__dcrt_terminate_console_output 0000000180026894     libucrt:initcon.obj
 0002:00009894       $unwind$?InvalidateAll@CeFullPanelInfo@@SAXXZ 0000000180026894     Display.obj
 0002:00009894       $unwind$initialize_c       0000000180026894     libucrt:initialization.obj
 0002:0000989c       $unwind$?dllmain_crt_process_attach@@YAHQEAUHINSTANCE__@@QEAX@Z 000000018002689c     LIBCMT:dll_dllmain.obj
 0002:000098c8       $unwind$?dllmain_crt_process_detach@@YAH_N@Z 00000001800268c8     LIBCMT:dll_dllmain.obj
 0002:000098f0       $unwind$__acrt_lowio_create_handle_array 00000001800268f0     libucrt:osfinfo.obj
 0002:000098f0       $unwind$?OpenPluginWcmn@@YAPEAXH_J_N@Z 00000001800268f0     ConEmuTh.obj
 0002:000098f0       $unwind$?Set@CEStr@@QEAAPEB_WPEB_W_J@Z 00000001800268f0     CEStr.obj
 0002:000098f0       $unwind$__acrt_execute_initializers 00000001800268f0     libucrt:shared_initialization.obj
 0002:000098f0       $unwind$?lstrdup@@YAPEA_WPEB_W_K@Z 00000001800268f0     MStrDup.obj
 0002:000098f0       $unwind$?dllmain_raw@@YAHQEAUHINSTANCE__@@KQEAX@Z 00000001800268f0     LIBCMT:dll_dllmain.obj
 0002:000098f0       $unwind$?setSBCS@@YAXPEAU__crt_multibyte_data@@@Z 00000001800268f0     libucrt:mbctype.obj
 0002:000098f0       $unwind$?ExecuteNewCmd@@YAPEAUCESERVER_REQ@@K_K@Z 00000001800268f0     ConEmuCheck.obj
 0002:000098f0       $unwind$__acrt_InitializeCriticalSectionEx 00000001800268f0     libucrt:winapi_thunks.obj
 0002:000098f0       $unwind$_recalloc_base     00000001800268f0     libucrt:recalloc.obj
 0002:000098f0       $unwind$?GetEnvVar@@YAPEA_WPEB_W@Z 00000001800268f0     WObjects.obj
 0002:000098f0       $unwind$?ExpandEnvStr@@YAPEA_WPEB_W@Z 00000001800268f0     WObjects.obj
 0002:000098f0       $unwind$?InitializeQueue@?$CQueueProcessor@PEAUIMAGE_CACHE_INFO@@@@AEAAXH@Z 00000001800268f0     ImgCache.obj
 0002:000098f0       $unwind$__scrt_dllmain_exception_filter 00000001800268f0     LIBCMT:utility.obj
 0002:000098f0       $unwind$?Reset@CImgCache@@QEAAXXZ 00000001800268f0     ImgCache.obj
 0002:000098f0       $unwind$??0CImgCache@@QEAA@PEAUHINSTANCE__@@@Z 00000001800268f0     ImgCache.obj
 0002:000098f0       $unwind$__vcrt_InitializeCriticalSectionEx 00000001800268f0     libvcruntime:winapi_downlevel.obj
 0002:000098f0       $unwind$_seh_filter_exe    00000001800268f0     libucrt:exception_filter.obj
 0002:000098f0       $unwind$?AddRef@MSection@@IEAAXK@Z 00000001800268f0     MSection.obj
 0002:000098f0       $unwind$?ReleaseRef@MSection@@IEAAHK@Z 00000001800268f0     MSection.obj
 0002:000098f0       $unwind$__acrt_free_locale 00000001800268f0     libucrt:locale_refcounting.obj
 0002:00009904       $unwind$?dllmain_dispatch@@YAHQEAUHINSTANCE__@@KQEAX@Z 0000000180026904     LIBCMT:dll_dllmain.obj
 0002:0000992c       $unwind$?filt$0@?0??dllmain_dispatch@@YAHQEAUHINSTANCE__@@KQEAX@Z@4HA 000000018002692c     LIBCMT:dll_dllmain.obj
 0002:00009934       $unwind$__scrt_is_nonwritable_in_current_image 0000000180026934     LIBCMT:utility.obj
 0002:00009954       $unwind$__scrt_is_nonwritable_in_current_image$filt$0 0000000180026954     LIBCMT:utility.obj
 0002:0000995c       $unwind$__scrt_initialize_onexit_tables 000000018002695c     LIBCMT:utility.obj
 0002:00009968       $unwind$__security_init_cookie 0000000180026968     LIBCMT:gs_support.obj
 0002:00009974       $unwind$__scrt_fastfail    0000000180026974     LIBCMT:utility_desktop.obj
 0002:00009984       $unwind$__isa_available_init 0000000180026984     LIBCMT:_cpu_disp_.obj
 0002:00009990       $xdatasym                  0000000180026990     LIBCMT:_guard_dispatch_.obj
 0002:00009998       $xdatasym                  0000000180026998     libvcruntime:memcpy.obj
 0002:0000999c       $unwind$strchr             000000018002699c     libvcruntime:strchr.obj
 0002:0000999c       $unwind$strrchr            000000018002699c     libvcruntime:strrchr.obj
 0002:0000999c       $unwind$wcschr             000000018002699c     libvcruntime:wcschr.obj
 0002:000099a8       $xdatasym                  00000001800269a8     libvcruntime:memset.obj
 0002:000099b0       $xdatasym                  00000001800269b0     libvcruntime:memcmp.obj
 0002:000099b4       $unwind$__telemetry_main_return_trigger 00000001800269b4     libvcruntime:telemetry.obj
 0002:000099b4       $unwind$__telemetry_main_invoke_trigger 00000001800269b4     libvcruntime:telemetry.obj
 0002:000099cc       $unwind$?FindOrCreate@?$CQueueProcessor@PEAUIMAGE_CACHE_INFO@@@@AEAAPEAUProcessingItem@1@AEBQEAUIMAGE_CACHE_INFO@@_J_NW4ProcessingPriority@@@Z 00000001800269cc     ImgCache.obj
 0002:000099cc       $unwind$?_TlgEnableCallback@__vcrt_trace_logging_provider@@YAXPEBU_GUID@@KE_K1PEAU_EVENT_FILTER_DESCRIPTOR@@PEAX@Z 00000001800269cc     libvcruntime:telemetry.obj
 0002:000099cc       $unwind$?apiTerminateThreadEx@@YAHPEAXKPEBDH@Z 00000001800269cc     WThreads.obj
 0002:000099e8       $xdatasym                  00000001800269e8     libvcruntime:_jmpuwind_.obj
 0002:000099fc       $unwind$__vcrt_uninitialize_winapi_thunks 00000001800269fc     libvcruntime:winapi_downlevel.obj
 0002:00009a04       $unwind$?try_get_function@@YAPEAXW4function_id@?A0x63058377@@QEBDQEBW4module_id@2@2@Z 0000000180026a04     libucrt:winapi_thunks.obj
 0002:00009a04       $unwind$?FarItem2CeItem@CeFullPanelInfo@@QEAAH_JPEB_W1KU_FILETIME@@_KHPEAX3P6A_JXZ3K@Z 0000000180026a04     Display.obj
 0002:00009a04       $unwind$?try_get_function@@YAPEAXW4function_id@?A0x61ce2399@@QEBDQEBW4module_id@2@2@Z 0000000180026a04     libvcruntime:winapi_downlevel.obj
 0002:00009a20       $unwind$?common_exit@@YAXHW4_crt_exit_cleanup_mode@@W4_crt_exit_return_mode@@@Z 0000000180026a20     libucrt:exit.obj
 0002:00009a60       $unwind$??$create_environment@D@@YAQEAPEADQEAD@Z 0000000180026a60     libucrt:environment_initialization.obj
 0002:00009a78       $unwind$_register_onexit_function 0000000180026a78     libucrt:onexit.obj
 0002:00009a80       $unwind$_execute_onexit_table 0000000180026a80     libucrt:onexit.obj
 0002:00009a88       $unwind$?MyEnterCriticalSection@MSection@@IEAA_NK@Z 0000000180026a88     MSection.obj
 0002:00009a88       $unwind$??R<lambda_4e60a939b0d047cfe11ddc22648dfba9>@@QEBAHXZ 0000000180026a88     libucrt:onexit.obj
 0002:00009aa4       $unwind$??$?RV<lambda_b8c45f8f788dd370798f47cfe8ac3a86>@@AEAV<lambda_4e60a939b0d047cfe11ddc22648dfba9>@@V<lambda_332c3edc96d0294ec56c57d38c1cdfd5>@@@?$__crt_seh_guarded_call@H@@QEAAH$$QEAV<lambda_b8c45f8f788dd370798f47cfe8ac3a86>@@AEAV<lambda_4e60a939b0d047cfe11ddc22648dfba9>@@$$QEAV<lambda_332c3edc96d0294ec56c57d38c1cdfd5>@@@Z 0000000180026aa4     libucrt:onexit.obj
 0002:00009ac8       $unwind$??$?RV<lambda_e24bbb7b643b32fcea6fa61b31d4c984>@@AEAV<lambda_275893d493268fdec8709772e3fcec0e>@@V<lambda_9d71df4d7cf3f480f8d633942495c3b0>@@@?$__crt_seh_guarded_call@H@@QEAAH$$QEAV<lambda_e24bbb7b643b32fcea6fa61b31d4c984>@@AEAV<lambda_275893d493268fdec8709772e3fcec0e>@@$$QEAV<lambda_9d71df4d7cf3f480f8d633942495c3b0>@@@Z 0000000180026ac8     libucrt:onexit.obj
 0002:00009af8       $unwind$terminate          0000000180026af8     libucrt:terminate.obj
 0002:00009b18       $unwind$?ShowMessageA@@YAHPEBDH@Z 0000000180026b18     ConEmuThA.obj
 0002:00009b18       $unwind$?FreePanelItemUserData2800@@YAXPEAX_KP6A_JXZ@Z 0000000180026b18     ConEmuTh2800.obj
 0002:00009b18       $unwind$_invalid_parameter_noinfo 0000000180026b18     libucrt:invalid_parameter.obj
 0002:00009b18       $unwind$?CheckFarPanelsW2800@@YA_NXZ 0000000180026b18     ConEmuTh2800.obj
 0002:00009b18       $unwind$?ShowMessageW995@@YAHPEB_WH@Z 0000000180026b18     ConEmuTh995.obj
 0002:00009b18       $unwind$_log10_special     0000000180026b18     libucrt:log_special.obj
 0002:00009b18       $unwind$?CheckFarPanelsW1900@@YA_NXZ 0000000180026b18     ConEmuTh1900.obj
 0002:00009b20       $unwind$__acrt_call_reportfault 0000000180026b20     libucrt:invalid_parameter.obj
 0002:00009b40       $unwind$_invalid_parameter 0000000180026b40     libucrt:invalid_parameter.obj
 0002:00009b40       $unwind$__vcrt_EventWriteTransfer 0000000180026b40     libvcruntime:winapi_downlevel.obj
 0002:00009b40       $unwind$?apiCreateThread@@YAPEAXP6AKPEAX@Z0PEAKPEBDH@Z 0000000180026b40     WThreads.obj
 0002:00009b58       $unwind$?destroy_ptd_array@@YAXQEAU__acrt_ptd@@@Z 0000000180026b58     libucrt:per_thread_data.obj
 0002:00009b60       $unwind$??$?RV<lambda_72d1df2b273a38828b1ce30cbf4cdab5>@@AEAV<lambda_876a65b173b8412d3a47c70a915b0cf4>@@V<lambda_41932305e351933ebe8f8be3ed8bb5dc>@@@?$__crt_seh_guarded_call@X@@QEAAX$$QEAV<lambda_72d1df2b273a38828b1ce30cbf4cdab5>@@AEAV<lambda_876a65b173b8412d3a47c70a915b0cf4>@@$$QEAV<lambda_41932305e351933ebe8f8be3ed8bb5dc>@@@Z 0000000180026b60     libucrt:per_thread_data.obj
 0002:00009b84       $unwind$??$?RV<lambda_5e887d1dcbef67a5eb4283622ba103bf>@@AEAV<lambda_4466841279450cc726390878d4a41900>@@V<lambda_341c25c0346d94847f1f3c463c57e077>@@@?$__crt_seh_guarded_call@X@@QEAAX$$QEAV<lambda_5e887d1dcbef67a5eb4283622ba103bf>@@AEAV<lambda_4466841279450cc726390878d4a41900>@@$$QEAV<lambda_341c25c0346d94847f1f3c463c57e077>@@@Z 0000000180026b84     libucrt:per_thread_data.obj
 0002:00009ba8       $unwind$??$?RV<lambda_46352004c1216016012b18bd6f87e700>@@AEAV<lambda_3bd07e1a1191394380780325891bf33f>@@V<lambda_334532d3f185bcaa59b5be82d7d22bff>@@@?$__crt_seh_guarded_call@X@@QEAAX$$QEAV<lambda_46352004c1216016012b18bd6f87e700>@@AEAV<lambda_3bd07e1a1191394380780325891bf33f>@@$$QEAV<lambda_334532d3f185bcaa59b5be82d7d22bff>@@@Z 0000000180026ba8     libucrt:per_thread_data.obj
 0002:00009bcc       $unwind$??$?RV<lambda_fb3a7dec4e47f37f22dae91bb15c9095>@@AEAV<lambda_698284760c8add0bfb0756c19673e34b>@@V<lambda_dfb8eca1e75fef3034a8fb18dd509707>@@@?$__crt_seh_guarded_call@X@@QEAAX$$QEAV<lambda_fb3a7dec4e47f37f22dae91bb15c9095>@@AEAV<lambda_698284760c8add0bfb0756c19673e34b>@@$$QEAV<lambda_dfb8eca1e75fef3034a8fb18dd509707>@@@Z 0000000180026bcc     libucrt:per_thread_data.obj
 0002:00009bf0       $unwind$__acrt_uninitialize_locale 0000000180026bf0     libucrt:wsetlocale.obj
 0002:00009c10       $unwind$_RTC_Initialize    0000000180026c10     LIBCMT:_initsect_.obj
 0002:00009c10       $unwind$__vcrt_getptd_noexit 0000000180026c10     libvcruntime:per_thread_data.obj
 0002:00009c10       $unwind$_RTC_Terminate     0000000180026c10     LIBCMT:_initsect_.obj
 0002:00009c10       $unwind$??$common_lseek_nolock@_J@@YA_JH_JH@Z 0000000180026c10     libucrt:lseek.obj
 0002:00009c10       $unwind$__vcrt_FlsSetValue 0000000180026c10     libvcruntime:winapi_downlevel.obj
 0002:00009c10       $unwind$__acrt_execute_uninitializers 0000000180026c10     libucrt:shared_initialization.obj
 0002:00009c10       $unwind$__acrt_stdio_flush_nolock 0000000180026c10     libucrt:fflush.obj
 0002:00009c10       $unwind$?OnSettingsChanged@CeFullPanelInfo@@QEAAHH@Z 0000000180026c10     Display.obj
 0002:00009c10       $unwind$__acrt_getptd_noexit 0000000180026c10     libucrt:per_thread_data.obj
 0002:00009c10       $unwind$?ProcessSynchroEventCommon@@YAHHPEAX@Z 0000000180026c10     ConEmuTh.obj
 0002:00009c10       $unwind$?free_crt_array_internal@@YAXQEAPEBX_K@Z 0000000180026c10     libucrt:inittime.obj
 0002:00009c10       $unwind$_exception_enabled 0000000180026c10     libucrt:libm_error.obj
 0002:00009c10       $unwind$_initterm_e        0000000180026c10     libucrt:initterm.obj
 0002:00009c10       $unwind$??R<lambda_ad1ced32f4ac17aa236e5ef05d6b3b7c>@@QEBAXXZ 0000000180026c10     libucrt:mbctype.obj
 0002:00009c10       $unwind$_DllMainCRTStartup 0000000180026c10     LIBCMT:dll_dllmain.obj
 0002:00009c10       $unwind$?ClearQueue@?$CQueueProcessor@PEAUIMAGE_CACHE_INFO@@@@AEAAXXZ 0000000180026c10     ImgCache.obj
 0002:00009c10       $unwind$?Init@CImgCache@@QEAAXK@Z 0000000180026c10     ImgCache.obj
 0002:00009c10       $unwind$?TraceLoggingRegister@__vcrt_trace_logging_provider@@YAJPEBU_TlgProvider_t@1@PEBU_GUID@@P6AX1KE_K2PEAU_EVENT_FILTER_DESCRIPTOR@@PEAX@Z4@Z 0000000180026c10     libvcruntime:telemetry.obj
 0002:00009c10       $unwind$?Open@?$MToolHelp@UtagPROCESSENTRY32W@@$1?Process32FirstW@@YAHPEAXPEAU1@@Z$1?Process32NextW@@YAH01@Z@@QEAA_NXZ 0000000180026c10     MProcess.obj
 0002:00009c10       $unwind$__acrt_LocaleNameToLCID 0000000180026c10     libucrt:winapi_thunks.obj
 0002:00009c10       $unwind$__acrt_FlsSetValue 0000000180026c10     libucrt:winapi_thunks.obj
 0002:00009c10       $unwind$?addsize@?$MArray@UtagPROCESSENTRY32W@@@@QEAAX_J@Z 0000000180026c10     MProcess.obj
 0002:00009c10       $unwind$?Unquote@@YAPEB_WPEA_W_N@Z 0000000180026c10     CmdLine.obj
 0002:00009c10       $unwind$?push_back@?$MArray@UtagPROCESSENTRY32W@@@@QEAA_JAEBUtagPROCESSENTRY32W@@@Z 0000000180026c10     MProcess.obj
 0002:00009c10       $unwind$?AttachInt@CEStr@@AEAAPEB_WAEAPEA_W@Z 0000000180026c10     CEStr.obj
 0002:00009c10       $unwind$?FinalRelease@CeFullPanelInfo@@QEAAXXZ 0000000180026c10     Display.obj
 0002:00009c20       $unwind$__vcrt_initialize_winapi_thunks 0000000180026c20     libvcruntime:winapi_downlevel.obj
 0002:00009c20       $unwind$__acrt_initialize_winapi_thunks 0000000180026c20     libucrt:winapi_thunks.obj
 0002:00009c28       $unwind$__acrt_LCMapStringEx 0000000180026c28     libucrt:winapi_thunks.obj
 0002:00009c28       $unwind$?LoadItemColors@CeFullPanelInfo@@QEAAX_JPEAUCePluginPanelItem@@PEAUCePluginPanelItemColor@@HH@Z 0000000180026c28     Display.obj
 0002:00009c28       $unwind$_mbtowc_l          0000000180026c28     libucrt:mbtowc.obj
 0002:00009c40       $unwind$__acrt_is_packaged_app 0000000180026c40     libucrt:winapi_thunks.obj
 0002:00009c4c       $unwind$__acrt_update_thread_multibyte_data 0000000180026c4c     libucrt:mbctype.obj
 0002:00009c70       $unwind$_setmbcp_nolock    0000000180026c70     libucrt:mbctype.obj
 0002:00009c90       $unwind$?_TlgWrite@__vcrt_trace_logging_provider@@YAJPEBU_TlgProvider_t@1@PEFBXPEBU_GUID@@2IPEAU_EVENT_DATA_DESCRIPTOR@@@Z 0000000180026c90     libvcruntime:telemetry.obj
 0002:00009c90       $unwind$?getSystemCP@@YAHH@Z 0000000180026c90     libucrt:mbctype.obj
 0002:00009c90       $unwind$_isleadbyte_l      0000000180026c90     libucrt:_wctype.obj
 0002:00009c98       $unwind$?setSBUpLow@@YAXPEAU__crt_multibyte_data@@@Z 0000000180026c98     libucrt:mbctype.obj
 0002:00009cb4       $unwind$?setmbcp_internal@@YAHH_N@Z 0000000180026cb4     libucrt:mbctype.obj
 0002:00009cc4       $unwind$??$?RV<lambda_99476a1ad63dd22509b5d3e65b0ffc95>@@AEAV<lambda_ad1ced32f4ac17aa236e5ef05d6b3b7c>@@V<lambda_f7424dd8d45958661754dc4f2697e9c3>@@@?$__crt_seh_guarded_call@X@@QEAAX$$QEAV<lambda_99476a1ad63dd22509b5d3e65b0ffc95>@@AEAV<lambda_ad1ced32f4ac17aa236e5ef05d6b3b7c>@@$$QEAV<lambda_f7424dd8d45958661754dc4f2697e9c3>@@@Z 0000000180026cc4     libucrt:mbctype.obj
 0002:00009ce8       $unwind$__dcrt_get_narrow_environment_from_os 0000000180026ce8     libucrt:get_environment_from_os.obj
 0002:00009d00       $unwind$__acrt_initialize_lowio 0000000180026d00     libucrt:ioinit.obj
 0002:00009d20       $unwind$?initialize_inherited_file_handles_nolock@@YAXXZ 0000000180026d20     libucrt:ioinit.obj
 0002:00009d3c       $unwind$?initialize_stdio_handles_nolock@@YAXXZ 0000000180026d3c     libucrt:ioinit.obj
 0002:00009d3c       $unwind$_free_osfhnd       0000000180026d3c     libucrt:osfinfo.obj
 0002:00009d50       $unwind$_query_new_handler 0000000180026d50     libucrt:new_handler.obj
 0002:00009d70       $unwind$__acrt_get_sigabrt_handler 0000000180026d70     libucrt:signal.obj
 0002:00009d78       $unwind$raise              0000000180026d78     libucrt:signal.obj
 0002:00009da4       $unwind$??$?RV<lambda_c36588078e9f5dfd39652860aa6b3aaf>@@AEAV<lambda_ec61778202f4f5fc7e7711acc23c3bca>@@V<lambda_dc9d2797ccde5d239b4a0efae8ebd7db>@@@?$__crt_seh_guarded_call@P6AXH@Z@@QEAAP6AXH@Z$$QEAV<lambda_c36588078e9f5dfd39652860aa6b3aaf>@@AEAV<lambda_ec61778202f4f5fc7e7711acc23c3bca>@@$$QEAV<lambda_dc9d2797ccde5d239b4a0efae8ebd7db>@@@Z 0000000180026da4     libucrt:signal.obj
 0002:00009dc8       $unwind$__acrt_GetStringTypeA 0000000180026dc8     libucrt:getstringtypea.obj
 0002:00009df0       $unwind$__acrt_update_thread_locale_data 0000000180026df0     libucrt:locale_refcounting.obj
 0002:00009e14       $unwind$__acrt_locale_free_monetary 0000000180026e14     libucrt:initmon.obj
 0002:00009e1c       $unwind$__acrt_locale_free_time 0000000180026e1c     libucrt:inittime.obj
 0002:00009e2c       $unwind$?GetTableIndexFromLocaleName@@YAHPEB_W@Z 0000000180026e2c     libucrt:lcidtoname_downlevel.obj
 0002:00009e44       $unwind$__acrt_LCMapStringA 0000000180026e44     libucrt:lcmapstringa.obj
 0002:00009e54       $unwind$?__acrt_LCMapStringA_stat@@YAHPEAU__crt_locale_pointers@@PEB_WKPEBDHPEADHHH@Z 0000000180026e54     libucrt:lcmapstringa.obj
 0002:00009e7c       $unwind$__acrt_lowio_destroy_handle_array 0000000180026e7c     libucrt:osfinfo.obj
 0002:00009e8c       $unwind$__acrt_lowio_ensure_fh_exists 0000000180026e8c     libucrt:osfinfo.obj
 0002:00009eb8       $unwind$common_flush_all   0000000180026eb8     libucrt:fflush.obj
 0002:00009ef4       $unwind$_fcloseall         0000000180026ef4     libucrt:closeall.obj
 0002:00009f18       $unwind$??$?RV<lambda_b521505b218e5242e90febf6bfebc422>@@AEAV<lambda_6978c1fb23f02e42e1d9e99668cc68aa>@@V<lambda_314360699dd331753a4119843814e9a7>@@@?$__crt_seh_guarded_call@H@@QEAAH$$QEAV<lambda_b521505b218e5242e90febf6bfebc422>@@AEAV<lambda_6978c1fb23f02e42e1d9e99668cc68aa>@@$$QEAV<lambda_314360699dd331753a4119843814e9a7>@@@Z 0000000180026f18     libucrt:commit.obj
 0002:00009f3c       $unwind$_write             0000000180026f3c     libucrt:write.obj
 0002:00009f6c       $unwind$_write_nolock      0000000180026f6c     libucrt:write.obj
 0002:00009f84       $unwind$?write_double_translated_ansi_nolock@@YA?AUwrite_result@?A0x9c548279@@HQEBDI@Z 0000000180026f84     libucrt:write.obj
 0002:00009fa4       $unwind$?write_text_utf16le_nolock@@YA?AUwrite_result@?A0x9c548279@@HQEBDI@Z 0000000180026fa4     libucrt:write.obj
 0002:00009fa4       $unwind$?write_text_ansi_nolock@@YA?AUwrite_result@?A0x9c548279@@HQEBDI@Z 0000000180026fa4     libucrt:write.obj
 0002:00009fc4       $unwind$?write_text_utf8_nolock@@YA?AUwrite_result@?A0x9c548279@@HQEBDI@Z 0000000180026fc4     libucrt:write.obj
 0002:00009fe8       $xdatasym                  0000000180026fe8     libucrt:log10.obj
 0002:00009ff4       $unwind$fclose             0000000180026ff4     libucrt:fclose.obj
 0002:0000a018       $unwind$_handle_error      0000000180027018     libucrt:libm_error.obj
 0002:0000a038       $unwind$__acrt_initialize_fma3 0000000180027038     libucrt:fma3_available.obj
 0002:0000a040       $unwind$_log_special_common 0000000180027040     libucrt:log_special.obj
 0002:0000a04c       $unwind$_close             000000018002704c     libucrt:close.obj
 0002:0000a04c       $unwind$_commit            000000018002704c     libucrt:commit.obj
 0002:0000a054       $unwind$??$?RV<lambda_bfedae4ebbf01fab1bb6dcc6a9e276e0>@@AEAV<lambda_2fe9b910cf3cbf4a0ab98a02ba45b3ec>@@V<lambda_237c231691f317818eb88cc1d5d642d6>@@@?$__crt_seh_guarded_call@H@@QEAAH$$QEAV<lambda_bfedae4ebbf01fab1bb6dcc6a9e276e0>@@AEAV<lambda_2fe9b910cf3cbf4a0ab98a02ba45b3ec>@@$$QEAV<lambda_237c231691f317818eb88cc1d5d642d6>@@@Z 0000000180027054     libucrt:close.obj
 0002:0000a078       $xdatasym                  0000000180027078     libucrt:fpsr.obj
 0002:0000a080       $unwind$_raise_exc_ex      0000000180027080     libucrt:fpexcept.obj
 0002:0000a094       $unwind$_ctrlfp            0000000180027094     libucrt:fpctrl.obj
 0002:0000a0bc       $unwind$_IsNonwritableInCurrentImage 00000001800270bc     LIBCMT:pesect.obj
 0002:0000a0e0       $unwind$?fin$0@?0???$?RV<lambda_72d1df2b273a38828b1ce30cbf4cdab5>@@AEAV<lambda_876a65b173b8412d3a47c70a915b0cf4>@@V<lambda_41932305e351933ebe8f8be3ed8bb5dc>@@@?$__crt_seh_guarded_call@X@@QEAAX$$QEAV<lambda_72d1df2b273a38828b1ce30cbf4cdab5>@@AEAV<lambda_876a65b173b8412d3a47c70a915b0cf4>@@$$QEAV<lambda_41932305e351933ebe8f8be3ed8bb5dc>@@@Z@4HA 00000001800270e0     libucrt:per_thread_data.obj
 0002:0000a0e0       $unwind$_ctrlfp$filt$0     00000001800270e0     libucrt:fpctrl.obj
 0002:0000a0e0       $unwind$fclose$fin$0       00000001800270e0     libucrt:fclose.obj
 0002:0000a0e0       $unwind$__acrt_uninitialize_locale$fin$0 00000001800270e0     libucrt:wsetlocale.obj
 0002:0000a0e0       $unwind$__acrt_update_thread_locale_data$fin$0 00000001800270e0     libucrt:locale_refcounting.obj
 0002:0000a0e0       $unwind$_fcloseall$fin$0   00000001800270e0     libucrt:closeall.obj
 0002:0000a0e0       $unwind$common_flush_all$fin$1 00000001800270e0     libucrt:fflush.obj
 0002:0000a0e0       $unwind$common_flush_all$fin$0 00000001800270e0     libucrt:fflush.obj
 0002:0000a0e0       $unwind$?fin$0@?0???$?RV<lambda_b8c45f8f788dd370798f47cfe8ac3a86>@@AEAV<lambda_4e60a939b0d047cfe11ddc22648dfba9>@@V<lambda_332c3edc96d0294ec56c57d38c1cdfd5>@@@?$__crt_seh_guarded_call@H@@QEAAH$$QEAV<lambda_b8c45f8f788dd370798f47cfe8ac3a86>@@AEAV<lambda_4e60a939b0d047cfe11ddc22648dfba9>@@$$QEAV<lambda_332c3edc96d0294ec56c57d38c1cdfd5>@@@Z@4HA 00000001800270e0     libucrt:onexit.obj
 0002:0000a0e0       $unwind$_query_new_handler$fin$0 00000001800270e0     libucrt:new_handler.obj
 0002:0000a0e0       $unwind$__acrt_initialize_lowio$fin$0 00000001800270e0     libucrt:ioinit.obj
 0002:0000a0e0       $unwind$?fin$0@?0???$?RV<lambda_c36588078e9f5dfd39652860aa6b3aaf>@@AEAV<lambda_ec61778202f4f5fc7e7711acc23c3bca>@@V<lambda_dc9d2797ccde5d239b4a0efae8ebd7db>@@@?$__crt_seh_guarded_call@P6AXH@Z@@QEAAP6AXH@Z$$QEAV<lambda_c36588078e9f5dfd39652860aa6b3aaf>@@AEAV<lambda_ec61778202f4f5fc7e7711acc23c3bca>@@$$QEAV<lambda_dc9d2797ccde5d239b4a0efae8ebd7db>@@@Z@4HA 00000001800270e0     libucrt:signal.obj
 0002:0000a0e0       $unwind$?fin$0@?0???$?RV<lambda_b521505b218e5242e90febf6bfebc422>@@AEAV<lambda_6978c1fb23f02e42e1d9e99668cc68aa>@@V<lambda_314360699dd331753a4119843814e9a7>@@@?$__crt_seh_guarded_call@H@@QEAAH$$QEAV<lambda_b521505b218e5242e90febf6bfebc422>@@AEAV<lambda_6978c1fb23f02e42e1d9e99668cc68aa>@@$$QEAV<lambda_314360699dd331753a4119843814e9a7>@@@Z@4HA 00000001800270e0     libucrt:commit.obj
 0002:0000a0e0       $unwind$?fin$0@?0??dllmain_crt_process_detach@@YAH_N@Z@4HA 00000001800270e0     LIBCMT:dll_dllmain.obj
 0002:0000a0e0       $unwind$raise$fin$0        00000001800270e0     libucrt:signal.obj
 0002:0000a0e0       $unwind$__acrt_lowio_ensure_fh_exists$fin$0 00000001800270e0     libucrt:osfinfo.obj
 0002:0000a0e0       $unwind$?fin$0@?0???$?RV<lambda_bfedae4ebbf01fab1bb6dcc6a9e276e0>@@AEAV<lambda_2fe9b910cf3cbf4a0ab98a02ba45b3ec>@@V<lambda_237c231691f317818eb88cc1d5d642d6>@@@?$__crt_seh_guarded_call@H@@QEAAH$$QEAV<lambda_bfedae4ebbf01fab1bb6dcc6a9e276e0>@@AEAV<lambda_2fe9b910cf3cbf4a0ab98a02ba45b3ec>@@$$QEAV<lambda_237c231691f317818eb88cc1d5d642d6>@@@Z@4HA 00000001800270e0     libucrt:close.obj
 0002:0000a0e0       $unwind$?fin$0@?0???$?RV<lambda_fb3a7dec4e47f37f22dae91bb15c9095>@@AEAV<lambda_698284760c8add0bfb0756c19673e34b>@@V<lambda_dfb8eca1e75fef3034a8fb18dd509707>@@@?$__crt_seh_guarded_call@X@@QEAAX$$QEAV<lambda_fb3a7dec4e47f37f22dae91bb15c9095>@@AEAV<lambda_698284760c8add0bfb0756c19673e34b>@@$$QEAV<lambda_dfb8eca1e75fef3034a8fb18dd509707>@@@Z@4HA 00000001800270e0     libucrt:per_thread_data.obj
 0002:0000a0e0       $unwind$?fin$0@?0???$?RV<lambda_99476a1ad63dd22509b5d3e65b0ffc95>@@AEAV<lambda_ad1ced32f4ac17aa236e5ef05d6b3b7c>@@V<lambda_f7424dd8d45958661754dc4f2697e9c3>@@@?$__crt_seh_guarded_call@X@@QEAAX$$QEAV<lambda_99476a1ad63dd22509b5d3e65b0ffc95>@@AEAV<lambda_ad1ced32f4ac17aa236e5ef05d6b3b7c>@@$$QEAV<lambda_f7424dd8d45958661754dc4f2697e9c3>@@@Z@4HA 00000001800270e0     libucrt:mbctype.obj
 0002:0000a0e0       $unwind$_write$fin$0       00000001800270e0     libucrt:write.obj
 0002:0000a0e0       $unwind$?fin$0@?0???$?RV<lambda_e24bbb7b643b32fcea6fa61b31d4c984>@@AEAV<lambda_275893d493268fdec8709772e3fcec0e>@@V<lambda_9d71df4d7cf3f480f8d633942495c3b0>@@@?$__crt_seh_guarded_call@H@@QEAAH$$QEAV<lambda_e24bbb7b643b32fcea6fa61b31d4c984>@@AEAV<lambda_275893d493268fdec8709772e3fcec0e>@@$$QEAV<lambda_9d71df4d7cf3f480f8d633942495c3b0>@@@Z@4HA 00000001800270e0     libucrt:onexit.obj
 0002:0000a0e0       $unwind$?fin$0@?0???$?RV<lambda_5e887d1dcbef67a5eb4283622ba103bf>@@AEAV<lambda_4466841279450cc726390878d4a41900>@@V<lambda_341c25c0346d94847f1f3c463c57e077>@@@?$__crt_seh_guarded_call@X@@QEAAX$$QEAV<lambda_5e887d1dcbef67a5eb4283622ba103bf>@@AEAV<lambda_4466841279450cc726390878d4a41900>@@$$QEAV<lambda_341c25c0346d94847f1f3c463c57e077>@@@Z@4HA 00000001800270e0     libucrt:per_thread_data.obj
 0002:0000a0e0       $unwind$?fin$1@?0??common_exit@@YAXHW4_crt_exit_cleanup_mode@@W4_crt_exit_return_mode@@@Z@4HA 00000001800270e0     libucrt:exit.obj
 0002:0000a0e0       $unwind$?fin$0@?0???$?RV<lambda_46352004c1216016012b18bd6f87e700>@@AEAV<lambda_3bd07e1a1191394380780325891bf33f>@@V<lambda_334532d3f185bcaa59b5be82d7d22bff>@@@?$__crt_seh_guarded_call@X@@QEAAX$$QEAV<lambda_46352004c1216016012b18bd6f87e700>@@AEAV<lambda_3bd07e1a1191394380780325891bf33f>@@$$QEAV<lambda_334532d3f185bcaa59b5be82d7d22bff>@@@Z@4HA 00000001800270e0     libucrt:per_thread_data.obj
 0002:0000a0e0       $unwind$_IsNonwritableInCurrentImage$filt$0 00000001800270e0     LIBCMT:pesect.obj
 0002:0000a0e0       $unwind$?filt$0@?0??common_exit@@YAXHW4_crt_exit_cleanup_mode@@W4_crt_exit_return_mode@@@Z@4HA 00000001800270e0     libucrt:exit.obj
 0002:0000a0e0       $unwind$?fin$0@?0??dllmain_crt_process_attach@@YAHQEAUHINSTANCE__@@QEAX@Z@4HA 00000001800270e0     LIBCMT:dll_dllmain.obj
 0002:0000a0e0       $unwind$__acrt_update_thread_multibyte_data$fin$0 00000001800270e0     libucrt:mbctype.obj
 0002:0000a0e8       $unwind$__GSHandlerCheckCommon 00000001800270e8     LIBCMT:_gshandler_.obj
 0002:0000a0f0       $xdatasym                  00000001800270f0     LIBCMT:_amdsecgs_.obj
 0002:0000a0f4       $unwind$_putwch_nolock     00000001800270f4     libucrt:putwch.obj
 0002:0000a0f4       $unwind$__report_gsfailure 00000001800270f4     LIBCMT:gs_report.obj
 0002:0000a0fc       $unwind$capture_previous_context 00000001800270fc     LIBCMT:gs_report.obj
 0002:0000a108       $xdatasym                  0000000180027108     LIBCMT:_chkstk_.obj
 0002:0000a110       .edata                     0000000180027110     ConEmuTh.x64.exp
 0002:0000a138       rgpv                       0000000180027138     ConEmuTh.x64.exp
 0002:0000a16c       rgszName                   000000018002716c     ConEmuTh.x64.exp
 0002:0000a1a0       rgwOrd                     00000001800271a0     ConEmuTh.x64.exp
 0002:0000a1ba       szName                     00000001800271ba     ConEmuTh.x64.exp
 0002:0000a1cb       $N00001                    00000001800271cb     ConEmuTh.x64.exp
 0002:0000a1da       $N00002                    00000001800271da     ConEmuTh.x64.exp
 0002:0000a1e0       $N00003                    00000001800271e0     ConEmuTh.x64.exp
 0002:0000a1e8       $N00004                    00000001800271e8     ConEmuTh.x64.exp
 0002:0000a1f1       $N00005                    00000001800271f1     ConEmuTh.x64.exp
 0002:0000a200       $N00006                    0000000180027200     ConEmuTh.x64.exp
 0002:0000a211       $N00007                    0000000180027211     ConEmuTh.x64.exp
 0002:0000a223       $N00008                    0000000180027223     ConEmuTh.x64.exp
 0002:0000a231       $N00009                    0000000180027231     ConEmuTh.x64.exp
 0002:0000a23c       $N00010                    000000018002723c     ConEmuTh.x64.exp
 0002:0000a248       $N00011                    0000000180027248     ConEmuTh.x64.exp
 0002:0000a25d       $N00012                    000000018002725d     ConEmuTh.x64.exp
 0002:0000a26c       $N00013                    000000018002726c     ConEmuTh.x64.exp
 0002:0000af00       .idata$6                   0000000180027f00     kernel32:KERNEL32.dll
 0002:0000b1ae       .idata$6                   00000001800281ae     user32:USER32.dll
 0002:0000b300       .idata$6                   0000000180028300     gdi32:GDI32.dll
 0002:0000b360       .idata$6                   0000000180028360     advapi32:ADVAPI32.dll
 0002:0000b380       .idata$6                   0000000180028380     shell32:SHELL32.dll
 0002:0000b3ae       .idata$6                   00000001800283ae     ole32:ole32.dll
 0002:0000b3fa       .idata$6                   00000001800283fa     version:VERSION.dll
 0003:00000100       ?_Tlg_Microsoft_CRTProviderProv@@3U_TlgProvider_t@__vcrt_trace_logging_provider@@A 0000000180029100     libvcruntime:telemetry.obj
 0003:00000150       ?__vcrt_flsindex@@3KA      0000000180029150     libvcruntime:per_thread_data.obj
 0003:00000158       errno_no_memory            0000000180029158     libucrt:errno.obj
 0003:0000015c       doserrno_no_memory         000000018002915c     libucrt:errno.obj
 0003:00000160       __acrt_flsindex            0000000180029160     libucrt:per_thread_data.obj
 0003:00000510       __rgctypeflag              0000000180029510     libucrt:mbctype.obj
 0003:00000520       __rgcode_page_info         0000000180029520     libucrt:mbctype.obj
 0003:000009e0       ?dazSupported@?1??_ctrlfp@@9@9 00000001800299e0     libucrt:fpctrl.obj
 0003:00000a20       ?szFile@?1??ModuleName@@YAPEB_WPEB_W@Z@4PA_WA 0000000180029a20     ConEmuCheck.obj
 0003:00021950       ?sbInClearing@?1??ProcessConsoleInput@@YAHHPEAU_INPUT_RECORD@@KPEAK@Z@4_NA 000000018004a950     ConEmuTh.obj
 0003:00021978       ?szMenu@?1??GetPluginInfoW1900@@YAXPEAX@Z@4PAPEA_WA 000000018004a978     ConEmuTh1900.obj
 0003:00021980       ?szMenu1@?1??GetPluginInfoW1900@@YAXPEAX@Z@4PA_WA 000000018004a980     ConEmuTh1900.obj
 0003:00021b90       ?szMenu@?1??GetPluginInfoW2800@@YAXPEAX@Z@4PAPEA_WA 000000018004ab90     ConEmuTh2800.obj
 0003:00021ba0       ?szMenu1@?1??GetPluginInfoW2800@@YAXPEAX@Z@4PA_WA 000000018004aba0     ConEmuTh2800.obj
 0003:00021db0       ?gszRootKeyW995@@3PEA_WEA  000000018004adb0     ConEmuTh995.obj
 0003:00021db8       ?szMenu@?1??GetPluginInfoW995@@YAXPEAX@Z@4PAPEA_WA 000000018004adb8     ConEmuTh995.obj
 0003:00021dc0       ?szMenu1@?1??GetPluginInfoW995@@YAXPEAX@Z@4PA_WA 000000018004adc0     ConEmuTh995.obj
 0003:00021fd0       ?gszRootKeyA@@3PEA_WEA     000000018004afd0     ConEmuThA.obj
 0003:00021fd8       ?szMenu@?1??GetPluginInfo@@9@4PAPEADA 000000018004afd8     ConEmuThA.obj
 0003:00021fe0       ?szMenu1@?1??GetPluginInfo@@9@4PADA 000000018004afe0     ConEmuThA.obj
 0003:000220e0       ?hClass@@3GA               000000018004b0e0     Display.obj
 0003:00022130       ?TerminalMode@?1??isTerminalMode@@YA_NXZ@4_NA 000000018004b130     MProcess.obj
 0003:00022131       ?TerminalChecked@?1??isTerminalMode@@YA_NXZ@4_NA 000000018004b131     MProcess.obj
 0003:00022140       ?gbInTransparentAssert@@3_NA 000000018004b140     RgnDetect.obj
 0003:00022150       ?is64bitOs@?1??IsWindows64@@YA_NXZ@4_NA 000000018004b150     WObjects.obj
 0003:00022151       ?isOsChecked@?1??IsWindows64@@YA_NXZ@4_NA 000000018004b151     WObjects.obj
 0003:00022168       ?gh_UnknownTerminatedThread@@3PEAXEA 000000018004b168     WThreads.obj
 0003:00022170       ?g_Threads@@3PAUConEmuThreadInfo@@A 000000018004b170     WThreads.obj
 0003:0002a970       ?__proc_attached@@3HA      0000000180053970     LIBCMT:dll_dllmain.obj
 0003:0002a988       ?module_local_atexit_table@@3U_onexit_table_t@@A 0000000180053988     LIBCMT:utility.obj
 0003:0002a9a0       ?module_local_at_quick_exit_table@@3U_onexit_table_t@@A 00000001800539a0     LIBCMT:utility.obj
 0003:0002a9b8       ?is_initialized_as_dll@@3_NA 00000001800539b8     LIBCMT:utility.obj
 0003:0002a9f0       ?module_handles@@3PAPEAUHINSTANCE__@@A 00000001800539f0     libvcruntime:winapi_downlevel.obj
 0003:0002aa10       ?encoded_function_pointers@@3PAPEAXA 0000000180053a10     libvcruntime:winapi_downlevel.obj
 0003:0002aa60       ?__vcrt_startup_thread_ptd@@3U__vcrt_ptd@@A 0000000180053a60     libvcruntime:per_thread_data.obj
 0003:0002aad8       __vcrt_lock_table          0000000180053ad8     libvcruntime:locks.obj
 0003:0002ab00       __vcrt_locks_initialized   0000000180053b00     libvcruntime:locks.obj
 0003:0002ab58       ?heap@@3V_HeapManager@@A   0000000180053b58     libvcruntime:undname.obj
 0003:0002ab80       c_termination_complete     0000000180053b80     libucrt:exit.obj
 0003:0002ab88       thread_local_exit_callback_func 0000000180053b88     libucrt:exit.obj
 0003:0002ab90       ?c_exit_complete@?5??common_exit@@YAXHW4_crt_exit_cleanup_mode@@W4_crt_exit_return_mode@@@Z@4_NA 0000000180053b90     libucrt:exit.obj
 0003:0002abe8       __acrt_invalid_parameter_handler 0000000180053be8     libucrt:invalid_parameter.obj
 0003:0002ac00       __acrt_lock_table          0000000180053c00     libucrt:locks.obj
 0003:0002ae08       __acrt_locks_initialized   0000000180053e08     libucrt:locks.obj
 0003:0002ae10       module_handles             0000000180053e10     libucrt:winapi_thunks.obj
 0003:0002aeb0       encoded_function_pointers  0000000180053eb0     libucrt:winapi_thunks.obj
 0003:0002afb0       ?state_cache@?1??__acrt_is_packaged_app@@9@4JA 0000000180053fb0     libucrt:winapi_thunks.obj
 0003:0002afcc       fSystemSet                 0000000180053fcc     libucrt:mbctype.obj
 0003:0002afd8       ?initialized@?1??__acrt_initialize_multibyte@@9@4_NA 0000000180053fd8     libucrt:mbctype.obj
 0003:0002b418       __acrt_new_handler         0000000180054418     libucrt:new_handler.obj
 0003:0002b420       ctrlc_action               0000000180054420     libucrt:signal.obj
 0003:0002b428       ctrlbreak_action           0000000180054428     libucrt:signal.obj
 0003:0002b430       abort_action               0000000180054430     libucrt:signal.obj
 0003:0002b438       term_action                0000000180054438     libucrt:signal.obj
 0003:0002b440       user_matherr               0000000180054440     libucrt:matherr.obj
 0003:0002b458       __acrt_global_new_mode     0000000180054458     libucrt:new_mode.obj
 0003:0002b478       __acrt_app_type            0000000180054478     libucrt:report_runtime_error.obj
 0003:0002b490       GS_ExceptionRecord         0000000180054490     LIBCMT:gs_report.obj
 0003:0002b530       GS_ContextRecord           0000000180054530     LIBCMT:gs_report.obj
 0004:00000000       $pdata$?TraceLoggingRegister@__vcrt_trace_logging_provider@@YAJPEBU_TlgProvider_t@1@PEBU_GUID@@P6AX1KE_K2PEAU_EVENT_FILTER_DESCRIPTOR@@PEAX@Z4@Z 0000000180055000     libvcruntime:telemetry.obj
 0004:0000000c       $pdata$?_TlgEnableCallback@__vcrt_trace_logging_provider@@YAXPEBU_GUID@@KE_K1PEAU_EVENT_FILTER_DESCRIPTOR@@PEAX@Z 000000018005500c     libvcruntime:telemetry.obj
 0004:00000018       $pdata$?_TlgWrite@__vcrt_trace_logging_provider@@YAJPEBU_TlgProvider_t@1@PEFBXPEBU_GUID@@2IPEAU_EVENT_DATA_DESCRIPTOR@@@Z 0000000180055018     libvcruntime:telemetry.obj
 0004:00000024       $pdata$??0CEStr@@QEAA@PEB_W00000000@Z 0000000180055024     CEStr.obj
 0004:00000030       $pdata$??1CEStr@@QEAA@XZ   0000000180055030     CEStr.obj
 0004:0000003c       $pdata$?AttachInt@CEStr@@AEAAPEB_WAEAPEA_W@Z 000000018005503c     CEStr.obj
 0004:00000048       $pdata$?GetBuffer@CEStr@@QEAAPEA_W_J@Z 0000000180055048     CEStr.obj
 0004:00000054       $pdata$?GetMaxCount@CEStr@@QEAA_JXZ 0000000180055054     CEStr.obj
 0004:00000060       $pdata$?SavePathVar@CEStr@@QEAAXPEB_W@Z 0000000180055060     CEStr.obj
 0004:0000006c       $pdata$?Set@CEStr@@QEAAPEB_WPEB_W_J@Z 000000018005506c     CEStr.obj
 0004:00000078       $pdata$?StringCchCopyNW@@YAJPEA_W_KPEB_W1@Z 0000000180055078     CEStr.obj
 0004:00000084       $pdata$?PointToExt@@YAPEB_WPEB_W@Z 0000000180055084     CmdLine.obj
 0004:00000090       $pdata$?PointToName@@YAPEB_WPEB_W@Z 0000000180055090     CmdLine.obj
 0004:0000009c       $pdata$?Unquote@@YAPEB_WPEA_W_N@Z 000000018005509c     CmdLine.obj
 0004:000000a8       $pdata$?ExecuteCmd@@YAPEAUCESERVER_REQ@@PEB_WPEAU1@KPEAUHWND__@@HKH@Z 00000001800550a8     ConEmuCheck.obj
 0004:000000b4       $pdata$?ExecuteFreeResult@@YAXAEAPEAUCESERVER_REQ@@@Z 00000001800550b4     ConEmuCheck.obj
 0004:000000c0       $pdata$?ExecuteGuiCmd@@YAPEAUCESERVER_REQ@@PEAUHWND__@@PEAU1@0H@Z 00000001800550c0     ConEmuCheck.obj
 0004:000000cc       $pdata$?ExecuteNewCmd@@YAPEAUCESERVER_REQ@@K_K@Z 00000001800550cc     ConEmuCheck.obj
 0004:000000d8       $pdata$?ExecuteOpenPipe@@YAPEAXPEB_WAEAY0CAI@_W0KKHPEAXH@Z 00000001800550d8     ConEmuCheck.obj
 0004:000000e4       $pdata$?ExecutePrepareCmd@@YAXPEAUCESERVER_REQ@@K_K@Z 00000001800550e4     ConEmuCheck.obj
 0004:000000f0       $pdata$?ExecutePrepareCmd@@YAXPEAUCESERVER_REQ_HDR@@K_K@Z 00000001800550f0     ConEmuCheck.obj
 0004:000000fc       $pdata$?ModuleName@@YAPEB_WPEB_W@Z 00000001800550fc     ConEmuCheck.obj
 0004:00000108       $pdata$?StringCchCopyW@@YAJPEA_W_KPEB_W@Z 0000000180055108     ConEmuCheck.obj
 0004:00000114       $pdata$?ExitFARW3@@YAXPEAX@Z 0000000180055114     ConEmuTh.obj
 0004:00000114       $pdata$ExitFARW            0000000180055114     ConEmuTh.obj
 0004:00000120       $pdata$??_G?$MFileMapping@Utag_DetectedDialog@@@@QEAAPEAXI@Z 0000000180055120     ConEmuTh.obj
 0004:0000012c       $pdata$?ChangeExports@@YA_NPEBUExportFunc@@PEAUHINSTANCE__@@@Z 000000018005512c     ConEmuTh.obj
 0004:00000138       $pdata$?CheckConEmu@@YAHH@Z 0000000180055138     ConEmuTh.obj
 0004:00000144       $pdata$?CheckVarsInitialized@@YAXXZ 0000000180055144     ConEmuTh.obj
 0004:00000150       $pdata$?CheckWindows@@YA_NXZ 0000000180055150     ConEmuTh.obj
 0004:0000015c       $pdata$?EntryPoint@@YAXH_J_N@Z 000000018005515c     ConEmuTh.obj
 0004:00000168       $pdata$?ExecuteInMainThread@@YAXPEAUConEmuThSynchroArg@@@Z 0000000180055168     ConEmuTh.obj
 0004:00000174       $pdata$?ExitPlugin@@YAXXZ  0000000180055174     ConEmuTh.obj
 0004:00000180       $pdata$?FreeItem@CePluginPanelItem@@QEAAXXZ 0000000180055180     ConEmuTh.obj
 0004:0000018c       $pdata$?FreeUserData@CePluginPanelItem@@QEAAXXZ 000000018005518c     ConEmuTh.obj
 0004:00000198       $pdata$?GetFarRect@@YAHPEAU_SMALL_RECT@@@Z 0000000180055198     ConEmuTh.obj
 0004:000001a4       $pdata$?GetMainThreadId@@YAKXZ 00000001800551a4     ConEmuTh.obj
 0004:000001b0       $pdata$?InitName@?$MFileMapping@UPanelViewSetMapping@@@@QEAAPEB_WPEB_WKK@Z 00000001800551b0     ConEmuTh.obj
 0004:000001b0       $pdata$?InitName@?$MFileMapping@Utag_DetectedDialog@@@@QEAAPEB_WPEB_WKK@Z 00000001800551b0     ConEmuTh.obj
 0004:000001bc       $pdata$?InternalOpenCreate@?$MFileMapping@UPanelViewSetMapping@@@@IEAAPEAUPanelViewSetMapping@@HHH@Z 00000001800551bc     ConEmuTh.obj
 0004:000001c8       $pdata$?InternalOpenCreate@?$MFileMapping@Utag_DetectedDialog@@@@IEAAPEAUtag_DetectedDialog@@HHH@Z 00000001800551c8     ConEmuTh.obj
 0004:000001d4       $pdata$?IsThumbnailsActive@@YAPEAUCeFullPanelInfo@@H@Z 00000001800551d4     ConEmuTh.obj
 0004:000001e0       $pdata$?LoadFarVersion@@YAHXZ 00000001800551e0     ConEmuTh.obj
 0004:000001ec       $pdata$?LoadModuleVersion@@YA_NPEB_WAEAUtagVS_FIXEDFILEINFO@@PEA_W_K@Z 00000001800551ec     ConEmuTh.obj
 0004:000001f8       $pdata$?LoadThSet@@YAHK@Z  00000001800551f8     ConEmuTh.obj
 0004:00000204       $pdata$?OnPostPeekConsole@@YAHPEAXPEAU_INPUT_RECORD@@KPEAKPEAH@Z 0000000180055204     ConEmuTh.obj
 0004:00000210       $pdata$?OnPostReadConsole@@YAHPEAXPEAU_INPUT_RECORD@@KPEAKPEAH@Z 0000000180055210     ConEmuTh.obj
 0004:0000021c       $pdata$?OnPrePeekConsole@@YAHPEAXPEAU_INPUT_RECORD@@KPEAKPEAH@Z 000000018005521c     ConEmuTh.obj
 0004:00000228       $pdata$?OnPreWriteConsoleOutput@@YAHPEAXPEBU_CHAR_INFO@@U_COORD@@2PEAU_SMALL_RECT@@@Z 0000000180055228     ConEmuTh.obj
 0004:00000234       $pdata$?OnReadyForPanelsReload@@YAXXZ 0000000180055234     ConEmuTh.obj
 0004:00000240       $pdata$?OpenPluginWcmn@@YAPEAXH_J_N@Z 0000000180055240     ConEmuTh.obj
 0004:0000024c       $pdata$?OpenW@@YAPEAXPEBUOpenInfo@@@Z 000000018005524c     ConEmuTh.obj
 0004:00000258       $pdata$?PostMacro@@YAXPEA_W@Z 0000000180055258     ConEmuTh.obj
 0004:00000264       $pdata$?ProcessConsoleInput@@YAHHPEAU_INPUT_RECORD@@KPEAK@Z 0000000180055264     ConEmuTh.obj
 0004:00000270       $pdata$?ProcessSynchroEventCommon@@YAHHPEAX@Z 0000000180055270     ConEmuTh.obj
 0004:0000027c       $pdata$?ReloadPanelsInfo@@YAXXZ 000000018005527c     ConEmuTh.obj
 0004:00000288       $pdata$?ReloadResourcesW@@YAXXZ 0000000180055288     ConEmuTh.obj
 0004:00000294       $pdata$?SavePanelViewState@@YAXHK@Z 0000000180055294     ConEmuTh.obj
 0004:000002a0       $pdata$?SettingsLoadOther@@YAXPEB_W@Z 00000001800552a0     ConEmuTh.obj
 0004:000002ac       $pdata$?SettingsLoadReg@@YAHPEB_W0PEAK@Z 00000001800552ac     ConEmuTh.obj
 0004:000002b8       $pdata$?SettingsSaveReg@@YAXPEB_W0PEAK@Z 00000001800552b8     ConEmuTh.obj
 0004:000002c4       $pdata$?ShowLastError@@YAHXZ 00000001800552c4     ConEmuTh.obj
 0004:000002d0       $pdata$?StartPlugin@@YAXH@Z 00000001800552d0     ConEmuTh.obj
 0004:000002dc       $pdata$?StringCchCatW@@YAJPEA_W_KPEB_W@Z 00000001800552dc     ConEmuTh.obj
 0004:000002e8       $pdata$?UpdateEnvVar@@YAXH@Z 00000001800552e8     ConEmuTh.obj
 0004:000002f4       $pdata$DllMain             00000001800552f4     ConEmuTh.obj
 0004:00000300       $pdata$SetStartupInfoW     0000000180055300     ConEmuTh.obj
 0004:0000030c       $pdata$?CheckFarPanelsW1900@@YA_NXZ 000000018005530c     ConEmuTh1900.obj
 0004:00000318       $pdata$?CheckPanelSettingsW1900@@YAHH@Z 0000000180055318     ConEmuTh1900.obj
 0004:00000324       $pdata$?Color2BgIndex@Far3Color@@SAXKHAEAGPEBK@Z 0000000180055324     ConEmuTh1900.obj
 0004:00000330       $pdata$?Color2FgIndex@Far3Color@@SAXKAEAGPEBK@Z 0000000180055330     ConEmuTh1900.obj
 0004:0000033c       $pdata$?ExecuteInMainThreadW1900@@YAXPEAUConEmuThSynchroArg@@@Z 000000018005533c     ConEmuTh1900.obj
 0004:00000348       $pdata$?ExitFARW1900@@YAXXZ 0000000180055348     ConEmuTh1900.obj
 0004:00000354       $pdata$?FarColor_3_2@@YAEAEBUFarColor@@@Z 0000000180055354     ConEmuTh1900.obj
 0004:00000360       $pdata$?GetFarRectW1900@@YAXPEAU_SMALL_RECT@@@Z 0000000180055360     ConEmuTh1900.obj
 0004:0000036c       $pdata$?GetFarSetting@@YAHPEAX_KPEB_W@Z 000000018005536c     ConEmuTh1900.obj
 0004:00000378       $pdata$?GetPluginInfoW1900@@YAXPEAX@Z 0000000180055378     ConEmuTh1900.obj
 0004:00000384       $pdata$?LoadFarSettingsW1900@@YAXPEAUCEFarInterfaceSettings@@PEAUCEFarPanelSettings@@@Z 0000000180055384     ConEmuTh1900.obj
 0004:00000390       $pdata$?LoadPanelInfoW1900@@YAHH@Z 0000000180055390     ConEmuTh1900.obj
 0004:0000039c       $pdata$?LoadPanelItemInfoW1900@@YAXPEAUCeFullPanelInfo@@_J@Z 000000018005539c     ConEmuTh1900.obj
 0004:000003a8       $pdata$?PostMacroW1900@@YAXPEA_W@Z 00000001800553a8     ConEmuTh1900.obj
 0004:000003b4       $pdata$?ReloadPanelsInfoW1900@@YAXXZ 00000001800553b4     ConEmuTh1900.obj
 0004:000003c0       $pdata$?SetCurrentPanelItemW1900@@YAXH_J0@Z 00000001800553c0     ConEmuTh1900.obj
 0004:000003cc       $pdata$?SetStartupInfoW1900@@YAXPEAX@Z 00000001800553cc     ConEmuTh1900.obj
 0004:000003d8       $pdata$?SettingsLoadW1900@@YAHPEB_WPEAK@Z 00000001800553d8     ConEmuTh1900.obj
 0004:000003e4       $pdata$?SettingsSaveW1900@@YAXPEB_WPEAK@Z 00000001800553e4     ConEmuTh1900.obj
 0004:000003f0       $pdata$?ShowMessageW1900@@YAHHH@Z 00000001800553f0     ConEmuTh1900.obj
 0004:000003fc       $pdata$?ShowMessageW1900@@YAHPEB_WH@Z 00000001800553fc     ConEmuTh1900.obj
 0004:00000408       $pdata$?ShowPluginMenuW1900@@YAHXZ 0000000180055408     ConEmuTh1900.obj
 0004:00000414       $pdata$?CheckFarPanelsW2800@@YA_NXZ 0000000180055414     ConEmuTh2800.obj
 0004:00000420       $pdata$?CheckPanelSettingsW2800@@YAHH@Z 0000000180055420     ConEmuTh2800.obj
 0004:0000042c       $pdata$?ExecuteInMainThreadW2800@@YAXPEAUConEmuThSynchroArg@@@Z 000000018005542c     ConEmuTh2800.obj
 0004:00000438       $pdata$?ExitFARW2800@@YAXXZ 0000000180055438     ConEmuTh2800.obj
 0004:00000444       $pdata$?FreePanelItemUserData2800@@YAXPEAX_KP6A_JXZ@Z 0000000180055444     ConEmuTh2800.obj
 0004:00000450       $pdata$?GetFarRectW2800@@YAXPEAU_SMALL_RECT@@@Z 0000000180055450     ConEmuTh2800.obj
 0004:0000045c       $pdata$?GetFarSetting@@YAHPEAX_KPEB_W@Z 000000018005545c     ConEmuTh2800.obj
 0004:00000468       $pdata$?GetPluginInfoW2800@@YAXPEAX@Z 0000000180055468     ConEmuTh2800.obj
 0004:00000474       $pdata$?LoadFarSettingsW2800@@YAXPEAUCEFarInterfaceSettings@@PEAUCEFarPanelSettings@@@Z 0000000180055474     ConEmuTh2800.obj
 0004:00000480       $pdata$?LoadPanelInfoW2800@@YAHH@Z 0000000180055480     ConEmuTh2800.obj
 0004:0000048c       $pdata$?LoadPanelItemInfoW2800@@YAXPEAUCeFullPanelInfo@@_J@Z 000000018005548c     ConEmuTh2800.obj
 0004:00000498       $pdata$?OpenW2800@@YAPEAXPEBX@Z 0000000180055498     ConEmuTh2800.obj
 0004:000004a4       $pdata$?PostMacroW2800@@YAXPEA_W@Z 00000001800554a4     ConEmuTh2800.obj
 0004:000004b0       $pdata$?ProcessSynchroEventW3@@YA_JPEAX@Z 00000001800554b0     ConEmuTh2800.obj
 0004:000004bc       $pdata$?ReloadPanelsInfoW2800@@YAXXZ 00000001800554bc     ConEmuTh2800.obj
 0004:000004c8       $pdata$?SetCurrentPanelItemW2800@@YAXH_J0@Z 00000001800554c8     ConEmuTh2800.obj
 0004:000004d4       $pdata$?SetCurrentPanelItemW2800Int@@YAXH_J0@Z 00000001800554d4     ConEmuTh2800.obj
 0004:000004e0       $pdata$?SetStartupInfoW2800@@YAXPEAX@Z 00000001800554e0     ConEmuTh2800.obj
 0004:000004ec       $pdata$?SettingsLoadW2800@@YAHPEB_WPEAK@Z 00000001800554ec     ConEmuTh2800.obj
 0004:000004f8       $pdata$?SettingsSaveW2800@@YAXPEB_WPEAK@Z 00000001800554f8     ConEmuTh2800.obj
 0004:00000504       $pdata$?ShowMessageW2800@@YAHHH@Z 0000000180055504     ConEmuTh2800.obj
 0004:00000510       $pdata$?ShowMessageW2800@@YAHPEB_WH@Z 0000000180055510     ConEmuTh2800.obj
 0004:0000051c       $pdata$?ShowPluginMenuW2800@@YAHXZ 000000018005551c     ConEmuTh2800.obj
 0004:00000528       $pdata$GetGlobalInfoW      0000000180055528     ConEmuTh2800.obj
 0004:00000534       $pdata$?CheckFarPanelsW995@@YA_NXZ 0000000180055534     ConEmuTh995.obj
 0004:00000540       $pdata$?CheckPanelSettingsW995@@YAHH@Z 0000000180055540     ConEmuTh995.obj
 0004:0000054c       $pdata$?ExecuteInMainThreadW995@@YAXPEAUConEmuThSynchroArg@@@Z 000000018005554c     ConEmuTh995.obj
 0004:00000558       $pdata$?ExitFARW995@@YAXXZ 0000000180055558     ConEmuTh995.obj
 0004:00000564       $pdata$?GetFarRectW995@@YAXPEAU_SMALL_RECT@@@Z 0000000180055564     ConEmuTh995.obj
 0004:00000570       $pdata$?GetPluginInfoW995@@YAXPEAX@Z 0000000180055570     ConEmuTh995.obj
 0004:0000057c       $pdata$?LoadFarSettingsW995@@YAXPEAUCEFarInterfaceSettings@@PEAUCEFarPanelSettings@@@Z 000000018005557c     ConEmuTh995.obj
 0004:00000588       $pdata$?LoadPanelInfo995@@YAHH@Z 0000000180055588     ConEmuTh995.obj
 0004:00000594       $pdata$?LoadPanelItemInfoW995@@YAXPEAUCeFullPanelInfo@@_J@Z 0000000180055594     ConEmuTh995.obj
 0004:000005a0       $pdata$?PostMacroW995@@YAXPEA_W@Z 00000001800555a0     ConEmuTh995.obj
 0004:000005ac       $pdata$?ReloadPanelsInfoW995@@YAXXZ 00000001800555ac     ConEmuTh995.obj
 0004:000005b8       $pdata$?SetCurrentPanelItemW995@@YAXH_J0@Z 00000001800555b8     ConEmuTh995.obj
 0004:000005c4       $pdata$?SetStartupInfoW995@@YAXPEAX@Z 00000001800555c4     ConEmuTh995.obj
 0004:000005d0       $pdata$?ShowMessageW995@@YAHHH@Z 00000001800555d0     ConEmuTh995.obj
 0004:000005dc       $pdata$?ShowMessageW995@@YAHPEB_WH@Z 00000001800555dc     ConEmuTh995.obj
 0004:000005e8       $pdata$?ShowPluginMenuW995@@YAHXZ 00000001800555e8     ConEmuTh995.obj
 0004:000005f4       $pdata$?CheckFarPanelsA@@YA_NXZ 00000001800555f4     ConEmuThA.obj
 0004:00000600       $pdata$?CheckPanelSettingsA@@YAHH@Z 0000000180055600     ConEmuThA.obj
 0004:0000060c       $pdata$?GetMsgA@@YAPEB_WHPEA_W@Z 000000018005560c     ConEmuThA.obj
 0004:00000618       $pdata$?LoadFarSettingsA@@YAXPEAUCEFarInterfaceSettings@@PEAUCEFarPanelSettings@@@Z 0000000180055618     ConEmuThA.obj
 0004:00000624       $pdata$?LoadPanelInfoA@@YAHH@Z 0000000180055624     ConEmuThA.obj
 0004:00000630       $pdata$?PostMacroA@@YAXPEAD@Z 0000000180055630     ConEmuThA.obj
 0004:0000063c       $pdata$?ReloadPanelsInfoA@@YAXXZ 000000018005563c     ConEmuThA.obj
 0004:00000648       $pdata$?ReloadResourcesA@@YAXXZ 0000000180055648     ConEmuThA.obj
 0004:00000654       $pdata$?SetCurrentPanelItemA@@YAXH_J0@Z 0000000180055654     ConEmuThA.obj
 0004:00000660       $pdata$?ShowMessageA@@YAHHH@Z 0000000180055660     ConEmuThA.obj
 0004:0000066c       $pdata$?ShowMessageA@@YAHPEBDH@Z 000000018005566c     ConEmuThA.obj
 0004:00000678       $pdata$?ShowPluginMenuA@@YAHXZ 0000000180055678     ConEmuThA.obj
 0004:00000684       $pdata$ExitFAR             0000000180055684     ConEmuThA.obj
 0004:00000690       $pdata$GetMinFarVersion    0000000180055690     ConEmuThA.obj
 0004:0000069c       $pdata$GetPluginInfo       000000018005569c     ConEmuThA.obj
 0004:000006a8       $pdata$OpenPlugin          00000001800556a8     ConEmuThA.obj
 0004:000006b4       $pdata$SetStartupInfo      00000001800556b4     ConEmuThA.obj
 0004:000006c0       $pdata$?CalcTopPanelItem@CeFullPanelInfo@@QEAA_J_J0@Z 00000001800556c0     Display.obj
 0004:000006cc       $pdata$?Close@CeFullPanelInfo@@QEAAXXZ 00000001800556cc     Display.obj
 0004:000006d8       $pdata$?CreateView@CeFullPanelInfo@@QEAAPEAUHWND__@@XZ 00000001800556d8     Display.obj
 0004:000006e4       $pdata$?DisplayReloadPanel@CeFullPanelInfo@@QEAAXXZ 00000001800556e4     Display.obj
 0004:000006f0       $pdata$?DisplayThread@CeFullPanelInfo@@SAKPEAX@Z 00000001800556f0     Display.obj
 0004:000006fc       $pdata$?DisplayWndProc@CeFullPanelInfo@@SA_JPEAUHWND__@@I_K_J@Z 00000001800556fc     Display.obj
 0004:00000708       $pdata$?DrawItemText@CeFullPanelInfo@@QEAAHPEAUHDC__@@PEAUtagRECT@@1PEAUCePluginPanelItem@@PEB_WPEAUHBRUSH__@@H@Z 0000000180055708     Display.obj
 0004:00000714       $pdata$?FarItem2CeItem@CeFullPanelInfo@@QEAAH_JPEB_W1KU_FILETIME@@_KHPEAX3P6A_JXZ3K@Z 0000000180055714     Display.obj
 0004:00000720       $pdata$?FinalRelease@CeFullPanelInfo@@QEAAXXZ 0000000180055720     Display.obj
 0004:0000072c       $pdata$?GetIndexFromWndCoord@CeFullPanelInfo@@QEAAHHHAEA_J@Z 000000018005572c     Display.obj
 0004:00000738       $pdata$?GetItemColors@CeFullPanelInfo@@QEAAPEAUHBRUSH__@@_JPEAUCePluginPanelItem@@PEAUCePluginPanelItemColor@@HAEAK3@Z 0000000180055738     Display.obj
 0004:00000744       $pdata$?Invalidate@CeFullPanelInfo@@QEAAXXZ 0000000180055744     Display.obj
 0004:00000750       $pdata$?InvalidateAll@CeFullPanelInfo@@SAXXZ 0000000180055750     Display.obj
 0004:0000075c       $pdata$?LoadItemColors@CeFullPanelInfo@@QEAAX_JPEAUCePluginPanelItem@@PEAUCePluginPanelItemColor@@HH@Z 000000018005575c     Display.obj
 0004:00000768       $pdata$?OnSettingsChanged@CeFullPanelInfo@@QEAAHH@Z 0000000180055768     Display.obj
 0004:00000774       $pdata$?Paint@CeFullPanelInfo@@QEAAXPEAUHWND__@@AEAUtagPAINTSTRUCT@@AEAUtagRECT@@@Z 0000000180055774     Display.obj
 0004:00000780       $pdata$?PaintItem@CeFullPanelInfo@@QEAAHPEAUHDC__@@_JHHPEAUCePluginPanelItem@@PEAUCePluginPanelItemColor@@HHPEAUHBRUSH__@@4K@Z 0000000180055780     Display.obj
 0004:0000078c       $pdata$?ReallocItems@CeFullPanelInfo@@QEAAH_J@Z 000000018005578c     Display.obj
 0004:00000798       $pdata$?RegisterPanelView@CeFullPanelInfo@@QEAAHXZ 0000000180055798     Display.obj
 0004:000007a4       $pdata$?RequestSetPos@CeFullPanelInfo@@QEAAX_J0H@Z 00000001800557a4     Display.obj
 0004:000007b0       $pdata$?UnregisterPanelView@CeFullPanelInfo@@QEAAH_N@Z 00000001800557b0     Display.obj
 0004:000007bc       $pdata$?Init@HkFunc@@QEAA_NPEB_WPEAUHINSTANCE__@@@Z 00000001800557bc     HkFunc.obj
 0004:000007c8       $pdata$??$SafeDelete@UMSectionSimple@@@@YAXAEAPEAUMSectionSimple@@@Z 00000001800557c8     ImgCache.obj
 0004:000007d4       $pdata$??0?$CQueueProcessor@PEAUIMAGE_CACHE_INFO@@@@QEAA@XZ 00000001800557d4     ImgCache.obj
 0004:000007e0       $pdata$??0CImgCache@@QEAA@PEAUHINSTANCE__@@@Z 00000001800557e0     ImgCache.obj
 0004:000007ec       $pdata$??1?$CQueueProcessor@PEAUIMAGE_CACHE_INFO@@@@UEAA@XZ 00000001800557ec     ImgCache.obj
 0004:000007f8       $pdata$??1CImgCache@@QEAA@XZ 00000001800557f8     ImgCache.obj
 0004:00000804       $pdata$??_GCImgLoader@@UEAAPEAXI@Z 0000000180055804     ImgCache.obj
 0004:00000804       $pdata$??_G?$CQueueProcessor@PEAUIMAGE_CACHE_INFO@@@@UEAAPEAXI@Z 0000000180055804     ImgCache.obj
 0004:00000810       $pdata$?CheckDrawDibCreated@CImgCache@@IEAAHXZ 0000000180055810     ImgCache.obj
 0004:0000081c       $pdata$?CheckLoadDibCreated@CImgCache@@IEAAHXZ 000000018005581c     ImgCache.obj
 0004:00000828       $pdata$?CheckThread@?$CQueueProcessor@PEAUIMAGE_CACHE_INFO@@@@IEAAJXZ 0000000180055828     ImgCache.obj
 0004:00000834       $pdata$?ClearQueue@?$CQueueProcessor@PEAUIMAGE_CACHE_INFO@@@@AEAAXXZ 0000000180055834     ImgCache.obj
 0004:00000840       $pdata$?CopyBits@CImgCache@@IEAAXU_COORD@@PEAEK01@Z 0000000180055840     ImgCache.obj
 0004:0000084c       $pdata$?CopyItem@?$CQueueProcessor@PEAUIMAGE_CACHE_INFO@@@@MEAAXPEBQEAUIMAGE_CACHE_INFO@@PEAPEAU2@@Z 000000018005584c     ImgCache.obj
 0004:00000858       $pdata$?FindInCache@CImgCache@@IEAAHPEAUCePluginPanelItem@@PEAHI@Z 0000000180055858     ImgCache.obj
 0004:00000864       $pdata$?FindOrCreate@?$CQueueProcessor@PEAUIMAGE_CACHE_INFO@@@@AEAAPEAUProcessingItem@1@AEBQEAUIMAGE_CACHE_INFO@@_J_NW4ProcessingPriority@@@Z 0000000180055864     ImgCache.obj
 0004:00000870       $pdata$?FreeModules@CImgCache@@IEAAXXZ 0000000180055870     ImgCache.obj
 0004:0000087c       $pdata$?Init@CImgCache@@QEAAXK@Z 000000018005587c     ImgCache.obj
 0004:00000888       $pdata$?InitializeQueue@?$CQueueProcessor@PEAUIMAGE_CACHE_INFO@@@@AEAAXH@Z 0000000180055888     ImgCache.obj
 0004:00000894       $pdata$?LoadModules@CImgCache@@IEAAXXZ 0000000180055894     ImgCache.obj
 0004:000008a0       $pdata$?LoadShellIcon@CImgCache@@QEAAHPEAUIMAGE_CACHE_INFO@@H@Z 00000001800558a0     ImgCache.obj
 0004:000008ac       $pdata$?LoadThumbnail@CImgCache@@QEAAHPEAUIMAGE_CACHE_INFO@@@Z 00000001800558ac     ImgCache.obj
 0004:000008b8       $pdata$?OnThreadStarted@CImgLoader@@UEAAJXZ 00000001800558b8     ImgCache.obj
 0004:000008c4       $pdata$?PaintItem@CImgCache@@QEAAHPEAUHDC__@@HHHPEAUCePluginPanelItem@@PEAPEB_WPEAH@Z 00000001800558c4     ImgCache.obj
 0004:000008d0       $pdata$?ProcessItem@?$CQueueProcessor@PEAUIMAGE_CACHE_INFO@@@@IEAAJPEAUProcessingItem@1@@Z 00000001800558d0     ImgCache.obj
 0004:000008dc       $pdata$?ProcessItem@CImgLoader@@UEAAJAEAPEAUIMAGE_CACHE_INFO@@_J@Z 00000001800558dc     ImgCache.obj
 0004:000008e8       $pdata$?ProcessingStep@?$CQueueProcessor@PEAUIMAGE_CACHE_INFO@@@@IEAA_NXZ 00000001800558e8     ImgCache.obj
 0004:000008f4       $pdata$?ProcessingThread@?$CQueueProcessor@PEAUIMAGE_CACHE_INFO@@@@KAKPEAX@Z 00000001800558f4     ImgCache.obj
 0004:00000900       $pdata$?RequestItem@CImgCache@@QEAAHPEAUCePluginPanelItem@@I@Z 0000000180055900     ImgCache.obj
 0004:0000090c       $pdata$?Reset@CImgCache@@QEAAXXZ 000000018005590c     ImgCache.obj
 0004:00000918       $pdata$?SetCacheLocation@CImgCache@@QEAAXPEB_W@Z 0000000180055918     ImgCache.obj
 0004:00000924       $pdata$?HeapDeinitialize@@YAXXZ 0000000180055924     Memory.obj
 0004:00000930       $pdata$?HeapInitialize@@YA_NXZ 0000000180055930     Memory.obj
 0004:0000093c       $pdata$?xf_free@@YAXPEAX@Z 000000018005593c     Memory.obj
 0004:00000948       $pdata$??1?$MToolHelp@UtagPROCESSENTRY32W@@$1?Process32FirstW@@YAHPEAXPEAU1@@Z$1?Process32NextW@@YAH01@Z@@UEAA@XZ 0000000180055948     MProcess.obj
 0004:00000954       $pdata$??_G?$MToolHelp@UtagPROCESSENTRY32W@@$1?Process32FirstW@@YAHPEAXPEAU1@@Z$1?Process32NextW@@YAH01@Z@@UEAAPEAXI@Z 0000000180055954     MProcess.obj
 0004:00000954       $pdata$??_GMToolHelpProcess@@UEAAPEAXI@Z 0000000180055954     MProcess.obj
 0004:00000960       $pdata$?Find@?$MToolHelp@UtagPROCESSENTRY32W@@$1?Process32FirstW@@YAHPEAXPEAU1@@Z$1?Process32NextW@@YAH01@Z@@QEAA_NP6A_NPEAUtagPROCESSENTRY32W@@_J@Z10@Z 0000000180055960     MProcess.obj
 0004:0000096c       $pdata$?Open@?$MToolHelp@UtagPROCESSENTRY32W@@$1?Process32FirstW@@YAHPEAXPEAU1@@Z$1?Process32NextW@@YAH01@Z@@QEAA_NXZ 000000018005596c     MProcess.obj
 0004:00000978       $pdata$?addsize@?$MArray@UtagPROCESSENTRY32W@@@@QEAAX_J@Z 0000000180055978     MProcess.obj
 0004:00000984       $pdata$?getNext@?$MToolHelp@UtagPROCESSENTRY32W@@$1?Process32FirstW@@YAHPEAXPEAU1@@Z$1?Process32NextW@@YAH01@Z@@IEAA_NXZ 0000000180055984     MProcess.obj
 0004:00000990       $pdata$?isTerminalMode@@YA_NXZ 0000000180055990     MProcess.obj
 0004:0000099c       $pdata$?push_back@?$MArray@UtagPROCESSENTRY32W@@@@QEAA_JAEBUtagPROCESSENTRY32W@@@Z 000000018005599c     MProcess.obj
 0004:000009a8       $pdata$??0MSection@@QEAA@XZ 00000001800559a8     MSection.obj
 0004:000009b4       $pdata$??1MSection@@QEAA@XZ 00000001800559b4     MSection.obj
 0004:000009c0       $pdata$??1MSectionLock@@QEAA@XZ 00000001800559c0     MSection.obj
 0004:000009cc       $pdata$?AddRef@MSection@@IEAAXK@Z 00000001800559cc     MSection.obj
 0004:000009d8       $pdata$?Lock@MSection@@IEAAHHK@Z 00000001800559d8     MSection.obj
 0004:000009e4       $pdata$?Lock@MSectionLock@@QEAAHPEAVMSection@@HK@Z 00000001800559e4     MSection.obj
 0004:000009f0       $pdata$?MyEnterCriticalSection@MSection@@IEAA_NK@Z 00000001800559f0     MSection.obj
 0004:000009fc       $pdata$?ReleaseRef@MSection@@IEAAHK@Z 00000001800559fc     MSection.obj
 0004:00000a08       $pdata$?Unlock@MSection@@IEAAXH@Z 0000000180055a08     MSection.obj
 0004:00000a14       $pdata$?Unlock@MSectionLock@@QEAAXXZ 0000000180055a14     MSection.obj
 0004:00000a20       $pdata$?WaitUnlocked@MSection@@IEAAXKK@Z 0000000180055a20     MSection.obj
 0004:00000a2c       $pdata$??0MSectionSimple@@QEAA@_N@Z 0000000180055a2c     MSectionSimple.obj
 0004:00000a38       $pdata$??1MSectionLockSimple@@QEAA@XZ 0000000180055a38     MSectionSimple.obj
 0004:00000a44       $pdata$?Close@MSectionSimple@@QEAAXXZ 0000000180055a44     MSectionSimple.obj
 0004:00000a44       $pdata$??1MSectionSimple@@QEAA@XZ 0000000180055a44     MSectionSimple.obj
 0004:00000a50       $pdata$?Init@MSectionSimple@@QEAAXXZ 0000000180055a50     MSectionSimple.obj
 0004:00000a5c       $pdata$?Lock@MSectionLockSimple@@QEAAHPEAUMSectionSimple@@K@Z 0000000180055a5c     MSectionSimple.obj
 0004:00000a68       $pdata$?RecreateAndLock@MSectionSimple@@QEAA_NXZ 0000000180055a68     MSectionSimple.obj
 0004:00000a74       $pdata$?TryEnter@MSectionSimple@@QEAA_NXZ 0000000180055a74     MSectionSimple.obj
 0004:00000a80       $pdata$?Unlock@MSectionLockSimple@@QEAAXXZ 0000000180055a80     MSectionSimple.obj
 0004:00000a8c       $pdata$??_GMNullDesc@@QEAAPEAXI@Z 0000000180055a8c     MSecurity.obj
 0004:00000a98       $pdata$?LoadAdvApi@MNullDesc@@IEAAHXZ 0000000180055a98     MSecurity.obj
 0004:00000aa4       $pdata$?LocalSecurity@@YAPEAU_SECURITY_ATTRIBUTES@@XZ 0000000180055aa4     MSecurity.obj
 0004:00000ab0       $pdata$?LocalSecurity@MNullDesc@@QEAAPEAU_SECURITY_ATTRIBUTES@@XZ 0000000180055ab0     MSecurity.obj
 0004:00000abc       $pdata$?ShutdownSecurity@@YAXXZ 0000000180055abc     MSecurity.obj
 0004:00000ac8       $pdata$?lstrdup@@YAPEA_WPEB_W_K@Z 0000000180055ac8     MStrDup.obj
 0004:00000ad4       $pdata$?lstrmerge@@YAPEA_WPEB_W00000000@Z 0000000180055ad4     MStrDup.obj
 0004:00000ae0       $pdata$?msprintf@@YAPEB_WPEA_W_KPEB_WZZ 0000000180055ae0     MStrSafe.obj
 0004:00000aec       $pdata$??0CRgnDetect@@QEAA@XZ 0000000180055aec     RgnDetect.obj
 0004:00000af8       $pdata$??1CRgnDetect@@QEAA@XZ 0000000180055af8     RgnDetect.obj
 0004:00000b04       $pdata$?DetectDialog@CRgnDetect@@IEAA_NPEA_WPEAUtag_CharAttr@@HHHHPEAH2@Z 0000000180055b04     RgnDetect.obj
 0004:00000b10       $pdata$?ExpandDialogFrame@CRgnDetect@@IEAA_NPEA_WPEAUtag_CharAttr@@HHAEAH2HH22@Z 0000000180055b10     RgnDetect.obj
 0004:00000b1c       $pdata$?FindByBackground@CRgnDetect@@IEAA_NPEA_WPEAUtag_CharAttr@@HHAEAH222AEA_N@Z 0000000180055b1c     RgnDetect.obj
 0004:00000b28       $pdata$?FindDialog_Any@CRgnDetect@@IEAA_NPEA_WPEAUtag_CharAttr@@HHAEAH222AEA_N@Z 0000000180055b28     RgnDetect.obj
 0004:00000b34       $pdata$?FindDialog_Inner@CRgnDetect@@IEAA_NPEA_WPEAUtag_CharAttr@@HHAEAH2@Z 0000000180055b34     RgnDetect.obj
 0004:00000b40       $pdata$?FindDialog_Left@CRgnDetect@@IEAA_NPEA_WPEAUtag_CharAttr@@HHAEAH222AEA_N@Z 0000000180055b40     RgnDetect.obj
 0004:00000b4c       $pdata$?FindDialog_Right@CRgnDetect@@IEAA_NPEA_WPEAUtag_CharAttr@@HHAEAH222AEA_N@Z 0000000180055b4c     RgnDetect.obj
 0004:00000b58       $pdata$?FindDialog_TopLeft@CRgnDetect@@IEAA_NPEA_WPEAUtag_CharAttr@@HHAEAH222AEA_N@Z 0000000180055b58     RgnDetect.obj
 0004:00000b64       $pdata$?FindDialog_TopRight@CRgnDetect@@IEAA_NPEA_WPEAUtag_CharAttr@@HHAEAH222AEA_N@Z 0000000180055b64     RgnDetect.obj
 0004:00000b70       $pdata$?FindFrameBottom_ByLeft@CRgnDetect@@IEAA_NPEA_WPEAUtag_CharAttr@@HHAEAH22@Z 0000000180055b70     RgnDetect.obj
 0004:00000b7c       $pdata$?FindFrameBottom_ByRight@CRgnDetect@@IEAA_NPEA_WPEAUtag_CharAttr@@HHAEAH22@Z 0000000180055b7c     RgnDetect.obj
 0004:00000b88       $pdata$?FindFrameLeft_ByBottom@CRgnDetect@@IEAA_NPEA_WPEAUtag_CharAttr@@HHAEAH22@Z 0000000180055b88     RgnDetect.obj
 0004:00000b94       $pdata$?FindFrameLeft_ByTop@CRgnDetect@@IEAA_NPEA_WPEAUtag_CharAttr@@HHAEAH22@Z 0000000180055b94     RgnDetect.obj
 0004:00000ba0       $pdata$?FindFrameRight_ByBottom@CRgnDetect@@IEAA_NPEA_WPEAUtag_CharAttr@@HHAEAH22@Z 0000000180055ba0     RgnDetect.obj
 0004:00000bac       $pdata$?FindFrameRight_ByTop@CRgnDetect@@IEAA_NPEA_WPEAUtag_CharAttr@@HHAEAH22@Z 0000000180055bac     RgnDetect.obj
 0004:00000bb8       $pdata$?FindFrameTop_ByLeft@CRgnDetect@@IEAA_NPEA_WPEAUtag_CharAttr@@HHAEAH22@Z 0000000180055bb8     RgnDetect.obj
 0004:00000bc4       $pdata$?FindFrameTop_ByRight@CRgnDetect@@IEAA_NPEA_WPEAUtag_CharAttr@@HHAEAH22@Z 0000000180055bc4     RgnDetect.obj
 0004:00000bd0       $pdata$?FindFrame_TopLeft@CRgnDetect@@IEAA_NPEA_WPEAUtag_CharAttr@@HHAEAH222@Z 0000000180055bd0     RgnDetect.obj
 0004:00000bdc       $pdata$?InitializeSBI@CRgnDetect@@QEAAHPEBK@Z 0000000180055bdc     RgnDetect.obj
 0004:00000be8       $pdata$?MarkDialog@CRgnDetect@@IEAAHPEA_WPEAUtag_CharAttr@@HHHHHHI_NK@Z 0000000180055be8     RgnDetect.obj
 0004:00000bf4       $pdata$?OnWriteConsoleOutput@CRgnDetect@@QEAAXPEBU_CHAR_INFO@@U_COORD@@1PEAU_SMALL_RECT@@PEBK@Z 0000000180055bf4     RgnDetect.obj
 0004:00000c00       $pdata$?PrepareTransparent@CRgnDetect@@QEAAXPEBUCEFAR_INFO_MAPPING@@PEBK@Z 0000000180055c00     RgnDetect.obj
 0004:00000c0c       $pdata$?PrepareTransparent@CRgnDetect@@QEAAXPEBUCEFAR_INFO_MAPPING@@PEBKPEBU_CONSOLE_SCREEN_BUFFER_INFO@@PEA_WPEAUtag_CharAttr@@HH@Z 0000000180055c0c     RgnDetect.obj
 0004:00000c18       $pdata$?SearchAppPaths@@YA_NPEB_WAEAUCEStr@@_NPEAU1@@Z 0000000180055c18     WFiles.obj
 0004:00000c24       $pdata$?ExpandEnvStr@@YAPEA_WPEB_W@Z 0000000180055c24     WObjects.obj
 0004:00000c30       $pdata$?FileExists@@YA_NPEB_WPEAK@Z 0000000180055c30     WObjects.obj
 0004:00000c3c       $pdata$?GetEnvVar@@YAPEA_WPEB_W@Z 0000000180055c3c     WObjects.obj
 0004:00000c48       $pdata$?SetThreadName@@YAXKPEAD@Z 0000000180055c48     WThreads.obj
 0004:00000c54       $pdata$?apiCreateThread@@YAPEAXP6AKPEAX@Z0PEAKPEBDH@Z 0000000180055c54     WThreads.obj
 0004:00000c60       $pdata$?apiTerminateThreadEx@@YAHPEAXKPEBDH@Z 0000000180055c60     WThreads.obj
 0004:00000c6c       $pdata$?apiThreadHelper@@YAKPEAX@Z 0000000180055c6c     WThreads.obj
 0004:00000c78       $pdata$?apiShowWindow@@YA_NPEAUHWND__@@H@Z 0000000180055c78     WUser.obj
 0004:00000c84       $pdata$?dllmain_crt_dispatch@@YAHQEAUHINSTANCE__@@KQEAX@Z 0000000180055c84     LIBCMT:dll_dllmain.obj
 0004:00000c90       $pdata$?dllmain_crt_process_attach@@YAHQEAUHINSTANCE__@@QEAX@Z 0000000180055c90     LIBCMT:dll_dllmain.obj
 0004:00000c9c       $pdata$?dllmain_crt_process_detach@@YAH_N@Z 0000000180055c9c     LIBCMT:dll_dllmain.obj
 0004:00000ca8       $pdata$?dllmain_dispatch@@YAHQEAUHINSTANCE__@@KQEAX@Z 0000000180055ca8     LIBCMT:dll_dllmain.obj
 0004:00000cb4       $pdata$?dllmain_raw@@YAHQEAUHINSTANCE__@@KQEAX@Z 0000000180055cb4     LIBCMT:dll_dllmain.obj
 0004:00000cc0       $pdata$_DllMainCRTStartup  0000000180055cc0     LIBCMT:dll_dllmain.obj
 0004:00000ccc       $pdata$__scrt_acquire_startup_lock 0000000180055ccc     LIBCMT:utility.obj
 0004:00000cd8       $pdata$__scrt_dllmain_after_initialize_c 0000000180055cd8     LIBCMT:utility.obj
 0004:00000ce4       $pdata$__scrt_dllmain_before_initialize_c 0000000180055ce4     LIBCMT:utility.obj
 0004:00000cf0       $pdata$__scrt_dllmain_crt_thread_attach 0000000180055cf0     LIBCMT:utility.obj
 0004:00000cfc       $pdata$__scrt_dllmain_crt_thread_detach 0000000180055cfc     LIBCMT:utility.obj
 0004:00000d08       $pdata$__scrt_dllmain_exception_filter 0000000180055d08     LIBCMT:utility.obj
 0004:00000d14       $pdata$__scrt_dllmain_uninitialize_c 0000000180055d14     LIBCMT:utility.obj
 0004:00000d20       $pdata$__scrt_dllmain_uninitialize_critical 0000000180055d20     LIBCMT:utility.obj
 0004:00000d2c       $pdata$__scrt_initialize_crt 0000000180055d2c     LIBCMT:utility.obj
 0004:00000d38       $pdata$__scrt_initialize_onexit_tables 0000000180055d38     LIBCMT:utility.obj
 0004:00000d44       $pdata$__scrt_is_nonwritable_in_current_image 0000000180055d44     LIBCMT:utility.obj
 0004:00000d50       $pdata$__scrt_release_startup_lock 0000000180055d50     LIBCMT:utility.obj
 0004:00000d5c       $pdata$__scrt_uninitialize_crt 0000000180055d5c     LIBCMT:utility.obj
 0004:00000d68       $pdata$_onexit             0000000180055d68     LIBCMT:utility.obj
 0004:00000d74       $pdata$atexit              0000000180055d74     LIBCMT:utility.obj
 0004:00000d80       $pdata$__security_init_cookie 0000000180055d80     LIBCMT:gs_support.obj
 0004:00000d8c       $pdata$__scrt_initialize_default_local_stdio_options 0000000180055d8c     LIBCMT:default_local_stdio_options.obj
 0004:00000d98       $pdata$__scrt_fastfail     0000000180055d98     LIBCMT:utility_desktop.obj
 0004:00000da4       $pdata$_RTC_Initialize     0000000180055da4     LIBCMT:_initsect_.obj
 0004:00000db0       $pdata$_RTC_Terminate      0000000180055db0     LIBCMT:_initsect_.obj
 0004:00000dbc       $pdata$__isa_available_init 0000000180055dbc     LIBCMT:_cpu_disp_.obj
 0004:00000dd4       $pdata$strrchr             0000000180055dd4     libvcruntime:strrchr.obj
 0004:00000de0       $pdata$wcschr              0000000180055de0     libvcruntime:wcschr.obj
 0004:00000e04       $pdata$__C_specific_handler 0000000180055e04     libvcruntime:_chandler_.obj
 0004:00000e10       $pdata$strchr              0000000180055e10     libvcruntime:strchr.obj
 0004:00000e1c       $pdata$__telemetry_main_invoke_trigger 0000000180055e1c     libvcruntime:telemetry.obj
 0004:00000e28       $pdata$__telemetry_main_return_trigger 0000000180055e28     libvcruntime:telemetry.obj
 0004:00000e34       $pdata$__vcrt_uninitialize_telemetry_provider 0000000180055e34     libvcruntime:telemetry.obj
 0004:00000e40       $pdata$__vcrt_initialize   0000000180055e40     libvcruntime:initialization.obj
 0004:00000e4c       $pdata$__vcrt_thread_attach 0000000180055e4c     libvcruntime:initialization.obj
 0004:00000e58       $pdata$__vcrt_thread_detach 0000000180055e58     libvcruntime:initialization.obj
 0004:00000e64       $pdata$__vcrt_uninitialize 0000000180055e64     libvcruntime:initialization.obj
 0004:00000e70       $pdata$__vcrt_uninitialize_critical 0000000180055e70     libvcruntime:initialization.obj
 0004:00000e7c       $pdata$__std_type_info_destroy_list 0000000180055e7c     libvcruntime:std_type_info.obj
 0004:00000eb8       $pdata$?try_get_function@@YAPEAXW4function_id@?A0x61ce2399@@QEBDQEBW4module_id@2@2@Z 0000000180055eb8     libvcruntime:winapi_downlevel.obj
 0004:00000ec4       $pdata$__vcrt_EventRegister 0000000180055ec4     libvcruntime:winapi_downlevel.obj
 0004:00000ed0       $pdata$__vcrt_EventSetInformation 0000000180055ed0     libvcruntime:winapi_downlevel.obj
 0004:00000edc       $pdata$__vcrt_EventUnregister 0000000180055edc     libvcruntime:winapi_downlevel.obj
 0004:00000ee8       $pdata$__vcrt_EventWriteTransfer 0000000180055ee8     libvcruntime:winapi_downlevel.obj
 0004:00000ef4       $pdata$__vcrt_FlsAlloc     0000000180055ef4     libvcruntime:winapi_downlevel.obj
 0004:00000f00       $pdata$__vcrt_FlsFree      0000000180055f00     libvcruntime:winapi_downlevel.obj
 0004:00000f0c       $pdata$__vcrt_FlsGetValue  0000000180055f0c     libvcruntime:winapi_downlevel.obj
 0004:00000f18       $pdata$__vcrt_FlsSetValue  0000000180055f18     libvcruntime:winapi_downlevel.obj
 0004:00000f24       $pdata$__vcrt_InitializeCriticalSectionEx 0000000180055f24     libvcruntime:winapi_downlevel.obj
 0004:00000f30       $pdata$__vcrt_initialize_winapi_thunks 0000000180055f30     libvcruntime:winapi_downlevel.obj
 0004:00000f3c       $pdata$__vcrt_uninitialize_winapi_thunks 0000000180055f3c     libvcruntime:winapi_downlevel.obj
 0004:00000f48       $pdata$__vcrt_freefls      0000000180055f48     libvcruntime:per_thread_data.obj
 0004:00000f54       $pdata$__vcrt_freeptd      0000000180055f54     libvcruntime:per_thread_data.obj
 0004:00000f60       $pdata$__vcrt_getptd_noexit 0000000180055f60     libvcruntime:per_thread_data.obj
 0004:00000f6c       $pdata$__vcrt_initialize_ptd 0000000180055f6c     libvcruntime:per_thread_data.obj
 0004:00000f78       $pdata$__vcrt_uninitialize_ptd 0000000180055f78     libvcruntime:per_thread_data.obj
 0004:00000f84       $pdata$__vcrt_initialize_locks 0000000180055f84     libvcruntime:locks.obj
 0004:00000f90       $pdata$__vcrt_uninitialize_locks 0000000180055f90     libvcruntime:locks.obj
 0004:00000f9c       $pdata$??0_LocaleUpdate@@QEAA@QEAU__crt_locale_pointers@@@Z 0000000180055f9c     libucrt:strtox.obj
 0004:00000fa8       $pdata$_initterm           0000000180055fa8     libucrt:initterm.obj
 0004:00000fb4       $pdata$_initterm_e         0000000180055fb4     libucrt:initterm.obj
 0004:00000fc0       $pdata$_seh_filter_exe     0000000180055fc0     libucrt:exception_filter.obj
 0004:00000fcc       $pdata$?common_exit@@YAXHW4_crt_exit_cleanup_mode@@W4_crt_exit_return_mode@@@Z 0000000180055fcc     libucrt:exit.obj
 0004:00000fd8       $pdata$?exit_or_terminate_process@@YAXI@Z 0000000180055fd8     libucrt:exit.obj
 0004:00000fe4       $pdata$?try_cor_exit_process@@YAXI@Z 0000000180055fe4     libucrt:exit.obj
 0004:00000ff0       $pdata$??$common_initialize_environment_nolock@D@@YAHXZ 0000000180055ff0     libucrt:environment_initialization.obj
 0004:00000ffc       $pdata$??$create_environment@D@@YAQEAPEADQEAD@Z 0000000180055ffc     libucrt:environment_initialization.obj
 0004:00001008       $pdata$??$free_environment@D@@YAXQEAPEAD@Z 0000000180056008     libucrt:environment_initialization.obj
 0004:00001008       $pdata$??$free_environment@_W@@YAXQEAPEA_W@Z 0000000180056008     libucrt:environment_initialization.obj
 0004:00001014       $pdata$??$uninitialize_environment_internal@D@@YAXAEAPEAPEAD@Z 0000000180056014     libucrt:environment_initialization.obj
 0004:00001020       $pdata$??$uninitialize_environment_internal@_W@@YAXAEAPEAPEA_W@Z 0000000180056020     libucrt:environment_initialization.obj
 0004:0000102c       $pdata$__dcrt_uninitialize_environments_nolock 000000018005602c     libucrt:environment_initialization.obj
 0004:00001038       $pdata$??$?RV<lambda_b8c45f8f788dd370798f47cfe8ac3a86>@@AEAV<lambda_4e60a939b0d047cfe11ddc22648dfba9>@@V<lambda_332c3edc96d0294ec56c57d38c1cdfd5>@@@?$__crt_seh_guarded_call@H@@QEAAH$$QEAV<lambda_b8c45f8f788dd370798f47cfe8ac3a86>@@AEAV<lambda_4e60a939b0d047cfe11ddc22648dfba9>@@$$QEAV<lambda_332c3edc96d0294ec56c57d38c1cdfd5>@@@Z 0000000180056038     libucrt:onexit.obj
 0004:00001044       $pdata$??$?RV<lambda_e24bbb7b643b32fcea6fa61b31d4c984>@@AEAV<lambda_275893d493268fdec8709772e3fcec0e>@@V<lambda_9d71df4d7cf3f480f8d633942495c3b0>@@@?$__crt_seh_guarded_call@H@@QEAAH$$QEAV<lambda_e24bbb7b643b32fcea6fa61b31d4c984>@@AEAV<lambda_275893d493268fdec8709772e3fcec0e>@@$$QEAV<lambda_9d71df4d7cf3f480f8d633942495c3b0>@@@Z 0000000180056044     libucrt:onexit.obj
 0004:00001050       $pdata$??R<lambda_4e60a939b0d047cfe11ddc22648dfba9>@@QEBAHXZ 0000000180056050     libucrt:onexit.obj
 0004:0000105c       $pdata$_execute_onexit_table 000000018005605c     libucrt:onexit.obj
 0004:00001068       $pdata$_register_onexit_function 0000000180056068     libucrt:onexit.obj
 0004:00001074       $pdata$initialize_c        0000000180056074     libucrt:initialization.obj
 0004:00001080       $pdata$uninitialize_environment 0000000180056080     libucrt:initialization.obj
 0004:0000108c       $pdata$initialize_pointers 000000018005608c     libucrt:initialization.obj
 0004:00001098       $pdata$uninitialize_allocated_memory 0000000180056098     libucrt:initialization.obj
 0004:000010a4       $pdata$__acrt_thread_attach 00000001800560a4     libucrt:initialization.obj
 0004:000010b0       $pdata$__acrt_thread_detach 00000001800560b0     libucrt:initialization.obj
 0004:000010bc       $pdata$__acrt_uninitialize_critical 00000001800560bc     libucrt:initialization.obj
 0004:000010c8       $pdata$terminate           00000001800560c8     libucrt:terminate.obj
 0004:000010d4       $pdata$_free_base          00000001800560d4     libucrt:free_base.obj
 0004:000010e0       $pdata$_malloc_base        00000001800560e0     libucrt:malloc_base.obj
 0004:000010ec       $pdata$strcpy_s            00000001800560ec     libucrt:strcpy_s.obj
 0004:000010f8       $pdata$abort               00000001800560f8     libucrt:abort.obj
 0004:00001104       $pdata$_calloc_base        0000000180056104     libucrt:calloc_base.obj
 0004:00001110       $pdata$__acrt_call_reportfault 0000000180056110     libucrt:invalid_parameter.obj
 0004:0000111c       $pdata$_invalid_parameter  000000018005611c     libucrt:invalid_parameter.obj
 0004:00001128       $pdata$_invalid_parameter_noinfo 0000000180056128     libucrt:invalid_parameter.obj
 0004:00001134       $pdata$_invoke_watson      0000000180056134     libucrt:invalid_parameter.obj
 0004:00001140       $pdata$__acrt_errno_map_os_error 0000000180056140     libucrt:errno.obj
 0004:0000114c       $pdata$__doserrno          000000018005614c     libucrt:errno.obj
 0004:00001158       $pdata$_errno              0000000180056158     libucrt:errno.obj
 0004:00001164       $pdata$__pctype_func       0000000180056164     libucrt:ctype.obj
 0004:00001170       $pdata$??$?RV<lambda_46352004c1216016012b18bd6f87e700>@@AEAV<lambda_3bd07e1a1191394380780325891bf33f>@@V<lambda_334532d3f185bcaa59b5be82d7d22bff>@@@?$__crt_seh_guarded_call@X@@QEAAX$$QEAV<lambda_46352004c1216016012b18bd6f87e700>@@AEAV<lambda_3bd07e1a1191394380780325891bf33f>@@$$QEAV<lambda_334532d3f185bcaa59b5be82d7d22bff>@@@Z 0000000180056170     libucrt:per_thread_data.obj
 0004:0000117c       $pdata$??$?RV<lambda_5e887d1dcbef67a5eb4283622ba103bf>@@AEAV<lambda_4466841279450cc726390878d4a41900>@@V<lambda_341c25c0346d94847f1f3c463c57e077>@@@?$__crt_seh_guarded_call@X@@QEAAX$$QEAV<lambda_5e887d1dcbef67a5eb4283622ba103bf>@@AEAV<lambda_4466841279450cc726390878d4a41900>@@$$QEAV<lambda_341c25c0346d94847f1f3c463c57e077>@@@Z 000000018005617c     libucrt:per_thread_data.obj
 0004:00001188       $pdata$??$?RV<lambda_72d1df2b273a38828b1ce30cbf4cdab5>@@AEAV<lambda_876a65b173b8412d3a47c70a915b0cf4>@@V<lambda_41932305e351933ebe8f8be3ed8bb5dc>@@@?$__crt_seh_guarded_call@X@@QEAAX$$QEAV<lambda_72d1df2b273a38828b1ce30cbf4cdab5>@@AEAV<lambda_876a65b173b8412d3a47c70a915b0cf4>@@$$QEAV<lambda_41932305e351933ebe8f8be3ed8bb5dc>@@@Z 0000000180056188     libucrt:per_thread_data.obj
 0004:00001194       $pdata$??$?RV<lambda_fb3a7dec4e47f37f22dae91bb15c9095>@@AEAV<lambda_698284760c8add0bfb0756c19673e34b>@@V<lambda_dfb8eca1e75fef3034a8fb18dd509707>@@@?$__crt_seh_guarded_call@X@@QEAAX$$QEAV<lambda_fb3a7dec4e47f37f22dae91bb15c9095>@@AEAV<lambda_698284760c8add0bfb0756c19673e34b>@@$$QEAV<lambda_dfb8eca1e75fef3034a8fb18dd509707>@@@Z 0000000180056194     libucrt:per_thread_data.obj
 0004:000011a0       $pdata$?construct_ptd_array@@YAXQEAU__acrt_ptd@@@Z 00000001800561a0     libucrt:per_thread_data.obj
 0004:000011ac       $pdata$?destroy_fls@@YAXPEAX@Z 00000001800561ac     libucrt:per_thread_data.obj
 0004:000011b8       $pdata$?destroy_ptd_array@@YAXQEAU__acrt_ptd@@@Z 00000001800561b8     libucrt:per_thread_data.obj
 0004:000011c4       $pdata$?replace_current_thread_locale_nolock@@YAXQEAU__acrt_ptd@@QEAU__crt_locale_data@@@Z 00000001800561c4     libucrt:per_thread_data.obj
 0004:000011d0       $pdata$__acrt_freeptd      00000001800561d0     libucrt:per_thread_data.obj
 0004:000011dc       $pdata$__acrt_getptd       00000001800561dc     libucrt:per_thread_data.obj
 0004:000011e8       $pdata$__acrt_getptd_noexit 00000001800561e8     libucrt:per_thread_data.obj
 0004:000011f4       $pdata$__acrt_initialize_ptd 00000001800561f4     libucrt:per_thread_data.obj
 0004:00001200       $pdata$__acrt_uninitialize_ptd 0000000180056200     libucrt:per_thread_data.obj
 0004:0000120c       $pdata$__acrt_update_locale_info 000000018005620c     libucrt:locale_update.obj
 0004:00001218       $pdata$__acrt_update_multibyte_info 0000000180056218     libucrt:locale_update.obj
 0004:00001224       $pdata$__acrt_uninitialize_locale 0000000180056224     libucrt:wsetlocale.obj
 0004:00001230       $pdata$__acrt_initialize_locks 0000000180056230     libucrt:locks.obj
 0004:0000123c       $pdata$__acrt_uninitialize_locks 000000018005623c     libucrt:locks.obj
 0004:00001248       $pdata$?try_get_function@@YAPEAXW4function_id@?A0x63058377@@QEBDQEBW4module_id@2@2@Z 0000000180056248     libucrt:winapi_thunks.obj
 0004:00001254       $pdata$__acrt_FlsAlloc     0000000180056254     libucrt:winapi_thunks.obj
 0004:00001260       $pdata$__acrt_FlsFree      0000000180056260     libucrt:winapi_thunks.obj
 0004:0000126c       $pdata$__acrt_FlsGetValue  000000018005626c     libucrt:winapi_thunks.obj
 0004:00001278       $pdata$__acrt_FlsSetValue  0000000180056278     libucrt:winapi_thunks.obj
 0004:00001284       $pdata$__acrt_InitializeCriticalSectionEx 0000000180056284     libucrt:winapi_thunks.obj
 0004:00001290       $pdata$__acrt_LCMapStringEx 0000000180056290     libucrt:winapi_thunks.obj
 0004:0000129c       $pdata$__acrt_LocaleNameToLCID 000000018005629c     libucrt:winapi_thunks.obj
 0004:000012a8       $pdata$__acrt_initialize_winapi_thunks 00000001800562a8     libucrt:winapi_thunks.obj
 0004:000012b4       $pdata$__acrt_is_packaged_app 00000001800562b4     libucrt:winapi_thunks.obj
 0004:000012c0       $pdata$__acrt_uninitialize_winapi_thunks 00000001800562c0     libucrt:winapi_thunks.obj
 0004:000012cc       $pdata$??$?RV<lambda_99476a1ad63dd22509b5d3e65b0ffc95>@@AEAV<lambda_ad1ced32f4ac17aa236e5ef05d6b3b7c>@@V<lambda_f7424dd8d45958661754dc4f2697e9c3>@@@?$__crt_seh_guarded_call@X@@QEAAX$$QEAV<lambda_99476a1ad63dd22509b5d3e65b0ffc95>@@AEAV<lambda_ad1ced32f4ac17aa236e5ef05d6b3b7c>@@$$QEAV<lambda_f7424dd8d45958661754dc4f2697e9c3>@@@Z 00000001800562cc     libucrt:mbctype.obj
 0004:000012d8       $pdata$??R<lambda_ad1ced32f4ac17aa236e5ef05d6b3b7c>@@QEBAXXZ 00000001800562d8     libucrt:mbctype.obj
 0004:000012e4       $pdata$?getSystemCP@@YAHH@Z 00000001800562e4     libucrt:mbctype.obj
 0004:000012f0       $pdata$?setSBCS@@YAXPEAU__crt_multibyte_data@@@Z 00000001800562f0     libucrt:mbctype.obj
 0004:000012fc       $pdata$?setSBUpLow@@YAXPEAU__crt_multibyte_data@@@Z 00000001800562fc     libucrt:mbctype.obj
 0004:00001308       $pdata$?setmbcp_internal@@YAHH_N@Z 0000000180056308     libucrt:mbctype.obj
 0004:00001314       $pdata$__acrt_initialize_multibyte 0000000180056314     libucrt:mbctype.obj
 0004:00001320       $pdata$__acrt_update_thread_multibyte_data 0000000180056320     libucrt:mbctype.obj
 0004:0000132c       $pdata$_setmbcp_nolock     000000018005632c     libucrt:mbctype.obj
 0004:00001338       $pdata$__dcrt_get_narrow_environment_from_os 0000000180056338     libucrt:get_environment_from_os.obj
 0004:00001344       $pdata$_recalloc_base      0000000180056344     libucrt:recalloc.obj
 0004:00001350       $pdata$__acrt_initialize_heap 0000000180056350     libucrt:heap_handle.obj
 0004:0000135c       $pdata$?initialize_inherited_file_handles_nolock@@YAXXZ 000000018005635c     libucrt:ioinit.obj
 0004:00001368       $pdata$?initialize_stdio_handles_nolock@@YAXXZ 0000000180056368     libucrt:ioinit.obj
 0004:00001374       $pdata$__acrt_initialize_lowio 0000000180056374     libucrt:ioinit.obj
 0004:00001380       $pdata$__acrt_uninitialize_lowio 0000000180056380     libucrt:ioinit.obj
 0004:0000138c       $pdata$__acrt_initialize_command_line 000000018005638c     libucrt:argv_data.obj
 0004:00001398       $pdata$__acrt_execute_initializers 0000000180056398     libucrt:shared_initialization.obj
 0004:000013a4       $pdata$__acrt_execute_uninitializers 00000001800563a4     libucrt:shared_initialization.obj
 0004:000013b0       $pdata$_callnewh           00000001800563b0     libucrt:new_handler.obj
 0004:000013bc       $pdata$_query_new_handler  00000001800563bc     libucrt:new_handler.obj
 0004:000013c8       $pdata$??$?RV<lambda_c36588078e9f5dfd39652860aa6b3aaf>@@AEAV<lambda_ec61778202f4f5fc7e7711acc23c3bca>@@V<lambda_dc9d2797ccde5d239b4a0efae8ebd7db>@@@?$__crt_seh_guarded_call@P6AXH@Z@@QEAAP6AXH@Z$$QEAV<lambda_c36588078e9f5dfd39652860aa6b3aaf>@@AEAV<lambda_ec61778202f4f5fc7e7711acc23c3bca>@@$$QEAV<lambda_dc9d2797ccde5d239b4a0efae8ebd7db>@@@Z 00000001800563c8     libucrt:signal.obj
 0004:000013d4       $pdata$__acrt_get_sigabrt_handler 00000001800563d4     libucrt:signal.obj
 0004:000013e0       $pdata$raise               00000001800563e0     libucrt:signal.obj
 0004:000013ec       $pdata$__acrt_invoke_user_matherr 00000001800563ec     libucrt:matherr.obj
 0004:000013f8       $pdata$_mbtowc_l           00000001800563f8     libucrt:mbtowc.obj
 0004:00001404       $pdata$_fileno             0000000180056404     libucrt:fileno.obj
 0004:00001410       $pdata$__acrt_initialize_stdio 0000000180056410     libucrt:_file.obj
 0004:0000141c       $pdata$__acrt_uninitialize_stdio 000000018005641c     libucrt:_file.obj
 0004:00001428       $pdata$_isleadbyte_l       0000000180056428     libucrt:_wctype.obj
 0004:00001434       $pdata$__acrt_GetStringTypeA 0000000180056434     libucrt:getstringtypea.obj
 0004:00001440       $pdata$__acrt_free_locale  0000000180056440     libucrt:locale_refcounting.obj
 0004:0000144c       $pdata$__acrt_locale_free_lc_time_if_unreferenced 000000018005644c     libucrt:locale_refcounting.obj
 0004:00001458       $pdata$__acrt_release_locale_ref 0000000180056458     libucrt:locale_refcounting.obj
 0004:00001464       $pdata$__acrt_update_thread_locale_data 0000000180056464     libucrt:locale_refcounting.obj
 0004:00001470       $pdata$_updatetlocinfoEx_nolock 0000000180056470     libucrt:locale_refcounting.obj
 0004:0000147c       $pdata$__acrt_locale_free_monetary 000000018005647c     libucrt:initmon.obj
 0004:00001488       $pdata$__acrt_locale_free_numeric 0000000180056488     libucrt:initnum.obj
 0004:00001494       $pdata$?free_crt_array_internal@@YAXQEAPEBX_K@Z 0000000180056494     libucrt:inittime.obj
 0004:000014a0       $pdata$__acrt_locale_free_time 00000001800564a0     libucrt:inittime.obj
 0004:000014ac       $pdata$?GetTableIndexFromLocaleName@@YAHPEB_W@Z 00000001800564ac     libucrt:lcidtoname_downlevel.obj
 0004:000014b8       $pdata$__acrt_DownlevelLocaleNameToLCID 00000001800564b8     libucrt:lcidtoname_downlevel.obj
 0004:000014c4       $pdata$?initialize_multibyte@@YAHXZ 00000001800564c4     libucrt:multibyte_initializer.obj
 0004:000014d0       $pdata$?__acrt_LCMapStringA_stat@@YAHPEAU__crt_locale_pointers@@PEB_WKPEBDHPEADHHH@Z 00000001800564d0     libucrt:lcmapstringa.obj
 0004:000014dc       $pdata$__acrt_LCMapStringA 00000001800564dc     libucrt:lcmapstringa.obj
 0004:000014e8       $pdata$_msize              00000001800564e8     libucrt:msize.obj
 0004:000014f4       $pdata$_realloc_base       00000001800564f4     libucrt:realloc_base.obj
 0004:00001500       $pdata$__acrt_lowio_create_handle_array 0000000180056500     libucrt:osfinfo.obj
 0004:0000150c       $pdata$__acrt_lowio_destroy_handle_array 000000018005650c     libucrt:osfinfo.obj
 0004:00001518       $pdata$__acrt_lowio_ensure_fh_exists 0000000180056518     libucrt:osfinfo.obj
 0004:00001524       $pdata$_free_osfhnd        0000000180056524     libucrt:osfinfo.obj
 0004:00001530       $pdata$_get_osfhandle      0000000180056530     libucrt:osfinfo.obj
 0004:0000153c       $pdata$_isatty             000000018005653c     libucrt:isatty.obj
 0004:00001548       $pdata$__acrt_stdio_flush_nolock 0000000180056548     libucrt:fflush.obj
 0004:00001554       $pdata$_fflush_nolock      0000000180056554     libucrt:fflush.obj
 0004:00001560       $pdata$common_flush_all    0000000180056560     libucrt:fflush.obj
 0004:0000156c       $pdata$_fcloseall          000000018005656c     libucrt:closeall.obj
 0004:00001578       $pdata$__acrt_stdio_free_buffer_nolock 0000000180056578     libucrt:_freebuf.obj
 0004:00001584       $pdata$??$?RV<lambda_b521505b218e5242e90febf6bfebc422>@@AEAV<lambda_6978c1fb23f02e42e1d9e99668cc68aa>@@V<lambda_314360699dd331753a4119843814e9a7>@@@?$__crt_seh_guarded_call@H@@QEAAH$$QEAV<lambda_b521505b218e5242e90febf6bfebc422>@@AEAV<lambda_6978c1fb23f02e42e1d9e99668cc68aa>@@$$QEAV<lambda_314360699dd331753a4119843814e9a7>@@@Z 0000000180056584     libucrt:commit.obj
 0004:00001590       $pdata$_commit             0000000180056590     libucrt:commit.obj
 0004:0000159c       $pdata$?write_double_translated_ansi_nolock@@YA?AUwrite_result@?A0x9c548279@@HQEBDI@Z 000000018005659c     libucrt:write.obj
 0004:000015a8       $pdata$?write_text_ansi_nolock@@YA?AUwrite_result@?A0x9c548279@@HQEBDI@Z 00000001800565a8     libucrt:write.obj
 0004:000015b4       $pdata$?write_text_utf16le_nolock@@YA?AUwrite_result@?A0x9c548279@@HQEBDI@Z 00000001800565b4     libucrt:write.obj
 0004:000015c0       $pdata$?write_text_utf8_nolock@@YA?AUwrite_result@?A0x9c548279@@HQEBDI@Z 00000001800565c0     libucrt:write.obj
 0004:000015cc       $pdata$_write              00000001800565cc     libucrt:write.obj
 0004:000015d8       $pdata$_write_nolock       00000001800565d8     libucrt:write.obj
 0004:000015f0       $pdata$??$common_lseek_nolock@_J@@YA_JH_JH@Z 00000001800565f0     libucrt:lseek.obj
 0004:000015fc       $pdata$_fclose_nolock      00000001800565fc     libucrt:fclose.obj
 0004:00001608       $pdata$fclose              0000000180056608     libucrt:fclose.obj
 0004:00001614       $pdata$_putwch_nolock      0000000180056614     libucrt:putwch.obj
 0004:00001620       $pdata$_call_matherr       0000000180056620     libucrt:libm_error.obj
 0004:0000162c       $pdata$_exception_enabled  000000018005662c     libucrt:libm_error.obj
 0004:00001638       $pdata$_handle_error       0000000180056638     libucrt:libm_error.obj
 0004:00001644       $pdata$__acrt_initialize_fma3 0000000180056644     libucrt:fma3_available.obj
 0004:00001650       $pdata$_log10_special      0000000180056650     libucrt:log_special.obj
 0004:0000165c       $pdata$_log_special_common 000000018005665c     libucrt:log_special.obj
 0004:00001668       $pdata$??$?RV<lambda_bfedae4ebbf01fab1bb6dcc6a9e276e0>@@AEAV<lambda_2fe9b910cf3cbf4a0ab98a02ba45b3ec>@@V<lambda_237c231691f317818eb88cc1d5d642d6>@@@?$__crt_seh_guarded_call@H@@QEAAH$$QEAV<lambda_bfedae4ebbf01fab1bb6dcc6a9e276e0>@@AEAV<lambda_2fe9b910cf3cbf4a0ab98a02ba45b3ec>@@$$QEAV<lambda_237c231691f317818eb88cc1d5d642d6>@@@Z 0000000180056668     libucrt:close.obj
 0004:00001674       $pdata$_close              0000000180056674     libucrt:close.obj
 0004:00001680       $pdata$_close_nolock       0000000180056680     libucrt:close.obj
 0004:0000168c       $pdata$__dcrt_lowio_initialize_console_output 000000018005668c     libucrt:initcon.obj
 0004:00001698       $pdata$__dcrt_terminate_console_output 0000000180056698     libucrt:initcon.obj
 0004:000016b0       $pdata$_raise_exc          00000001800566b0     libucrt:fpexcept.obj
 0004:000016bc       $pdata$_raise_exc_ex       00000001800566bc     libucrt:fpexcept.obj
 0004:000016c8       $pdata$_set_errno_from_matherr 00000001800566c8     libucrt:fpexcept.obj
 0004:000016d4       $pdata$_clrfp              00000001800566d4     libucrt:fpctrl.obj
 0004:000016e0       $pdata$_ctrlfp             00000001800566e0     libucrt:fpctrl.obj
 0004:000016ec       $pdata$_set_statfp         00000001800566ec     libucrt:fpctrl.obj
 0004:000016f8       $pdata$_statfp             00000001800566f8     libucrt:fpctrl.obj
 0004:00001704       $pdata$_IsNonwritableInCurrentImage 0000000180056704     LIBCMT:pesect.obj
 0004:00001710       $pdata$__GSHandlerCheck    0000000180056710     LIBCMT:_gshandler_.obj
 0004:0000171c       $pdata$__GSHandlerCheckCommon 000000018005671c     LIBCMT:_gshandler_.obj
 0004:00001734       $pdata$__raise_securityfailure 0000000180056734     LIBCMT:gs_report.obj
 0004:00001740       $pdata$__report_gsfailure  0000000180056740     LIBCMT:gs_report.obj
 0004:0000174c       $pdata$capture_previous_context 000000018005674c     LIBCMT:gs_report.obj
 0004:00001770       $pdata$?fin$0@?0??dllmain_crt_process_attach@@YAHQEAUHINSTANCE__@@QEAX@Z@4HA 0000000180056770     LIBCMT:dll_dllmain.obj
 0004:0000177c       $pdata$?fin$0@?0??dllmain_crt_process_detach@@YAH_N@Z@4HA 000000018005677c     LIBCMT:dll_dllmain.obj
 0004:00001788       $pdata$?filt$0@?0??dllmain_dispatch@@YAHQEAUHINSTANCE__@@KQEAX@Z@4HA 0000000180056788     LIBCMT:dll_dllmain.obj
 0004:00001794       $pdata$__scrt_is_nonwritable_in_current_image$filt$0 0000000180056794     LIBCMT:utility.obj
 0004:000017a0       $pdata$?filt$0@?0??common_exit@@YAXHW4_crt_exit_cleanup_mode@@W4_crt_exit_return_mode@@@Z@4HA 00000001800567a0     libucrt:exit.obj
 0004:000017ac       $pdata$?fin$1@?0??common_exit@@YAXHW4_crt_exit_cleanup_mode@@W4_crt_exit_return_mode@@@Z@4HA 00000001800567ac     libucrt:exit.obj
 0004:000017b8       $pdata$?fin$0@?0???$?RV<lambda_e24bbb7b643b32fcea6fa61b31d4c984>@@AEAV<lambda_275893d493268fdec8709772e3fcec0e>@@V<lambda_9d71df4d7cf3f480f8d633942495c3b0>@@@?$__crt_seh_guarded_call@H@@QEAAH$$QEAV<lambda_e24bbb7b643b32fcea6fa61b31d4c984>@@AEAV<lambda_275893d493268fdec8709772e3fcec0e>@@$$QEAV<lambda_9d71df4d7cf3f480f8d633942495c3b0>@@@Z@4HA 00000001800567b8     libucrt:onexit.obj
 0004:000017c4       $pdata$?fin$0@?0???$?RV<lambda_72d1df2b273a38828b1ce30cbf4cdab5>@@AEAV<lambda_876a65b173b8412d3a47c70a915b0cf4>@@V<lambda_41932305e351933ebe8f8be3ed8bb5dc>@@@?$__crt_seh_guarded_call@X@@QEAAX$$QEAV<lambda_72d1df2b273a38828b1ce30cbf4cdab5>@@AEAV<lambda_876a65b173b8412d3a47c70a915b0cf4>@@$$QEAV<lambda_41932305e351933ebe8f8be3ed8bb5dc>@@@Z@4HA 00000001800567c4     libucrt:per_thread_data.obj
 0004:000017c4       $pdata$?fin$0@?0???$?RV<lambda_5e887d1dcbef67a5eb4283622ba103bf>@@AEAV<lambda_4466841279450cc726390878d4a41900>@@V<lambda_341c25c0346d94847f1f3c463c57e077>@@@?$__crt_seh_guarded_call@X@@QEAAX$$QEAV<lambda_5e887d1dcbef67a5eb4283622ba103bf>@@AEAV<lambda_4466841279450cc726390878d4a41900>@@$$QEAV<lambda_341c25c0346d94847f1f3c463c57e077>@@@Z@4HA 00000001800567c4     libucrt:per_thread_data.obj
 0004:000017c4       $pdata$?fin$0@?0???$?RV<lambda_46352004c1216016012b18bd6f87e700>@@AEAV<lambda_3bd07e1a1191394380780325891bf33f>@@V<lambda_334532d3f185bcaa59b5be82d7d22bff>@@@?$__crt_seh_guarded_call@X@@QEAAX$$QEAV<lambda_46352004c1216016012b18bd6f87e700>@@AEAV<lambda_3bd07e1a1191394380780325891bf33f>@@$$QEAV<lambda_334532d3f185bcaa59b5be82d7d22bff>@@@Z@4HA 00000001800567c4     libucrt:per_thread_data.obj
 0004:000017c4       $pdata$?fin$0@?0???$?RV<lambda_c36588078e9f5dfd39652860aa6b3aaf>@@AEAV<lambda_ec61778202f4f5fc7e7711acc23c3bca>@@V<lambda_dc9d2797ccde5d239b4a0efae8ebd7db>@@@?$__crt_seh_guarded_call@P6AXH@Z@@QEAAP6AXH@Z$$QEAV<lambda_c36588078e9f5dfd39652860aa6b3aaf>@@AEAV<lambda_ec61778202f4f5fc7e7711acc23c3bca>@@$$QEAV<lambda_dc9d2797ccde5d239b4a0efae8ebd7db>@@@Z@4HA 00000001800567c4     libucrt:signal.obj
 0004:000017c4       $pdata$?fin$0@?0???$?RV<lambda_99476a1ad63dd22509b5d3e65b0ffc95>@@AEAV<lambda_ad1ced32f4ac17aa236e5ef05d6b3b7c>@@V<lambda_f7424dd8d45958661754dc4f2697e9c3>@@@?$__crt_seh_guarded_call@X@@QEAAX$$QEAV<lambda_99476a1ad63dd22509b5d3e65b0ffc95>@@AEAV<lambda_ad1ced32f4ac17aa236e5ef05d6b3b7c>@@$$QEAV<lambda_f7424dd8d45958661754dc4f2697e9c3>@@@Z@4HA 00000001800567c4     libucrt:mbctype.obj
 0004:000017c4       $pdata$?fin$0@?0???$?RV<lambda_fb3a7dec4e47f37f22dae91bb15c9095>@@AEAV<lambda_698284760c8add0bfb0756c19673e34b>@@V<lambda_dfb8eca1e75fef3034a8fb18dd509707>@@@?$__crt_seh_guarded_call@X@@QEAAX$$QEAV<lambda_fb3a7dec4e47f37f22dae91bb15c9095>@@AEAV<lambda_698284760c8add0bfb0756c19673e34b>@@$$QEAV<lambda_dfb8eca1e75fef3034a8fb18dd509707>@@@Z@4HA 00000001800567c4     libucrt:per_thread_data.obj
 0004:000017c4       $pdata$?fin$0@?0???$?RV<lambda_b8c45f8f788dd370798f47cfe8ac3a86>@@AEAV<lambda_4e60a939b0d047cfe11ddc22648dfba9>@@V<lambda_332c3edc96d0294ec56c57d38c1cdfd5>@@@?$__crt_seh_guarded_call@H@@QEAAH$$QEAV<lambda_b8c45f8f788dd370798f47cfe8ac3a86>@@AEAV<lambda_4e60a939b0d047cfe11ddc22648dfba9>@@$$QEAV<lambda_332c3edc96d0294ec56c57d38c1cdfd5>@@@Z@4HA 00000001800567c4     libucrt:onexit.obj
 0004:000017d0       $pdata$__acrt_update_thread_locale_data$fin$0 00000001800567d0     libucrt:locale_refcounting.obj
 0004:000017d0       $pdata$__acrt_uninitialize_locale$fin$0 00000001800567d0     libucrt:wsetlocale.obj
 0004:000017dc       $pdata$__acrt_update_thread_multibyte_data$fin$0 00000001800567dc     libucrt:mbctype.obj
 0004:000017e8       $pdata$_query_new_handler$fin$0 00000001800567e8     libucrt:new_handler.obj
 0004:000017f4       $pdata$raise$fin$0         00000001800567f4     libucrt:signal.obj
 0004:00001800       $pdata$__acrt_lowio_ensure_fh_exists$fin$0 0000000180056800     libucrt:osfinfo.obj
 0004:00001800       $pdata$__acrt_initialize_lowio$fin$0 0000000180056800     libucrt:ioinit.obj
 0004:0000180c       $pdata$common_flush_all$fin$0 000000018005680c     libucrt:fflush.obj
 0004:00001818       $pdata$common_flush_all$fin$1 0000000180056818     libucrt:fflush.obj
 0004:00001824       $pdata$_fcloseall$fin$0    0000000180056824     libucrt:closeall.obj
 0004:00001830       $pdata$?fin$0@?0???$?RV<lambda_b521505b218e5242e90febf6bfebc422>@@AEAV<lambda_6978c1fb23f02e42e1d9e99668cc68aa>@@V<lambda_314360699dd331753a4119843814e9a7>@@@?$__crt_seh_guarded_call@H@@QEAAH$$QEAV<lambda_b521505b218e5242e90febf6bfebc422>@@AEAV<lambda_6978c1fb23f02e42e1d9e99668cc68aa>@@$$QEAV<lambda_314360699dd331753a4119843814e9a7>@@@Z@4HA 0000000180056830     libucrt:commit.obj
 0004:00001830       $pdata$?fin$0@?0???$?RV<lambda_bfedae4ebbf01fab1bb6dcc6a9e276e0>@@AEAV<lambda_2fe9b910cf3cbf4a0ab98a02ba45b3ec>@@V<lambda_237c231691f317818eb88cc1d5d642d6>@@@?$__crt_seh_guarded_call@H@@QEAAH$$QEAV<lambda_bfedae4ebbf01fab1bb6dcc6a9e276e0>@@AEAV<lambda_2fe9b910cf3cbf4a0ab98a02ba45b3ec>@@$$QEAV<lambda_237c231691f317818eb88cc1d5d642d6>@@@Z@4HA 0000000180056830     libucrt:close.obj
 0004:0000183c       $pdata$_write$fin$0        000000018005683c     libucrt:write.obj
 0004:00001848       $pdata$fclose$fin$0        0000000180056848     libucrt:fclose.obj
 0004:00001854       $pdata$_ctrlfp$filt$0      0000000180056854     libucrt:fpctrl.obj
 0004:00001860       $pdata$_IsNonwritableInCurrentImage$filt$0 0000000180056860     LIBCMT:pesect.obj
 0005:00000000       __guard_fids__             0000000180057000     libucrt:initialization.obj
 0005:00000060       __guard_fids___acrt_initialize_ptd 0000000180057060     libucrt:per_thread_data.obj
 0005:00000064       __guard_fids__             0000000180057064     libucrt:locale_initializer.obj
 0005:00000068       __guard_fids__             0000000180057068     libucrt:multibyte_initializer.obj
 0005:0000006c       __guard_fids__             000000018005706c     libucrt:stdio_initializer.obj
 0005:00000070       __guard_fids__             0000000180057070     libucrt:stdio_initializer.obj
 0005:00000074       __guard_fids__             0000000180057074     libucrt:fma3_initializer.obj
 0005:00000078       __guard_fids__             0000000180057078     libucrt:console_output_initializer.obj
 0005:0000007c       __guard_fids_?dllmain_crt_process_attach@@YAHQEAUHINSTANCE__@@QEAX@Z 000000018005707c     LIBCMT:dll_dllmain.obj
 0005:00000084       __guard_fids_?dllmain_dispatch@@YAHQEAUHINSTANCE__@@KQEAX@Z 0000000180057084     LIBCMT:dll_dllmain.obj
 0005:00000088       __guard_fids__             0000000180057088     LIBCMT:guard_support.obj
 0005:0000008c       __guard_fids__             000000018005708c     libvcruntime:telemetry.obj
 0005:00000090       __guard_fids_?TraceLoggingRegister@__vcrt_trace_logging_provider@@YAJPEBU_TlgProvider_t@1@PEBU_GUID@@P6AX1KE_K2PEAU_EVENT_FILTER_DESCRIPTOR@@PEAX@Z4@Z 0000000180057090     libvcruntime:telemetry.obj
 0005:00000094       __guard_fids___vcrt_initialize_ptd 0000000180057094     libvcruntime:per_thread_data.obj
 0006:000000f0       $R000000                   00000001800580f0     ConEmuTh.res
 0006:000003d8       $R0002E8                   00000001800583d8     ConEmuTh.res
 0006:00001480       $R001390                   0000000180059480     ConEmuTh.res
