 luafar3

 Timestamp is 56219fa5 (Sat Oct 17 04:08:53 2015)

 Preferred load address is 10000000

 Start         Length     Name                   Class
 0001:00000000 00000344H .idata$5                CODE
 0001:00000344 00000004H .CRT$XCA                CODE
 0001:00000348 00000004H .CRT$XCZ                CODE
 0001:0000034c 00000004H .CRT$XIA                CODE
 0001:00000350 00000010H .CRT$XIC                CODE
 0001:00000360 00000004H .CRT$XIZ                CODE
 0001:00000364 00000004H .CRT$XPA                CODE
 0001:00000368 00000008H .CRT$XPX                CODE
 0001:00000370 00000004H .CRT$XPXA               CODE
 0001:00000374 00000004H .CRT$XPZ                CODE
 0001:00000378 00000004H .CRT$XTA                CODE
 0001:0000037c 00000004H .CRT$XTZ                CODE
 0001:00000380 00010d88H .rdata                  CODE
 0001:00011110 0000000cH .rdata$sxdata           CODE
 0001:0001111c 00000004H .rtc$IAA                CODE
 0001:00011120 00000004H .rtc$IZZ                CODE
 0001:00011124 00000004H .rtc$TAA                CODE
 0001:00011128 00000004H .rtc$TZZ                CODE
 0001:00011130 0002fb2eH .text                   CODE
 0001:00040c60 0000068cH .xdata$x                CODE
 0001:000412ec 00000064H .idata$2                CODE
 0001:00041350 00000014H .idata$3                CODE
 0001:00041364 00000344H .idata$4                CODE
 0001:000416a8 00000e34H .idata$6                CODE
 0001:000424e0 00000482H .edata                  CODE
 0002:00000000 00008ef0H .data                   DATA
 0002:00008f00 00001e64H .bss                    DATA
 0003:00000000 00000058H .rsrc$01                DATA
 0003:00000060 00000358H .rsrc$02                DATA

  Address         Publics by Value              Rva+Base       Lib:Object

 0000:00000000       __except_list              00000000     <absolute>
 0000:00000003       ___safe_se_handler_count   00000003     <absolute>
 0000:00000000       ___ImageBase               10000000     <linker-defined>
 0001:00000000       __imp__RegEnumKeyExW@32    10001000     advapi32:ADVAPI32.dll
 0001:00000004       __imp__RegQueryValueExW@24 10001004     advapi32:ADVAPI32.dll
 0001:00000008       __imp__RegSetValueExW@24   10001008     advapi32:ADVAPI32.dll
 0001:0000000c       __imp__RegCloseKey@4       1000100c     advapi32:ADVAPI32.dll
 0001:00000010       __imp__RegOpenKeyExW@20    10001010     advapi32:ADVAPI32.dll
 0001:00000014       __imp__RegCreateKeyExW@36  10001014     advapi32:ADVAPI32.dll
 0001:00000018       __imp__RegDeleteKeyW@8     10001018     advapi32:ADVAPI32.dll
 0001:0000001c       __imp__RegEnumValueW@32    1000101c     advapi32:ADVAPI32.dll
 0001:00000020       \177ADVAPI32_NULL_THUNK_DATA 10001020     advapi32:ADVAPI32.dll
 0001:00000024       __imp__GetEnvironmentVariableW@12 10001024     kernel32:KERNEL32.dll
 0001:00000028       __imp__GetModuleFileNameW@12 10001028     kernel32:KERNEL32.dll
 0001:0000002c       __imp__FreeLibrary@4       1000102c     kernel32:KERNEL32.dll
 0001:00000030       __imp__LoadLibraryW@4      10001030     kernel32:KERNEL32.dll
 0001:00000034       __imp__MultiByteToWideChar@24 10001034     kernel32:KERNEL32.dll
 0001:00000038       __imp__WideCharToMultiByte@32 10001038     kernel32:KERNEL32.dll
 0001:0000003c       __imp__GetACP@0            1000103c     kernel32:KERNEL32.dll
 0001:00000040       __imp__GetOEMCP@0          10001040     kernel32:KERNEL32.dll
 0001:00000044       __imp__GetDriveTypeW@4     10001044     kernel32:KERNEL32.dll
 0001:00000048       __imp__SearchPathW@24      10001048     kernel32:KERNEL32.dll
 0001:0000004c       __imp__OutputDebugStringW@4 1000104c     kernel32:KERNEL32.dll
 0001:00000050       __imp__FormatMessageW@28   10001050     kernel32:KERNEL32.dll
 0001:00000054       __imp__GetLastError@0      10001054     kernel32:KERNEL32.dll
 0001:00000058       __imp__EnumSystemCodePagesW@8 10001058     kernel32:KERNEL32.dll
 0001:0000005c       __imp__GetCPInfoExW@12     1000105c     kernel32:KERNEL32.dll
 0001:00000060       __imp__GetLogicalDriveStringsW@8 10001060     kernel32:KERNEL32.dll
 0001:00000064       __imp__GlobalMemoryStatusEx@4 10001064     kernel32:KERNEL32.dll
 0001:00000068       __imp__SetFileAttributesW@8 10001068     kernel32:KERNEL32.dll
 0001:0000006c       __imp__GetFileAttributesW@4 1000106c     kernel32:KERNEL32.dll
 0001:00000070       __imp__SetCurrentDirectoryW@4 10001070     kernel32:KERNEL32.dll
 0001:00000074       __imp__SetEnvironmentVariableW@8 10001074     kernel32:KERNEL32.dll
 0001:00000078       __imp__ReadConsoleInputW@16 10001078     kernel32:KERNEL32.dll
 0001:0000007c       __imp__PeekConsoleInputW@16 1000107c     kernel32:KERNEL32.dll
 0001:00000080       __imp__FindClose@4         10001080     kernel32:KERNEL32.dll
 0001:00000084       __imp__FindFirstFileW@8    10001084     kernel32:KERNEL32.dll
 0001:00000088       __imp__FileTimeToSystemTime@8 10001088     kernel32:KERNEL32.dll
 0001:0000008c       __imp__SystemTimeToFileTime@8 1000108c     kernel32:KERNEL32.dll
 0001:00000090       __imp__FileTimeToLocalFileTime@8 10001090     kernel32:KERNEL32.dll
 0001:00000094       __imp__CompareStringW@24   10001094     kernel32:KERNEL32.dll
 0001:00000098       __imp__CopyFileW@12        10001098     kernel32:KERNEL32.dll
 0001:0000009c       __imp__MoveFileExW@12      1000109c     kernel32:KERNEL32.dll
 0001:000000a0       __imp__DeleteFileW@4       100010a0     kernel32:KERNEL32.dll
 0001:000000a4       __imp__RemoveDirectoryW@4  100010a4     kernel32:KERNEL32.dll
 0001:000000a8       __imp__CreateDirectoryW@8  100010a8     kernel32:KERNEL32.dll
 0001:000000ac       __imp__GetModuleHandleW@4  100010ac     kernel32:KERNEL32.dll
 0001:000000b0       __imp__SetLastError@4      100010b0     kernel32:KERNEL32.dll
 0001:000000b4       __imp__SwitchToThread@0    100010b4     kernel32:KERNEL32.dll
 0001:000000b8       __imp__CreateThread@24     100010b8     kernel32:KERNEL32.dll
 0001:000000bc       __imp__GetSystemTimeAsFileTime@4 100010bc     kernel32:KERNEL32.dll
 0001:000000c0       __imp__Sleep@4             100010c0     kernel32:KERNEL32.dll
 0001:000000c4       __imp__GetStdHandle@4      100010c4     kernel32:KERNEL32.dll
 0001:000000c8       __imp__GetConsoleScreenBufferInfo@8 100010c8     kernel32:KERNEL32.dll
 0001:000000cc       __imp__GetModuleHandleA@4  100010cc     kernel32:KERNEL32.dll
 0001:000000d0       __imp__GetCurrentDirectoryW@8 100010d0     kernel32:KERNEL32.dll
 0001:000000d4       __imp__GetProcAddress@8    100010d4     kernel32:KERNEL32.dll
 0001:000000d8       __imp__HeapSize@12         100010d8     kernel32:KERNEL32.dll
 0001:000000dc       __imp__WriteConsoleW@20    100010dc     kernel32:KERNEL32.dll
 0001:000000e0       __imp__GetProcessHeap@0    100010e0     kernel32:KERNEL32.dll
 0001:000000e4       __imp__SetEndOfFile@4      100010e4     kernel32:KERNEL32.dll
 0001:000000e8       __imp__LCMapStringW@24     100010e8     kernel32:KERNEL32.dll
 0001:000000ec       __imp__HeapReAlloc@16      100010ec     kernel32:KERNEL32.dll
 0001:000000f0       __imp__CreateFileW@28      100010f0     kernel32:KERNEL32.dll
 0001:000000f4       __imp__SetStdHandle@8      100010f4     kernel32:KERNEL32.dll
 0001:000000f8       __imp__GetTickCount@0      100010f8     kernel32:KERNEL32.dll
 0001:000000fc       __imp__QueryPerformanceCounter@4 100010fc     kernel32:KERNEL32.dll
 0001:00000100       __imp__GetModuleFileNameA@12 10001100     kernel32:KERNEL32.dll
 0001:00000104       __imp__GetEnvironmentStringsW@0 10001104     kernel32:KERNEL32.dll
 0001:00000108       __imp__FreeEnvironmentStringsW@4 10001108     kernel32:KERNEL32.dll
 0001:0000010c       __imp__FlushFileBuffers@4  1000110c     kernel32:KERNEL32.dll
 0001:00000110       __imp__GetConsoleMode@8    10001110     kernel32:KERNEL32.dll
 0001:00000114       __imp__GetConsoleCP@0      10001114     kernel32:KERNEL32.dll
 0001:00000118       __imp__CreateFileA@28      10001118     kernel32:KERNEL32.dll
 0001:0000011c       __imp__GetCurrentProcessId@0 1000111c     kernel32:KERNEL32.dll
 0001:00000120       __imp__WaitForSingleObject@8 10001120     kernel32:KERNEL32.dll
 0001:00000124       __imp__GetExitCodeProcess@8 10001124     kernel32:KERNEL32.dll
 0001:00000128       __imp__CreatePipe@16       10001128     kernel32:KERNEL32.dll
 0001:0000012c       __imp__IsValidCodePage@4   1000112c     kernel32:KERNEL32.dll
 0001:00000130       __imp__GetCPInfo@8         10001130     kernel32:KERNEL32.dll
 0001:00000134       __imp__DeleteCriticalSection@4 10001134     kernel32:KERNEL32.dll
 0001:00000138       __imp__GetStartupInfoW@4   10001138     kernel32:KERNEL32.dll
 0001:0000013c       __imp__GetFileType@4       1000113c     kernel32:KERNEL32.dll
 0001:00000140       __imp__SetHandleCount@4    10001140     kernel32:KERNEL32.dll
 0001:00000144       __imp__SetFilePointer@16   10001144     kernel32:KERNEL32.dll
 0001:00000148       __imp__InterlockedDecrement@4 10001148     kernel32:KERNEL32.dll
 0001:0000014c       __imp__InterlockedIncrement@4 1000114c     kernel32:KERNEL32.dll
 0001:00000150       __imp__TlsFree@4           10001150     kernel32:KERNEL32.dll
 0001:00000154       __imp__TlsSetValue@8       10001154     kernel32:KERNEL32.dll
 0001:00000158       __imp__TlsGetValue@4       10001158     kernel32:KERNEL32.dll
 0001:0000015c       __imp__TlsAlloc@0          1000115c     kernel32:KERNEL32.dll
 0001:00000160       __imp__ReadFile@20         10001160     kernel32:KERNEL32.dll
 0001:00000164       __imp__RtlUnwind@16        10001164     kernel32:KERNEL32.dll
 0001:00000168       __imp__InitializeCriticalSectionAndSpinCount@8 10001168     kernel32:KERNEL32.dll
 0001:0000016c       __imp__WriteFile@20        1000116c     kernel32:KERNEL32.dll
 0001:00000170       __imp__ExitProcess@4       10001170     kernel32:KERNEL32.dll
 0001:00000174       __imp__HeapDestroy@4       10001174     kernel32:KERNEL32.dll
 0001:00000178       __imp__HeapCreate@12       10001178     kernel32:KERNEL32.dll
 0001:0000017c       __imp__TerminateProcess@8  1000117c     kernel32:KERNEL32.dll
 0001:00000180       __imp__IsDebuggerPresent@0 10001180     kernel32:KERNEL32.dll
 0001:00000184       __imp__SetUnhandledExceptionFilter@4 10001184     kernel32:KERNEL32.dll
 0001:00000188       __imp__UnhandledExceptionFilter@4 10001188     kernel32:KERNEL32.dll
 0001:0000018c       __imp__IsProcessorFeaturePresent@4 1000118c     kernel32:KERNEL32.dll
 0001:00000190       __imp__GetCommandLineA@0   10001190     kernel32:KERNEL32.dll
 0001:00000194       __imp__GetCurrentThreadId@0 10001194     kernel32:KERNEL32.dll
 0001:00000198       __imp__CreateProcessW@40   10001198     kernel32:KERNEL32.dll
 0001:0000019c       __imp__GetCurrentProcess@0 1000119c     kernel32:KERNEL32.dll
 0001:000001a0       __imp__DuplicateHandle@28  100011a0     kernel32:KERNEL32.dll
 0001:000001a4       __imp__CloseHandle@4       100011a4     kernel32:KERNEL32.dll
 0001:000001a8       __imp__GetStringTypeW@16   100011a8     kernel32:KERNEL32.dll
 0001:000001ac       __imp__LeaveCriticalSection@4 100011ac     kernel32:KERNEL32.dll
 0001:000001b0       __imp__EnterCriticalSection@4 100011b0     kernel32:KERNEL32.dll
 0001:000001b4       __imp__HeapAlloc@12        100011b4     kernel32:KERNEL32.dll
 0001:000001b8       __imp__HeapFree@12         100011b8     kernel32:KERNEL32.dll
 0001:000001bc       \177KERNEL32_NULL_THUNK_DATA 100011bc     kernel32:KERNEL32.dll
 0001:000001c0       __imp__UuidCreate@4        100011c0     rpcrt4:RPCRT4.dll
 0001:000001c4       __imp__RpcStringFreeA@4    100011c4     rpcrt4:RPCRT4.dll
 0001:000001c8       __imp__UuidToStringA@8     100011c8     rpcrt4:RPCRT4.dll
 0001:000001cc       __imp__UuidFromStringA@8   100011cc     rpcrt4:RPCRT4.dll
 0001:000001d0       \177RPCRT4_NULL_THUNK_DATA 100011d0     rpcrt4:RPCRT4.dll
 0001:000001d4       __imp__ShellExecuteW@24    100011d4     shell32:SHELL32.dll
 0001:000001d8       __imp__SHGetFolderPathW@20 100011d8     shell32:SHELL32.dll
 0001:000001dc       \177SHELL32_NULL_THUNK_DATA 100011dc     shell32:SHELL32.dll
 0001:000001e0       __imp__lua_setfenv         100011e0     lua51:lua51.dll
 0001:000001e4       __imp__lua_getfenv         100011e4     lua51:lua51.dll
 0001:000001e8       __imp__luaL_checknumber    100011e8     lua51:lua51.dll
 0001:000001ec       __imp__lua_setallocf       100011ec     lua51:lua51.dll
 0001:000001f0       __imp__luaL_prepbuffer     100011f0     lua51:lua51.dll
 0001:000001f4       __imp__luaL_checkstack     100011f4     lua51:lua51.dll
 0001:000001f8       __imp__lua_dump            100011f8     lua51:lua51.dll
 0001:000001fc       __imp__lua_typename        100011fc     lua51:lua51.dll
 0001:00000200       __imp__lua_tocfunction     10001200     lua51:lua51.dll
 0001:00000204       __imp__luaL_checkoption    10001204     lua51:lua51.dll
 0001:00000208       __imp__luaL_gsub           10001208     lua51:lua51.dll
 0001:0000020c       __imp__lua_iscfunction     1000120c     lua51:lua51.dll
 0001:00000210       __imp__luaL_findtable      10001210     lua51:lua51.dll
 0001:00000214       __imp__lua_isuserdata      10001214     lua51:lua51.dll
 0001:00000218       __imp__lua_settable        10001218     lua51:lua51.dll
 0001:0000021c       __imp__luaL_checkany       1000121c     lua51:lua51.dll
 0001:00000220       __imp__lua_rawget          10001220     lua51:lua51.dll
 0001:00000224       __imp__luaL_optnumber      10001224     lua51:lua51.dll
 0001:00000228       __imp__lua_rawset          10001228     lua51:lua51.dll
 0001:0000022c       __imp__luaopen_base        1000122c     lua51:lua51.dll
 0001:00000230       __imp__luaopen_table       10001230     lua51:lua51.dll
 0001:00000234       __imp__luaopen_os          10001234     lua51:lua51.dll
 0001:00000238       __imp__luaopen_string      10001238     lua51:lua51.dll
 0001:0000023c       __imp__luaopen_math        1000123c     lua51:lua51.dll
 0001:00000240       __imp__luaopen_debug       10001240     lua51:lua51.dll
 0001:00000244       __imp__luaL_checktype      10001244     lua51:lua51.dll
 0001:00000248       __imp__lua_getstack        10001248     lua51:lua51.dll
 0001:0000024c       __imp__lua_getinfo         1000124c     lua51:lua51.dll
 0001:00000250       __imp__luaL_addvalue       10001250     lua51:lua51.dll
 0001:00000254       __imp__luaL_optinteger     10001254     lua51:lua51.dll
 0001:00000258       __imp__lua_checkstack      10001258     lua51:lua51.dll
 0001:0000025c       __imp__luaL_error          1000125c     lua51:lua51.dll
 0001:00000260       __imp__luaL_optlstring     10001260     lua51:lua51.dll
 0001:00000264       __imp__lua_replace         10001264     lua51:lua51.dll
 0001:00000268       __imp__luaL_checkudata     10001268     lua51:lua51.dll
 0001:0000026c       __imp__luaL_buffinit       1000126c     lua51:lua51.dll
 0001:00000270       __imp__luaL_addlstring     10001270     lua51:lua51.dll
 0001:00000274       __imp__luaL_pushresult     10001274     lua51:lua51.dll
 0001:00000278       __imp__lua_getallocf       10001278     lua51:lua51.dll
 0001:0000027c       __imp__lua_concat          1000127c     lua51:lua51.dll
 0001:00000280       __imp__lua_load            10001280     lua51:lua51.dll
 0001:00000284       __imp__lua_pushfstring     10001284     lua51:lua51.dll
 0001:00000288       __imp__luaL_loadstring     10001288     lua51:lua51.dll
 0001:0000028c       __imp__lua_pushlstring     1000128c     lua51:lua51.dll
 0001:00000290       __imp__lua_pushlightuserdata 10001290     lua51:lua51.dll
 0001:00000294       __imp__lua_isnumber        10001294     lua51:lua51.dll
 0001:00000298       __imp__lua_tointeger       10001298     lua51:lua51.dll
 0001:0000029c       __imp__lua_toboolean       1000129c     lua51:lua51.dll
 0001:000002a0       __imp__luaL_ref            100012a0     lua51:lua51.dll
 0001:000002a4       __imp__luaL_unref          100012a4     lua51:lua51.dll
 0001:000002a8       __imp__lua_gettable        100012a8     lua51:lua51.dll
 0001:000002ac       __imp__lua_isstring        100012ac     lua51:lua51.dll
 0001:000002b0       __imp__lua_objlen          100012b0     lua51:lua51.dll
 0001:000002b4       __imp__lua_rawseti         100012b4     lua51:lua51.dll
 0001:000002b8       __imp__lua_createtable     100012b8     lua51:lua51.dll
 0001:000002bc       __imp__lua_setfield        100012bc     lua51:lua51.dll
 0001:000002c0       __imp__lua_rawgeti         100012c0     lua51:lua51.dll
 0001:000002c4       __imp__lua_pushcclosure    100012c4     lua51:lua51.dll
 0001:000002c8       __imp__lua_insert          100012c8     lua51:lua51.dll
 0001:000002cc       __imp__lua_pcall           100012cc     lua51:lua51.dll
 0001:000002d0       __imp__lua_remove          100012d0     lua51:lua51.dll
 0001:000002d4       __imp__lua_gc              100012d4     lua51:lua51.dll
 0001:000002d8       __imp__lua_pushvalue       100012d8     lua51:lua51.dll
 0001:000002dc       __imp__lua_pushinteger     100012dc     lua51:lua51.dll
 0001:000002e0       __imp__lua_call            100012e0     lua51:lua51.dll
 0001:000002e4       __imp__luaL_newmetatable   100012e4     lua51:lua51.dll
 0001:000002e8       __imp__luaL_register       100012e8     lua51:lua51.dll
 0001:000002ec       __imp__lua_pushboolean     100012ec     lua51:lua51.dll
 0001:000002f0       __imp__lua_pushstring      100012f0     lua51:lua51.dll
 0001:000002f4       __imp__lua_tolstring       100012f4     lua51:lua51.dll
 0001:000002f8       __imp__lua_pushnil         100012f8     lua51:lua51.dll
 0001:000002fc       __imp__luaL_checkinteger   100012fc     lua51:lua51.dll
 0001:00000300       __imp__lua_gettop          10001300     lua51:lua51.dll
 0001:00000304       __imp__lua_tonumber        10001304     lua51:lua51.dll
 0001:00000308       __imp__luaL_argerror       10001308     lua51:lua51.dll
 0001:0000030c       __imp__lua_type            1000130c     lua51:lua51.dll
 0001:00000310       __imp__lua_getmetatable    10001310     lua51:lua51.dll
 0001:00000314       __imp__lua_rawequal        10001314     lua51:lua51.dll
 0001:00000318       __imp__lua_settop          10001318     lua51:lua51.dll
 0001:0000031c       __imp__lua_touserdata      1000131c     lua51:lua51.dll
 0001:00000320       __imp__lua_pushnumber      10001320     lua51:lua51.dll
 0001:00000324       __imp__lua_newuserdata     10001324     lua51:lua51.dll
 0001:00000328       __imp__lua_getfield        10001328     lua51:lua51.dll
 0001:0000032c       __imp__lua_setmetatable    1000132c     lua51:lua51.dll
 0001:00000330       __imp__lua_next            10001330     lua51:lua51.dll
 0001:00000334       __imp__lua_error           10001334     lua51:lua51.dll
 0001:00000338       __imp__luaL_typerror       10001338     lua51:lua51.dll
 0001:0000033c       __imp__luaL_checklstring   1000133c     lua51:lua51.dll
 0001:00000340       \177lua51_NULL_THUNK_DATA  10001340     lua51:lua51.dll
 0001:00000344       ___xc_a                    10001344     LIBCMT:crt0init.obj
 0001:00000348       ___xc_z                    10001348     LIBCMT:crt0init.obj
 0001:0000034c       ___xi_a                    1000134c     LIBCMT:crt0init.obj
 0001:00000360       ___xi_z                    10001360     LIBCMT:crt0init.obj
 0001:00000364       ___xp_a                    10001364     LIBCMT:crt0init.obj
 0001:00000374       ___xp_z                    10001374     LIBCMT:crt0init.obj
 0001:00000378       ___xt_a                    10001378     LIBCMT:crt0init.obj
 0001:0000037c       ___xt_z                    1000137c     LIBCMT:crt0init.obj
 0001:00000380       ??_C@_0L@HDFPAPPH@__tostring?$AA@ 10001380     bit64.obj
 0001:0000038c       ??_C@_04EJLHOCKK@__le?$AA@ 1000138c     bit64.obj
 0001:00000394       ??_C@_04BKGOMBLK@__lt?$AA@ 10001394     bit64.obj
 0001:0000039c       ??_C@_04GIMIAOHA@__eq?$AA@ 1000139c     bit64.obj
 0001:000003a4       ??_C@_05MHFNBPAK@__unm?$AA@ 100013a4     bit64.obj
 0001:000003ac       ??_C@_05ICPALBAE@__mod?$AA@ 100013ac     bit64.obj
 0001:000003b4       ??_C@_05IDIBPCOP@__div?$AA@ 100013b4     bit64.obj
 0001:000003bc       ??_C@_05FLJIBNKK@__mul?$AA@ 100013bc     bit64.obj
 0001:000003c4       ??_C@_05HFNNBAII@__sub?$AA@ 100013c4     bit64.obj
 0001:000003cc       ??_C@_05MEHDOBFN@__add?$AA@ 100013cc     bit64.obj
 0001:000003d4       ??_C@_04GPMDFGEJ@type?$AA@ 100013d4     bit64.obj
 0001:000003dc       ??_C@_02FJPJILEL@le?$AA@   100013dc     bit64.obj
 0001:000003e0       ??_C@_02KCAKIFL@lt?$AA@    100013e0     bit64.obj
 0001:000003e4       ??_C@_02HIIGGHJB@eq?$AA@   100013e4     bit64.obj
 0001:000003e8       ??_C@_03FFONCNID@mod?$AA@  100013e8     bit64.obj
 0001:000003ec       ??_C@_03FEJMGOGI@div?$AA@  100013ec     bit64.obj
 0001:000003f0       ??_C@_03IMIFIBCN@mul?$AA@  100013f0     bit64.obj
 0001:000003f4       ??_C@_03KCMAIMAP@sub?$AA@  100013f4     bit64.obj
 0001:000003f8       ??_C@_03BDGOHNNK@add?$AA@  100013f8     bit64.obj
 0001:000003fc       ??_C@_03CLCAEGCJ@new?$AA@  100013fc     bit64.obj
 0001:00000400       ??_C@_07JILILBLL@arshift?$AA@ 10001400     bit64.obj
 0001:00000408       ??_C@_06HMLHBBIJ@rshift?$AA@ 10001408     bit64.obj
 0001:00000410       ??_C@_06ELFGPGBK@lshift?$AA@ 10001410     bit64.obj
 0001:00000418       ??_C@_04CKCGDDNF@bxor?$AA@ 10001418     bit64.obj
 0001:00000420       ??_C@_03BBBGIIAC@bor?$AA@  10001420     bit64.obj
 0001:00000424       ??_C@_04BKGNPECA@band?$AA@ 10001424     bit64.obj
 0001:0000042c       ??_C@_04JAOJMBA@bnot?$AA@  1000142c     bit64.obj
 0001:00000438       _metatable_name            10001438     bit64.obj
 0001:00000530       ??_C@_09GPALILFO@bad?5int64?$AA@ 10001530     bit64.obj
 0001:00000540       __real@433fffffffffffff    10001540     bit64.obj
 0001:00000548       ??_C@_05LLAMLEHD@?$CFI64d?$AA@ 10001548     bit64.obj
 0001:00000550       ??_C@_05OALCLICP@bit64?$AA@ 10001550     bit64.obj
 0001:00000d80       _COLLECTOR_FD              10001d80     exported.obj
 0001:00000d94       _COLLECTOR_OPI             10001d94     exported.obj
 0001:00000dac       _COLLECTOR_PI              10001dac     exported.obj
 0001:00000dc4       _KEY_OBJECT                10001dc4     exported.obj
 0001:00000dcc       ??_C@_09GPFEECNC@traceback?$AA@ 10001dcc     exported.obj
 0001:00000dd8       ??_C@_05GFCDIDHO@debug?$AA@ 10001dd8     exported.obj
 0001:00000de0       ??_C@_06NKNNMLDJ@export?$AA@ 10001de0     exported.obj
 0001:00000de8       ??_C@_07PCNKBAGB@OnError?$AA@ 10001de8     exported.obj
 0001:00000df0       ??_C@_08JNHPECBG@UserData?$AA@ 10001df0     exported.obj
 0001:00000dfc       ??_C@_11LOCGONAA@?$AA?$AA@ 10001dfc     exported.obj
 0001:00000dfc       ??_C@_01LOCGONAA@?$AA?$AA@ 10001dfc     service.obj
 0001:00000e00       ??_C@_0BB@OKGMKOG@CustomColumnData?$AA@ 10001e00     exported.obj
 0001:00000e14       ??_C@_05HDCNEILF@Owner?$AA@ 10001e14     exported.obj
 0001:00000e1c       ??_C@_0M@OHKMKKDH@Description?$AA@ 10001e1c     exported.obj
 0001:00000e28       ??_C@_0BC@COCBGKAE@AlternateFileName?$AA@ 10001e28     exported.obj
 0001:00000e3c       ??_C@_08FDCJCDOL@FileName?$AA@ 10001e3c     exported.obj
 0001:00000e48       ??_C@_05MHNOECFO@CRC32?$AA@ 10001e48     exported.obj
 0001:00000e50       ??_C@_0O@DLGJHFNH@NumberOfLinks?$AA@ 10001e50     exported.obj
 0001:00000e60       ??_C@_05BOOEKJH@Flags?$AA@ 10001e60     exported.obj
 0001:00000e68       ??_C@_0P@JBACEJLL@AllocationSize?$AA@ 10001e68     exported.obj
 0001:00000e78       ??_C@_08BHIEONMC@FileSize?$AA@ 10001e78     exported.obj
 0001:00000e84       ??_C@_0L@FCILKIIG@ChangeTime?$AA@ 10001e84     exported.obj
 0001:00000e90       ??_C@_0O@FCFNCAHK@LastWriteTime?$AA@ 10001e90     exported.obj
 0001:00000ea0       ??_C@_0P@MFHPCDDH@LastAccessTime?$AA@ 10001ea0     exported.obj
 0001:00000eb0       ??_C@_0N@NJMIGDDL@CreationTime?$AA@ 10001eb0     exported.obj
 0001:00000ec0       ??_C@_0M@DFMHDHBL@GetFindData?$AA@ 10001ec0     exported.obj
 0001:00000ecc       ??_C@_08CJLOJPNI@selected?$AA@ 10001ecc     exported.obj
 0001:00000ed8       ??_C@_0BC@IECOKJFL@GetFiles?4DestPath?$AA@ 10001ed8     exported.obj
 0001:00000eec       ??_C@_08FFPEEIHA@GetFiles?$AA@ 10001eec     exported.obj
 0001:00000ef8       ??_C@_1DC@PABHCCON@?$AAD?$AAe?$AAf?$AAa?$AAu?$AAl?$AAt?$AA?5?$AAs?$AAc?$AAr?$AAi?$AAp?$AAt?$AA?5?$AAn?$AAo?$AAt?$AA?5?$AAf?$AAo?$AAu?$AAn?$AAd?$AA?$AA@ 10001ef8     exported.obj
 0001:00000f2c       ??_C@_13BPINEIPE@?$AAr?$AA?$AA@ 10001f2c     exported.obj
 0001:00000f30       ??_C@_19BCNABNAK@?$AA?4?$AAl?$AAu?$AAa?$AA?$AA@ 10001f30     exported.obj
 0001:00000f3c       ??_C@_05LFOKGKBN@?$DMboot?$AA@ 10001f3c     exported.obj
 0001:00000f44       ??_C@_07GCEAJMEA@preload?$AA@ 10001f44     exported.obj
 0001:00000f4c       ??_C@_07KNEGBPNO@package?$AA@ 10001f4c     exported.obj
 0001:00000f54       ??_C@_15CBMDENPJ@?$AA?4?$AA?9?$AA?$AA@ 10001f54     exported.obj
 0001:00000f5c       ??_C@_0BE@HCPAIELH@ReloadDefaultScript?$AA@ 10001f5c     exported.obj
 0001:00000f70       ??_C@_03JEOKDCFP@far?$AA@  10001f70     exported.obj
 0001:00000f74       ??_C@_06EPIAKPGD@OpMode?$AA@ 10001f74     exported.obj
 0001:00000f7c       ??_C@_06LBMCOACO@Buffer?$AA@ 10001f7c     exported.obj
 0001:00000f84       ??_C@_0L@OCPPMCCK@StructSize?$AA@ 10001f84     exported.obj
 0001:00000f90       ??_C@_07GDADDFBD@Analyse?$AA@ 10001f90     exported.obj
 0001:00000f98       ??_C@_0N@IHDKLODA@ShortcutData?$AA@ 10001f98     exported.obj
 0001:00000fa8       ??_C@_08DGDJEKCP@LongText?$AA@ 10001fa8     exported.obj
 0001:00000fb4       ??_C@_0BA@MFFHAKP@ControlKeyState?$AA@ 10001fb4     exported.obj
 0001:00000fc4       ??_C@_0P@PKDBPEJI@VirtualKeyCode?$AA@ 10001fc4     exported.obj
 0001:00000fd4       ??_C@_06ONGFDHIA@KeyBar?$AA@ 10001fd4     exported.obj
 0001:00000fdc       ??_C@_0P@KMACBLNK@StartSortOrder?$AA@ 10001fdc     exported.obj
 0001:00000fec       ??_C@_0O@NIFKFGBJ@StartSortMode?$AA@ 10001fec     exported.obj
 0001:00000ffc       ??_C@_0P@BEEDPJDK@StartPanelMode?$AA@ 10001ffc     exported.obj
 0001:0000100c       ??_C@_0N@EHCEJHEE@ColumnTitles?$AA@ 1000200c     exported.obj
 0001:0000101c       ??_C@_0BD@DNDIPKDK@StatusColumnWidths?$AA@ 1000201c     exported.obj
 0001:00001030       ??_C@_0BC@KELOOKNK@StatusColumnTypes?$AA@ 10002030     exported.obj
 0001:00001044       ??_C@_0N@ILFJPGHI@ColumnWidths?$AA@ 10002044     exported.obj
 0001:00001054       ??_C@_0M@KDJPJFOF@ColumnTypes?$AA@ 10002054     exported.obj
 0001:00001060       ??_C@_0BB@LFNABPEF@PanelModesNumber?$AA@ 10002060     exported.obj
 0001:00001074       ??_C@_0BA@BBOGKOKF@PanelModesArray?$AA@ 10002074     exported.obj
 0001:00001084       ??_C@_0L@FPEHOFAI@DescrFiles?$AA@ 10002084     exported.obj
 0001:00001090       ??_C@_04DICKPMGH@Data?$AA@ 10002090     exported.obj
 0001:00001098       ??_C@_04OJAHODMC@Text?$AA@ 10002098     exported.obj
 0001:000010a0       ??_C@_0BA@BLCGOCOG@InfoLinesNumber?$AA@ 100020a0     exported.obj
 0001:000010b0       ??_C@_09PMEOAIAA@InfoLines?$AA@ 100020b0     exported.obj
 0001:000010bc       ??_C@_0L@CMHIOLLB@PanelTitle?$AA@ 100020bc     exported.obj
 0001:000010c8       ??_C@_06PEPCFMNJ@Format?$AA@ 100020c8     exported.obj
 0001:000010d0       ??_C@_06IBPEEEAJ@CurDir?$AA@ 100020d0     exported.obj
 0001:000010d8       ??_C@_08PAJOMFPO@HostFile?$AA@ 100020d8     exported.obj
 0001:000010e4       ??_C@_08KDMNIFGM@FreeSize?$AA@ 100020e4     exported.obj
 0001:000010f0       ??_C@_1EO@OOOCECGK@?$AAG?$AAe?$AAt?$AAO?$AAp?$AAe?$AAn?$AAP?$AAa?$AAn?$AAe?$AAl?$AAI?$AAn?$AAf?$AAo?$AA?5?$AAs?$AAh?$AAo?$AAu?$AAl?$AAd?$AA?5?$AAr?$AAe?$AAt?$AAu?$AAr?$AAn?$AA?5?$AAa@ 100020f0     exported.obj
 0001:00001140       ??_C@_05ELNJBDOO@reuse?$AA@ 10002140     exported.obj
 0001:00001148       ??_C@_0BB@CKIGBGLB@GetOpenPanelInfo?$AA@ 10002148     exported.obj
 0001:0000115c       ??_C@_05HIFJDKLD@array?$AA@ 1000215c     exported.obj
 0001:00001164       ??_C@_01EFFIKLCJ@n?$AA@    10002164     exported.obj
 0001:00001166       ??_C@_00CNPNBAHC@?$AA@     10002166     exported.obj
 0001:00001168       __real@bff0000000000000    10002168     exported.obj
 0001:00001170       ??_C@_05LNOAKADA@panel?$AA@ 10002170     exported.obj
 0001:00001178       ??_C@_06BNNOMDLO@Handle?$AA@ 10002178     exported.obj
 0001:00001180       ??_C@_04OPJIDECA@hDlg?$AA@ 10002180     exported.obj
 0001:00001188       ??_C@_04DNCDCIAE@Open?$AA@ 10002188     exported.obj
 0001:00001190       ??_C@_0L@JMPDJFBN@ClosePanel?$AA@ 10002190     exported.obj
 0001:0000119c       ??_C@_07MBOMJGGF@Compare?$AA@ 1000219c     exported.obj
 0001:000011a4       ??_C@_09NANCCILE@Configure?$AA@ 100021a4     exported.obj
 0001:000011b0       ??_C@_0M@MMKKMEFA@DeleteFiles?$AA@ 100021b0     exported.obj
 0001:000011bc       ??_C@_0BD@PJNONGDB@MakeDirectory?4Name?$AA@ 100021bc     exported.obj
 0001:000011d0       ??_C@_0O@GLLEDHJA@MakeDirectory?$AA@ 100021d0     exported.obj
 0001:000011e0       ??_C@_0BC@COPMJGBI@ProcessPanelEvent?$AA@ 100021e0     exported.obj
 0001:000011f4       ??_C@_0BA@DPJAKFGC@ProcessHostFile?$AA@ 100021f4     exported.obj
 0001:00001204       ??_C@_0BC@HOBKGBBM@ProcessPanelInput?$AA@ 10002204     exported.obj
 0001:00001218       ??_C@_08OBOOFGOD@PutFiles?$AA@ 10002218     exported.obj
 0001:00001224       ??_C@_0N@KCFEBPAO@SetDirectory?$AA@ 10002224     exported.obj
 0001:00001234       ??_C@_0M@PNOHHCCH@SetFindList?$AA@ 10002234     exported.obj
 0001:00001240       ??_C@_07EACELFAO@ExitFAR?$AA@ 10002240     exported.obj
 0001:00001248       ??_C@_0BE@GAFPNGIP@PluginConfigStrings?$AA@ 10002248     exported.obj
 0001:0000125c       ??_C@_0BC@ILBHAHCH@PluginConfigGuids?$AA@ 1000225c     exported.obj
 0001:00001270       ??_C@_0BC@DJMJFBJC@PluginMenuStrings?$AA@ 10002270     exported.obj
 0001:00001284       ??_C@_0BA@FOMPNLJF@PluginMenuGuids?$AA@ 10002284     exported.obj
 0001:00001294       ??_C@_0BA@NLBDFPEO@DiskMenuStrings?$AA@ 10002294     exported.obj
 0001:000012a4       ??_C@_0O@PHBKMNMJ@DiskMenuGuids?$AA@ 100022a4     exported.obj
 0001:000012b4       ??_C@_0O@GDMHGAFH@CommandPrefix?$AA@ 100022b4     exported.obj
 0001:000012c4       ??_C@_0O@OBCKADMD@GetPluginInfo?$AA@ 100022c4     exported.obj
 0001:000012d4       ??_C@_0BD@DECJPBBK@ProcessEditorInput?$AA@ 100022d4     exported.obj
 0001:000012e8       ??_C@_08DOHJINHB@CodePage?$AA@ 100022e8     exported.obj
 0001:000012f4       ??_C@_07MOCFLHCN@FileEOL?$AA@ 100022f4     exported.obj
 0001:000012fc       ??_C@_0N@EKPHGDMI@StringNumber?$AA@ 100022fc     exported.obj
 0001:0000130c       ??_C@_04KOACHJEN@Type?$AA@ 1000230c     exported.obj
 0001:00001314       ??_C@_0BD@GEMPAGBO@ProcessEditorEvent?$AA@ 10002314     exported.obj
 0001:00001328       ??_C@_0BD@GGKMLEJG@ProcessViewerEvent?$AA@ 10002328     exported.obj
 0001:0000133c       ??_C@_03MLMOILGK@Msg?$AA@  1000233c     exported.obj
 0001:00001340       ??_C@_06EDEGJMB@Param1?$AA@ 10002340     exported.obj
 0001:00001348       ??_C@_06CPBJDKAC@Param2?$AA@ 10002348     exported.obj
 0001:00001350       ??_C@_0BD@FNHBEIC@ProcessDialogEvent?$AA@ 10002350     exported.obj
 0001:00001364       ??_C@_0BE@LHJGGGHN@ProcessSynchroEvent?$AA@ 10002364     exported.obj
 0001:00001378       ??_C@_0BB@PHIEFGHD@GetContentFields?$AA@ 10002378     exported.obj
 0001:0000138c       ??_C@_0P@DPJDPMPI@GetContentData?$AA@ 1000238c     exported.obj
 0001:0000139c       ??_C@_06HHECMMLE@Author?$AA@ 1000239c     exported.obj
 0001:000013a4       ??_C@_05PABKJLOM@Title?$AA@ 100023a4     exported.obj
 0001:000013ac       ??_C@_04MJHIICBJ@Guid?$AA@ 100023ac     exported.obj
 0001:000013b4       ??_C@_07NGFJPNPN@Version?$AA@ 100023b4     exported.obj
 0001:000013bc       ??_C@_0O@CALOEOI@MinFarVersion?$AA@ 100023bc     exported.obj
 0001:000013cc       ??_C@_0O@GJMOPLGM@GetGlobalInfo?$AA@ 100023cc     exported.obj
 0001:000013dc       ??_C@_1CA@IBKDMBNJ@?$AA_?$AAg?$AAl?$AAo?$AAb?$AAa?$AAl?$AAi?$AAn?$AAf?$AAo?$AA?4?$AAl?$AAu?$AAa?$AA?$AA@ 100023dc     exported.obj
 0001:000013fc       ??_C@_0N@DDJEHLKE@?$DM_globalinfo?$AA@ 100023fc     exported.obj
 0001:0000140c       ??_C@_0BE@DONMOPMJ@ProcessConsoleInput?$AA@ 1000240c     exported.obj
 0001:00001420       ??_C@_0O@GABDOPO@MOUSE_WHEELED?$AA@ 10002420     flags.obj
 0001:00001430       ??_C@_0N@EDCKBGJE@DOUBLE_CLICK?$AA@ 10002430     flags.obj
 0001:00001440       ??_C@_0M@KKBDEELB@MOUSE_MOVED?$AA@ 10002440     flags.obj
 0001:0000144c       ??_C@_0BN@CNMHAAPD@FROM_LEFT_4TH_BUTTON_PRESSED?$AA@ 1000244c     flags.obj
 0001:0000146c       ??_C@_0BN@PMJNFPGM@FROM_LEFT_3RD_BUTTON_PRESSED?$AA@ 1000246c     flags.obj
 0001:0000148c       ??_C@_0BN@BJCFPKCG@FROM_LEFT_2ND_BUTTON_PRESSED?$AA@ 1000248c     flags.obj
 0001:000014ac       ??_C@_0BJ@JECFAJNJ@RIGHTMOST_BUTTON_PRESSED?$AA@ 100024ac     flags.obj
 0001:000014c8       ??_C@_0BN@HACKHGAB@FROM_LEFT_1ST_BUTTON_PRESSED?$AA@ 100024c8     flags.obj
 0001:000014e8       ??_C@_0O@LAHFNPLG@SCROLLLOCK_ON?$AA@ 100024e8     flags.obj
 0001:000014f8       ??_C@_0L@IMGKKBIM@NUMLOCK_ON?$AA@ 100024f8     flags.obj
 0001:00001504       ??_C@_0O@OGDFJMBK@SHIFT_PRESSED?$AA@ 10002504     flags.obj
 0001:00001514       ??_C@_0BC@FDNOAAAE@LEFT_CTRL_PRESSED?$AA@ 10002514     flags.obj
 0001:00001528       ??_C@_0BD@NEHHNAHO@RIGHT_CTRL_PRESSED?$AA@ 10002528     flags.obj
 0001:0000153c       ??_C@_0BB@MCADLJJO@LEFT_ALT_PRESSED?$AA@ 1000253c     flags.obj
 0001:00001550       ??_C@_0BC@GDHABBAP@RIGHT_ALT_PRESSED?$AA@ 10002550     flags.obj
 0001:00001564       ??_C@_0N@EMEOEKDA@ENHANCED_KEY?$AA@ 10002564     flags.obj
 0001:00001574       ??_C@_0M@MKBGBFGO@CAPSLOCK_ON?$AA@ 10002574     flags.obj
 0001:00001580       ??_C@_0M@LNGHCCGJ@FOCUS_EVENT?$AA@ 10002580     flags.obj
 0001:0000158c       ??_C@_0L@MPODFLFH@MENU_EVENT?$AA@ 1000258c     flags.obj
 0001:00001598       ??_C@_0BJ@OHDOHJKG@WINDOW_BUFFER_SIZE_EVENT?$AA@ 10002598     flags.obj
 0001:000015b4       ??_C@_0M@CPILDGOO@MOUSE_EVENT?$AA@ 100025b4     flags.obj
 0001:000015c0       ??_C@_09JBABGNAE@KEY_EVENT?$AA@ 100025c0     flags.obj
 0001:000015cc       ??_C@_0BK@CDKLKCHJ@ENABLE_WRAP_AT_EOL_OUTPUT?$AA@ 100025cc     flags.obj
 0001:000015e8       ??_C@_0BI@MHKNPIFM@ENABLE_PROCESSED_OUTPUT?$AA@ 100025e8     flags.obj
 0001:00001600       ??_C@_0BF@PEBFEBKN@ENABLE_AUTO_POSITION?$AA@ 10002600     flags.obj
 0001:00001618       ??_C@_0BG@CBCHHIEH@ENABLE_EXTENDED_FLAGS?$AA@ 10002618     flags.obj
 0001:00001630       ??_C@_0BH@BJKMFKAO@ENABLE_QUICK_EDIT_MODE?$AA@ 10002630     flags.obj
 0001:00001648       ??_C@_0BD@KJBPOMPN@ENABLE_INSERT_MODE?$AA@ 10002648     flags.obj
 0001:0000165c       ??_C@_0BD@BJECBJPO@ENABLE_MOUSE_INPUT?$AA@ 1000265c     flags.obj
 0001:00001670       ??_C@_0BE@BLAHACNB@ENABLE_WINDOW_INPUT?$AA@ 10002670     flags.obj
 0001:00001684       ??_C@_0BH@EHINFMOF@ENABLE_PROCESSED_INPUT?$AA@ 10002684     flags.obj
 0001:0000169c       ??_C@_0BC@JPFKLHOC@ENABLE_ECHO_INPUT?$AA@ 1000269c     flags.obj
 0001:000016b0       ??_C@_0BC@BBOPHMOM@ENABLE_LINE_INPUT?$AA@ 100026b0     flags.obj
 0001:000016c4       ??_C@_0BE@BCNEFGKM@CTRL_SHUTDOWN_EVENT?$AA@ 100026c4     flags.obj
 0001:000016d8       ??_C@_0BC@MCKCEPAL@CTRL_LOGOFF_EVENT?$AA@ 100026d8     flags.obj
 0001:000016ec       ??_C@_0BB@KMPDMOKK@CTRL_CLOSE_EVENT?$AA@ 100026ec     flags.obj
 0001:00001700       ??_C@_0BB@ELEIIFAE@CTRL_BREAK_EVENT?$AA@ 10002700     flags.obj
 0001:00001714       ??_C@_0N@FEFOEFHG@CTRL_C_EVENT?$AA@ 10002714     flags.obj
 0001:00001724       ??_C@_0BF@NIGKKPCF@BACKGROUND_INTENSITY?$AA@ 10002724     flags.obj
 0001:0000173c       ??_C@_0P@DANALJMC@BACKGROUND_RED?$AA@ 1000273c     flags.obj
 0001:0000174c       ??_C@_0BB@GKLNBMEL@BACKGROUND_GREEN?$AA@ 1000274c     flags.obj
 0001:00001760       ??_C@_0BA@PIFINJCK@BACKGROUND_BLUE?$AA@ 10002760     flags.obj
 0001:00001770       ??_C@_0BF@OOGEJCC@FOREGROUND_INTENSITY?$AA@ 10002770     flags.obj
 0001:00001788       ??_C@_0P@PBJHCFGA@FOREGROUND_RED?$AA@ 10002788     flags.obj
 0001:00001798       ??_C@_0BB@PDFNMAI@FOREGROUND_GREEN?$AA@ 10002798     flags.obj
 0001:000017ac       ??_C@_0BA@MAEBFMHC@FOREGROUND_BLUE?$AA@ 100027ac     flags.obj
 0001:000017bc       ??_C@_09HNBBLIGN@PCIF_NONE?$AA@ 100027bc     flags.obj
 0001:000017c8       ??_C@_0O@PLFENGLI@PCIF_FROMMAIN?$AA@ 100027c8     flags.obj
 0001:000017d8       ??_C@_09FMOOJHDF@FOSF_NONE?$AA@ 100027d8     flags.obj
 0001:000017e4       ??_C@_0M@MIGJPBPE@FOSF_ACTIVE?$AA@ 100027e4     flags.obj
 0001:000017f0       ??_C@_08EGEBMPBD@OPM_NONE?$AA@ 100027f0     flags.obj
 0001:000017fc       ??_C@_0N@HKCLLJDG@OPM_COMMANDS?$AA@ 100027fc     flags.obj
 0001:0000180c       ??_C@_08LCEGJCAC@OPM_PGDN?$AA@ 1000280c     flags.obj
 0001:00001818       ??_C@_0O@OPDAGBBE@OPM_QUICKVIEW?$AA@ 10002818     flags.obj
 0001:00001828       ??_C@_09EBKAPHPA@OPM_DESCR?$AA@ 10002828     flags.obj
 0001:00001834       ??_C@_0N@NDGKAFDM@OPM_TOPLEVEL?$AA@ 10002834     flags.obj
 0001:00001844       ??_C@_08LAAGEMJG@OPM_EDIT?$AA@ 10002844     flags.obj
 0001:00001850       ??_C@_08EHBLNDLO@OPM_VIEW?$AA@ 10002850     flags.obj
 0001:0000185c       ??_C@_08EKEBOKEP@OPM_FIND?$AA@ 1000285c     flags.obj
 0001:00001868       ??_C@_0L@GEHHKNBL@OPM_SILENT?$AA@ 10002868     flags.obj
 0001:00001874       ??_C@_09DOPJBMLM@OPIF_NONE?$AA@ 10002874     flags.obj
 0001:00001880       ??_C@_0O@FJPLJDBC@OPIF_SHORTCUT?$AA@ 10002880     flags.obj
 0001:00001890       ??_C@_0BB@PFDFAFHG@OPIF_USEFREESIZE?$AA@ 10002890     flags.obj
 0001:000018a4       ??_C@_0O@JHHHMHIG@OPIF_USECRC32?$AA@ 100028a4     flags.obj
 0001:000018b4       ??_C@_0BJ@CALDMPLF@OPIF_USEATTRHIGHLIGHTING?$AA@ 100028b4     flags.obj
 0001:000018d0       ??_C@_0BD@JIMJPFEP@OPIF_EXTERNALMKDIR?$AA@ 100028d0     flags.obj
 0001:000018e4       ??_C@_0BE@LKEMICNM@OPIF_EXTERNALDELETE?$AA@ 100028e4     flags.obj
 0001:000018f8       ??_C@_0BB@CFFPNDFK@OPIF_EXTERNALPUT?$AA@ 100028f8     flags.obj
 0001:0000190c       ??_C@_0BB@PELHBPAM@OPIF_EXTERNALGET?$AA@ 1000290c     flags.obj
 0001:00001920       ??_C@_0BE@GJEJHNKJ@OPIF_COMPAREFATTIME?$AA@ 10002920     flags.obj
 0001:00001934       ??_C@_0BG@HGPMKHIE@OPIF_SHOWPRESERVECASE?$AA@ 10002934     flags.obj
 0001:0000194c       ??_C@_0BJ@NMIFAPJD@OPIF_SHOWRIGHTALIGNNAMES?$AA@ 1000294c     flags.obj
 0001:00001968       ??_C@_0BD@FPGMNAPD@OPIF_SHOWNAMESONLY?$AA@ 10002968     flags.obj
 0001:0000197c       ??_C@_0P@OFEDJCO@OPIF_REALNAMES?$AA@ 1000297c     flags.obj
 0001:0000198c       ??_C@_0BC@HOFHNJIG@OPIF_RAWSELECTION?$AA@ 1000298c     flags.obj
 0001:000019a0       ??_C@_0N@JANKJMLP@OPIF_ADDDOTS?$AA@ 100029a0     flags.obj
 0001:000019b0       ??_C@_0BJ@NGLIANCL@OPIF_DISABLEHIGHLIGHTING?$AA@ 100029b0     flags.obj
 0001:000019cc       ??_C@_0BH@FHBKALPD@OPIF_DISABLESORTGROUPS?$AA@ 100029cc     flags.obj
 0001:000019e4       ??_C@_0BD@PBMGDJEM@OPIF_DISABLEFILTER?$AA@ 100029e4     flags.obj
 0001:000019f8       ??_C@_0BH@KOFCBJBO@PMFLAGS_CASECONVERSION?$AA@ 100029f8     flags.obj
 0001:00001a10       ??_C@_0BI@BMHIBDMH@PMFLAGS_ALIGNEXTENSIONS?$AA@ 10002a10     flags.obj
 0001:00001a28       ??_C@_0BH@GDAAKEMH@PMFLAGS_DETAILEDSTATUS?$AA@ 10002a28     flags.obj
 0001:00001a40       ??_C@_0BD@KGHJOBGM@PMFLAGS_FULLSCREEN?$AA@ 10002a40     flags.obj
 0001:00001a54       ??_C@_0BD@EGELEIIG@IPLFLAGS_SEPARATOR?$AA@ 10002a54     flags.obj
 0001:00001a68       ??_C@_07MGEGJMPI@PF_NONE?$AA@ 10002a68     flags.obj
 0001:00001a70       ??_C@_09GMFDAFKL@PF_DIALOG?$AA@ 10002a70     flags.obj
 0001:00001a7c       ??_C@_0P@MBLBBCNK@PF_FULLCMDLINE?$AA@ 10002a7c     flags.obj
 0001:00001a8c       ??_C@_09NEKIJNNA@PF_VIEWER?$AA@ 10002a8c     flags.obj
 0001:00001a98       ??_C@_09OENCMPGE@PF_EDITOR?$AA@ 10002a98     flags.obj
 0001:00001aa4       ??_C@_0BB@GCINAIGN@PF_DISABLEPANELS?$AA@ 10002aa4     flags.obj
 0001:00001ab8       ??_C@_0L@NHEJGKCF@PF_PRELOAD?$AA@ 10002ab8     flags.obj
 0001:00001ac4       ??_C@_0BH@PEGBPJKE@FFFS_MINSIZEINDEX_MASK?$AA@ 10002ac4     flags.obj
 0001:00001adc       ??_C@_0BC@LLLANJJO@FFFS_MINSIZEINDEX?$AA@ 10002adc     flags.obj
 0001:00001af0       ??_C@_0O@HFIGPFIH@FFFS_THOUSAND?$AA@ 10002af0     flags.obj
 0001:00001b00       ??_C@_0O@FPIOAIMC@FFFS_ECONOMIC?$AA@ 10002b00     flags.obj
 0001:00001b10       ??_C@_0BE@NPKCCEJ@FFFS_SHOWBYTESINDEX?$AA@ 10002b10     flags.obj
 0001:00001b24       ??_C@_0P@JPMLNBKL@FFFS_FLOATSIZE?$AA@ 10002b24     flags.obj
 0001:00001b34       ??_C@_0M@JDMKDBDH@FFFS_COMMAS?$AA@ 10002b34     flags.obj
 0001:00001b40       ??_C@_08EBKEJHAL@MLF_NONE?$AA@ 10002b40     flags.obj
 0001:00001b4c       ??_C@_0P@EPFBLPAE@MLF_HOLDTARGET?$AA@ 10002b4c     flags.obj
 0001:00001b5c       ??_C@_0BF@LMAGFLHF@MLF_DONOTUPDATEPANEL?$AA@ 10002b5c     flags.obj
 0001:00001b74       ??_C@_0P@LJPBHEIE@MLF_SHOWERRMSG?$AA@ 10002b74     flags.obj
 0001:00001b84       ??_C@_0BA@JCPHOEAE@FRS_SCANSYMLINK?$AA@ 10002b84     flags.obj
 0001:00001b94       ??_C@_09GHEPLOHO@FRS_RECUR?$AA@ 10002b94     flags.obj
 0001:00001ba0       ??_C@_0N@PJEDCNNJ@FRS_RETUPDIR?$AA@ 10002ba0     flags.obj
 0001:00001bb0       ??_C@_09JCNLKBBK@XLAT_NONE?$AA@ 10002bb0     flags.obj
 0001:00001bbc       ??_C@_0BH@IANKLOAC@XLAT_CONVERTALLCMDLINE?$AA@ 10002bbc     flags.obj
 0001:00001bd4       ??_C@_0BH@KBFAFPNA@XLAT_USEKEYBLAYOUTNAME?$AA@ 10002bd4     flags.obj
 0001:00001bec       ??_C@_0BE@KOIJDNLA@XLAT_SWITCHKEYBBEEP?$AA@ 10002bec     flags.obj
 0001:00001c00       ??_C@_0BG@GOMJDMCK@XLAT_SWITCHKEYBLAYOUT?$AA@ 10002c00     flags.obj
 0001:00001c18       ??_C@_0BE@OPDBOAAE@PN_SHOWERRORMESSAGE?$AA@ 10002c18     flags.obj
 0001:00001c2c       ??_C@_0M@NOOLKEBH@PN_SKIPPATH?$AA@ 10002c2c     flags.obj
 0001:00001c38       ??_C@_0N@FEGPCCPJ@PN_CHECKMASK?$AA@ 10002c38     flags.obj
 0001:00001c48       ??_C@_0BA@BJCCEIOI@PN_GENERATENAME?$AA@ 10002c48     flags.obj
 0001:00001c58       ??_C@_0P@KDEENAHJ@PN_CMPNAMELIST?$AA@ 10002c58     flags.obj
 0001:00001c68       ??_C@_0L@HODJIPGA@PN_CMPNAME?$AA@ 10002c68     flags.obj
 0001:00001c74       ??_C@_08OIOFCNLC@FPF_NONE?$AA@ 10002c74     flags.obj
 0001:00001c80       ??_C@_08GKECKCCJ@FPF_ANSI?$AA@ 10002c80     flags.obj
 0001:00001c8c       ??_C@_0L@NMBLFMBN@FPF_LOADED?$AA@ 10002c8c     flags.obj
 0001:00001c98       ??_C@_08HPFOCDKB@FIB_NONE?$AA@ 10002c98     flags.obj
 0001:00001ca4       ??_C@_0BB@DCODFLEL@FIB_EDITPATHEXEC?$AA@ 10002ca4     flags.obj
 0001:00001cb8       ??_C@_0N@LBOCEEGH@FIB_EDITPATH?$AA@ 10002cb8     flags.obj
 0001:00001cc8       ??_C@_0BA@COBBDHNL@FIB_NOAMPERSAND?$AA@ 10002cc8     flags.obj
 0001:00001cd8       ??_C@_0M@KJOJJDIM@FIB_BUTTONS?$AA@ 10002cd8     flags.obj
 0001:00001ce4       ??_C@_0BF@CEMIHIOK@FIB_NOUSELASTHISTORY?$AA@ 10002ce4     flags.obj
 0001:00001cfc       ??_C@_0O@DOHEGELC@FIB_EXPANDENV?$AA@ 10002cfc     flags.obj
 0001:00001d0c       ??_C@_0N@DLDJCGJI@FIB_PASSWORD?$AA@ 10002d0c     flags.obj
 0001:00001d1c       ??_C@_0BA@KNNLMGCA@FIB_ENABLEEMPTY?$AA@ 10002d1c     flags.obj
 0001:00001d2c       ??_C@_0P@BAFEMBAJ@ECF_AUTODELETE?$AA@ 10002d2c     flags.obj
 0001:00001d3c       ??_C@_0BD@DKGCCJNG@ECF_TABMARKCURRENT?$AA@ 10002d3c     flags.obj
 0001:00001d50       ??_C@_0BB@EDGIEBDF@ECF_TABMARKFIRST?$AA@ 10002d50     flags.obj
 0001:00001d64       ??_C@_0N@GHBDMLON@VMF_WORDWRAP?$AA@ 10002d64     flags.obj
 0001:00001d74       ??_C@_08FAPBJAKB@VMF_WRAP?$AA@ 10002d74     flags.obj
 0001:00001d80       ??_C@_0BA@JKDMJLJG@VSP_NORETNEWPOS?$AA@ 10002d80     flags.obj
 0001:00001d90       ??_C@_0N@JGGGCNIP@VSP_RELATIVE?$AA@ 10002d90     flags.obj
 0001:00001da0       ??_C@_0M@LHNGMHFO@VSP_PERCENT?$AA@ 10002da0     flags.obj
 0001:00001dac       ??_C@_0N@GHEHKHJN@VSP_NOREDRAW?$AA@ 10002dac     flags.obj
 0001:00001dbc       ??_C@_0N@ILNDJNNO@VSMFL_REDRAW?$AA@ 10002dbc     flags.obj
 0001:00001dcc       ??_C@_09FIOJMNJ@VOPT_NONE?$AA@ 10002dcc     flags.obj
 0001:00001dd8       ??_C@_0BI@NCAHLEBN@VOPT_AUTODETECTCODEPAGE?$AA@ 10002dd8     flags.obj
 0001:00001df0       ??_C@_0BG@JMJAOELH@VOPT_SAVEFILEPOSITION?$AA@ 10002df0     flags.obj
 0001:00001e08       ??_C@_09FPGEBDGO@WIF_MODAL?$AA@ 10002e08     flags.obj
 0001:00001e14       ??_C@_0M@ICPAPCOF@WIF_CURRENT?$AA@ 10002e14     flags.obj
 0001:00001e20       ??_C@_0N@MLMCEKPH@WIF_MODIFIED?$AA@ 10002e20     flags.obj
 0001:00001e30       ??_C@_0N@LCOHPDHN@FSETCLR_NONE?$AA@ 10002e30     flags.obj
 0001:00001e40       ??_C@_0P@LMBMJIMF@FSETCLR_REDRAW?$AA@ 10002e40     flags.obj
 0001:00001e50       ??_C@_0O@GKOLBMFK@AKMFLAGS_NONE?$AA@ 10002e50     flags.obj
 0001:00001e60       ??_C@_0N@GIJCDFJI@KMFLAGS_NONE?$AA@ 10002e60     flags.obj
 0001:00001e70       ??_C@_0BD@JHNPMIGP@KMFLAGS_MOONSCRIPT?$AA@ 10002e70     flags.obj
 0001:00001e84       ??_C@_0M@HFBACHCP@KMFLAGS_LUA?$AA@ 10002e84     flags.obj
 0001:00001e90       ??_C@_0BB@NCECNBPK@KMFLAGS_LANGMASK?$AA@ 10002e90     flags.obj
 0001:00001ea4       ??_C@_0BF@PHHPAAOK@KMFLAGS_ENABLEOUTPUT?$AA@ 10002ea4     flags.obj
 0001:00001ebc       ??_C@_0BM@BBOPLPKC@KMFLAGS_NOSENDKEYSTOPLUGINS?$AA@ 10002ebc     flags.obj
 0001:00001ed8       ??_C@_0BE@GEGKIINM@KMFLAGS_SILENTCHECK?$AA@ 10002ed8     flags.obj
 0001:00001eec       ??_C@_0L@MAGMKNFN@FHELP_NONE?$AA@ 10002eec     flags.obj
 0001:00001ef8       ??_C@_0BC@PNPOIHMG@FHELP_USECONTENTS?$AA@ 10002ef8     flags.obj
 0001:00001f0c       ??_C@_0L@OOIMFPBD@FHELP_GUID?$AA@ 10002f0c     flags.obj
 0001:00001f18       ??_C@_0BB@IHFFPJJA@FHELP_CUSTOMPATH?$AA@ 10002f18     flags.obj
 0001:00001f2c       ??_C@_0BB@KNKDPNI@FHELP_CUSTOMFILE?$AA@ 10002f2c     flags.obj
 0001:00001f40       ??_C@_0O@FLGGLFLC@FHELP_FARHELP?$AA@ 10002f40     flags.obj
 0001:00001f50       ??_C@_0P@GANNLHEJ@FHELP_SELFHELP?$AA@ 10002f50     flags.obj
 0001:00001f60       ??_C@_0BC@HHNGCBAM@FHELP_NOSHOWERROR?$AA@ 10002f60     flags.obj
 0001:00001f74       ??_C@_07MBPCONNA@EN_NONE?$AA@ 10002f74     flags.obj
 0001:00001f7c       ??_C@_0BJ@MOLGCBMH@EF_OPENMODE_RELOADIFOPEN?$AA@ 10002f7c     flags.obj
 0001:00001f98       ??_C@_0BI@EJBKKDJ@EF_OPENMODE_BREAKIFOPEN?$AA@ 10002f98     flags.obj
 0001:00001fb0       ??_C@_0BI@KGOKGPEI@EF_OPENMODE_USEEXISTING?$AA@ 10002fb0     flags.obj
 0001:00001fc8       ??_C@_0BG@BFKJJBAG@EF_OPENMODE_NEWIFOPEN?$AA@ 10002fc8     flags.obj
 0001:00001fe0       ??_C@_0BC@GAIDEJIA@EF_OPENMODE_QUERY?$AA@ 10002fe0     flags.obj
 0001:00001ff4       ??_C@_0BB@NILAHAFO@EF_OPENMODE_MASK?$AA@ 10002ff4     flags.obj
 0001:00002008       ??_C@_0BC@GFHJGKD@EF_DISABLESAVEPOS?$AA@ 10003008     flags.obj
 0001:0000201c       ??_C@_09IJMPFPLB@EF_LOCKED?$AA@ 1000301c     flags.obj
 0001:00002028       ??_C@_0BJ@ILCPOFKL@EF_DELETEONLYFILEONCLOSE?$AA@ 10003028     flags.obj
 0001:00002044       ??_C@_0BD@IHIGHGPL@EF_IMMEDIATERETURN?$AA@ 10003044     flags.obj
 0001:00002058       ??_C@_0BB@KGPIDKFC@EF_DELETEONCLOSE?$AA@ 10003058     flags.obj
 0001:0000206c       ??_C@_0BC@PPEPEFFI@EF_DISABLEHISTORY?$AA@ 1000306c     flags.obj
 0001:00002080       ??_C@_0N@LKLNHALI@EF_ENABLE_F6?$AA@ 10003080     flags.obj
 0001:00002090       ??_C@_0N@DBHFPBEO@EF_CREATENEW?$AA@ 10003090     flags.obj
 0001:000020a0       ??_C@_0M@PIFGAPFH@EF_NONMODAL?$AA@ 100030a0     flags.obj
 0001:000020ac       ??_C@_07CJJFHP@VF_NONE?$AA@ 100030ac     flags.obj
 0001:000020b4       ??_C@_0BJ@OGNFHEJG@VF_DELETEONLYFILEONCLOSE?$AA@ 100030b4     flags.obj
 0001:000020d0       ??_C@_0BD@DHJCMLFI@VF_IMMEDIATERETURN?$AA@ 100030d0     flags.obj
 0001:000020e4       ??_C@_0BC@DLGKMECC@VF_DISABLEHISTORY?$AA@ 100030e4     flags.obj
 0001:000020f8       ??_C@_0N@LDHALKKM@VF_ENABLE_F6?$AA@ 100030f8     flags.obj
 0001:00002108       ??_C@_0BB@OCDDPIKL@VF_DELETEONCLOSE?$AA@ 10003108     flags.obj
 0001:0000211c       ??_C@_0M@IDNADAFL@VF_NONMODAL?$AA@ 1000311c     flags.obj
 0001:00002128       ??_C@_0M@NEMAHHGP@PFLAGS_NONE?$AA@ 10003128     flags.obj
 0001:00002134       ??_C@_0BA@GHMDCHHI@PFLAGS_SHORTCUT?$AA@ 10003134     flags.obj
 0001:00002144       ??_C@_0BI@EOCCAHFA@PFLAGS_ALTERNATIVENAMES?$AA@ 10003144     flags.obj
 0001:0000215c       ??_C@_0N@EOFAELOJ@PFLAGS_FOCUS?$AA@ 1000315c     flags.obj
 0001:0000216c       ??_C@_0P@MLDEBNPK@PFLAGS_VISIBLE?$AA@ 1000316c     flags.obj
 0001:0000217c       ??_C@_0O@DBPJGING@PFLAGS_PLUGIN?$AA@ 1000317c     flags.obj
 0001:0000218c       ??_C@_0BJ@HJFOABKG@PFLAGS_CASESENSITIVESORT?$AA@ 1000318c     flags.obj
 0001:000021a8       ??_C@_0BA@KJEPHDOM@PFLAGS_USECRC32?$AA@ 100031a8     flags.obj
 0001:000021b8       ??_C@_0BI@EHHAJLOH@PFLAGS_DIRECTORIESFIRST?$AA@ 100031b8     flags.obj
 0001:000021d0       ??_C@_0BB@ILEHDKFJ@PFLAGS_PANELLEFT?$AA@ 100031d0     flags.obj
 0001:000021e4       ??_C@_0BD@MOODMDAB@PFLAGS_NUMERICSORT?$AA@ 100031e4     flags.obj
 0001:000021f8       ??_C@_0BB@KDANIJNM@PFLAGS_REALNAMES?$AA@ 100031f8     flags.obj
 0001:0000220c       ??_C@_0BF@LBBAIOCD@PFLAGS_SELECTEDFIRST?$AA@ 1000320c     flags.obj
 0001:00002224       ??_C@_0BF@KJNCJPKN@PFLAGS_USESORTGROUPS?$AA@ 10003224     flags.obj
 0001:0000223c       ??_C@_0BI@BFAFODJ@PFLAGS_REVERSESORTORDER?$AA@ 1000323c     flags.obj
 0001:00002254       ??_C@_0BB@BCAJEJEH@PFLAGS_HIGHLIGHT?$AA@ 10003254     flags.obj
 0001:00002268       ??_C@_0BC@BONLDOOD@PFLAGS_SHOWHIDDEN?$AA@ 10003268     flags.obj
 0001:0000227c       ??_C@_09OIFMMGNJ@PPIF_NONE?$AA@ 1000327c     flags.obj
 0001:00002288       ??_C@_0BC@LPBDBIOM@PPIF_PROCESSDESCR?$AA@ 10003288     flags.obj
 0001:0000229c       ??_C@_0O@JEAJLDHC@PPIF_SELECTED?$AA@ 1000329c     flags.obj
 0001:000022ac       ??_C@_0L@DGFIEOMD@FMENU_NONE?$AA@ 100032ac     flags.obj
 0001:000022b8       ??_C@_0BJ@FCEONOJC@FMENU_CHANGECONSOLETITLE?$AA@ 100032b8     flags.obj
 0001:000022d4       ??_C@_0BL@OKAIKPMN@FMENU_REVERSEAUTOHIGHLIGHT?$AA@ 100032d4     flags.obj
 0001:000022f0       ??_C@_0BE@IDAMFDEA@FMENU_AUTOHIGHLIGHT?$AA@ 100032f0     flags.obj
 0001:00002304       ??_C@_0P@HICDNKDJ@FMENU_WRAPMODE?$AA@ 10003304     flags.obj
 0001:00002314       ??_C@_0BE@FALMPPJK@FMENU_SHOWAMPERSAND?$AA@ 10003314     flags.obj
 0001:00002328       ??_C@_08JEEJJGP@MIF_NONE?$AA@ 10003328     flags.obj
 0001:00002334       ??_C@_0L@DEJINBIP@MIF_HIDDEN?$AA@ 10003334     flags.obj
 0001:00002340       ??_C@_0L@DLLNLLIG@MIF_GRAYED?$AA@ 10003340     flags.obj
 0001:0000234c       ??_C@_0M@OPPCPJOL@MIF_DISABLE?$AA@ 1000334c     flags.obj
 0001:00002358       ??_C@_0O@DEIKOCPA@MIF_SEPARATOR?$AA@ 10003358     flags.obj
 0001:00002368       ??_C@_0M@IHMNAMOE@MIF_CHECKED?$AA@ 10003368     flags.obj
 0001:00002374       ??_C@_0N@JOOGIBAO@MIF_SELECTED?$AA@ 10003374     flags.obj
 0001:00002384       ??_C@_09NNFHCBNL@FDLG_NONE?$AA@ 10003384     flags.obj
 0001:00002390       ??_C@_0BG@GHNOOENB@FDLG_KEEPCONSOLETITLE?$AA@ 10003390     flags.obj
 0001:000023a8       ??_C@_0BB@NPLEEAKK@FDLG_NODRAWPANEL?$AA@ 100033a8     flags.obj
 0001:000023bc       ??_C@_0BC@ONGLDAJN@FDLG_NODRAWSHADOW?$AA@ 100033bc     flags.obj
 0001:000023d0       ??_C@_0BB@DKMEBDJJ@FDLG_SMALLDIALOG?$AA@ 100033d0     flags.obj
 0001:000023e4       ??_C@_0N@OLGDMHKL@FDLG_WARNING?$AA@ 100033e4     flags.obj
 0001:000023f4       ??_C@_0L@EPACPANF@LINFO_NONE?$AA@ 100033f4     flags.obj
 0001:00002400       ??_C@_0BE@OHJCOKAE@LINFO_SHOWAMPERSAND?$AA@ 10003400     flags.obj
 0001:00002414       ??_C@_0P@KLBMHNCG@LINFO_WRAPMODE?$AA@ 10003414     flags.obj
 0001:00002424       ??_C@_0BH@BADLEILJ@LINFO_REVERSEHIGHLIGHT?$AA@ 10003424     flags.obj
 0001:0000243c       ??_C@_0BE@DECCEGNO@LINFO_AUTOHIGHLIGHT?$AA@ 1000343c     flags.obj
 0001:00002450       ??_C@_0BA@OOIEKCFB@LINFO_SHOWNOBOX?$AA@ 10003450     flags.obj
 0001:00002460       ??_C@_0M@FPOGKIGO@LIFIND_NONE?$AA@ 10003460     flags.obj
 0001:0000246c       ??_C@_0BC@BGAENNBJ@LIFIND_EXACTMATCH?$AA@ 1000346c     flags.obj
 0001:00002480       ??_C@_08BODPINCM@LIF_NONE?$AA@ 10003480     flags.obj
 0001:0000248c       ??_C@_0BD@HEPCOIEH@LIF_DELETEUSERDATA?$AA@ 1000348c     flags.obj
 0001:000024a0       ??_C@_0L@PFBGAOEP@LIF_HIDDEN?$AA@ 100034a0     flags.obj
 0001:000024ac       ??_C@_0L@PKDDGEEG@LIF_GRAYED?$AA@ 100034ac     flags.obj
 0001:000024b8       ??_C@_0M@HEFHLFIE@LIF_DISABLE?$AA@ 100034b8     flags.obj
 0001:000024c4       ??_C@_0O@KJIFADIG@LIF_SEPARATOR?$AA@ 100034c4     flags.obj
 0001:000024d4       ??_C@_0M@BMGIEAIL@LIF_CHECKED?$AA@ 100034d4     flags.obj
 0001:000024e0       ??_C@_0N@EDHAFIIL@LIF_SELECTED?$AA@ 100034e0     flags.obj
 0001:000024f0       ??_C@_08KFOHCPDE@DIF_NONE?$AA@ 100034f0     flags.obj
 0001:000024fc       ??_C@_0N@LAEOODAD@DIF_WORDWRAP?$AA@ 100034fc     flags.obj
 0001:0000250c       ??_C@_0O@KJADCBBN@DIF_RIGHTTEXT?$AA@ 1000350c     flags.obj
 0001:0000251c       ??_C@_09LCJIOEMN@DIF_FOCUS?$AA@ 1000351c     flags.obj
 0001:00002528       ??_C@_0BC@CHAAKEJO@DIF_DEFAULTBUTTON?$AA@ 10003528     flags.obj
 0001:0000253c       ??_C@_0M@HCFLMDHK@DIF_DISABLE?$AA@ 1000353c     flags.obj
 0001:00002548       ??_C@_0M@NLLDINIM@DIF_NOFOCUS?$AA@ 10003548     flags.obj
 0001:00002554       ??_C@_0N@KOGKCAKJ@DIF_READONLY?$AA@ 10003554     flags.obj
 0001:00002564       ??_C@_0L@EPNFOPAK@DIF_HIDDEN?$AA@ 10003564     flags.obj
 0001:00002570       ??_C@_0BB@GMKDKOOP@DIF_EDITPATHEXEC?$AA@ 10003570     flags.obj
 0001:00002584       ??_C@_0BA@JNOKLHOL@DIF_LISTNOCLOSE?$AA@ 10003584     flags.obj
 0001:00002594       ??_C@_0BG@MONEJILE@DIF_LISTAUTOHIGHLIGHT?$AA@ 10003594     flags.obj
 0001:000025ac       ??_C@_0BD@MFOKKGGF@DIF_NOAUTOCOMPLETE?$AA@ 100035ac     flags.obj
 0001:000025c0       ??_C@_0BB@NPNALIGO@DIF_LISTWRAPMODE?$AA@ 100035c0     flags.obj
 0001:000025d4       ??_C@_0N@GBGHICKO@DIF_EDITPATH?$AA@ 100035d4     flags.obj
 0001:000025e4       ??_C@_0L@KKNJDNBK@DIF_3STATE?$AA@ 100035e4     flags.obj
 0001:000025f0       ??_C@_0BC@JNLDMGBD@DIF_SELECTONENTRY?$AA@ 100035f0     flags.obj
 0001:00002604       ??_C@_0BK@LEFIBDOA@DIF_LISTTRACKMOUSEINFOCUS?$AA@ 10003604     flags.obj
 0001:00002620       ??_C@_0BD@LPDHCLJI@DIF_LISTTRACKMOUSE?$AA@ 10003620     flags.obj
 0001:00002634       ??_C@_0N@MOCGNIKC@DIF_MASKEDIT?$AA@ 10003634     flags.obj
 0001:00002644       ??_C@_0BD@MNGIOLFF@DIF_USELASTHISTORY?$AA@ 10003644     flags.obj
 0001:00002658       ??_C@_0BB@EIMEKEFP@DIF_DROPDOWNLIST?$AA@ 10003658     flags.obj
 0001:0000266c       ??_C@_0P@EEJEDBLH@DIF_EDITEXPAND?$AA@ 1000366c     flags.obj
 0001:0000267c       ??_C@_0O@IKJBMPOF@DIF_SETSHIELD?$AA@ 1000367c     flags.obj
 0001:0000268c       ??_C@_0BC@ODEMBOPK@DIF_SEPARATORUSER?$AA@ 1000368c     flags.obj
 0001:000026a0       ??_C@_0P@KOJCCCGB@DIF_CENTERTEXT?$AA@ 100036a0     flags.obj
 0001:000026b0       ??_C@_0P@EGFAEEDC@DIF_BTNNOCLOSE?$AA@ 100036b0     flags.obj
 0001:000026c0       ??_C@_0M@IPFBMFDN@DIF_HISTORY?$AA@ 100036c0     flags.obj
 0001:000026cc       ??_C@_0O@FFJNBMAD@DIF_LISTNOBOX?$AA@ 100036cc     flags.obj
 0001:000026dc       ??_C@_0BE@PFICAGJF@DIF_LISTNOAMPERSAND?$AA@ 100036dc     flags.obj
 0001:000026f0       ??_C@_0L@NBPFNGLB@DIF_EDITOR?$AA@ 100036f0     flags.obj
 0001:000026fc       ??_C@_0P@CGILDLOA@DIF_SEPARATOR2?$AA@ 100036fc     flags.obj
 0001:0000270c       ??_C@_0O@JKNMBNLA@DIF_SEPARATOR?$AA@ 1000370c     flags.obj
 0001:0000271c       ??_C@_0BF@JBCDBJCL@DIF_MANUALADDHISTORY?$AA@ 1000371c     flags.obj
 0001:00002734       ??_C@_0P@MKFBJPOB@DIF_NOBRACKETS?$AA@ 10003734     flags.obj
 0001:00002744       ??_C@_0BA@BLCOKAAO@DIF_CENTERGROUP?$AA@ 10003744     flags.obj
 0001:00002754       ??_C@_0BC@PDKFKKEI@DIF_SHOWAMPERSAND?$AA@ 10003754     flags.obj
 0001:00002768       ??_C@_0P@BGPBEDHH@DIF_MOVESELECT?$AA@ 10003768     flags.obj
 0001:00002778       ??_C@_0N@GCKJNBCM@DIF_LEFTTEXT?$AA@ 10003778     flags.obj
 0001:00002788       ??_C@_09IAEPIICA@DIF_GROUP?$AA@ 10003788     flags.obj
 0001:00002794       ??_C@_0N@DHJCDIKM@DIF_BOXCOLOR?$AA@ 10003794     flags.obj
 0001:000027a4       ??_C@_09NEGPLEAH@FMSG_NONE?$AA@ 100037a4     flags.obj
 0001:000027b0       ??_C@_0BE@OCLAIENB@FMSG_MB_RETRYCANCEL?$AA@ 100037b0     flags.obj
 0001:000027c4       ??_C@_0BE@IBNOLCGP@FMSG_MB_YESNOCANCEL?$AA@ 100037c4     flags.obj
 0001:000027d8       ??_C@_0O@GPCAPHCL@FMSG_MB_YESNO?$AA@ 100037d8     flags.obj
 0001:000027e8       ??_C@_0BJ@BKJADAHA@FMSG_MB_ABORTRETRYIGNORE?$AA@ 100037e8     flags.obj
 0001:00002804       ??_C@_0BB@JGAPGIEP@FMSG_MB_OKCANCEL?$AA@ 10003804     flags.obj
 0001:00002818       ??_C@_0L@BGALGPOK@FMSG_MB_OK?$AA@ 10003818     flags.obj
 0001:00002824       ??_C@_0O@FOIOKDHJ@FMSG_ALLINONE?$AA@ 10003824     flags.obj
 0001:00002834       ??_C@_0P@KBEMNNEP@FMSG_LEFTALIGN?$AA@ 10003834     flags.obj
 0001:00002844       ??_C@_0BE@FHOOILPH@FMSG_KEEPBACKGROUND?$AA@ 10003844     flags.obj
 0001:00002858       ??_C@_0P@HHIGLJAP@FMSG_ERRORTYPE?$AA@ 10003858     flags.obj
 0001:00002868       ??_C@_0N@ELMEMNDH@FMSG_WARNING?$AA@ 10003868     flags.obj
 0001:00002878       ??_C@_08FKIDFHCM@CDF_NONE?$AA@ 10003878     flags.obj
 0001:00002884       ??_C@_08BKNBBLHK@FCF_NONE?$AA@ 10003884     flags.obj
 0001:00002890       ??_C@_0O@LGBGBIGB@FCF_STYLEMASK?$AA@ 10003890     flags.obj
 0001:000028a0       ??_C@_0BB@NPEFGEGA@FCF_FG_UNDERLINE?$AA@ 100038a0     flags.obj
 0001:000028b4       ??_C@_0O@FAPDECBF@FCF_FG_ITALIC?$AA@ 100038b4     flags.obj
 0001:000028c4       ??_C@_0M@LFMGCKHG@FCF_FG_BOLD?$AA@ 100038c4     flags.obj
 0001:000028d0       ??_C@_0BC@NKBLNNIA@FCF_EXTENDEDFLAGS?$AA@ 100038d0     flags.obj
 0001:000028e4       ??_C@_0BB@PJFLJJLD@FCF_RAWATTR_MASK?$AA@ 100038e4     flags.obj
 0001:000028f8       ??_C@_0N@HMKJBHOA@FCF_4BITMASK?$AA@ 100038f8     flags.obj
 0001:00002908       ??_C@_0M@PJHNDJIE@FCF_BG_4BIT?$AA@ 10003908     flags.obj
 0001:00002914       ??_C@_0M@HNDHDHHO@FCF_FG_4BIT?$AA@ 10003914     flags.obj
 0001:00002920       ??_C@_0BE@PONEECEM@FE_CHANGESORTPARAMS?$AA@ 10003920     flags.obj
 0001:00002934       ??_C@_0N@DGHFKMFL@FE_KILLFOCUS?$AA@ 10003934     flags.obj
 0001:00002944       ??_C@_0M@FIECADDF@FE_GOTFOCUS?$AA@ 10003944     flags.obj
 0001:00002950       ??_C@_0L@LELAIPLL@FE_COMMAND?$AA@ 10003950     flags.obj
 0001:0000295c       ??_C@_08MOMCCKPB@FE_BREAK?$AA@ 1000395c     flags.obj
 0001:00002968       ??_C@_08DENCGKED@FE_CLOSE?$AA@ 10003968     flags.obj
 0001:00002974       ??_C@_07CLNPDBLG@FE_IDLE?$AA@ 10003974     flags.obj
 0001:0000297c       ??_C@_09DENIDBMJ@FE_REDRAW?$AA@ 1000397c     flags.obj
 0001:00002988       ??_C@_0BC@PNCKAHJO@FE_CHANGEVIEWMODE?$AA@ 10003988     flags.obj
 0001:0000299c       ??_C@_0BA@GEAFHJNF@MPRT_HASNOMACRO?$AA@ 1000399c     flags.obj
 0001:000029ac       ??_C@_0O@IEMNLPAB@MPRT_USERMENU?$AA@ 100039ac     flags.obj
 0001:000029bc       ??_C@_0BD@HHINMPPI@MPRT_PLUGINCOMMAND?$AA@ 100039bc     flags.obj
 0001:000029d0       ??_C@_0BC@LEDOPMKI@MPRT_PLUGINCONFIG?$AA@ 100039d0     flags.obj
 0001:000029e4       ??_C@_0BA@EJFFOAMM@MPRT_PLUGINMENU?$AA@ 100039e4     flags.obj
 0001:000029f4       ??_C@_0BA@OBIDLEIM@MPRT_PLUGINCALL?$AA@ 100039f4     flags.obj
 0001:00002a04       ??_C@_0L@GEHHCKFA@MPRT_PRINT?$AA@ 10003a04     flags.obj
 0001:00002a10       ??_C@_09EJDAADCN@MPRT_KEYS?$AA@ 10003a10     flags.obj
 0001:00002a1c       ??_C@_0BA@BCBAEEOI@MPRT_ERRORPARSE?$AA@ 10003a1c     flags.obj
 0001:00002a2c       ??_C@_0BB@PMCBIGCA@MPRT_ERRORFINISH?$AA@ 10003a2c     flags.obj
 0001:00002a40       ??_C@_0BC@IOECJI@MPRT_NORMALFINISH?$AA@ 10003a40     flags.obj
 0001:00002a54       ??_C@_0N@BHFJFHA@MCT_KEYMACRO?$AA@ 10003a54     flags.obj
 0001:00002a64       ??_C@_0N@FOPIOCHO@MCT_ADDMACRO?$AA@ 10003a64     flags.obj
 0001:00002a74       ??_C@_0BH@PKKJIOHM@MCT_GETCUSTOMSORTMODES?$AA@ 10003a74     flags.obj
 0001:00002a8c       ??_C@_0O@CDBDPKIC@MCT_PANELSORT?$AA@ 10003a8c     flags.obj
 0001:00002a9c       ??_C@_0P@HOMHAEFB@MCT_EXECSTRING?$AA@ 10003a9c     flags.obj
 0001:00002aac       ??_C@_0BC@NALHIHJ@MCT_RUNSTARTMACRO?$AA@ 10003aac     flags.obj
 0001:00002ac0       ??_C@_0N@OLCKOJMI@MCT_DELMACRO?$AA@ 10003ac0     flags.obj
 0001:00002ad0       ??_C@_0BC@NFGGBILF@MCT_RECORDEDMACRO?$AA@ 10003ad0     flags.obj
 0001:00002ae4       ??_C@_0N@IGJGAHKE@MCT_GETMACRO?$AA@ 10003ae4     flags.obj
 0001:00002af4       ??_C@_0BA@MOCJHMJK@MCT_WRITEMACROS?$AA@ 10003af4     flags.obj
 0001:00002b04       ??_C@_0P@HMDDACMI@MCT_ENUMMACROS?$AA@ 10003b04     flags.obj
 0001:00002b14       ??_C@_0P@GNPFPCF@MCT_LOADMACROS?$AA@ 10003b14     flags.obj
 0001:00002b24       ??_C@_0P@GBMLNMMI@MCT_MACROPARSE?$AA@ 10003b24     flags.obj
 0001:00002b34       ??_C@_0O@NEDDJIHC@OPEN_LUAMACRO?$AA@ 10003b34     flags.obj
 0001:00002b44       ??_C@_0P@FOKOAMLC@OPEN_FROMMACRO?$AA@ 10003b44     flags.obj
 0001:00002b54       ??_C@_0BD@NFNGGFHI@OPEN_RIGHTDISKMENU?$AA@ 10003b54     flags.obj
 0001:00002b68       ??_C@_0N@CBHPGAKB@OPEN_ANALYSE?$AA@ 10003b68     flags.obj
 0001:00002b78       ??_C@_0M@LEBKLGKD@OPEN_DIALOG?$AA@ 10003b78     flags.obj
 0001:00002b84       ??_C@_0P@LCDNLGDE@OPEN_FILEPANEL?$AA@ 10003b84     flags.obj
 0001:00002b94       ??_C@_0M@MOBCONI@OPEN_VIEWER?$AA@ 10003b94     flags.obj
 0001:00002ba0       ??_C@_0M@DMJLHMGM@OPEN_EDITOR?$AA@ 10003ba0     flags.obj
 0001:00002bac       ??_C@_0BB@JHCCMIPF@OPEN_COMMANDLINE?$AA@ 10003bac     flags.obj
 0001:00002bc0       ??_C@_0O@OGDCDPNG@OPEN_SHORTCUT?$AA@ 10003bc0     flags.obj
 0001:00002bd0       ??_C@_0O@IEJHJCNB@OPEN_FINDLIST?$AA@ 10003bd0     flags.obj
 0001:00002be0       ??_C@_0BB@CEFDHHLF@OPEN_PLUGINSMENU?$AA@ 10003be0     flags.obj
 0001:00002bf4       ??_C@_0BC@OOKLINPG@OPEN_LEFTDISKMENU?$AA@ 10003bf4     flags.obj
 0001:00002c08       ??_C@_05MMFLPJEB@VS_RC?$AA@ 10003c08     flags.obj
 0001:00002c10       ??_C@_07OKFPMINB@VS_BETA?$AA@ 10003c10     flags.obj
 0001:00002c18       ??_C@_08BDGLHPMJ@VS_ALPHA?$AA@ 10003c18     flags.obj
 0001:00002c24       ??_C@_0L@NCFOENCC@VS_RELEASE?$AA@ 10003c24     flags.obj
 0001:00002c30       ??_C@_0L@NPJNPCJM@CPM_NATIVE?$AA@ 10003c30     flags.obj
 0001:00002c3c       ??_C@_08LAEGFKJE@CPM_REAL?$AA@ 10003c3c     flags.obj
 0001:00002c48       ??_C@_08HNOHKPBK@CPM_FULL?$AA@ 10003c48     flags.obj
 0001:00002c54       ??_C@_0N@PJENIJFN@LINK_SYMLINK?$AA@ 10003c54     flags.obj
 0001:00002c64       ??_C@_0BA@GFPIOFMG@LINK_SYMLINKDIR?$AA@ 10003c64     flags.obj
 0001:00002c74       ??_C@_0BB@JDBEPJDK@LINK_SYMLINKFILE?$AA@ 10003c74     flags.obj
 0001:00002c88       ??_C@_0O@FIAPLKLH@LINK_VOLMOUNT?$AA@ 10003c88     flags.obj
 0001:00002c98       ??_C@_0O@OOAFIIDA@LINK_JUNCTION?$AA@ 10003c98     flags.obj
 0001:00002ca8       ??_C@_0O@KJFMBLFE@LINK_HARDLINK?$AA@ 10003ca8     flags.obj
 0001:00002cb8       ??_C@_0L@IADFDBJB@FCT_COLUMN?$AA@ 10003cb8     flags.obj
 0001:00002cc4       ??_C@_0L@CDAEILNM@FCT_STREAM?$AA@ 10003cc4     flags.obj
 0001:00002cd0       ??_C@_07BPEFOPGM@FCT_ANY?$AA@ 10003cd0     flags.obj
 0001:00002cd8       ??_C@_09EDBNDHCM@PSL_LOCAL?$AA@ 10003cd8     flags.obj
 0001:00002ce4       ??_C@_0M@JCGHGLJF@PSL_ROAMING?$AA@ 10003ce4     flags.obj
 0001:00002cf0       ??_C@_0BB@GBBEBNKE@FSSF_PANELLAYOUT?$AA@ 10003cf0     flags.obj
 0001:00002d04       ??_C@_0P@OCDADNBF@FSSF_INTERFACE?$AA@ 10003d04     flags.obj
 0001:00002d14       ??_C@_0M@CBDJLJIE@FSSF_DIALOG?$AA@ 10003d14     flags.obj
 0001:00002d20       ??_C@_0M@KEMGKEOF@FSSF_SCREEN?$AA@ 10003d20     flags.obj
 0001:00002d2c       ??_C@_0M@KJLIHDEL@FSSF_EDITOR?$AA@ 10003d2c     flags.obj
 0001:00002d38       ??_C@_0L@LBFNJGFB@FSSF_PANEL?$AA@ 10003d38     flags.obj
 0001:00002d44       ??_C@_0M@PIGDMPJB@FSSF_SYSTEM?$AA@ 10003d44     flags.obj
 0001:00002d50       ??_C@_0BD@PBIEGEHP@FSSF_CONFIRMATIONS?$AA@ 10003d50     flags.obj
 0001:00002d64       ??_C@_0BG@OHMIIBBD@FSSF_FOLDERSHORTCUT_9?$AA@ 10003d64     flags.obj
 0001:00002d7c       ??_C@_0BG@PONDLAFC@FSSF_FOLDERSHORTCUT_8?$AA@ 10003d7c     flags.obj
 0001:00002d94       ??_C@_0BG@HJELKMJN@FSSF_FOLDERSHORTCUT_7?$AA@ 10003d94     flags.obj
 0001:00002dac       ??_C@_0BG@GAFAJNNM@FSSF_FOLDERSHORTCUT_6?$AA@ 10003dac     flags.obj
 0001:00002dc4       ??_C@_0BG@ELHNMOBP@FSSF_FOLDERSHORTCUT_5?$AA@ 10003dc4     flags.obj
 0001:00002ddc       ??_C@_0BG@FCGGPPFO@FSSF_FOLDERSHORTCUT_4?$AA@ 10003ddc     flags.obj
 0001:00002df4       ??_C@_0BG@BNCHGJJJ@FSSF_FOLDERSHORTCUT_3?$AA@ 10003df4     flags.obj
 0001:00002e0c       ??_C@_0BG@EDMFINI@FSSF_FOLDERSHORTCUT_2?$AA@ 10003e0c     flags.obj
 0001:00002e24       ??_C@_0BG@CPBBALBL@FSSF_FOLDERSHORTCUT_1?$AA@ 10003e24     flags.obj
 0001:00002e3c       ??_C@_0BG@DGAKDKFK@FSSF_FOLDERSHORTCUT_0?$AA@ 10003e3c     flags.obj
 0001:00002e54       ??_C@_0BG@IFGEMJIF@FSSF_HISTORY_EXTERNAL?$AA@ 10003e54     flags.obj
 0001:00002e6c       ??_C@_0BC@CODELNPP@FSSF_HISTORY_EDIT?$AA@ 10003e6c     flags.obj
 0001:00002e80       ??_C@_0BC@NJCJCCNH@FSSF_HISTORY_VIEW?$AA@ 10003e80     flags.obj
 0001:00002e94       ??_C@_0BE@BLPOFODL@FSSF_HISTORY_FOLDER?$AA@ 10003e94     flags.obj
 0001:00002ea8       ??_C@_0BB@HDKCPBIO@FSSF_HISTORY_CMD?$AA@ 10003ea8     flags.obj
 0001:00002ebc       ??_C@_09OBBBBFPE@FSSF_ROOT?$AA@ 10003ebc     flags.obj
 0001:00002ec8       ??_C@_08EJJJCLIG@FST_DATA?$AA@ 10003ec8     flags.obj
 0001:00002ed4       ??_C@_0L@LPMPBKDL@FST_STRING?$AA@ 10003ed4     flags.obj
 0001:00002ee0       ??_C@_09LFEEAJIC@FST_QWORD?$AA@ 10003ee0     flags.obj
 0001:00002eec       ??_C@_0L@GGGOEGKJ@FST_SUBKEY?$AA@ 10003eec     flags.obj
 0001:00002ef8       ??_C@_0M@OIOMMFOE@FST_UNKNOWN?$AA@ 10003ef8     flags.obj
 0001:00002f04       ??_C@_0L@LGPEDLLD@FFT_CUSTOM?$AA@ 10003f04     flags.obj
 0001:00002f10       ??_C@_0L@EKPDMFDD@FFT_SELECT?$AA@ 10003f10     flags.obj
 0001:00002f1c       ??_C@_08KKCPIPGP@FFT_COPY?$AA@ 10003f1c     flags.obj
 0001:00002f28       ??_C@_0N@GMEDAGNH@FFT_FINDFILE?$AA@ 10003f28     flags.obj
 0001:00002f38       ??_C@_09BOODOHKD@FFT_PANEL?$AA@ 10003f38     flags.obj
 0001:00002f44       ??_C@_0P@KKEMMPNI@PFM_MODULENAME?$AA@ 10003f44     flags.obj
 0001:00002f54       ??_C@_08KBAMIIFB@PFM_GUID?$AA@ 10003f54     flags.obj
 0001:00002f60       ??_C@_08HHHKLJPB@PLT_PATH?$AA@ 10003f60     flags.obj
 0001:00002f6c       ??_C@_0P@NMOJJPOB@ECTYPE_DELETED?$AA@ 10003f6c     flags.obj
 0001:00002f7c       ??_C@_0N@MDEFMEEA@ECTYPE_ADDED?$AA@ 10003f7c     flags.obj
 0001:00002f8c       ??_C@_0P@DOBJCNIG@ECTYPE_CHANGED?$AA@ 10003f8c     flags.obj
 0001:00002f9c       ??_C@_0P@BECIAJAM@ECSTATE_LOCKED?$AA@ 10003f9c     flags.obj
 0001:00002fac       ??_C@_0O@GBBGHDFM@ECSTATE_SAVED?$AA@ 10003fac     flags.obj
 0001:00002fbc       ??_C@_0BB@BNPDAPGB@ECSTATE_MODIFIED?$AA@ 10003fbc     flags.obj
 0001:00002fd0       ??_C@_0N@EMEGNPLI@BTYPE_COLUMN?$AA@ 10003fd0     flags.obj
 0001:00002fe0       ??_C@_0N@OPHHGFPF@BTYPE_STREAM?$AA@ 10003fe0     flags.obj
 0001:00002ff0       ??_C@_0L@BJCBJJNB@BTYPE_NONE?$AA@ 10003ff0     flags.obj
 0001:00002ffc       ??_C@_0BD@CLLAKGOA@EOPT_SHOWLINEBREAK?$AA@ 10003ffc     flags.obj
 0001:00003010       ??_C@_08HMMLONBH@EOPT_BOM?$AA@ 10004010     flags.obj
 0001:0000301c       ??_C@_0BE@DDKCDJDC@EOPT_SHOWWHITESPACE?$AA@ 1000401c     flags.obj
 0001:00003030       ??_C@_0BH@CJPAGGLC@EOPT_EXPANDONLYNEWTABS?$AA@ 10004030     flags.obj
 0001:00003048       ??_C@_0BF@IMCOEIAL@EOPT_CURSORBEYONDEOL?$AA@ 10004048     flags.obj
 0001:00003060       ??_C@_0BI@PFHCGCAI@EOPT_AUTODETECTCODEPAGE?$AA@ 10004060     flags.obj
 0001:00003078       ??_C@_0BG@MBPADLG@EOPT_SAVEFILEPOSITION?$AA@ 10004078     flags.obj
 0001:00003090       ??_C@_0BA@KPJEAKBD@EOPT_AUTOINDENT?$AA@ 10004090     flags.obj
 0001:000030a0       ??_C@_0BG@PIIHHCAN@EOPT_DELREMOVESBLOCKS?$AA@ 100040a0     flags.obj
 0001:000030b8       ??_C@_0BG@BOINMDEK@EOPT_PERSISTENTBLOCKS?$AA@ 100040b8     flags.obj
 0001:000030d0       ??_C@_0BD@DKHPEOHH@EOPT_EXPANDALLTABS?$AA@ 100040d0     flags.obj
 0001:000030e4       ??_C@_0P@OONGIIBL@EXPAND_NEWTABS?$AA@ 100040e4     flags.obj
 0001:000030f4       ??_C@_0P@MLHPCNDM@EXPAND_ALLTABS?$AA@ 100040f4     flags.obj
 0001:00003104       ??_C@_0O@PKOIFEBO@EXPAND_NOTABS?$AA@ 10004104     flags.obj
 0001:00003114       ??_C@_08DHMMFAHF@EUR_REDO?$AA@ 10004114     flags.obj
 0001:00003120       ??_C@_08FCONALGE@EUR_UNDO?$AA@ 10004120     flags.obj
 0001:0000312c       ??_C@_07DDJDFJCN@EUR_END?$AA@ 1000412c     flags.obj
 0001:00003134       ??_C@_09FLEMPKKP@EUR_BEGIN?$AA@ 10004134     flags.obj
 0001:00003140       ??_C@_0M@FICNFPPA@ESPT_SETBOM?$AA@ 10004140     flags.obj
 0001:0000314c       ??_C@_0BE@MACJBCFP@ESPT_SHOWWHITESPACE?$AA@ 1000414c     flags.obj
 0001:00003160       ??_C@_0BA@FGEHLJDF@ESPT_GETWORDDIV?$AA@ 10004160     flags.obj
 0001:00003170       ??_C@_0BA@EIGIAOHM@ESPT_SETWORDDIV?$AA@ 10004170     flags.obj
 0001:00003180       ??_C@_0O@KCPDJCKC@ESPT_LOCKMODE?$AA@ 10004180     flags.obj
 0001:00003190       ??_C@_0BG@HAPABMJH@ESPT_SAVEFILEPOSITION?$AA@ 10004190     flags.obj
 0001:000031a8       ??_C@_0O@PIAOJINE@ESPT_CODEPAGE?$AA@ 100041a8     flags.obj
 0001:000031b8       ??_C@_0BC@OECOCGLJ@ESPT_CHARCODEBASE?$AA@ 100041b8     flags.obj
 0001:000031cc       ??_C@_0BF@LPNONOMF@ESPT_CURSORBEYONDEOL?$AA@ 100041cc     flags.obj
 0001:000031e4       ??_C@_0BA@KOADDMLI@ESPT_AUTOINDENT?$AA@ 100041e4     flags.obj
 0001:000031f4       ??_C@_0BA@GOKHPFCK@ESPT_EXPANDTABS?$AA@ 100041f4     flags.obj
 0001:00003204       ??_C@_0N@HKGMPMJE@ESPT_TABSIZE?$AA@ 10004204     flags.obj
 0001:00003214       ??_C@_0BB@MNODJNPE@SE_COMMONSYNCHRO?$AA@ 10004214     flags.obj
 0001:00003228       ??_C@_0O@ICBCOJCG@DE_DLGPROCEND?$AA@ 10004228     flags.obj
 0001:00003238       ??_C@_0BC@BMFEJAMO@DE_DEFDLGPROCINIT?$AA@ 10004238     flags.obj
 0001:0000324c       ??_C@_0P@MBHAHBBG@DE_DLGPROCINIT?$AA@ 1000424c     flags.obj
 0001:0000325c       ??_C@_09MIOGFFI@EE_CHANGE?$AA@ 1000425c     flags.obj
 0001:00003268       ??_C@_0N@ILLPMAJF@EE_KILLFOCUS?$AA@ 10004268     flags.obj
 0001:00003278       ??_C@_0M@CPNMNBMF@EE_GOTFOCUS?$AA@ 10004278     flags.obj
 0001:00003284       ??_C@_08NFPFGIG@EE_CLOSE?$AA@ 10004284     flags.obj
 0001:00003290       ??_C@_09NPOPIKMK@EE_REDRAW?$AA@ 10004290     flags.obj
 0001:0000329c       ??_C@_07KJGPGPOC@EE_SAVE?$AA@ 1000429c     flags.obj
 0001:000032a4       ??_C@_07BLBPFFLB@EE_READ?$AA@ 100042a4     flags.obj
 0001:000032ac       ??_C@_0N@ICHCAKIB@VE_KILLFOCUS?$AA@ 100042ac     flags.obj
 0001:000032bc       ??_C@_0M@FEFKOOMJ@VE_GOTFOCUS?$AA@ 100042bc     flags.obj
 0001:000032c8       ??_C@_08JIBCCIDC@VE_CLOSE?$AA@ 100042c8     flags.obj
 0001:000032d4       ??_C@_07OJCLGDHJ@VE_READ?$AA@ 100042d4     flags.obj
 0001:000032dc       ??_C@_08BDDNDBMJ@VMT_DUMP?$AA@ 100042dc     flags.obj
 0001:000032e8       ??_C@_07FLIHDEDA@VMT_HEX?$AA@ 100042e8     flags.obj
 0001:000032f0       ??_C@_08FNEFFFEL@VMT_TEXT?$AA@ 100042f0     flags.obj
 0001:000032fc       ??_C@_0O@INKALKJK@VSMT_WORDWRAP?$AA@ 100042fc     flags.obj
 0001:0000330c       ??_C@_09FLKONCNO@VSMT_WRAP?$AA@ 1000430c     flags.obj
 0001:00003318       ??_C@_0O@MCNCFBLF@VSMT_VIEWMODE?$AA@ 10004318     flags.obj
 0001:00003328       ??_C@_0M@GHGAPHPP@TBPS_PAUSED?$AA@ 10004328     flags.obj
 0001:00003334       ??_C@_0L@DFDPCOFD@TBPS_ERROR?$AA@ 10004334     flags.obj
 0001:00003340       ??_C@_0M@KHLNKPHE@TBPS_NORMAL?$AA@ 10004340     flags.obj
 0001:0000334c       ??_C@_0BD@HMEHMDAL@TBPS_INDETERMINATE?$AA@ 1000434c     flags.obj
 0001:00003360       ??_C@_0BA@IPEAOBGN@TBPS_NOPROGRESS?$AA@ 10004360     flags.obj
 0001:00003370       ??_C@_0L@BCEMNGOG@WTYPE_HELP?$AA@ 10004370     flags.obj
 0001:0000337c       ??_C@_0M@OMKLELFA@WTYPE_VMENU?$AA@ 1000437c     flags.obj
 0001:00003388       ??_C@_0N@PBFHKEGB@WTYPE_DIALOG?$AA@ 10004388     flags.obj
 0001:00003398       ??_C@_0N@HJNGGOKO@WTYPE_EDITOR?$AA@ 10004398     flags.obj
 0001:000033a8       ??_C@_0N@EJKMDMBK@WTYPE_VIEWER?$AA@ 100043a8     flags.obj
 0001:000033b8       ??_C@_0N@FNCFCPIG@WTYPE_PANELS?$AA@ 100043b8     flags.obj
 0001:000033c8       ??_C@_0O@DCGKMPOM@WTYPE_DESKTOP?$AA@ 100043c8     flags.obj
 0001:000033d8       ??_C@_0L@PMDDFEBD@FMVT_PANEL?$AA@ 100043d8     flags.obj
 0001:000033e4       ??_C@_0L@DJIKMOJA@FMVT_ARRAY?$AA@ 100043e4     flags.obj
 0001:000033f0       ??_C@_08DDPDBBNO@FMVT_NIL?$AA@ 100043f0     flags.obj
 0001:000033fc       ??_C@_0N@FMHCFNDF@FMVT_POINTER?$AA@ 100043fc     flags.obj
 0001:0000340c       ??_C@_0M@GKPDICDA@FMVT_BINARY?$AA@ 1000440c     flags.obj
 0001:00003418       ??_C@_0N@MHKOBOGF@FMVT_BOOLEAN?$AA@ 10004418     flags.obj
 0001:00003428       ??_C@_0M@CKDAIOEN@FMVT_DOUBLE?$AA@ 10004428     flags.obj
 0001:00003434       ??_C@_0M@LFMLDDKI@FMVT_STRING?$AA@ 10004434     flags.obj
 0001:00003440       ??_C@_0N@BDMFKEKE@FMVT_INTEGER?$AA@ 10004440     flags.obj
 0001:00003450       ??_C@_0N@IBOAADDD@FMVT_UNKNOWN?$AA@ 10004450     flags.obj
 0001:00003460       ??_C@_0L@FJDDLDNN@MPEC_ERROR?$AA@ 10004460     flags.obj
 0001:0000346c       ??_C@_0N@CGFFMLBC@MPEC_SUCCESS?$AA@ 1000446c     flags.obj
 0001:0000347c       ??_C@_0BM@OICPADFE@MACROSTATE_RECORDING_COMMON?$AA@ 1000447c     flags.obj
 0001:00003498       ??_C@_0BF@BGODKPBB@MACROSTATE_RECORDING?$AA@ 10004498     flags.obj
 0001:000034b0       ??_C@_0BM@EJOFDENO@MACROSTATE_EXECUTING_COMMON?$AA@ 100044b0     flags.obj
 0001:000034cc       ??_C@_0BF@PCDEFEGP@MACROSTATE_EXECUTING?$AA@ 100044cc     flags.obj
 0001:000034e4       ??_C@_0BD@DIKEKAIJ@MACROSTATE_NOMACRO?$AA@ 100044e4     flags.obj
 0001:000034f8       ??_C@_0BB@JPEEDDOG@MACROAREA_COMMON?$AA@ 100044f8     flags.obj
 0001:0000350c       ??_C@_0BP@OIHAIGBK@MACROAREA_DIALOGAUTOCOMPLETION?$AA@ 1000450c     flags.obj
 0001:0000352c       ??_C@_0BO@OMLEPJPM@MACROAREA_SHELLAUTOCOMPLETION?$AA@ 1000452c     flags.obj
 0001:0000354c       ??_C@_0BD@JCFMJGDE@MACROAREA_USERMENU?$AA@ 1000454c     flags.obj
 0001:00003560       ??_C@_0BF@FCHKCGLL@MACROAREA_FINDFOLDER?$AA@ 10004560     flags.obj
 0001:00003578       ??_C@_0BE@HBMEGBOC@MACROAREA_TREEPANEL?$AA@ 10004578     flags.obj
 0001:0000358c       ??_C@_0BF@NLJMHMPP@MACROAREA_QVIEWPANEL?$AA@ 1000458c     flags.obj
 0001:000035a4       ??_C@_0BE@MDJPICHC@MACROAREA_INFOPANEL?$AA@ 100045a4     flags.obj
 0001:000035b8       ??_C@_0P@DKPKIEO@MACROAREA_HELP?$AA@ 100045b8     flags.obj
 0001:000035c8       ??_C@_0P@LFLMAHBF@MACROAREA_MENU?$AA@ 100045c8     flags.obj
 0001:000035d8       ??_C@_0BD@IGOOIJP@MACROAREA_MAINMENU?$AA@ 100045d8     flags.obj
 0001:000035ec       ??_C@_0BA@KKMKOLIK@MACROAREA_DISKS?$AA@ 100045ec     flags.obj
 0001:000035fc       ??_C@_0BB@MLMLHIGE@MACROAREA_SEARCH?$AA@ 100045fc     flags.obj
 0001:00003610       ??_C@_0BB@CADENPFI@MACROAREA_DIALOG?$AA@ 10004610     flags.obj
 0001:00003624       ??_C@_0BB@KILFBFJH@MACROAREA_EDITOR?$AA@ 10004624     flags.obj
 0001:00003638       ??_C@_0BB@JIMPEHCD@MACROAREA_VIEWER?$AA@ 10004638     flags.obj
 0001:0000364c       ??_C@_0BA@DEBOOAEB@MACROAREA_SHELL?$AA@ 1000464c     flags.obj
 0001:0000365c       ??_C@_0BA@MMOAIEKP@MACROAREA_OTHER?$AA@ 1000465c     flags.obj
 0001:0000366c       ??_C@_0L@MOADGAEB@MSSC_CHECK?$AA@ 1000466c     flags.obj
 0001:00003678       ??_C@_09CEDFMINA@MSSC_POST?$AA@ 10004678     flags.obj
 0001:00003684       ??_C@_0BD@IPKOEBIA@ACTL_GETWINDOWTYPE?$AA@ 10004684     flags.obj
 0001:00003698       ??_C@_0BE@NPJGMDBM@ACTL_PROGRESSNOTIFY?$AA@ 10004698     flags.obj
 0001:000036ac       ??_C@_0BC@CAAPIEHK@ACTL_SETCURSORPOS?$AA@ 100046ac     flags.obj
 0001:000036c0       ??_C@_0BC@FELBEIDG@ACTL_GETCURSORPOS?$AA@ 100046c0     flags.obj
 0001:000036d4       ??_C@_0BA@LJCPDIKK@ACTL_GETFARRECT?$AA@ 100046d4     flags.obj
 0001:000036e4       ??_C@_09HNDBKLDC@ACTL_QUIT?$AA@ 100046e4     flags.obj
 0001:000036f0       ??_C@_0BG@ICJFAPHK@ACTL_SETPROGRESSVALUE?$AA@ 100046f0     flags.obj
 0001:00003708       ??_C@_0BG@IJPADENB@ACTL_SETPROGRESSSTATE?$AA@ 10004708     flags.obj
 0001:00003720       ??_C@_0N@DHPLJLHO@ACTL_SYNCHRO?$AA@ 10004720     flags.obj
 0001:00003730       ??_C@_0P@JECKFIA@ACTL_REDRAWALL?$AA@ 10004730     flags.obj
 0001:00003740       ??_C@_0BD@JFOOLBPN@ACTL_SETARRAYCOLOR?$AA@ 10004740     flags.obj
 0001:00003754       ??_C@_0BA@CLHFKJJP@ACTL_GETFARHWND?$AA@ 10004754     flags.obj
 0001:00003764       ??_C@_0M@IHHFGPPA@ACTL_COMMIT?$AA@ 10004764     flags.obj
 0001:00003770       ??_C@_0BG@MNKPOEEN@ACTL_SETCURRENTWINDOW?$AA@ 10004770     flags.obj
 0001:00003788       ??_C@_0BE@PJBIPKOD@ACTL_GETWINDOWCOUNT?$AA@ 10004788     flags.obj
 0001:0000379c       ??_C@_0BD@DIFEEKNN@ACTL_GETWINDOWINFO?$AA@ 1000479c     flags.obj
 0001:000037b0       ??_C@_0BD@OKPAACIK@ACTL_GETARRAYCOLOR?$AA@ 100047b0     flags.obj
 0001:000037c4       ??_C@_0O@CEHHJAFD@ACTL_GETCOLOR?$AA@ 100047c4     flags.obj
 0001:000037d4       ??_C@_0N@DPABJDML@ACTL_WAITKEY?$AA@ 100047d4     flags.obj
 0001:000037e4       ??_C@_0BK@PHBCABMB@ACTL_GETFARMANAGERVERSION?$AA@ 100047e4     flags.obj
 0001:00003800       ??_C@_0BI@CNPFKHKO@EEC_LOADING_INTERRUPTED?$AA@ 10004800     flags.obj
 0001:00003818       ??_C@_0BB@HALKEFOL@EEC_NOT_MODIFIED?$AA@ 10004818     flags.obj
 0001:0000382c       ??_C@_0N@GLMELIKF@EEC_MODIFIED?$AA@ 1000482c     flags.obj
 0001:0000383c       ??_C@_0P@FEMAMJLE@EEC_OPEN_ERROR?$AA@ 1000483c     flags.obj
 0001:0000384c       ??_C@_09KFKGJDHC@SM_CHTIME?$AA@ 1000484c     flags.obj
 0001:00003858       ??_C@_0M@OAFEBGNH@SM_FULLNAME?$AA@ 10004858     flags.obj
 0001:00003864       ??_C@_0P@PKGMDPMD@SM_STREAMSSIZE?$AA@ 10004864     flags.obj
 0001:00003874       ??_C@_0O@CCKEKPHL@SM_NUMSTREAMS?$AA@ 10004874     flags.obj
 0001:00003884       ??_C@_0M@PKNLKFI@SM_NUMLINKS?$AA@ 10004884     flags.obj
 0001:00003890       ??_C@_0BC@NKDBNAHD@SM_COMPRESSEDSIZE?$AA@ 10004890     flags.obj
 0001:000038a4       ??_C@_08MEAGCMBB@SM_OWNER?$AA@ 100048a4     flags.obj
 0001:000038b0       ??_C@_08BCBPOLMA@SM_DESCR?$AA@ 100048b0     flags.obj
 0001:000038bc       ??_C@_07OMPKMIKC@SM_SIZE?$AA@ 100048bc     flags.obj
 0001:000038c4       ??_C@_08CPOLNKCG@SM_ATIME?$AA@ 100048c4     flags.obj
 0001:000038d0       ??_C@_08GCCDHLCN@SM_CTIME?$AA@ 100048d0     flags.obj
 0001:000038dc       ??_C@_08FICJBKFN@SM_MTIME?$AA@ 100048dc     flags.obj
 0001:000038e8       ??_C@_06GJJJNNFE@SM_EXT?$AA@ 100048e8     flags.obj
 0001:000038f0       ??_C@_07KIFHAGIL@SM_NAME?$AA@ 100048f0     flags.obj
 0001:000038f8       ??_C@_0M@JGBFGGEA@SM_UNSORTED?$AA@ 100048f8     flags.obj
 0001:00003904       ??_C@_0L@OPHJOKKE@SM_DEFAULT?$AA@ 10004904     flags.obj
 0001:00003910       ??_C@_0BA@NKMDEBG@PTYPE_INFOPANEL?$AA@ 10004910     flags.obj
 0001:00003920       ??_C@_0BB@JBINOKAI@PTYPE_QVIEWPANEL?$AA@ 10004920     flags.obj
 0001:00003934       ??_C@_0BA@LPPHNHIG@PTYPE_TREEPANEL?$AA@ 10004934     flags.obj
 0001:00003944       ??_C@_0BA@KNHGEBNE@PTYPE_FILEPANEL?$AA@ 10004944     flags.obj
 0001:00003954       ??_C@_0L@KHCLMGFJ@CBET_MOUSE?$AA@ 10004954     flags.obj
 0001:00003960       ??_C@_08PPADCPCM@CBET_KEY?$AA@ 10004960     flags.obj
 0001:0000396c       ??_C@_0O@ILJOJGLD@BSTATE_TOGGLE?$AA@ 1000496c     flags.obj
 0001:0000397c       ??_C@_0O@KBIFGGHO@BSTATE_3STATE?$AA@ 1000497c     flags.obj
 0001:0000398c       ??_C@_0P@FALAMPGP@BSTATE_CHECKED?$AA@ 1000498c     flags.obj
 0001:0000399c       ??_C@_0BB@HLBBGMAN@BSTATE_UNCHECKED?$AA@ 1000499c     flags.obj
 0001:000039b0       ??_C@_07DIJJNCBA@DM_USER?$AA@ 100049b0     flags.obj
 0001:000039b8       ??_C@_0BD@NGEKAPIF@DN_DRAWDLGITEMDONE?$AA@ 100049b8     flags.obj
 0001:000039cc       ??_C@_0BC@MHCBFAAO@DN_DROPDOWNOPENED?$AA@ 100049cc     flags.obj
 0001:000039e0       ??_C@_0M@POIFBPFN@DN_GETVALUE?$AA@ 100049e0     flags.obj
 0001:000039ec       ??_C@_08EHEOFOJD@DN_CLOSE?$AA@ 100049ec     flags.obj
 0001:000039f8       ??_C@_0BA@FGOGLDBC@DN_CONTROLINPUT?$AA@ 100049f8     flags.obj
 0001:00003a08       ??_C@_08MDDLDGPO@DN_INPUT?$AA@ 10004a08     flags.obj
 0001:00003a14       ??_C@_0O@EONPBNNP@DN_LISTHOTKEY?$AA@ 10004a14     flags.obj
 0001:00003a24       ??_C@_0BC@FHPPFLKG@DN_DRAWDIALOGDONE?$AA@ 10004a24     flags.obj
 0001:00003a38       ??_C@_0BB@BOOOCAEG@DN_RESIZECONSOLE?$AA@ 10004a38     flags.obj
 0001:00003a4c       ??_C@_0L@MLMFBHN@DN_DRAGGED?$AA@ 10004a4c     flags.obj
 0001:00003a58       ??_C@_0O@CLPABIGO@DN_LISTCHANGE?$AA@ 10004a58     flags.obj
 0001:00003a68       ??_C@_0N@CHLLLNBO@DN_KILLFOCUS?$AA@ 10004a68     flags.obj
 0001:00003a78       ??_C@_0O@BJECHBCA@DN_INITDIALOG?$AA@ 10004a78     flags.obj
 0001:00003a88       ??_C@_09EDGJFAK@DN_HOTKEY?$AA@ 10004a88     flags.obj
 0001:00003a94       ??_C@_07NJJEMKPA@DN_HELP?$AA@ 10004a94     flags.obj
 0001:00003a9c       ??_C@_0M@JHFIBKOO@DN_GOTFOCUS?$AA@ 10004a9c     flags.obj
 0001:00003aa8       ??_C@_0N@OCGKCPJF@DN_ENTERIDLE?$AA@ 10004aa8     flags.obj
 0001:00003ab8       ??_C@_0O@JMKNGFLE@DN_EDITCHANGE?$AA@ 10004ab8     flags.obj
 0001:00003ac8       ??_C@_0P@KGKEDPBI@DN_DRAWDLGITEM?$AA@ 10004ac8     flags.obj
 0001:00003ad8       ??_C@_0O@NKBDPILK@DN_DRAWDIALOG?$AA@ 10004ad8     flags.obj
 0001:00003ae8       ??_C@_0BD@JMFJPHPD@DN_CTLCOLORDLGLIST?$AA@ 10004ae8     flags.obj
 0001:00003afc       ??_C@_0BD@HFGBIBBL@DN_CTLCOLORDLGITEM?$AA@ 10004afc     flags.obj
 0001:00003b10       ??_C@_0BC@MJFJAANN@DN_CTLCOLORDIALOG?$AA@ 10004b10     flags.obj
 0001:00003b24       ??_C@_0M@NNNAPNMA@DN_BTNCLICK?$AA@ 10004b24     flags.obj
 0001:00003b30       ??_C@_08COMJOMAC@DN_FIRST?$AA@ 10004b30     flags.obj
 0001:00003b3c       ??_C@_0BC@KJOLMFGG@DM_GETDIALOGTITLE?$AA@ 10004b3c     flags.obj
 0001:00003b50       ??_C@_0BB@GAPFMPKE@DM_GETDIALOGINFO?$AA@ 10004b50     flags.obj
 0001:00003b64       ??_C@_0BD@EMPBPAFP@DM_SETDLGITEMSHORT?$AA@ 10004b64     flags.obj
 0001:00003b78       ??_C@_0BD@HOOHICEG@DM_GETDLGITEMSHORT?$AA@ 10004b78     flags.obj
 0001:00003b8c       ??_C@_0BD@CJEPBACF@DM_GETCONSTTEXTPTR?$AA@ 10004b8c     flags.obj
 0001:00003ba0       ??_C@_0BE@KGBLNJKA@DM_GETCOMBOBOXEVENT?$AA@ 10004ba0     flags.obj
 0001:00003bb4       ??_C@_0BE@MCECGHBC@DM_SETCOMBOBOXEVENT?$AA@ 10004bb4     flags.obj
 0001:00003bc8       ??_C@_0BD@GKGFBKHH@DM_SETEDITPOSITION?$AA@ 10004bc8     flags.obj
 0001:00003bdc       ??_C@_0BD@FIHDGIGO@DM_GETEDITPOSITION?$AA@ 10004bdc     flags.obj
 0001:00003bf0       ??_C@_0BA@GDNOBFED@DM_SETSELECTION?$AA@ 10004bf0     flags.obj
 0001:00003c00       ??_C@_0BA@BHGANJAP@DM_GETSELECTION?$AA@ 10004c00     flags.obj
 0001:00003c10       ??_C@_0BD@LAOOKGHD@DM_LISTGETDATASIZE?$AA@ 10004c10     flags.obj
 0001:00003c24       ??_C@_0BB@DANLMDCJ@DM_SETCURSORSIZE?$AA@ 10004c24     flags.obj
 0001:00003c38       ??_C@_0BB@EPMFHAFO@DM_GETCURSORSIZE?$AA@ 10004c38     flags.obj
 0001:00003c4c       ??_C@_0L@KNFAKFKE@DM_LISTSET?$AA@ 10004c4c     flags.obj
 0001:00003c58       ??_C@_0P@OGLDKOHO@DM_SETITEMDATA?$AA@ 10004c58     flags.obj
 0001:00003c68       ??_C@_0P@OJKNHIPN@DM_GETITEMDATA?$AA@ 10004c68     flags.obj
 0001:00003c78       ??_C@_0BF@IAGIACOD@DM_EDITUNCHANGEDFLAG?$AA@ 10004c78     flags.obj
 0001:00003c90       ??_C@_0BH@CFMLLNNM@DM_SETMOUSEEVENTNOTIFY?$AA@ 10004c90     flags.obj
 0001:00003ca8       ??_C@_0BC@BENFKLNH@DM_SETINPUTNOTIFY?$AA@ 10004ca8     flags.obj
 0001:00003cbc       ??_C@_0BD@BPHAAEIM@DM_GETITEMPOSITION?$AA@ 10004cbc     flags.obj
 0001:00003cd0       ??_C@_0O@NPDKADMJ@DM_SETHISTORY?$AA@ 10004cd0     flags.obj
 0001:00003ce0       ??_C@_0BF@LJIGJNAO@DM_SETDROPDOWNOPENED?$AA@ 10004ce0     flags.obj
 0001:00003cf8       ??_C@_0BF@JMINBGBA@DM_GETDROPDOWNOPENED?$AA@ 10004cf8     flags.obj
 0001:00003d10       ??_C@_0BD@CNGGHGJF@DM_SETITEMPOSITION?$AA@ 10004d10     flags.obj
 0001:00003d24       ??_C@_0BA@ICDJCFLE@DM_RESIZEDIALOG?$AA@ 10004d24     flags.obj
 0001:00003d34       ??_C@_0BB@KPJPKCP@DM_LISTGETTITLES?$AA@ 10004d34     flags.obj
 0001:00003d48       ??_C@_0BB@CELMNLLN@DM_LISTSETTITLES?$AA@ 10004d48     flags.obj
 0001:00003d5c       ??_C@_0P@DGKKKCB@DM_LISTSETDATA?$AA@ 10004d5c     flags.obj
 0001:00003d6c       ??_C@_0P@PLJLJFPA@DM_LISTGETDATA?$AA@ 10004d6c     flags.obj
 0001:00003d7c       ??_C@_0M@EEAEBLKC@DM_LISTINFO?$AA@ 10004d7c     flags.obj
 0001:00003d88       ??_C@_0BC@MIFCLOBD@DM_LISTFINDSTRING?$AA@ 10004d88     flags.obj
 0001:00003d9c       ??_C@_0O@GAAGMJJL@DM_LISTINSERT?$AA@ 10004d9c     flags.obj
 0001:00003dac       ??_C@_0O@PDFCNPKN@DM_LISTUPDATE?$AA@ 10004dac     flags.obj
 0001:00003dbc       ??_C@_0O@HBHDMHP@DM_LISTADDSTR?$AA@ 10004dbc     flags.obj
 0001:00003dcc       ??_C@_0L@BMEAECNG@DM_LISTADD?$AA@ 10004dcc     flags.obj
 0001:00003dd8       ??_C@_0O@NOPCAHGJ@DM_LISTDELETE?$AA@ 10004dd8     flags.obj
 0001:00003de8       ??_C@_0BB@GKMJCDEM@DM_LISTSETCURPOS?$AA@ 10004de8     flags.obj
 0001:00003dfc       ??_C@_0BB@EEIMACNO@DM_LISTGETCURPOS?$AA@ 10004dfc     flags.obj
 0001:00003e10       ??_C@_0P@NFJNHAKH@DM_LISTGETITEM?$AA@ 10004e10     flags.obj
 0001:00003e20       ??_C@_0M@GEPBDDNC@DM_LISTSORT?$AA@ 10004e20     flags.obj
 0001:00003e2c       ??_C@_0N@MEGOPFGK@DM_SET3STATE?$AA@ 10004e2c     flags.obj
 0001:00003e3c       ??_C@_0M@DDGACGLO@DM_SETCHECK?$AA@ 10004e3c     flags.obj
 0001:00003e48       ??_C@_0M@MCEMDFMD@DM_GETCHECK?$AA@ 10004e48     flags.obj
 0001:00003e54       ??_C@_0O@GKKCFHIM@DM_ADDHISTORY?$AA@ 10004e54     flags.obj
 0001:00003e64       ??_C@_0M@NCOJHJKI@DM_SHOWITEM?$AA@ 10004e64     flags.obj
 0001:00003e70       ??_C@_0O@LGEKFPKK@DM_SETTEXTPTR?$AA@ 10004e70     flags.obj
 0001:00003e80       ??_C@_0BA@KPHABNOF@DM_SETCURSORPOS?$AA@ 10004e80     flags.obj
 0001:00003e90       ??_C@_0BA@NLMONBKJ@DM_GETCURSORPOS?$AA@ 10004e90     flags.obj
 0001:00003ea0       ??_C@_0M@JPHKGACH@DM_GETFOCUS?$AA@ 10004ea0     flags.obj
 0001:00003eac       ??_C@_0O@BIFKIPIP@DM_SHOWDIALOG?$AA@ 10004eac     flags.obj
 0001:00003ebc       ??_C@_0BE@LABEAIPD@DM_SETMAXTEXTLENGTH?$AA@ 10004ebc     flags.obj
 0001:00003ed0       ??_C@_0L@LDOCOEIP@DM_SETTEXT?$AA@ 10004ed0     flags.obj
 0001:00003edc       ??_C@_09ILPFEDOM@DM_REDRAW?$AA@ 10004edc     flags.obj
 0001:00003ee8       ??_C@_0M@GOFGHDFK@DM_SETFOCUS?$AA@ 10004ee8     flags.obj
 0001:00003ef4       ??_C@_0O@GKEFJIKB@DM_SETDLGITEM?$AA@ 10004ef4     flags.obj
 0001:00003f04       ??_C@_0O@EEEDHNPG@DM_SETDLGDATA?$AA@ 10004f04     flags.obj
 0001:00003f14       ??_C@_0O@DIPLLJEH@DM_MOVEDIALOG?$AA@ 10004f14     flags.obj
 0001:00003f24       ??_C@_06IKGPEGEJ@DM_KEY?$AA@ 10004f24     flags.obj
 0001:00003f2c       ??_C@_0L@ELBDNLFO@DM_GETTEXT?$AA@ 10004f2c     flags.obj
 0001:00003f38       ??_C@_0O@BEHCGMCL@DM_GETDLGRECT?$AA@ 10004f38     flags.obj
 0001:00003f48       ??_C@_0O@HEGKCPOI@DM_GETDLGITEM?$AA@ 10004f48     flags.obj
 0001:00003f58       ??_C@_0O@FKGMMKLP@DM_GETDLGDATA?$AA@ 10004f58     flags.obj
 0001:00003f68       ??_C@_0BA@KAMJGFDG@DM_ENABLEREDRAW?$AA@ 10004f68     flags.obj
 0001:00003f78       ??_C@_09KLJOCKAA@DM_ENABLE?$AA@ 10004f78     flags.obj
 0001:00003f84       ??_C@_08MJMBFJHA@DM_CLOSE?$AA@ 10004f84     flags.obj
 0001:00003f90       ??_C@_08KAEGOLOB@DM_FIRST?$AA@ 10004f90     flags.obj
 0001:00003f9c       ??_C@_0P@GDJDPEIK@DI_USERCONTROL?$AA@ 10004f9c     flags.obj
 0001:00003fac       ??_C@_0L@ONDMPPPO@DI_LISTBOX?$AA@ 10004fac     flags.obj
 0001:00003fb8       ??_C@_0M@MAKBFNGC@DI_COMBOBOX?$AA@ 10004fb8     flags.obj
 0001:00003fc4       ??_C@_0P@GIPCGMBE@DI_RADIOBUTTON?$AA@ 10004fc4     flags.obj
 0001:00003fd4       ??_C@_0M@MHFHGPHJ@DI_CHECKBOX?$AA@ 10004fd4     flags.obj
 0001:00003fe0       ??_C@_09GGAEMAPJ@DI_BUTTON?$AA@ 10004fe0     flags.obj
 0001:00003fec       ??_C@_0L@MGOIMBKF@DI_FIXEDIT?$AA@ 10004fec     flags.obj
 0001:00003ff8       ??_C@_0L@EOMEIIFM@DI_PSWEDIT?$AA@ 10004ff8     flags.obj
 0001:00004004       ??_C@_07DOLIFAEF@DI_EDIT?$AA@ 10005004     flags.obj
 0001:0000400c       ??_C@_0N@EDCLIEAE@DI_DOUBLEBOX?$AA@ 1000500c     flags.obj
 0001:0000401c       ??_C@_0N@IGKKGFMF@DI_SINGLEBOX?$AA@ 1000501c     flags.obj
 0001:0000402c       ??_C@_08HODBDEHE@DI_VTEXT?$AA@ 1000502c     flags.obj
 0001:00004038       ??_C@_07MGGAEAFF@DI_TEXT?$AA@ 10005038     flags.obj
 0001:00004040       ??_C@_0BN@PPNDCHHA@EDITOR_COLOR_NORMAL_PRIORITY?$AA@ 10005040     flags.obj
 0001:00004060       ??_C@_0P@NHNDIKJ@CURRENT_EDITOR?$AA@ 10005060     flags.obj
 0001:00004070       ??_C@_0N@HLIFAAPJ@EEREDRAW_ALL?$AA@ 10005070     flags.obj
 0001:00004080       ??_C@_0L@GOEBPENN@PANEL_STOP?$AA@ 10005080     flags.obj
 0001:0000408c       ??_C@_0O@HPKEABPN@PANEL_PASSIVE?$AA@ 1000508c     flags.obj
 0001:0000409c       ??_C@_0N@LPMKALBG@PANEL_ACTIVE?$AA@ 1000509c     flags.obj
 0001:000040ac       ??_C@_0L@EHFOPLFD@PANEL_NONE?$AA@ 100050ac     flags.obj
 0001:000040b8       ??_C@_09ENNBLPJC@ALPHAMASK?$AA@ 100050b8     flags.obj
 0001:000040c4       ??_C@_09BLFIDJLF@COLORMASK?$AA@ 100050c4     flags.obj
 0001:000040d0       ??_C@_09MNAPNKKC@INDEXMASK?$AA@ 100050d0     flags.obj
 0001:000040dc       ??_C@_0M@OMCMFJHA@CP_REDETECT?$AA@ 100050dc     flags.obj
 0001:000040e8       ??_C@_0L@JDNPCEDH@CP_DEFAULT?$AA@ 100050e8     flags.obj
 0001:000040f4       ??_C@_0O@MNMCMEJH@CP_REVERSEBOM?$AA@ 100050f4     flags.obj
 0001:00004104       ??_C@_0L@MIDBGFJO@CP_UNICODE?$AA@ 10005104     flags.obj
 0001:00004110       ??_C@_0BI@MOOFLFPC@FARMANAGERVERSION_STAGE?$AA@ 10005110     flags.obj
 0001:00004128       ??_C@_0BI@OLPFLLDD@FARMANAGERVERSION_BUILD?$AA@ 10005128     flags.obj
 0001:00004140       ??_C@_0BL@NMALNAFP@FARMANAGERVERSION_REVISION?$AA@ 10005140     flags.obj
 0001:0000415c       ??_C@_0BI@DMLKEAFC@FARMANAGERVERSION_MINOR?$AA@ 1000515c     flags.obj
 0001:00004174       ??_C@_0BI@IDKIJMME@FARMANAGERVERSION_MAJOR?$AA@ 10005174     flags.obj
 0001:000049b0       _Vals                      100059b0     flags.obj
 0001:00008154       ??_C@_05GALAPKHH@Guids?$AA@ 10009154     keysandcolors.obj
 0001:0000815c       ??_C@_06ICDCBJPI@Colors?$AA@ 1000915c     keysandcolors.obj
 0001:00008990       ??_C@_01EEMJAFIK@?6?$AA@   10009990     lflua.obj
 0001:00008994       ??_C@_0BB@BJDGDOHH@cannot?5?$CFs?5?$CFs?3?5?$CFs?$AA@ 10009994     lflua.obj
 0001:000089a8       ??_C@_03PKPBNCAL@?o?$LL?$LP?$AA@ 100099a8     lflua.obj
 0001:000089ac       ??_C@_04POLDLDMI@read?$AA@ 100099ac     lflua.obj
 0001:000089b4       ??_C@_06IEGCHAII@reopen?$AA@ 100099b4     lflua.obj
 0001:000089bc       ??_C@_15JJPIMNBO@?$AAr?$AAb?$AA?$AA@ 100099bc     lflua.obj
 0001:000089c4       ??_C@_04PMOCAHAA@open?$AA@ 100099c4     lflua.obj
 0001:000089cc       ??_C@_01EOFPKCAF@?$EA?$AA@ 100099cc     lflua.obj
 0001:000089d0       ??_C@_06CCPPALKB@?$DNstdin?$AA@ 100099d0     lflua.obj
 0001:000089d8       ??_C@_02LOCGON@?$AA?$AA?$AA@ 100099d8     lflua.obj
 0001:000089dc       ??_C@_07PPMFDHAH@gmatchW?$AA@ 100099dc     lregex.obj
 0001:000089e4       ??_C@_06DPFCLDIO@gmatch?$AA@ 100099e4     lregex.obj
 0001:000089ec       ??_C@_04BDLIKKMN@__gc?$AA@ 100099ec     lregex.obj
 0001:000089f4       ??_C@_0O@OJAOCNID@bracketscount?$AA@ 100099f4     lregex.obj
 0001:00008a04       ??_C@_06NNKFJOLC@matchW?$AA@ 10009a04     lregex.obj
 0001:00008a0c       ??_C@_05HPGHPNC@gsubW?$AA@ 10009a0c     lregex.obj
 0001:00008a14       ??_C@_05GFGPIPHI@findW?$AA@ 10009a14     lregex.obj
 0001:00008a1c       ??_C@_05FNONLPDI@match?$AA@ 10009a1c     lregex.obj
 0001:00008a24       ??_C@_04GOLEAPFD@gsub?$AA@ 10009a24     lregex.obj
 0001:00008a2c       ??_C@_04CKFJHKAP@find?$AA@ 10009a2c     lregex.obj
 0001:00009260       _regex_methods             1000a260     lregex.obj
 0001:000092b0       _regex_functions           1000a2b0     lregex.obj
 0001:00009300       ??_C@_0BO@PBOFMCLL@attempt?5to?5access?5freed?5regex?$AA@ 1000a300     lregex.obj
 0001:00009320       ??_C@_09KIEPBIJC@far_regex?$AA@ 1000a320     lregex.obj
 0001:0000932c       ??_C@_07IHINEPFG@?$CFs?5?$CI?$CFp?$CJ?$AA@ 1000a32c     lregex.obj
 0001:00009334       ??_C@_01KMDKNFGN@?1?$AA@   1000a334     lregex.obj
 0001:00009338       ??_C@_0BL@HEFMPIBG@invalid?5regular?5expression?$AA@ 1000a338     lregex.obj
 0001:00009354       ??_C@_0BE@BBBEAHLK@RECTL_CREATE?5failed?$AA@ 1000a354     lregex.obj
 0001:00009368       ??_C@_0BK@JCLHPPNA@cannot?5add?5?$CFd?5stack?5slots?$AA@ 1000a368     lregex.obj
 0001:00009384       ??_C@_0BE@KPDOHKBE@invalid?5return?5type?$AA@ 1000a384     lregex.obj
 0001:00009398       ??_C@_0BJ@IMAIDFKH@invalid?5replacement?5type?$AA@ 1000a398     lregex.obj
 0001:000093b4       ??_C@_0CG@IDFLGMFM@replace?5string?3?5invalid?5capture?5@ 1000a3b4     lregex.obj
 0001:000093dc       ??_C@_0BM@MOHHGMBK@string?5or?5table?5or?5function?$AA@ 1000a3dc     lregex.obj
 0001:000093f8       ??_C@_05FGAODPCE@regex?$AA@ 1000a3f8     lregex.obj
 0001:00009400       ??_C@_07NHABFFHN@__index?$AA@ 1000a400     lregex.obj
 0001:00009c40       ??_C@_0BC@PMGNICBE@MacroPluginReturn?$AA@ 1000ac40     luamacro.obj
 0001:00009c58       ??_C@_1FA@DAFHIDEP@?$AAt?$AAo?$AAo?$AA?5?$AAm?$AAa?$AAn?$AAy?$AA?5?$AAv?$AAa?$AAl?$AAu?$AAe?$AAs?$AA?5?$AAt?$AAo?$AA?5?$AAp?$AAl?$AAa?$AAc?$AAe?$AA?5?$AAo?$AAn?$AAt?$AAo?$AA?5?$AAL?$AAu@ 1000ac58     luamacro.obj
 0001:00009ca8       ??_C@_1BC@GBFPAMBP@?$AAL?$AAu?$AAa?$AAM?$AAa?$AAc?$AAr?$AAo?$AA?$AA@ 1000aca8     luamacro.obj
 0001:00009cbc       ??_C@_15PMCGDJNJ@?$AAO?$AAK?$AA?$AA@ 1000acbc     luamacro.obj
 0001:00009cc4       ??_C@_02JIEIHMJD@wl?$AA@   1000acc4     luamacro.obj
 0001:00009cc8       ??_C@_0BB@FCMFBGOM@invalid?5argument?$AA@ 1000acc8     luamacro.obj
 0001:00009cdc       ??_C@_0BN@ICDOMFBB@invalid?5argument?5?$CD?$CFd?5to?5?8?$CFs?8?$AA@ 1000acdc     luamacro.obj
 0001:00009cfc       ??_C@_0BC@KFJDHEIC@CreateUserControl?$AA@ 1000acfc     lusercontrol.obj
 0001:00009d10       ??_C@_0L@GADKNKH@__newindex?$AA@ 1000ad10     lusercontrol.obj
 0001:00009d1c       ??_C@_05MNDELLDN@__len?$AA@ 1000ad1c     lusercontrol.obj
 0001:0000a548       _usercontrol_methods       1000b548     lusercontrol.obj
 0001:0000a570       _usercontrol_functions     1000b570     lusercontrol.obj
 0001:0000a580       ??_C@_0BA@MDNLMOMP@far_usercontrol?$AA@ 1000b580     lusercontrol.obj
 0001:0000a590       ??_C@_0BH@DOPNHMGD@bounds?5checking?5failed?$AA@ 1000b590     lusercontrol.obj
 0001:0000a5a8       ??_C@_0L@PLFFHFAH@Attributes?$AA@ 1000b5a8     lusercontrol.obj
 0001:0000a5b4       ??_C@_04IMAAEPPE@Char?$AA@ 1000b5b4     lusercontrol.obj
 0001:0000a5bc       ??_C@_0BD@MIGOMCGP@Y?5must?5be?5positive?$AA@ 1000b5bc     lusercontrol.obj
 0001:0000a5d0       ??_C@_0BD@BPIMECDH@X?5must?5be?5positive?$AA@ 1000b5d0     lusercontrol.obj
 0001:0000a5e4       ??_C@_03IGHFHLNJ@jit?$AA@  1000b5e4     service.obj
 0001:0000a5e8       ??_C@_03DIJDOPEA@ffi?$AA@  1000b5e8     service.obj
 0001:0000a5ec       ??_C@_03EDMBFDDG@bit?$AA@  1000b5ec     service.obj
 0001:0000a5f0       ??_C@_03JECLAOEA@win?$AA@  1000b5f0     service.obj
 0001:0000a5f4       ??_C@_07GAJMMAJO@unicode?$AA@ 1000b5f4     service.obj
 0001:0000a5fc       ??_C@_04CFDJAKFL@math?$AA@ 1000b5fc     service.obj
 0001:0000a604       ??_C@_06ICGJLFIM@string?$AA@ 1000b604     service.obj
 0001:0000a60c       ??_C@_02EHCHIAMF@os?$AA@   1000b60c     service.obj
 0001:0000a610       ??_C@_02KFNNKBCK@io?$AA@   1000b610     service.obj
 0001:0000a614       ??_C@_05LCLENNFI@table?$AA@ 1000b614     service.obj
 0001:0000a61c       ??_C@_05NHFJDMOA@Timer?$AA@ 1000b61c     service.obj
 0001:0000a624       ??_C@_04JLAJABDJ@Show?$AA@ 1000b624     service.obj
 0001:0000a62c       ??_C@_0O@BJEAJNBH@MakeMenuItems?$AA@ 1000b62c     service.obj
 0001:0000a63c       ??_C@_0BB@JBNBALEM@GetNumberOfLinks?$AA@ 1000b63c     service.obj
 0001:0000a650       ??_C@_0N@MOMBJEKA@GetFileOwner?$AA@ 1000b650     service.obj
 0001:0000a660       ??_C@_0BE@DJLJEKBK@GetCurrentDirectory?$AA@ 1000b660     service.obj
 0001:0000a674       ??_C@_0BD@ELMHPHAC@CPluginStartupInfo?$AA@ 1000b674     service.obj
 0001:0000a688       ??_C@_08KJBLDCDF@FarClock?$AA@ 1000b688     service.obj
 0001:0000a694       ??_C@_0P@BGLLKGOI@FormatFileSize?$AA@ 1000b694     service.obj
 0001:0000a6a4       ??_C@_04OCDKHGII@XLat?$AA@ 1000b6a4     service.obj
 0001:0000a6ac       ??_C@_0M@HKHGOOHG@ConvertPath?$AA@ 1000b6ac     service.obj
 0001:0000a6b8       ??_C@_0BA@CLEHBIPM@RecursiveSearch?$AA@ 1000b6b8     service.obj
 0001:0000a6c8       ??_C@_08BNEIIKEJ@TruncStr?$AA@ 1000b6c8     service.obj
 0001:0000a6d4       ??_C@_0N@CCDDAJK@TruncPathStr?$AA@ 1000b6d4     service.obj
 0001:0000a6e4       ??_C@_06DKBBJCCG@MkLink?$AA@ 1000b6e4     service.obj
 0001:0000a6ec       ??_C@_06ILCHIEBO@MkTemp?$AA@ 1000b6ec     service.obj
 0001:0000a6f4       ??_C@_09GLKFOOEP@LUpperBuf?$AA@ 1000b6f4     service.obj
 0001:0000a700       ??_C@_09LPKAHGM@LLowerBuf?$AA@ 1000b700     service.obj
 0001:0000a70c       ??_C@_08FHLJMDJK@LIsUpper?$AA@ 1000b70c     service.obj
 0001:0000a718       ??_C@_08MAHKICD@LIsLower?$AA@ 1000b718     service.obj
 0001:0000a724       ??_C@_0M@LKJIEECA@LIsAlphanum?$AA@ 1000b724     service.obj
 0001:0000a730       ??_C@_08DNJCLFF@LIsAlpha?$AA@ 1000b730     service.obj
 0001:0000a73c       ??_C@_0BE@EPGHGPJC@GetReparsePointInfo?$AA@ 1000b73c     service.obj
 0001:0000a750       ??_C@_0M@KFCNKLDK@GetPathRoot?$AA@ 1000b750     service.obj
 0001:0000a75c       ??_C@_0M@KPPMMAOL@ProcessName?$AA@ 1000b75c     service.obj
 0001:0000a768       ??_C@_09GALOFBAC@LStrnicmp?$AA@ 1000b768     service.obj
 0001:0000a774       ??_C@_08HGLFNLMB@LStricmp?$AA@ 1000b774     service.obj
 0001:0000a780       ??_C@_0BC@FFNOIDFI@NameToInputRecord?$AA@ 1000b780     service.obj
 0001:0000a794       ??_C@_0BC@FJDIKOMH@InputRecordToName?$AA@ 1000b794     service.obj
 0001:0000a7a8       ??_C@_0BD@PLIHDKFC@PasteFromClipboard?$AA@ 1000b7a8     service.obj
 0001:0000a7bc       ??_C@_0BA@EOCNNPOG@CopyToClipboard?$AA@ 1000b7bc     service.obj
 0001:0000a7cc       ??_C@_0M@IFKFGKML@ColorDialog?$AA@ 1000b7cc     service.obj
 0001:0000a7d8       ??_C@_0N@GOMOBHDB@FreeSettings?$AA@ 1000b7d8     service.obj
 0001:0000a7e8       ??_C@_0P@HMKEDHIE@CreateSettings?$AA@ 1000b7e8     service.obj
 0001:0000a7f8       ??_C@_0P@IKAEEPOB@IsPluginLoaded?$AA@ 1000b7f8     service.obj
 0001:0000a808       ??_C@_0L@JIDCIJHM@GetPlugins?$AA@ 1000b808     service.obj
 0001:0000a814       ??_C@_0BF@KLOGLFMF@GetPluginInformation?$AA@ 1000b814     service.obj
 0001:0000a82c       ??_C@_0L@DACPHGGH@FindPlugin?$AA@ 1000b82c     service.obj
 0001:0000a838       ??_C@_0BB@IJHIBGJA@ForcedLoadPlugin?$AA@ 1000b838     service.obj
 0001:0000a84c       ??_C@_0N@DHIONCLI@UnloadPlugin?$AA@ 1000b84c     service.obj
 0001:0000a85c       ??_C@_0L@CHJBHF@LoadPlugin?$AA@ 1000b85c     service.obj
 0001:0000a868       ??_C@_0BB@BICELPOF@CreateFileFilter?$AA@ 1000b868     service.obj
 0001:0000a87c       ??_C@_0N@COEPENFH@MacroExecute?$AA@ 1000b87c     service.obj
 0001:0000a88c       ??_C@_0BC@MJDKBAPF@MacroGetLastError?$AA@ 1000b88c     service.obj
 0001:0000a8a0       ??_C@_0M@KFMHCNNB@MacroDelete?$AA@ 1000b8a0     service.obj
 0001:0000a8ac       ??_C@_08KAFLEHAN@MacroAdd?$AA@ 1000b8ac     service.obj
 0001:0000a8b8       ??_C@_0L@KBAKOGFP@MacroCheck?$AA@ 1000b8b8     service.obj
 0001:0000a8c4       ??_C@_09KGKKBHMO@MacroPost?$AA@ 1000b8c4     service.obj
 0001:0000a8d0       ??_C@_0N@PNLHCOIE@MacroGetArea?$AA@ 1000b8d0     service.obj
 0001:0000a8e0       ??_C@_0O@KGHDMPAJ@MacroGetState?$AA@ 1000b8e0     service.obj
 0001:0000a8f0       ??_C@_0N@NAGBAPAE@MacroSaveAll?$AA@ 1000b8f0     service.obj
 0001:0000a900       ??_C@_0N@GHGEMEN@MacroLoadAll?$AA@ 1000b900     service.obj
 0001:0000a910       ??_C@_0L@HHLOIHOP@AdvControl?$AA@ 1000b910     service.obj
 0001:0000a91c       ??_C@_08IAADAJIH@InputBox?$AA@ 1000b91c     service.obj
 0001:0000a928       ??_C@_08DAHHHDJC@ShowHelp?$AA@ 1000b928     service.obj
 0001:0000a934       ??_C@_0L@PGGGPLFK@SaveScreen?$AA@ 1000b934     service.obj
 0001:0000a940       ??_C@_0O@CGLFPNOD@RestoreScreen?$AA@ 1000b940     service.obj
 0001:0000a950       ??_C@_07BEIHKDLJ@Message?$AA@ 1000b950     service.obj
 0001:0000a958       ??_C@_04IFEHPILC@Menu?$AA@ 1000b958     service.obj
 0001:0000a960       ??_C@_0BB@HIDBFOJJ@GetPluginDirList?$AA@ 1000b960     service.obj
 0001:0000a974       ??_C@_06KCCBBIBJ@GetMsg?$AA@ 1000b974     service.obj
 0001:0000a97c       ??_C@_0L@MCFABBED@GetDirList?$AA@ 1000b97c     service.obj
 0001:0000a988       ??_C@_0BK@EBIPEKDH@SubscribeDialogDrawEvents?$AA@ 1000b988     service.obj
 0001:0000a9a4       ??_C@_0L@DEGEGMGN@SetDlgItem?$AA@ 1000b9a4     service.obj
 0001:0000a9b0       ??_C@_0L@CKELNLCE@GetDlgItem?$AA@ 1000b9b0     service.obj
 0001:0000a9bc       ??_C@_0P@HLOFPDFP@SendDlgMessage?$AA@ 1000b9bc     service.obj
 0001:0000a9cc       ??_C@_0L@DLFLHLOO@DialogFree?$AA@ 1000b9cc     service.obj
 0001:0000a9d8       ??_C@_09DBEDLMHB@DialogRun?$AA@ 1000b9d8     service.obj
 0001:0000a9e4       ??_C@_0L@PJAHNOGM@DialogInit?$AA@ 1000b9e4     service.obj
 0001:0000a9f0       ??_C@_0BC@BIIKJLKB@PluginStartupInfo?$AA@ 1000b9f0     service.obj
 0001:0000aa04       ??_C@_0M@EICBHAOA@UpdatePanel?$AA@ 1000ba04     service.obj
 0001:0000aa10       ??_C@_0M@IENJPEBA@SetViewMode?$AA@ 1000ba10     service.obj
 0001:0000aa1c       ??_C@_0O@LHNNDOB@SetUserScreen?$AA@ 1000ba1c     service.obj
 0001:0000aa2c       ??_C@_0N@HCHLALN@SetSortOrder?$AA@ 1000ba2c     service.obj
 0001:0000aa3c       ??_C@_0M@CMMMGIDG@SetSortMode?$AA@ 1000ba3c     service.obj
 0001:0000aa48       ??_C@_0N@NMDFLOPL@SetSelection?$AA@ 1000ba48     service.obj
 0001:0000aa58       ??_C@_0BC@PDKEABHF@SetPanelDirectory?$AA@ 1000ba58     service.obj
 0001:0000aa6c       ??_C@_0P@NPNKOENM@SetNumericSort?$AA@ 1000ba6c     service.obj
 0001:0000aa7c       ??_C@_0BE@PAPEKLCP@SetDirectoriesFirst?$AA@ 1000ba7c     service.obj
 0001:0000aa90       ??_C@_0BE@IPNAPCDL@SetCmdLineSelection?$AA@ 1000ba90     service.obj
 0001:0000aaa4       ??_C@_0O@KECGHKDH@SetCmdLinePos?$AA@ 1000baa4     service.obj
 0001:0000aab4       ??_C@_0L@LAFNHJLF@SetCmdLine?$AA@ 1000bab4     service.obj
 0001:0000aac0       ??_C@_0BF@LKMKIFPG@SetCaseSensitiveSort?$AA@ 1000bac0     service.obj
 0001:0000aad8       ??_C@_0P@OPKJJMLB@SetActivePanel?$AA@ 1000bad8     service.obj
 0001:0000aae8       ??_C@_0M@LCEPDNPK@RedrawPanel?$AA@ 1000bae8     service.obj
 0001:0000aaf4       ??_C@_0O@OMMHIHHH@IsActivePanel?$AA@ 1000baf4     service.obj
 0001:0000ab04       ??_C@_0O@EHOCCHAL@InsertCmdLine?$AA@ 1000bb04     service.obj
 0001:0000ab14       ??_C@_0O@HEGDGAJG@GetUserScreen?$AA@ 1000bb14     service.obj
 0001:0000ab24       ??_C@_0BF@MEMFMMGB@GetSelectedPanelItem?$AA@ 1000bb24     service.obj
 0001:0000ab3c       ??_C@_0P@HCBKDPMP@GetPanelPrefix?$AA@ 1000bb3c     service.obj
 0001:0000ab4c       ??_C@_0N@HAFLAIHA@GetPanelItem?$AA@ 1000bb4c     service.obj
 0001:0000ab5c       ??_C@_0N@HPIPGDFA@GetPanelInfo?$AA@ 1000bb5c     service.obj
 0001:0000ab6c       ??_C@_0BB@LCMBHPNI@GetPanelHostFile?$AA@ 1000bb6c     service.obj
 0001:0000ab80       ??_C@_0P@GODLFFFJ@GetPanelFormat?$AA@ 1000bb80     service.obj
 0001:0000ab90       ??_C@_0BC@NGKPIKGL@GetPanelDirectory?$AA@ 1000bb90     service.obj
 0001:0000aba4       ??_C@_0BE@JPAIJBCI@GetCurrentPanelItem?$AA@ 1000bba4     service.obj
 0001:0000abb8       ??_C@_0BA@DJGLDCBG@GetColumnWidths?$AA@ 1000bbb8     service.obj
 0001:0000abc8       ??_C@_0P@CMFANDFM@GetColumnTypes?$AA@ 1000bbc8     service.obj
 0001:0000abd8       ??_C@_0BE@CBPLLCEH@GetCmdLineSelection?$AA@ 1000bbd8     service.obj
 0001:0000abec       ??_C@_0O@NLDIMJEA@GetCmdLinePos?$AA@ 1000bbec     service.obj
 0001:0000abfc       ??_C@_0L@KOHCMOPM@GetCmdLine?$AA@ 1000bbfc     service.obj
 0001:0000ac08       ??_C@_0P@DFBDDHFA@ClearSelection?$AA@ 1000bc08     service.obj
 0001:0000ac18       ??_C@_0BB@PJGDGIKA@CheckPanelsExist?$AA@ 1000bc18     service.obj
 0001:0000ac2c       ??_C@_06PJECNADJ@Viewer?$AA@ 1000bc2c     service.obj
 0001:0000ac34       ??_C@_07JMDLHPJF@SetMode?$AA@ 1000bc34     service.obj
 0001:0000ac3c       ??_C@_08IBJJAHJG@UndoRedo?$AA@ 1000bc3c     service.obj
 0001:0000ac48       ??_C@_09JFBCONJH@TabToReal?$AA@ 1000bc48     service.obj
 0001:0000ac54       ??_C@_0BF@LIMPGNED@SubscribeChangeEvent?$AA@ 1000bc54     service.obj
 0001:0000ac6c       ??_C@_08JNAOBKMI@GetTitle?$AA@ 1000bc6c     service.obj
 0001:0000ac78       ??_C@_08GMCCAJLF@SetTitle?$AA@ 1000bc78     service.obj
 0001:0000ac84       ??_C@_0L@JNHIIHDG@SetStringW?$AA@ 1000bc84     service.obj
 0001:0000ac90       ??_C@_09FPPPFNNC@SetString?$AA@ 1000bc90     service.obj
 0001:0000ac9c       ??_C@_0M@GKIFPNAD@SetPosition?$AA@ 1000bc9c     service.obj
 0001:0000aca8       ??_C@_08CCKJEGOF@SetParam?$AA@ 1000bca8     service.obj
 0001:0000acb4       ??_C@_09PPEOOGEC@SetKeyBar?$AA@ 1000bcb4     service.obj
 0001:0000acc0       ??_C@_06HJGPBJLE@Select?$AA@ 1000bcc0     service.obj
 0001:0000acc8       ??_C@_08FBDDPFPJ@SaveFile?$AA@ 1000bcc8     service.obj
 0001:0000acd4       ??_C@_06KAPLBEK@Redraw?$AA@ 1000bcd4     service.obj
 0001:0000acdc       ??_C@_09DBPLBJBJ@RealToTab?$AA@ 1000bcdc     service.obj
 0001:0000ace8       ??_C@_09KINLOJJJ@ReadInput?$AA@ 1000bce8     service.obj
 0001:0000acf4       ??_C@_04GMBKPCGK@Quit?$AA@ 1000bcf4     service.obj
 0001:0000acfc       ??_C@_0N@FNCEPAJJ@ProcessInput?$AA@ 1000bcfc     service.obj
 0001:0000ad0c       ??_C@_0BE@IEBIGOAP@PrevSessionBookmark?$AA@ 1000bd0c     service.obj
 0001:0000ad20       ??_C@_0BE@CNGODNDI@NextSessionBookmark?$AA@ 1000bd20     service.obj
 0001:0000ad34       ??_C@_0M@BINOKANK@InsertTextW?$AA@ 1000bd34     service.obj
 0001:0000ad40       ??_C@_0L@JMOIGJIA@InsertText?$AA@ 1000bd40     service.obj
 0001:0000ad4c       ??_C@_0N@ICPGLOEG@InsertString?$AA@ 1000bd4c     service.obj
 0001:0000ad5c       ??_C@_0L@IDFHDAHP@GetStringW?$AA@ 1000bd5c     service.obj
 0001:0000ad68       ??_C@_09HBLKHMEA@GetString?$AA@ 1000bd68     service.obj
 0001:0000ad74       ??_C@_0BE@LBJJGOGD@GetSessionBookmarks?$AA@ 1000bd74     service.obj
 0001:0000ad88       ??_C@_0N@KIILHCLH@GetSelection?$AA@ 1000bd88     service.obj
 0001:0000ad98       ??_C@_07NAJNLNAF@GetInfo?$AA@ 1000bd98     service.obj
 0001:0000ada0       ??_C@_0M@FECPLAMN@GetFileName?$AA@ 1000bda0     service.obj
 0001:0000adac       ??_C@_08JOPFJIPE@GetColor?$AA@ 1000bdac     service.obj
 0001:0000adb8       ??_C@_0N@MGAOADJN@GetBookmarks?$AA@ 1000bdb8     service.obj
 0001:0000adc8       ??_C@_0L@HDLPOLMA@ExpandTabs?$AA@ 1000bdc8     service.obj
 0001:0000add4       ??_C@_06MJDIICIN@Editor?$AA@ 1000bdd4     service.obj
 0001:0000addc       ??_C@_0N@EKENACAE@DeleteString?$AA@ 1000bddc     service.obj
 0001:0000adec       ??_C@_0BG@KOELEFCN@DeleteSessionBookmark?$AA@ 1000bdec     service.obj
 0001:0000ae04       ??_C@_0L@BCLIBKOC@DeleteChar?$AA@ 1000be04     service.obj
 0001:0000ae10       ??_C@_0M@LPIECDD@DeleteBlock?$AA@ 1000be10     service.obj
 0001:0000ae1c       ??_C@_08PDEJHGJI@DelColor?$AA@ 1000be1c     service.obj
 0001:0000ae28       ??_C@_0BG@IGFHDIIN@ClearSessionBookmarks?$AA@ 1000be28     service.obj
 0001:0000ae40       ??_C@_0BD@DOFEEDDC@AddSessionBookmark?$AA@ 1000be40     service.obj
 0001:0000ae54       ??_C@_08EGJLHNCO@AddColor?$AA@ 1000be54     service.obj
 0001:0000ae60       ??_C@_0L@CPCKAMD@OpenSubkey?$AA@ 1000be60     service.obj
 0001:0000ae6c       ??_C@_0N@OELJMCEC@CreateSubkey?$AA@ 1000be6c     service.obj
 0001:0000ae7c       ??_C@_03CEMDFJG@Set?$AA@   1000be7c     service.obj
 0001:0000ae80       ??_C@_03NNDHPFFO@Get?$AA@  1000be80     service.obj
 0001:0000ae84       ??_C@_04HJMOFLDF@Free?$AA@ 1000be84     service.obj
 0001:0000ae8c       ??_C@_04PAFOOALK@Enum?$AA@ 1000be8c     service.obj
 0001:0000ae94       ??_C@_06JBKGCNBB@Delete?$AA@ 1000be94     service.obj
 0001:0000ae9c       ??_C@_04MIIPNNEF@send?$AA@ 1000be9c     service.obj
 0001:0000aea4       ??_C@_09LDLEBFOB@rawhandle?$AA@ 1000bea4     service.obj
 0001:0000aeb0       ??_C@_0P@JDMCHDIM@IsFileInFilter?$AA@ 1000beb0     service.obj
 0001:0000aec0       ??_C@_0BB@OPPOFOAK@StartingToFilter?$AA@ 1000bec0     service.obj
 0001:0000aed4       ??_C@_0BA@JGEOEAE@OpenFiltersMenu?$AA@ 1000bed4     service.obj
 0001:0000aee4       ??_C@_0P@LKPINHLK@FreeFileFilter?$AA@ 1000bee4     service.obj
 0001:0000aef4       ??_C@_09MBBEHOCK@OEM_CLEAR?$AA@ 1000bef4     service.obj
 0001:0000af00       ??_C@_03KCLDMPAE@PA1?$AA@  1000bf00     service.obj
 0001:0000af04       ??_C@_06LJIOOKLP@NONAME?$AA@ 1000bf04     service.obj
 0001:0000af0c       ??_C@_04LGBIGMFG@ZOOM?$AA@ 1000bf0c     service.obj
 0001:0000af14       ??_C@_04MKCNCBEG@PLAY?$AA@ 1000bf14     service.obj
 0001:0000af1c       ??_C@_05CCFENDFJ@EREOF?$AA@ 1000bf1c     service.obj
 0001:0000af24       ??_C@_05OKOOKOOH@EXSEL?$AA@ 1000bf24     service.obj
 0001:0000af2c       ??_C@_05HGAHFFFL@CRSEL?$AA@ 1000bf2c     service.obj
 0001:0000af34       ??_C@_04BNGOAFAJ@ATTN?$AA@ 1000bf34     service.obj
 0001:0000af3c       ??_C@_0L@OCAIHDP@OEM_WSCTRL?$AA@ 1000bf3c     service.obj
 0001:0000af48       ??_C@_07DLOIGGME@OEM_PA3?$AA@ 1000bf48     service.obj
 0001:0000af50       ??_C@_07CCPDFHIF@OEM_PA2?$AA@ 1000bf50     service.obj
 0001:0000af58       ??_C@_07JNOAEEG@OEM_PA1?$AA@ 1000bf58     service.obj
 0001:0000af60       ??_C@_08INMNLJCK@OEM_JUMP?$AA@ 1000bf60     service.obj
 0001:0000af6c       ??_C@_09CAKPMKHM@OEM_RESET?$AA@ 1000bf6c     service.obj
 0001:0000af78       ??_C@_06HOICDKCB@PACKET?$AA@ 1000bf78     service.obj
 0001:0000af80       ??_C@_0L@EFLJCPAM@PROCESSKEY?$AA@ 1000bf80     service.obj
 0001:0000af8c       ??_C@_07PEFKMFIE@OEM_102?$AA@ 1000bf8c     service.obj
 0001:0000af94       ??_C@_05DJCBGEEK@OEM_8?$AA@ 1000bf94     service.obj
 0001:0000af9c       ??_C@_05LOLJHIIF@OEM_7?$AA@ 1000bf9c     service.obj
 0001:0000afa4       ??_C@_05KHKCEJME@OEM_6?$AA@ 1000bfa4     service.obj
 0001:0000afac       ??_C@_05IMIPBKAH@OEM_5?$AA@ 1000bfac     service.obj
 0001:0000afb4       ??_C@_05JFJECLEG@OEM_4?$AA@ 1000bfb4     service.obj
 0001:0000afbc       ??_C@_05NKNFLNIB@OEM_3?$AA@ 1000bfbc     service.obj
 0001:0000afc4       ??_C@_05MDMOIMMA@OEM_2?$AA@ 1000bfc4     service.obj
 0001:0000afcc       ??_C@_0L@DNNMNDGM@OEM_PERIOD?$AA@ 1000bfcc     service.obj
 0001:0000afd8       ??_C@_09OGMLCNMG@OEM_MINUS?$AA@ 1000bfd8     service.obj
 0001:0000afe4       ??_C@_09CLPFJEOD@OEM_COMMA?$AA@ 1000bfe4     service.obj
 0001:0000aff0       ??_C@_08LDJEIPBH@OEM_PLUS?$AA@ 1000bff0     service.obj
 0001:0000affc       ??_C@_05OIODNPAD@OEM_1?$AA@ 1000bffc     service.obj
 0001:0000b004       ??_C@_0M@ONJENAPP@LAUNCH_APP2?$AA@ 1000c004     service.obj
 0001:0000b010       ??_C@_0M@MGLJIDDM@LAUNCH_APP1?$AA@ 1000c010     service.obj
 0001:0000b01c       ??_C@_0BE@FADJJAPM@LAUNCH_MEDIA_SELECT?$AA@ 1000c01c     service.obj
 0001:0000b030       ??_C@_0M@GCIKMBID@LAUNCH_MAIL?$AA@ 1000c030     service.obj
 0001:0000b03c       ??_C@_0BB@HAEMIJHO@MEDIA_PLAY_PAUSE?$AA@ 1000c03c     service.obj
 0001:0000b050       ??_C@_0L@KBJOCDHK@MEDIA_STOP?$AA@ 1000c050     service.obj
 0001:0000b05c       ??_C@_0BB@CMOIJKPH@MEDIA_PREV_TRACK?$AA@ 1000c05c     service.obj
 0001:0000b070       ??_C@_0BB@KLAENPA@MEDIA_NEXT_TRACK?$AA@ 1000c070     service.obj
 0001:0000b084       ??_C@_09MGPMNMJC@VOLUME_UP?$AA@ 1000c084     service.obj
 0001:0000b090       ??_C@_0M@JOOBBDNO@VOLUME_DOWN?$AA@ 1000c090     service.obj
 0001:0000b09c       ??_C@_0M@ENOHKBMG@VOLUME_MUTE?$AA@ 1000c09c     service.obj
 0001:0000b0a8       ??_C@_0N@NOOKCEKA@BROWSER_HOME?$AA@ 1000c0a8     service.obj
 0001:0000b0b8       ??_C@_0BC@BOMJIH@BROWSER_FAVORITES?$AA@ 1000c0b8     service.obj
 0001:0000b0cc       ??_C@_0P@BEAEBJDD@BROWSER_SEARCH?$AA@ 1000c0cc     service.obj
 0001:0000b0dc       ??_C@_0N@HKPDGANH@BROWSER_STOP?$AA@ 1000c0dc     service.obj
 0001:0000b0ec       ??_C@_0BA@GDNDIDGJ@BROWSER_REFRESH?$AA@ 1000c0ec     service.obj
 0001:0000b0fc       ??_C@_0BA@ENOAJOGH@BROWSER_FORWARD?$AA@ 1000c0fc     service.obj
 0001:0000b10c       ??_C@_0N@OAJIELLG@BROWSER_BACK?$AA@ 1000c10c     service.obj
 0001:0000b11c       ??_C@_05LOBKMKIM@RMENU?$AA@ 1000c11c     service.obj
 0001:0000b124       ??_C@_05IHMGKJGH@LMENU?$AA@ 1000c124     service.obj
 0001:0000b12c       ??_C@_08OOMMENPF@RCONTROL?$AA@ 1000c12c     service.obj
 0001:0000b138       ??_C@_08IKMONEBG@LCONTROL?$AA@ 1000c138     service.obj
 0001:0000b144       ??_C@_06HIJMMPFL@RSHIFT?$AA@ 1000c144     service.obj
 0001:0000b14c       ??_C@_06EPHNCIMI@LSHIFT?$AA@ 1000c14c     service.obj
 0001:0000b154       ??_C@_0M@FOJHECMP@OEM_FJ_ROYA?$AA@ 1000c154     service.obj
 0001:0000b160       ??_C@_0M@IBEHGLCM@OEM_FJ_LOYA?$AA@ 1000c160     service.obj
 0001:0000b16c       ??_C@_0P@NIEOFNLG@OEM_FJ_TOUROKU?$AA@ 1000c16c     service.obj
 0001:0000b17c       ??_C@_0P@JKGCFGCD@OEM_FJ_MASSHOU?$AA@ 1000c17c     service.obj
 0001:0000b18c       ??_C@_0O@DBBJDALK@OEM_NEC_EQUAL?$AA@ 1000c18c     service.obj
 0001:0000b19c       ??_C@_06FNIKALAE@SCROLL?$AA@ 1000c19c     service.obj
 0001:0000b1a4       ??_C@_07FLMEHHJP@NUMLOCK?$AA@ 1000c1a4     service.obj
 0001:0000b1ac       ??_C@_03PMABOFAL@F24?$AA@  1000c1ac     service.obj
 0001:0000b1b0       ??_C@_03LDEAHDMM@F23?$AA@  1000c1b0     service.obj
 0001:0000b1b4       ??_C@_03KKFLECIN@F22?$AA@  1000c1b4     service.obj
 0001:0000b1b8       ??_C@_03IBHGBBEO@F21?$AA@  1000c1b8     service.obj
 0001:0000b1bc       ??_C@_03JIGNCAAP@F20?$AA@  1000c1bc     service.obj
 0001:0000b1c0       ??_C@_03ELOJCFBP@F19?$AA@  1000c1c0     service.obj
 0001:0000b1c4       ??_C@_03FCPCBEFO@F18?$AA@  1000c1c4     service.obj
 0001:0000b1c8       ??_C@_03NFGKAIJB@F17?$AA@  1000c1c8     service.obj
 0001:0000b1cc       ??_C@_03MMHBDJNA@F16?$AA@  1000c1cc     service.obj
 0001:0000b1d0       ??_C@_03OHFMGKBD@F15?$AA@  1000c1d0     service.obj
 0001:0000b1d4       ??_C@_03POEHFLFC@F14?$AA@  1000c1d4     service.obj
 0001:0000b1d8       ??_C@_03LBAGMNJF@F13?$AA@  1000c1d8     service.obj
 0001:0000b1dc       ??_C@_03KIBNPMNE@F12?$AA@  1000c1dc     service.obj
 0001:0000b1e0       ??_C@_03IDDAKPBH@F11?$AA@  1000c1e0     service.obj
 0001:0000b1e4       ??_C@_03JKCLJOFG@F10?$AA@  1000c1e4     service.obj
 0001:0000b1e8       ??_C@_02HKCNFKCF@F9?$AA@   1000c1e8     service.obj
 0001:0000b1ec       ??_C@_02GDDGGLGE@F8?$AA@   1000c1ec     service.obj
 0001:0000b1f0       ??_C@_02OEKOHHKL@F7?$AA@   1000c1f0     service.obj
 0001:0000b1f4       ??_C@_02PNLFEGOK@F6?$AA@   1000c1f4     service.obj
 0001:0000b1f8       ??_C@_02NGJIBFCJ@F5?$AA@   1000c1f8     service.obj
 0001:0000b1fc       ??_C@_02MPIDCEGI@F4?$AA@   1000c1fc     service.obj
 0001:0000b200       ??_C@_02IAMCLCKP@F3?$AA@   1000c200     service.obj
 0001:0000b204       ??_C@_02JJNJIDOO@F2?$AA@   1000c204     service.obj
 0001:0000b208       ??_C@_02LCPENACN@F1?$AA@   1000c208     service.obj
 0001:0000b20c       ??_C@_06FBFCJJMP@DIVIDE?$AA@ 1000c20c     service.obj
 0001:0000b214       ??_C@_07LJPMJDLL@DECIMAL?$AA@ 1000c214     service.obj
 0001:0000b21c       ??_C@_08MGBEENML@SUBTRACT?$AA@ 1000c21c     service.obj
 0001:0000b228       ??_C@_09POPINEFK@SEPARATOR?$AA@ 1000c228     service.obj
 0001:0000b234       ??_C@_03BOJFLAKG@ADD?$AA@  1000c234     service.obj
 0001:0000b238       ??_C@_08LDEOAAGM@MULTIPLY?$AA@ 1000c238     service.obj
 0001:0000b244       ??_C@_07GENHHNO@NUMPAD9?$AA@ 1000c244     service.obj
 0001:0000b24c       ??_C@_07BPFGEGJP@NUMPAD8?$AA@ 1000c24c     service.obj
 0001:0000b254       ??_C@_07JIMOFKFA@NUMPAD7?$AA@ 1000c254     service.obj
 0001:0000b25c       ??_C@_07IBNFGLBB@NUMPAD6?$AA@ 1000c25c     service.obj
 0001:0000b264       ??_C@_07KKPIDINC@NUMPAD5?$AA@ 1000c264     service.obj
 0001:0000b26c       ??_C@_07LDODAJJD@NUMPAD4?$AA@ 1000c26c     service.obj
 0001:0000b274       ??_C@_07PMKCJPFE@NUMPAD3?$AA@ 1000c274     service.obj
 0001:0000b27c       ??_C@_07OFLJKOBF@NUMPAD2?$AA@ 1000c27c     service.obj
 0001:0000b284       ??_C@_07MOJEPNNG@NUMPAD1?$AA@ 1000c284     service.obj
 0001:0000b28c       ??_C@_07NHIPMMJH@NUMPAD0?$AA@ 1000c28c     service.obj
 0001:0000b294       ??_C@_05DJAECLDN@SLEEP?$AA@ 1000c294     service.obj
 0001:0000b29c       ??_C@_04GKGJFGJO@APPS?$AA@ 1000c29c     service.obj
 0001:0000b2a4       ??_C@_04DMGFHHJG@RWIN?$AA@ 1000c2a4     service.obj
 0001:0000b2ac       ??_C@_04ODLFFOHF@LWIN?$AA@ 1000c2ac     service.obj
 0001:0000b2b4       ??_C@_01POHCFINO@Z?$AA@    1000c2b4     service.obj
 0001:0000b2b8       ??_C@_01NFFPALBN@Y?$AA@    1000c2b8     service.obj
 0001:0000b2bc       ??_C@_01MMEEDKFM@X?$AA@    1000c2bc     service.obj
 0001:0000b2c0       ??_C@_01ELNMCGJD@W?$AA@    1000c2c0     service.obj
 0001:0000b2c4       ??_C@_01FCMHBHNC@V?$AA@    1000c2c4     service.obj
 0001:0000b2c8       ??_C@_01HJOKEEBB@U?$AA@    1000c2c8     service.obj
 0001:0000b2cc       ??_C@_01GAPBHFFA@T?$AA@    1000c2cc     service.obj
 0001:0000b2d0       ??_C@_01CPLAODJH@S?$AA@    1000c2d0     service.obj
 0001:0000b2d4       ??_C@_01DGKLNCNG@R?$AA@    1000c2d4     service.obj
 0001:0000b2d8       ??_C@_01BNIGIBBF@Q?$AA@    1000c2d8     service.obj
 0001:0000b2dc       ??_C@_01EJNLAFE@P?$AA@     1000c2dc     service.obj
 0001:0000b2e0       ??_C@_01MJMHLOMK@O?$AA@    1000c2e0     service.obj
 0001:0000b2e4       ??_C@_01NANMIPIL@N?$AA@    1000c2e4     service.obj
 0001:0000b2e8       ??_C@_01PLPBNMEI@M?$AA@    1000c2e8     service.obj
 0001:0000b2ec       ??_C@_01OCOKONAJ@L?$AA@    1000c2ec     service.obj
 0001:0000b2f0       ??_C@_01KNKLHLMO@K?$AA@    1000c2f0     service.obj
 0001:0000b2f4       ??_C@_01LELAEKIP@J?$AA@    1000c2f4     service.obj
 0001:0000b2f8       ??_C@_01JPJNBJEM@I?$AA@    1000c2f8     service.obj
 0001:0000b2fc       ??_C@_01IGIGCIAN@H?$AA@    1000c2fc     service.obj
 0001:0000b300       ??_C@_01BBODEMC@G?$AA@     1000c300     service.obj
 0001:0000b304       ??_C@_01BIAFAFID@F?$AA@    1000c304     service.obj
 0001:0000b308       ??_C@_01DDCIFGEA@E?$AA@    1000c308     service.obj
 0001:0000b30c       ??_C@_01CKDDGHAB@D?$AA@    1000c30c     service.obj
 0001:0000b310       ??_C@_01GFHCPBMG@C?$AA@    1000c310     service.obj
 0001:0000b314       ??_C@_01HMGJMAIH@B?$AA@    1000c314     service.obj
 0001:0000b318       ??_C@_01FHEEJDEE@A?$AA@    1000c318     service.obj
 0001:0000b31c       ??_C@_01LAKCGALK@9?$AA@    1000c31c     service.obj
 0001:0000b320       ??_C@_01KJLJFBPL@8?$AA@    1000c320     service.obj
 0001:0000b324       ??_C@_01COCBENDE@7?$AA@    1000c324     service.obj
 0001:0000b328       ??_C@_01DHDKHMHF@6?$AA@    1000c328     service.obj
 0001:0000b32c       ??_C@_01BMBHCPLG@5?$AA@    1000c32c     service.obj
 0001:0000b330       ??_C@_01FAMBOPH@4?$AA@     1000c330     service.obj
 0001:0000b334       ??_C@_01EKENIIDA@3?$AA@    1000c334     service.obj
 0001:0000b338       ??_C@_01FDFGLJHB@2?$AA@    1000c338     service.obj
 0001:0000b33c       ??_C@_01HIHLOKLC@1?$AA@    1000c33c     service.obj
 0001:0000b340       ??_C@_01GBGANLPD@0?$AA@    1000c340     service.obj
 0001:0000b344       ??_C@_04DOKPJKJF@HELP?$AA@ 1000c344     service.obj
 0001:0000b34c       ??_C@_06FKDAMKFP@DELETE?$AA@ 1000c34c     service.obj
 0001:0000b354       ??_C@_06OEMEAEKN@INSERT?$AA@ 1000c354     service.obj
 0001:0000b35c       ??_C@_08EMOKHGD@SNAPSHOT?$AA@ 1000c35c     service.obj
 0001:0000b368       ??_C@_07LBDEDADF@EXECUTE?$AA@ 1000c368     service.obj
 0001:0000b370       ??_C@_05ECKPOFCN@PRINT?$AA@ 1000c370     service.obj
 0001:0000b378       ??_C@_06LCPJPOPK@SELECT?$AA@ 1000c378     service.obj
 0001:0000b380       ??_C@_04FANAOELO@DOWN?$AA@ 1000c380     service.obj
 0001:0000b388       ??_C@_05PMAFOJDE@RIGHT?$AA@ 1000c388     service.obj
 0001:0000b390       ??_C@_02NAHCJHOC@UP?$AA@   1000c390     service.obj
 0001:0000b394       ??_C@_04KCNEHMIH@LEFT?$AA@ 1000c394     service.obj
 0001:0000b39c       ??_C@_04GHGFPGNC@HOME?$AA@ 1000c39c     service.obj
 0001:0000b3a4       ??_C@_03JMGAKCCH@END?$AA@  1000c3a4     service.obj
 0001:0000b3a8       ??_C@_04MOKMKBJN@NEXT?$AA@ 1000c3a8     service.obj
 0001:0000b3b0       ??_C@_05BFDHCIJM@PRIOR?$AA@ 1000c3b0     service.obj
 0001:0000b3b8       ??_C@_05CAEOFMEP@SPACE?$AA@ 1000c3b8     service.obj
 0001:0000b3c0       ??_C@_0L@HEHNEBED@MODECHANGE?$AA@ 1000c3c0     service.obj
 0001:0000b3cc       ??_C@_06INBBKPI@ACCEPT?$AA@ 1000c3cc     service.obj
 0001:0000b3d4       ??_C@_0L@ODNCKDCK@NONCONVERT?$AA@ 1000c3d4     service.obj
 0001:0000b3e0       ??_C@_06CDPDIIDH@ESCAPE?$AA@ 1000c3e0     service.obj
 0001:0000b3e8       ??_C@_05CHABPOPI@HANJA?$AA@ 1000c3e8     service.obj
 0001:0000b3f0       ??_C@_05JEIAEFOF@FINAL?$AA@ 1000c3f0     service.obj
 0001:0000b3f8       ??_C@_05PPKJGOLB@JUNJA?$AA@ 1000c3f8     service.obj
 0001:0000b400       ??_C@_04KGDAIAGM@KANA?$AA@ 1000c400     service.obj
 0001:0000b408       ??_C@_07OPCFNGJB@CAPITAL?$AA@ 1000c408     service.obj
 0001:0000b410       ??_C@_05DIAHPDGL@PAUSE?$AA@ 1000c410     service.obj
 0001:0000b418       ??_C@_04IILMDFMO@MENU?$AA@ 1000c418     service.obj
 0001:0000b420       ??_C@_07DBEDOPMC@CONTROL?$AA@ 1000c420     service.obj
 0001:0000b428       ??_C@_05OAHIEJBI@SHIFT?$AA@ 1000c428     service.obj
 0001:0000b430       ??_C@_06LJMOENAO@RETURN?$AA@ 1000c430     service.obj
 0001:0000b438       ??_C@_05PONODPI@CLEAR?$AA@ 1000c438     service.obj
 0001:0000b440       ??_C@_03CJMDHCGG@TAB?$AA@  1000c440     service.obj
 0001:0000b444       ??_C@_04FJBHJJME@BACK?$AA@ 1000c444     service.obj
 0001:0000b44c       ??_C@_08MEKGJEIF@XBUTTON2?$AA@ 1000c44c     service.obj
 0001:0000b458       ??_C@_08OPILMHEG@XBUTTON1?$AA@ 1000c458     service.obj
 0001:0000b464       ??_C@_07DLFCFDDG@MBUTTON?$AA@ 1000c464     service.obj
 0001:0000b46c       ??_C@_06JHILMIHF@CANCEL?$AA@ 1000c46c     service.obj
 0001:0000b474       ??_C@_07JOMJHALB@RBUTTON?$AA@ 1000c474     service.obj
 0001:0000b47c       ??_C@_07PHPIFDKI@LBUTTON?$AA@ 1000c47c     service.obj
 0001:0000bcb0       _FarFileFilterType         1000ccb0     service.obj
 0001:0000bcc0       _FarTimerType              1000ccc0     service.obj
 0001:0000bccc       _FarDialogType             1000cccc     service.obj
 0001:0000bcd8       _SettingsType              1000ccd8     service.obj
 0001:0000bce4       _SettingsHandles           1000cce4     service.obj
 0001:0000bcf8       _PluginHandleType          1000ccf8     service.obj
 0001:0000bd08       _AddMacroDataType          1000cd08     service.obj
 0001:0000bd18       _SavedScreenType           1000cd18     service.obj
 0001:0000bd28       _FAR_VIRTUALKEYS           1000cd28     service.obj
 0001:0000bd38       _FAR_FLAGSTABLE            1000cd38     service.obj
 0001:0000bd44       _FAR_DN_STORAGE            1000cd44     service.obj
 0001:0000bd84       _timer_methods             1000cd84     service.obj
 0001:0000bdac       _filefilter_methods        1000cdac     service.obj
 0001:0000bde4       _dialog_methods            1000cde4     service.obj
 0001:0000be10       _Settings_methods          1000ce10     service.obj
 0001:0000be60       _editor_funcs              1000ce60     service.obj
 0001:0000bfa8       _viewer_funcs              1000cfa8     service.obj
 0001:0000bff8       _panel_funcs               1000cff8     service.obj
 0001:0000c110       _far_funcs                 1000d110     service.obj
 0001:0000c350       _far_Dialog                1000d350     service.obj
 0001:0000c5e0       _api_functions             1000d5e0     service.obj
 0001:0000c640       ??_C@_0M@DOFFFIEL@luaopen_jit?$AA@ 1000d640     service.obj
 0001:0000c64c       ??_C@_0M@IALDMMNC@luaopen_ffi?$AA@ 1000d64c     service.obj
 0001:0000c658       ??_C@_0M@PLOBHAKE@luaopen_bit?$AA@ 1000d658     service.obj
 0001:0000c664       ??_C@_09GJGOMOL@lua51?4dll?$AA@ 1000d664     service.obj
 0001:0000c670       ??_C@_0BE@OEPKKAAB@integer?5or?5userdata?$AA@ 1000d670     service.obj
 0001:0000c684       ??_C@_0N@JJLBBDOC@invalid?5flag?$AA@ 1000d684     service.obj
 0001:0000c694       ??_C@_0BJ@MIKGPOKL@invalid?5flag?5combination?$AA@ 1000d694     service.obj
 0001:0000c6b0       ??_C@_0L@EMFBJIPA@EventFlags?$AA@ 1000d6b0     service.obj
 0001:0000c6bc       ??_C@_0M@BJAICPIE@ButtonState?$AA@ 1000d6bc     service.obj
 0001:0000c6c8       ??_C@_0P@FJMHICKO@MousePositionY?$AA@ 1000d6c8     service.obj
 0001:0000c6d8       ??_C@_0P@EANMLDOP@MousePositionX?$AA@ 1000d6d8     service.obj
 0001:0000c6e8       __real@41f0000000000000    1000d6e8     service.obj
 0001:0000c6f0       ??_C@_08LLJICOLD@Overtype?$AA@ 1000d6f0     service.obj
 0001:0000c6fc       ??_C@_07GDAKJHLE@LeftPos?$AA@ 1000d6fc     service.obj
 0001:0000c704       ??_C@_0O@OKGGHEJK@TopScreenLine?$AA@ 1000d704     service.obj
 0001:0000c714       ??_C@_09EGONKHKB@CurTabPos?$AA@ 1000d714     service.obj
 0001:0000c720       ??_C@_06EDBJMJDC@CurPos?$AA@ 1000d720     service.obj
 0001:0000c728       ??_C@_07EEJLMCNH@CurLine?$AA@ 1000d728     service.obj
 0001:0000c730       ??_C@_0L@JLHCLFBG@PluginGuid?$AA@ 1000d730     service.obj
 0001:0000c73c       ??_C@_09HOIHBHIM@ModuleDir?$AA@ 1000d73c     service.obj
 0001:0000c748       ??_C@_0L@GEIEADPN@ModuleName?$AA@ 1000d748     service.obj
 0001:0000c754       ??_C@_08CPAOHJDL@CurState?$AA@ 1000d754     service.obj
 0001:0000c760       ??_C@_0BF@ODFKBFAK@SessionBookmarkCount?$AA@ 1000d760     service.obj
 0001:0000c778       ??_C@_0O@EBLDFOPH@BookmarkCount?$AA@ 1000d778     service.obj
 0001:0000c788       ??_C@_07FLDNELFM@TabSize?$AA@ 1000d788     service.obj
 0001:0000c790       ??_C@_07KHIHFBFN@Options?$AA@ 1000d790     service.obj
 0001:0000c798       ??_C@_0P@GAEEHNHE@BlockStartLine?$AA@ 1000d798     service.obj
 0001:0000c7a8       ??_C@_09HKBEFIPN@BlockType?$AA@ 1000d7a8     service.obj
 0001:0000c7b8       __real@3ff0000000000000    1000d7b8     service.obj
 0001:0000c7c0       ??_C@_0L@PMKENHMA@TotalLines?$AA@ 1000d7c0     service.obj
 0001:0000c7cc       ??_C@_0M@DGCKFKDM@WindowSizeY?$AA@ 1000d7cc     service.obj
 0001:0000c7d8       ??_C@_0M@CPDBGLHN@WindowSizeX?$AA@ 1000d7d8     service.obj
 0001:0000c7e4       ??_C@_08GGMFPBHM@EditorID?$AA@ 1000d7e4     service.obj
 0001:0000c7f0       ??_C@_09IBGOAAEM@StringEOL?$AA@ 1000d7f0     service.obj
 0001:0000c7fc       ??_C@_0L@IFNFGDGN@StringText?$AA@ 1000d7fc     service.obj
 0001:0000c808       ??_C@_06JLEHDHII@SelEnd?$AA@ 1000d808     service.obj
 0001:0000c810       ??_C@_08JPMALCFA@SelStart?$AA@ 1000d810     service.obj
 0001:0000c81c       ??_C@_0N@DAJMJAE@StringLength?$AA@ 1000d81c     service.obj
 0001:0000c82c       ??_C@_0CG@LAKEGANL@must?5be?5?8redraw?8?0?5?8restore?8?0?5or?5@ 1000d82c     service.obj
 0001:0000c854       ??_C@_07HICINA@restore?$AA@ 1000d854     service.obj
 0001:0000c85c       ??_C@_06MFLCIING@redraw?$AA@ 1000d85c     service.obj
 0001:0000c864       ??_C@_0L@GDDEHGKI@ScreenLine?$AA@ 1000d864     service.obj
 0001:0000c870       ??_C@_06OIIFPIKD@Cursor?$AA@ 1000d870     service.obj
 0001:0000c878       ??_C@_04LIDDHMOL@Line?$AA@ 1000d878     service.obj
 0001:0000c880       ??_C@_0M@NKKGBDGK@BlockHeight?$AA@ 1000d880     service.obj
 0001:0000c88c       ??_C@_0L@EKLJJHPF@BlockWidth?$AA@ 1000d88c     service.obj
 0001:0000c898       ??_C@_0O@CIAFMMMB@BlockStartPos?$AA@ 1000d898     service.obj
 0001:0000c8a8       ??_C@_06KGHIGMHC@EndPos?$AA@ 1000d8a8     service.obj
 0001:0000c8b0       ??_C@_07DCKCOCOC@EndLine?$AA@ 1000d8b0     service.obj
 0001:0000c8b8       ??_C@_08JBNOANJG@StartPos?$AA@ 1000d8b8     service.obj
 0001:0000c8c4       ??_C@_09JFPCGCOC@StartLine?$AA@ 1000d8c4     service.obj
 0001:0000c8d0       ??_C@_0BA@DPMBBMBG@BackgroundColor?$AA@ 1000d8d0     service.obj
 0001:0000c8e0       ??_C@_0BA@HNIJJEO@ForegroundColor?$AA@ 1000d8e0     service.obj
 0001:0000c8f0       ??_C@_0O@NHKEGDJF@GUID?5required?$AA@ 1000d8f0     service.obj
 0001:0000c900       __real@41e0000000000000    1000d900     service.obj
 0001:0000c908       ??_C@_0BJ@BMOGHFAN@table?5or?5number?5expected?$AA@ 1000d908     service.obj
 0001:0000c924       ??_C@_05PDOBBJNA@Color?$AA@ 1000d924     service.obj
 0001:0000c92c       ??_C@_08KGEIBGG@Priority?$AA@ 1000d92c     service.obj
 0001:0000c938       ??_C@_08GPNNBNIL@SetFocus?$AA@ 1000d938     service.obj
 0001:0000c944       ??_C@_09GEJJJAHL@CommandId?$AA@ 1000d944     service.obj
 0001:0000c950       ??_C@_05HBOCJOBH@SizeY?$AA@ 1000d950     service.obj
 0001:0000c958       ??_C@_05GIPJKPFG@SizeX?$AA@ 1000d958     service.obj
 0001:0000c960       ??_C@_0M@PBJKDIHH@UnicodeChar?$AA@ 1000d960     service.obj
 0001:0000c96c       ??_C@_0BA@KCCLHPM@VirtualScanCode?$AA@ 1000d96c     service.obj
 0001:0000c97c       ??_C@_0M@FGGHEADP@RepeatCount?$AA@ 1000d97c     service.obj
 0001:0000c988       ??_C@_07HPHPOAEG@KeyDown?$AA@ 1000d988     service.obj
 0001:0000c990       ??_C@_09KDLBEGCN@EventType?$AA@ 1000d990     service.obj
 0001:0000c99c       ??_C@_0M@BEDENHPD@invalid?5key?$AA@ 1000d99c     service.obj
 0001:0000c9a8       ??_C@_08PNHLLJE@BreakKey?$AA@ 1000d9a8     service.obj
 0001:0000c9b4       ??_C@_08MMCKBNNI@AccelKey?$AA@ 1000d9b4     service.obj
 0001:0000c9c0       ??_C@_06JIKFICKK@hidden?$AA@ 1000d9c0     service.obj
 0001:0000c9c8       ??_C@_06JHIAOIKD@grayed?$AA@ 1000d9c8     service.obj
 0001:0000c9d0       ??_C@_07DBNODEFN@disable?$AA@ 1000d9d0     service.obj
 0001:0000c9d8       ??_C@_09MOAJOJKN@separator?$AA@ 1000d9d8     service.obj
 0001:0000c9e4       ??_C@_07FJOBMBFC@checked?$AA@ 1000d9e4     service.obj
 0001:0000c9ec       ??_C@_02HOGEDOAB@Id?$AA@   1000d9ec     service.obj
 0001:0000c9f0       ??_C@_0M@GGMLPAIK@SelectIndex?$AA@ 1000d9f0     service.obj
 0001:0000c9fc       ??_C@_09CFELDMD@HelpTopic?$AA@ 1000d9fc     service.obj
 0001:0000ca08       ??_C@_06DDHCBBGN@Bottom?$AA@ 1000da08     service.obj
 0001:0000ca10       ??_C@_09FDAFFNEA@MaxHeight?$AA@ 1000da10     service.obj
 0001:0000ca1c       ??_C@_0BF@OOLFJKGP@must?5be?5table?5or?5nil?$AA@ 1000da1c     service.obj
 0001:0000ca34       ??_C@_19IBCFILMC@?$AAM?$AAe?$AAn?$AAu?$AA?$AA@ 1000da34     service.obj
 0001:0000ca40       ??_C@_1BI@KMMIHPHF@?$AAR?$AAe?$AAt?$AAr?$AAy?$AAC?$AAa?$AAn?$AAc?$AAe?$AAl?$AA?$AA@ 1000da40     service.obj
 0001:0000ca58       ??_C@_1BI@BNDFIGCI@?$AAY?$AAe?$AAs?$AAN?$AAo?$AAC?$AAa?$AAn?$AAc?$AAe?$AAl?$AA?$AA@ 1000da58     service.obj
 0001:0000ca70       ??_C@_1M@GGPOIMAD@?$AAY?$AAe?$AAs?$AAN?$AAo?$AA?$AA@ 1000da70     service.obj
 0001:0000ca7c       ??_C@_1CC@HODOHOHB@?$AAA?$AAb?$AAo?$AAr?$AAt?$AAR?$AAe?$AAt?$AAr?$AAy?$AAI?$AAg?$AAn?$AAo?$AAr?$AAe?$AA?$AA@ 1000da7c     service.obj
 0001:0000caa0       ??_C@_1BC@IBCAPFAE@?$AAO?$AAk?$AAC?$AAa?$AAn?$AAc?$AAe?$AAl?$AA?$AA@ 1000daa0     service.obj
 0001:0000cab4       ??_C@_15FMBEJGOH@?$AAO?$AAk?$AA?$AA@ 1000dab4     service.obj
 0001:0000cabc       ??_C@_1M@ILHOPKA@?$AAE?$AAr?$AAr?$AAo?$AAr?$AA?$AA@ 1000dabc     service.obj
 0001:0000cac8       ??_C@_15JCKODCLA@?$AA?6?$AA?7?$AA?$AA@ 1000dac8     service.obj
 0001:0000cad0       ??_C@_19FFLPMPBO@?$AA?6?$AA?5?$AA?5?$AA?5?$AA?$AA@ 1000dad0     service.obj
 0001:0000cadc       ??_C@_15IEGBJKPD@?$AA?3?$AA?6?$AA?$AA@ 1000dadc     service.obj
 0001:0000cae4       ??_C@_1DG@LMKDDADI@?$AA?$DM?$AAn?$AAo?$AAn?$AA?9?$AAs?$AAt?$AAr?$AAi?$AAn?$AAg?$AA?5?$AAe?$AAr?$AAr?$AAo?$AAr?$AA?5?$AAm?$AAe?$AAs?$AAs?$AAa?$AAg?$AAe?$AA?$DO?$AA?$AA@ 1000dae4     service.obj
 0001:0000cb1c       ??_C@_17PAGBAIDI@?$AA?$DL?$AAO?$AAK?$AA?$AA@ 1000db1c     service.obj
 0001:0000cb24       ??_C@_1BA@HHOMBECE@?$AAM?$AAe?$AAs?$AAs?$AAa?$AAg?$AAe?$AA?$AA@ 1000db24     service.obj
 0001:0000cb34       ??_C@_0BJ@JOELOGM@cannot?5convert?5to?5string?$AA@ 1000db34     service.obj
 0001:0000cb50       ??_C@_08FNIIFOJC@tostring?$AA@ 1000db50     service.obj
 0001:0000cb5c       ??_C@_08CENECNJD@SortMode?$AA@ 1000db5c     service.obj
 0001:0000cb68       ??_C@_08IMMBLBLF@ViewMode?$AA@ 1000db68     service.obj
 0001:0000cb74       ??_C@_0N@CDHIFJIH@TopPanelItem?$AA@ 1000db74     service.obj
 0001:0000cb84       ??_C@_0M@JMILNLLF@CurrentItem?$AA@ 1000db84     service.obj
 0001:0000cb90       ??_C@_0BE@EOBAHHNK@SelectedItemsNumber?$AA@ 1000db90     service.obj
 0001:0000cba4       ??_C@_0M@DDGFKGKJ@ItemsNumber?$AA@ 1000dba4     service.obj
 0001:0000cbb0       ??_C@_09MCEJMINN@PanelRect?$AA@ 1000dbb0     service.obj
 0001:0000cbbc       ??_C@_06PMMPCIPB@bottom?$AA@ 1000dbbc     service.obj
 0001:0000cbc4       ??_C@_05DHJDAOHK@right?$AA@ 1000dbc4     service.obj
 0001:0000cbcc       ??_C@_03FGFCOCMD@top?$AA@  1000dbcc     service.obj
 0001:0000cbd0       ??_C@_04GOOOJOPP@left?$AA@ 1000dbd0     service.obj
 0001:0000cbd8       ??_C@_09BKHPOLGD@PanelType?$AA@ 1000dbd8     service.obj
 0001:0000cbe4       ??_C@_0N@CCPLCIHE@PluginHandle?$AA@ 1000dbe4     service.obj
 0001:0000cbf4       ??_C@_09ENKGJCEC@OwnerGuid?$AA@ 1000dbf4     service.obj
 0001:0000cc00       ??_C@_08HGEAFCFN@PluginId?$AA@ 1000dc00     service.obj
 0001:0000cc0c       ??_C@_04PBAHLACE@File?$AA@ 1000dc0c     service.obj
 0001:0000cc14       ??_C@_05LOJBNELM@Param?$AA@ 1000dc14     service.obj
 0001:0000cc1c       ??_C@_04FABLJDN@Name?$AA@  1000dc1c     service.obj
 0001:0000cc24       ??_C@_0BA@MLHECKCE@table?5or?5string?$AA@ 1000dc24     service.obj
 0001:0000cc34       ??_C@_0BA@GNKNKKDM@number?5or?5table?$AA@ 1000dc34     service.obj
 0001:0000cc44       ??_C@_0BD@CKJHMJBG@non?9positive?5index?$AA@ 1000dc44     service.obj
 0001:0000cc58       ??_C@_0CI@DDAJHJKO@?$CFs?5?9?5unsupported?5type?5in?5dialog?5@ 1000dc58     service.obj
 0001:0000cc80       ??_C@_0CD@JIANOKII@unsupported?5flag?5in?5dialog?5item?5@ 1000dc80     service.obj
 0001:0000cca4       ??_C@_0CB@EOGFCCCC@value?5at?5index?5?$CFd?5is?5not?5a?5table@ 1000dca4     service.obj
 0001:0000ccc8       ??_C@_0O@FEBHKEHB@closed?5dialog?$AA@ 1000dcc8     service.obj
 0001:0000ccd8       ??_C@_0BK@NEMPGLFN@operation?5not?5implemented?$AA@ 1000dcd8     service.obj
 0001:0000ccf4       ??_C@_05FNNGFGLF@Index?$AA@ 1000dcf4     service.obj
 0001:0000ccfc       ??_C@_09OGCBKCAK@MaxLength?$AA@ 1000dcfc     service.obj
 0001:0000cd08       ??_C@_06DJONBJOP@TopPos?$AA@ 1000dd08     service.obj
 0001:0000cd10       ??_C@_09IMOCKOO@SelectPos?$AA@ 1000dd10     service.obj
 0001:0000cd1c       ??_C@_07NOCIGAPP@Pattern?$AA@ 1000dd1c     service.obj
 0001:0000cd24       ??_C@_05IJGIMMHE@Count?$AA@ 1000dd24     service.obj
 0001:0000cd2c       ??_C@_0L@CECHCPAP@StartIndex?$AA@ 1000dd2c     service.obj
 0001:0000cd38       ??_C@_0CK@JHNDGJBB@element?5?$CD?$CFd?5in?5argument?5?$CD4?5is?5no@ 1000dd38     service.obj
 0001:0000cd64       ??_C@_05DADPALEM@Right?$AA@ 1000dd64     service.obj
 0001:0000cd6c       ??_C@_03PGGAENPN@Top?$AA@  1000dd6c     service.obj
 0001:0000cd70       ??_C@_04KPCPLBPL@Left?$AA@ 1000dd70     service.obj
 0001:0000cd78       ??_C@_05LPIJGKJ@Value?$AA@ 1000dd78     service.obj
 0001:0000cd80       ??_C@_07MMLMCDAI@ValType?$AA@ 1000dd80     service.obj
 0001:0000cd88       ??_C@_07GHGHLGFI@GetType?$AA@ 1000dd88     service.obj
 0001:0000cd90       ??_C@_0P@NABDHFON@getvaluestring?$AA@ 1000dd90     service.obj
 0001:0000cda0       ??_C@_0L@LPFMIAHH@helpstring?$AA@ 1000dda0     service.obj
 0001:0000cdac       ??_C@_0BJ@IINAPFDG@Items?$FL?$CFd?$FN?5is?5not?5a?5table?$AA@ 1000ddac     service.obj
 0001:0000cdc8       ??_C@_0CC@GBOJFNBI@error?5occured?5in?5dialog?5procedur@ 1000ddc8     service.obj
 0001:0000cdec       ??_C@_0M@EHMONPJO@?$CFs?5?$CIclosed?$CJ?$AA@ 1000ddec     service.obj
 0001:0000cdf8       ??_C@_07FBAHDBGN@CurMode?$AA@ 1000ddf8     service.obj
 0001:0000ce00       ??_C@_07MJHBHMFM@FilePos?$AA@ 1000de00     service.obj
 0001:0000ce08       ??_C@_08GDAJJKGC@ViewerID?$AA@ 1000de08     service.obj
 0001:0000ce14       ??_C@_06IMBBKDFH@iParam?$AA@ 1000de14     service.obj
 0001:0000ce1c       ??_C@_1CA@PCDNIBFH@?$AAE?$AAn?$AAt?$AAe?$AAr?$AA?5?$AAt?$AAh?$AAe?$AA?5?$AAt?$AAe?$AAx?$AAt?$AA?3?$AA?$AA@ 1000de1c     service.obj
 0001:0000ce3c       ??_C@_1BE@CGKCNEEP@?$AAI?$AAn?$AAp?$AAu?$AAt?$AA?5?$AAB?$AAo?$AAx?$AA?$AA@ 1000de3c     service.obj
 0001:0000ce50       ??_C@_0BG@GAFLOAPP@command?5not?5supported?$AA@ 1000de50     service.obj
 0001:0000ce68       ??_C@_08NNKIOIN@TypeName?$AA@ 1000de68     service.obj
 0001:0000ce74       ??_C@_03FCCPIJGJ@Pos?$AA@  1000de74     service.obj
 0001:0000ce78       ??_C@_0P@DJOANNIK@?$CFd?4?$CFd?4?$CFd?4?$CFd?4?$CFd?$AA@ 1000de78     service.obj
 0001:0000ce88       ??_C@_05KGEAEGFG@Total?$AA@ 1000de88     service.obj
 0001:0000ce90       __real@4059000000000000    1000de90     service.obj
 0001:0000ce98       ??_C@_09MIJAKHKB@Completed?$AA@ 1000de98     service.obj
 0001:0000cea4       ??_C@_06HBEFEBCM@ErrSrc?$AA@ 1000dea4     service.obj
 0001:0000ceac       ??_C@_07KACFJJFN@ErrPosY?$AA@ 1000deac     service.obj
 0001:0000ceb4       ??_C@_07LJDOKIBM@ErrPosX?$AA@ 1000deb4     service.obj
 0001:0000cebc       ??_C@_07ONPPLIAF@ErrCode?$AA@ 1000debc     service.obj
 0001:0000cec4       ??_C@_03CAOIPBNL@arg?$AA@  1000dec4     service.obj
 0001:0000cec8       ??_C@_04CIMGMMMG@text?$AA@ 1000dec8     service.obj
 0001:0000ced0       ??_C@_06GBEMGMMA@?$CF?$CKd?$CFs?5?$AA@ 1000ded0     service.obj
 0001:0000ced8       ??_C@_0CH@OINAPBOJ@tostring?$CI?$CJ?5returned?5a?5non?9string@ 1000ded8     service.obj
 0001:0000cf00       ??_C@_0CC@JIGPFMKG@global?5?$GAtostring?8?5is?5not?5functio@ 1000df00     service.obj
 0001:0000cf24       ??_C@_06LDIMCHFC@?$CF?$CKs?$CFs?5?$AA@ 1000df24     service.obj
 0001:0000cf30       ??_C@_0ME@JDKAEDFJ@local?5items?0n?$DN?4?4?4?6local?5bottom?$DNn@ 1000df30     service.obj
 0001:0000cff4       ??_C@_0CG@FGNNCNLL@attempt?5to?5access?5invalid?5file?5f@ 1000dff4     service.obj
 0001:0000d01c       ??_C@_07BJOIOONN@Strings?$AA@ 1000e01c     service.obj
 0001:0000d024       ??_C@_05HMEFBOHK@GInfo?$AA@ 1000e024     service.obj
 0001:0000d02c       ??_C@_05GCJGCMFJ@PInfo?$AA@ 1000e02c     service.obj
 0001:0000d034       ??_C@_0N@IEACHFBM@PluginConfig?$AA@ 1000e034     service.obj
 0001:0000d044       ??_C@_0L@NHENMPLN@PluginMenu?$AA@ 1000e044     service.obj
 0001:0000d050       ??_C@_08FGAFMHLF@DiskMenu?$AA@ 1000e050     service.obj
 0001:0000d05c       ??_C@_0N@GAMEMCEE@invalid?5GUID?$AA@ 1000e05c     service.obj
 0001:0000d06c       ??_C@_0BP@NJEEOHDB@attempt?5to?5access?5closed?5timer?$AA@ 1000e06c     service.obj
 0001:0000d08c       ??_C@_0CE@LHJCBGGH@attempt?5to?5call?5non?9existent?5met@ 1000e08c     service.obj
 0001:0000d0b0       ??_C@_06EFCDMIMC@Closed?$AA@ 1000e0b0     service.obj
 0001:0000d0b8       ??_C@_07CIINKFND@OnTimer?$AA@ 1000e0b8     service.obj
 0001:0000d0c0       ??_C@_08KDKDEPAG@Interval?$AA@ 1000e0c0     service.obj
 0001:0000d0cc       ??_C@_07DOAOMMKG@Enabled?$AA@ 1000e0cc     service.obj
 0001:0000d0d4       ??_C@_05LGELBCGM@Close?$AA@ 1000e0d4     service.obj
 0001:0000d0dc       ??_C@_0BO@PNFLEJKN@attempt?5to?5access?5a?5closed?5?$CFs?$AA@ 1000e0dc     service.obj
 0001:0000d0fc       ??_C@_04LADJNOK@Lock?$AA@  1000e0fc     service.obj
 0001:0000d104       ??_C@_04OKOFBOPB@Time?$AA@ 1000e104     service.obj
 0001:0000d10c       ??_C@_1CC@OPOAGCKN@?$AA?2?$AAl?$AAu?$AAa?$AAf?$AAa?$AAr?$AA_?$AAi?$AAn?$AAi?$AAt?$AA?4?$AAl?$AAu?$AAa?$AA?$AA@ 1000e10c     service.obj
 0001:0000d130       ??_C@_1BG@BDOBMIBP@?$AAF?$AAA?$AAR?$AAP?$AAR?$AAO?$AAF?$AAI?$AAL?$AAE?$AA?$AA@ 1000e130     service.obj
 0001:0000d148       ??_C@_08BNNFLGCJ@loadfile?$AA@ 1000e148     service.obj
 0001:0000d154       ??_C@_06ONNDGCDK@dofile?$AA@ 1000e154     service.obj
 0001:0000d15c       ??_C@_04LHHHFLPP@utf8?$AA@ 1000e15c     service.obj
 0001:0000d164       ??_C@_03OFAPEBGM@?$CFs?6?$AA@ 1000e164     service.obj
 0001:0000d168       ??_C@_06BPGFKLEK@__mode?$AA@ 1000e168     service.obj
 0001:0000d170       ??_C@_01DICPFPGM@k?$AA@    1000e170     service.obj
 0001:0000d174       ??_C@_06DGPPOJKF@viewer?$AA@ 1000e174     service.obj
 0001:0000d17c       ??_C@_06GIFLLBB@editor?$AA@ 1000e17c     service.obj
 0001:0000d184       ??_C@_0BC@JJHHFNMP@FarMacroCallToLua?$AA@ 1000e184     service.obj
 0001:0000d198       ??_C@_0N@ECMJOJJG@MacroCallFar?$AA@ 1000e198     service.obj
 0001:0000d1a8       ??_C@_09GCBMKPBD@utf8valid?$AA@ 1000e1a8     slnunico.obj
 0001:0000d1b4       ??_C@_05NECKJAMC@upper?$AA@ 1000e1b4     slnunico.obj
 0001:0000d1bc       ??_C@_07KOIEOCCE@reverse?$AA@ 1000e1bc     slnunico.obj
 0001:0000d1c4       ??_C@_03HOKODIMJ@rep?$AA@  1000e1c4     slnunico.obj
 0001:0000d1c8       ??_C@_05IPJEPLHL@lower?$AA@ 1000e1c8     slnunico.obj
 0001:0000d1d0       ??_C@_03BKCJCHLK@len?$AA@  1000e1d0     slnunico.obj
 0001:0000d1d4       ??_C@_05EIEIBDFD@gfind?$AA@ 1000e1d4     slnunico.obj
 0001:0000d1dc       ??_C@_06DLEPGFEF@format?$AA@ 1000e1dc     slnunico.obj
 0001:0000d1e4       ??_C@_04GGLOKIEE@dump?$AA@ 1000e1e4     slnunico.obj
 0001:0000d1ec       ??_C@_04ENMBGAPA@char?$AA@ 1000e1ec     slnunico.obj
 0001:0000d1f4       ??_C@_04IHGKJMLH@byte?$AA@ 1000e1f4     slnunico.obj
 0001:0000d288       ??_C@_04GMGOKAFF@mode?$AA@ 1000e288     slnunico.obj
 0001:0000d290       ??_C@_0BG@DFAIEAEC@string?5slice?5too?5long?$AA@ 1000e290     slnunico.obj
 0001:0000d2a8       ??_C@_0O@EAJJMEEM@invalid?5value?$AA@ 1000e2a8     slnunico.obj
 0001:0000d2b8       ??_C@_0BO@BNLBHKJN@unable?5to?5dump?5given?5function?$AA@ 1000e2b8     slnunico.obj
 0001:0000d2d8       ??_C@_0BG@LEHNKOGD@invalid?5capture?5index?$AA@ 1000e2d8     slnunico.obj
 0001:0000d2f0       ??_C@_0BI@ECNPHIBF@invalid?5pattern?5capture?$AA@ 1000e2f0     slnunico.obj
 0001:0000d308       ??_C@_0CD@PLJBIEHA@malformed?5pattern?5?$CIends?5with?5?8?$CF?$CF@ 1000e308     slnunico.obj
 0001:0000d32c       ??_C@_0CA@CFGACOGB@malformed?5pattern?5?$CImissing?5?8?$FN?8?$CJ?$AA@ 1000e32c     slnunico.obj
 0001:0000d34c       ??_C@_0BD@NGJIMPLI@unbalanced?5pattern?$AA@ 1000e34c     slnunico.obj
 0001:0000d360       ??_C@_0BC@IMEAEJPD@too?5many?5captures?$AA@ 1000e360     slnunico.obj
 0001:0000d374       ??_C@_0BD@BFKNEALP@unfinished?5capture?$AA@ 1000e374     slnunico.obj
 0001:0000d388       ??_C@_0L@NLFJOONJ@?$FO$?$CK?$CL?$DP?4?$CI?$FL?$CF?9?$AA@ 1000e388     slnunico.obj
 0001:0000d394       ??_C@_0CO@MAGJPEI@?8string?4gfind?8?5was?5renamed?5to?5?8s@ 1000e394     slnunico.obj
 0001:0000d3c4       ??_C@_0BP@PPPOBACA@string?1function?1table?5expected?$AA@ 1000e3c4     slnunico.obj
 0001:0000d3e4       ??_C@_0CB@LPDIHGGA@invalid?5replacement?5value?5?$CIa?5?$CFs?$CJ@ 1000e3e4     slnunico.obj
 0001:0000d408       ??_C@_04MPDIABOK@?2000?$AA@ 1000e408     slnunico.obj
 0001:0000d410       ??_C@_02HIBBOKEN@?2r?$AA@  1000e410     slnunico.obj
 0001:0000d414       ??_C@_0CN@KALFEKPN@invalid?5format?5?$CIwidth?5or?5precisi@ 1000e414     slnunico.obj
 0001:0000d444       ??_C@_0CA@COOMGCAO@invalid?5format?5?$CIrepeated?5flags?$CJ?$AA@ 1000e444     slnunico.obj
 0001:0000d464       ??_C@_05GGBDHNF@?9?$CL?5?$CD0?$AA@ 1000e464     slnunico.obj
 0001:0000d46c       ??_C@_0CC@KIPBEOBI@invalid?5option?5?8?$CF?$CF?$CFc?8?5to?5?8format@ 1000e46c     slnunico.obj
 0001:0000d490       ??_C@_0N@DKIDGKBP@unicode?4utf8?$AA@ 1000e490     slnunico.obj
 0001:0000d4a0       ??_C@_0BB@EFCDCNG@unicode?4grapheme?$AA@ 1000e4a0     slnunico.obj
 0001:0000d4b4       ??_C@_0P@CMOFLLND@unicode?4latin1?$AA@ 1000e4b4     slnunico.obj
 0001:0000d4c4       ??_C@_0O@EJMKHGFJ@unicode?4ascii?$AA@ 1000e4c4     slnunico.obj
 0001:0000d4d4       ??_C@_07HHBPNGAN@setvbuf?$AA@ 1000e4d4     uliolib51.obj
 0001:0000d4dc       ??_C@_04EDECCOGL@seek?$AA@ 1000e4dc     uliolib51.obj
 0001:0000d4e4       ??_C@_05NGFEDHGN@write?$AA@ 1000e4e4     uliolib51.obj
 0001:0000d4ec       ??_C@_07FKJPAINK@tmpfile?$AA@ 1000e4ec     uliolib51.obj
 0001:0000d4f4       ??_C@_05IACAFMHP@popen?$AA@ 1000e4f4     uliolib51.obj
 0001:0000d4fc       ??_C@_05DENOCHIP@lines?$AA@ 1000e4fc     uliolib51.obj
 0001:0000d504       ??_C@_05GLCAEPFP@flush?$AA@ 1000e504     uliolib51.obj
 0001:0000d50c       ??_C@_05LBOHBHFK@close?$AA@ 1000e50c     uliolib51.obj
 0001:0000d514       ??_C@_04HJPCFDOP@line?$AA@ 1000e514     uliolib51.obj
 0001:0000d51c       ??_C@_04PLMLMMEO@full?$AA@ 1000e51c     uliolib51.obj
 0001:0000d524       ??_C@_02KAJCLHKP@no?$AA@   1000e524     uliolib51.obj
 0001:0000d528       ??_C@_03JBJLGPFL@end?$AA@  1000e528     uliolib51.obj
 0001:0000d52c       ??_C@_03LIBLMJMB@cur?$AA@  1000e52c     uliolib51.obj
 0001:0000d530       ??_C@_03KCHOJKKI@set?$AA@  1000e530     uliolib51.obj
 0001:0000d534       ??_C@_06DKIGHACF@output?$AA@ 1000e534     uliolib51.obj
 0001:0000d53c       ??_C@_05DFJCHPDH@input?$AA@ 1000e53c     uliolib51.obj
 0001:0000d638       ??_C@_02DKCKIIND@?$CFs?$AA@ 1000e638     uliolib51.obj
 0001:0000d63c       ??_C@_06DJHOIPC@?$CFs?3?5?$CFs?$AA@ 1000e63c     uliolib51.obj
 0001:0000d644       ??_C@_04DAMGJPCA@file?$AA@ 1000e644     uliolib51.obj
 0001:0000d64c       ??_C@_0M@IBKPHHKH@closed?5file?$AA@ 1000e64c     uliolib51.obj
 0001:0000d658       ??_C@_05KCHOJJD@FILE?$CK?$AA@ 1000e658     uliolib51.obj
 0001:0000d660       ??_C@_0BN@LPOOHAOM@attempt?5to?5use?5a?5closed?5file?$AA@ 1000e660     uliolib51.obj
 0001:0000d680       ??_C@_0BL@PEFGCPAG@cannot?5close?5standard?5file?$AA@ 1000e680     uliolib51.obj
 0001:0000d69c       ??_C@_07DMJMBBKE@__close?$AA@ 1000e69c     uliolib51.obj
 0001:0000d6a4       ??_C@_09BPMAMLLD@file?5?$CI?$CFp?$CJ?$AA@ 1000e6a4     uliolib51.obj
 0001:0000d6b0       ??_C@_0O@PLFAPHPG@file?5?$CIclosed?$CJ?$AA@ 1000e6b0     uliolib51.obj
 0001:0000d6c0       ??_C@_0CP@DHGANCPP@invalid?5mode?5?8?$CFs?8?5?$CIshould?5match?5@ 1000e6c0     uliolib51.obj
 0001:0000d6f0       ??_C@_17OBBFBLGE@?$AAr?$AAw?$AAa?$AA?$AA@ 1000e6f0     uliolib51.obj
 0001:0000d6f8       ??_C@_0BL@JMNLNGCA@standard?5?$CFs?5file?5is?5closed?$AA@ 1000e6f8     uliolib51.obj
 0001:0000d714       ??_C@_13CIFDLIMG@?$AAw?$AA?$AA@ 1000e714     uliolib51.obj
 0001:0000d718       ??_C@_03DLDNIBIK@?$CFlf?$AA@ 1000e718     uliolib51.obj
 0001:0000d71c       ??_C@_0P@CENJCLHM@invalid?5format?$AA@ 1000e71c     uliolib51.obj
 0001:0000d72c       ??_C@_0P@PJFAGLMH@invalid?5option?$AA@ 1000e72c     uliolib51.obj
 0001:0000d73c       ??_C@_0BD@IOJAAODF@too?5many?5arguments?$AA@ 1000e73c     uliolib51.obj
 0001:0000d750       ??_C@_0BH@PBGIDLEF@file?5is?5already?5closed?$AA@ 1000e750     uliolib51.obj
 0001:0000d768       ??_C@_05CGOEHEFE@?$CF?414g?$AA@ 1000e768     uliolib51.obj
 0001:0000d770       ??_C@_06FJGNEBG@stderr?$AA@ 1000e770     uliolib51.obj
 0001:0000d778       ??_C@_06DJDOIFHB@stdout?$AA@ 1000e778     uliolib51.obj
 0001:0000d780       ??_C@_05MHOFLBOO@stdin?$AA@ 1000e780     uliolib51.obj
 0001:0000d788       ??_C@_07FFLLPPLH@require?$AA@ 1000e788     uloadlib51.obj
 0001:0000d790       ??_C@_06BIEEJMKO@module?$AA@ 1000e790     uloadlib51.obj
 0001:0000d798       ??_C@_06LNOHAKGK@seeall?$AA@ 1000e798     uloadlib51.obj
 0001:0000d7a0       ??_C@_07KOEABFCN@loadlib?$AA@ 1000e7a0     uloadlib51.obj
 0001:0000d7f0       ??_C@_0BN@GMPFCLAN@unable?5to?5get?5ModuleFileName?$AA@ 1000e7f0     uloadlib51.obj
 0001:0000d810       ??_C@_13MGDFOILI@?$AA?$CB?$AA?$AA@ 1000e810     uloadlib51.obj
 0001:0000d814       ??_C@_08HNNNOMMJ@_LOADLIB?$AA@ 1000e814     uloadlib51.obj
 0001:0000d820       ??_C@_04HDOCAJNK@?$CFs?$CFs?$AA@ 1000e820     uloadlib51.obj
 0001:0000d828       ??_C@_09GMLHALBF@LOADLIB?3?5?$AA@ 1000e828     uloadlib51.obj
 0001:0000d834       ??_C@_04HKFDNBLD@init?$AA@ 1000e834     uloadlib51.obj
 0001:0000d83c       ??_C@_0P@NEBKIMDC@?6?7no?5file?5?8?$CFs?8?$AA@ 1000e83c     uloadlib51.obj
 0001:0000d84c       ??_C@_13HGPDMIBE@?$AA?$DP?$AA?$AA@ 1000e84c     uloadlib51.obj
 0001:0000d850       ??_C@_0CE@EPEHLLIH@?8package?4?$CFs?8?5contains?5invalid?5UT@ 1000e850     uloadlib51.obj
 0001:0000d874       ??_C@_0BO@COFCKCAL@?8package?4?$CFs?8?5must?5be?5a?5string?$AA@ 1000e874     uloadlib51.obj
 0001:0000d894       ??_C@_13JOFGPIOO@?$AA?4?$AA?$AA@ 1000e894     uloadlib51.obj
 0001:0000d898       ??_C@_13FPGAJAPJ@?$AA?2?$AA?$AA@ 1000e898     uloadlib51.obj
 0001:0000d89c       ??_C@_0CO@KHMIPLKM@error?5loading?5module?5?8?$CFs?8?5from?5f@ 1000e89c     uloadlib51.obj
 0001:0000d8cc       ??_C@_04LNEJFJGI@path?$AA@ 1000e8cc     uloadlib51.obj
 0001:0000d8d4       ??_C@_0L@KHKMBFOE@luaopen_?$CFs?$AA@ 1000e8d4     uloadlib51.obj
 0001:0000d8e0       ??_C@_01LFCBOECM@?4?$AA@   1000e8e0     uloadlib51.obj
 0001:0000d8e4       ??_C@_01IDAFKMJL@_?$AA@    1000e8e4     uloadlib51.obj
 0001:0000d8e8       ??_C@_05EEMJHCCC@cpath?$AA@ 1000e8e8     uloadlib51.obj
 0001:0000d8f0       ??_C@_0BO@KOILFIGK@?6?7no?5module?5?8?$CFs?8?5in?5file?5?8?$CFs?8?$AA@ 1000e8f0     uloadlib51.obj
 0001:0000d910       ??_C@_0CB@NPNABMBF@?6?7no?5field?5package?4preload?$FL?8?$CFs?8?$FN@ 1000e910     uloadlib51.obj
 0001:0000d934       ??_C@_0CC@CCJHFBLH@?8package?4preload?8?5must?5be?5a?5tabl@ 1000e934     uloadlib51.obj
 0001:0000d958       ??_C@_0BJ@HFHHABH@module?5?8?$CFs?8?5not?5found?3?$CFs?$AA@ 1000e958     uloadlib51.obj
 0001:0000d974       ??_C@_0CC@IGEJMOFI@?8package?4loaders?8?5must?5be?5a?5tabl@ 1000e974     uloadlib51.obj
 0001:0000d998       ??_C@_07JAOCDFCG@loaders?$AA@ 1000e998     uloadlib51.obj
 0001:0000d9a0       ??_C@_0CL@DIEJCPFH@loop?5or?5previous?5error?5loading?5m@ 1000e9a0     uloadlib51.obj
 0001:0000d9cc       ??_C@_07PINPBNPB@_LOADED?$AA@ 1000e9cc     uloadlib51.obj
 0001:0000d9d4       ??_C@_0CI@GKOMOAFD@?8module?8?5not?5called?5from?5a?5Lua?5f@ 1000e9d4     uloadlib51.obj
 0001:0000d9fc       ??_C@_01INIBCBCB@f?$AA@    1000e9fc     uloadlib51.obj
 0001:0000da00       ??_C@_08HONLOGDK@_PACKAGE?$AA@ 1000ea00     uloadlib51.obj
 0001:0000da0c       ??_C@_05ICMCJINN@_NAME?$AA@ 1000ea0c     uloadlib51.obj
 0001:0000da14       ??_C@_02CCIJHOCI@_M?$AA@   1000ea14     uloadlib51.obj
 0001:0000da18       ??_C@_0BO@CBJIAGLF@name?5conflict?5for?5module?5?8?$CFs?8?$AA@ 1000ea18     uloadlib51.obj
 0001:0000da38       ??_C@_13GGAHEHIG@?$AA?$AB?$AA?$AA@ 1000ea38     uloadlib51.obj
 0001:0000da3c       ??_C@_15HKKNGJC@?$AA?$DL?$AA?$DL?$AA?$AA@ 1000ea3c     uloadlib51.obj
 0001:0000da44       ??_C@_17KOAMMDLI@?$AA?$DL?$AA?$AB?$AA?$DL?$AA?$AA@ 1000ea44     uloadlib51.obj
 0001:0000da4c       ??_C@_06IILMCCFO@loaded?$AA@ 1000ea4c     uloadlib51.obj
 0001:0000da54       ??_C@_06HEJKKHEK@config?$AA@ 1000ea54     uloadlib51.obj
 0001:0000da5c       ??_C@_1BE@CKNDCMBB@?$AA?2?$AA?6?$AA?$DL?$AA?6?$AA?$DP?$AA?6?$AA?$CB?$AA?6?$AA?9?$AA?$AA@ 1000ea5c     uloadlib51.obj
 0001:0000da70       ??_C@_1BE@EFNILHBI@?$AAL?$AAU?$AAA?$AA_?$AAC?$AAP?$AAA?$AAT?$AAH?$AA?$AA@ 1000ea70     uloadlib51.obj
 0001:0000da84       ??_C@_1DM@FGPGEDD@?$AA?4?$AA?2?$AA?$DP?$AA?4?$AAd?$AAl?$AAl?$AA?$DL?$AA?$CB?$AA?2?$AA?$DP?$AA?4?$AAd?$AAl?$AAl?$AA?$DL?$AA?$CB?$AA?2?$AAl?$AAo?$AAa?$AAd?$AAa?$AAl?$AAl?$AA?4?$AAd?$AAl?$AAl?$AA?$AA@ 1000ea84     uloadlib51.obj
 0001:0000dac0       ??_C@_1BC@ILFFIBFI@?$AAL?$AAU?$AAA?$AA_?$AAP?$AAA?$AAT?$AAH?$AA?$AA@ 1000eac0     uloadlib51.obj
 0001:0000dad8       ??_C@_1HE@JLDBNBHO@?$AA?4?$AA?2?$AA?$DP?$AA?4?$AAl?$AAu?$AAa?$AA?$DL?$AA?$CB?$AA?2?$AAl?$AAu?$AAa?$AA?2?$AA?$DP?$AA?4?$AAl?$AAu?$AAa?$AA?$DL?$AA?$CB?$AA?2?$AAl?$AAu?$AAa?$AA?2?$AA?$DP?$AA?2?$AAi?$AAn?$AAi?$AAt@ 1000ead8     uloadlib51.obj
 0001:0000db4c       ??_C@_04NOFELICG@lenW?$AA@ 1000eb4c     ustring.obj
 0001:0000db54       ??_C@_06FHFOAHML@system?$AA@ 1000eb54     ustring.obj
 0001:0000db5c       ??_C@_04GFOHBGIO@subW?$AA@ 1000eb5c     ustring.obj
 0001:0000db64       ??_C@_0BE@LJADKLBD@WideCharToMultiByte?$AA@ 1000eb64     ustring.obj
 0001:0000db78       ??_C@_04NDFIEGPL@Uuid?$AA@ 1000eb78     ustring.obj
 0001:0000db80       ??_C@_0M@GJGCILHG@Utf8ToUtf16?$AA@ 1000eb80     ustring.obj
 0001:0000db8c       ??_C@_09LCEKPEGC@Utf8ToOem?$AA@ 1000eb8c     ustring.obj
 0001:0000db98       ??_C@_0M@KJELMDJD@Utf16ToUtf8?$AA@ 1000eb98     ustring.obj
 0001:0000dba4       ??_C@_05PFDOMJEF@Sleep?$AA@ 1000eba4     ustring.obj
 0001:0000dbac       ??_C@_0M@KINCEKFL@SetFileAttr?$AA@ 1000ebac     ustring.obj
 0001:0000dbb8       ??_C@_0O@IHAPJIOC@SetCurrentDir?$AA@ 1000ebb8     ustring.obj
 0001:0000dbc8       ??_C@_0L@PMCLJMMJ@SearchPath?$AA@ 1000ebc8     ustring.obj
 0001:0000dbd4       ??_C@_0BA@MNJFBAJH@SHGetFolderPath?$AA@ 1000ebd4     ustring.obj
 0001:0000dbe4       ??_C@_0BC@NFCPMJFM@OutputDebugString?$AA@ 1000ebe4     ustring.obj
 0001:0000dbf8       ??_C@_09EPINLGBH@OemToUtf8?$AA@ 1000ebf8     ustring.obj
 0001:0000dc04       ??_C@_0BE@HCIKGJGE@MultiByteToWideChar?$AA@ 1000ec04     ustring.obj
 0001:0000dc18       ??_C@_0BD@IHIHPGDL@GlobalMemoryStatus?$AA@ 1000ec18     ustring.obj
 0001:0000dc2c       ??_C@_08OMCNFONF@GetOEMCP?$AA@ 1000ec2c     ustring.obj
 0001:0000dc38       ??_C@_0BH@KKAFOIJJ@GetLogicalDriveStrings?$AA@ 1000ec38     ustring.obj
 0001:0000dc50       ??_C@_0M@KHMMJMNI@GetFileAttr?$AA@ 1000ec50     ustring.obj
 0001:0000dc5c       ??_C@_0N@IIBOJKJ@GetDriveType?$AA@ 1000ec5c     ustring.obj
 0001:0000dc6c       ??_C@_0O@PIBBCLJF@GetCurrentDir?$AA@ 1000ec6c     ustring.obj
 0001:0000dc7c       ??_C@_09HLFMNDA@GetCPInfo?$AA@ 1000ec7c     ustring.obj
 0001:0000dc88       ??_C@_06FMJLOCAF@GetACP?$AA@ 1000ec88     ustring.obj
 0001:0000dc90       ??_C@_0BE@DEHGONAH@EnumSystemCodePages?$AA@ 1000ec90     ustring.obj
 0001:0000dca8       _ustring_funcs             1000eca8     ustring.obj
 0001:0000dd78       ??_C@_0BJ@MEAJDMDL@invalid?5multibyte?5string?$AA@ 1000ed78     ustring.obj
 0001:0000dd94       ??_C@_0BG@ELIKBHAO@invalid?5UTF?916?5string?$AA@ 1000ed94     ustring.obj
 0001:0000ddac       ??_C@_0N@IFJMFGJK@unknown?5type?$AA@ 1000edac     ustring.obj
 0001:0000ddbc       ??_C@_07BHCBOAMP@ramdisk?$AA@ 1000edbc     ustring.obj
 0001:0000ddc4       ??_C@_05POABADMF@cdrom?$AA@ 1000edc4     ustring.obj
 0001:0000ddcc       ??_C@_06IMIHEKN@remote?$AA@ 1000edcc     ustring.obj
 0001:0000ddd4       ??_C@_05OFLEIIDM@fixed?$AA@ 1000edd4     ustring.obj
 0001:0000dddc       ??_C@_09HPGMKNKO@removable?$AA@ 1000eddc     ustring.obj
 0001:0000dde8       ??_C@_0BC@GPFCFLGN@no?5root?5directory?$AA@ 1000ede8     ustring.obj
 0001:0000ddfc       ??_C@_0P@KJDDGAFH@FileAttributes?$AA@ 1000edfc     ustring.obj
 0001:0000de0c       ??_C@_07JOJHCKGP@ustring?$AA@ 1000ee0c     ustring.obj
 0001:0000de14       ??_C@_0BB@BLJKPILH@system?5error?5?$CFd?6?$AA@ 1000ee14     ustring.obj
 0001:0000de28       ??_C@_0N@DJCOCBOB@CodePageName?$AA@ 1000ee28     ustring.obj
 0001:0000de38       ??_C@_0BD@CBNPFFPH@UnicodeDefaultChar?$AA@ 1000ee38     ustring.obj
 0001:0000de4c       ??_C@_08HIIJAENB@LeadByte?$AA@ 1000ee4c     ustring.obj
 0001:0000de58       ??_C@_0M@IMOFNPBB@DefaultChar?$AA@ 1000ee58     ustring.obj
 0001:0000de64       ??_C@_0M@KJGJBDLL@MaxCharSize?$AA@ 1000ee64     ustring.obj
 0001:0000de70       ??_C@_0BF@KKNLCGDE@AvailExtendedVirtual?$AA@ 1000ee70     ustring.obj
 0001:0000de88       ??_C@_0N@EGHLANBF@AvailVirtual?$AA@ 1000ee88     ustring.obj
 0001:0000de98       ??_C@_0N@LCJEOHMM@TotalVirtual?$AA@ 1000ee98     ustring.obj
 0001:0000dea8       ??_C@_0O@LLHOKNF@AvailPageFile?$AA@ 1000eea8     ustring.obj
 0001:0000deb8       ??_C@_0O@PEEMGPEP@TotalPageFile?$AA@ 1000eeb8     ustring.obj
 0001:0000dec8       ??_C@_09KFOEOLH@AvailPhys?$AA@ 1000eec8     ustring.obj
 0001:0000ded4       ??_C@_09MMAOIBBJ@TotalPhys?$AA@ 1000eed4     ustring.obj
 0001:0000dee0       ??_C@_0L@PLJFMBIJ@MemoryLoad?$AA@ 1000eee0     ustring.obj
 0001:0000e710       ??_C@_0DJ@KKHMCMAP@bad?5field?5?$FL?$CFd?$FN?5in?5table?5stackpos@ 1000f710     util.obj
 0001:0000e74c       ??_C@_0DJ@PFHHGAMM@bad?5field?5?8?$CFs?8?5in?5table?5stackpos@ 1000f74c     util.obj
 0001:0000e788       ??_C@_06EBGNBFIA@number?$AA@ 1000f788     util.obj
 0001:0000e790       ??_C@_06DNONFAKH@wcscmp?$AA@ 1000f790     win.obj
 0001:0000e798       ??_C@_0BF@HBHGIPOG@SystemTimeToFileTime?$AA@ 1000f798     win.obj
 0001:0000e7b0       ??_C@_0N@BFFIJKHB@ShellExecute?$AA@ 1000f7b0     win.obj
 0001:0000e7c0       ??_C@_09ELCNCICB@SetRegKey?$AA@ 1000f7c0     win.obj
 0001:0000e7cc       ??_C@_06LDCDJLBI@SetEnv?$AA@ 1000f7cc     win.obj
 0001:0000e7d4       ??_C@_0L@HBAGBENL@RenameFile?$AA@ 1000f7d4     win.obj
 0001:0000e7e0       ??_C@_09EDKALOCB@RemoveDir?$AA@ 1000f7e0     win.obj
 0001:0000e7ec       ??_C@_08CALLHOCI@MoveFile?$AA@ 1000f7ec     win.obj
 0001:0000e7f8       ??_C@_0P@GGGHOPAD@GetVirtualKeys?$AA@ 1000f7f8     win.obj
 0001:0000e808       ??_C@_0BI@ENMDHCMK@GetSystemTimeAsFileTime?$AA@ 1000f808     win.obj
 0001:0000e820       ??_C@_09GFGIAJLD@GetRegKey?$AA@ 1000f820     win.obj
 0001:0000e82c       ??_C@_0M@EINGHLOA@GetFileInfo?$AA@ 1000f82c     win.obj
 0001:0000e838       ??_C@_06CALCCDMF@GetEnv?$AA@ 1000f838     win.obj
 0001:0000e840       ??_C@_0BL@NAIJNMLL@GetConsoleScreenBufferInfo?$AA@ 1000f840     win.obj
 0001:0000e85c       ??_C@_0BF@KPJNHALE@FileTimeToSystemTime?$AA@ 1000f85c     win.obj
 0001:0000e874       ??_C@_0BI@EKFDIGHI@FileTimeToLocalFileTime?$AA@ 1000f874     win.obj
 0001:0000e88c       ??_C@_0L@MGMEFCAE@ExtractKey?$AA@ 1000f88c     win.obj
 0001:0000e898       ??_C@_0N@PFFNCIBD@EnumRegValue?$AA@ 1000f898     win.obj
 0001:0000e8a8       ??_C@_0L@DGAGCFOP@EnumRegKey?$AA@ 1000f8a8     win.obj
 0001:0000e8b4       ??_C@_0N@FOJPHHPH@DeleteRegKey?$AA@ 1000f8b4     win.obj
 0001:0000e8c4       ??_C@_0L@GPLPOFDC@DeleteFile?$AA@ 1000f8c4     win.obj
 0001:0000e8d0       ??_C@_09INHPLKKM@CreateDir?$AA@ 1000f8d0     win.obj
 0001:0000e8dc       ??_C@_08PPLNFCGA@CopyFile?$AA@ 1000f8dc     win.obj
 0001:0000e8e8       ??_C@_0O@CFPMOCDP@CompareString?$AA@ 1000f8e8     win.obj
 0001:0000f118       _win_funcs                 10010118     win.obj
 0001:0000f1e0       ??_C@_0DA@DKALLFDI@must?5be?5?8HKLM?8?0?5?8HKCC?8?0?5?8HKCR?8?0?5@ 100101e0     win.obj
 0001:0000f210       ??_C@_03DLBIJLAB@HKU?$AA@  10010210     win.obj
 0001:0000f214       ??_C@_04KIFLFONO@HKCU?$AA@ 10010214     win.obj
 0001:0000f21c       ??_C@_04OHBKMIBJ@HKCR?$AA@ 1001021c     win.obj
 0001:0000f224       ??_C@_04LEMDOLAJ@HKCC?$AA@ 10010224     win.obj
 0001:0000f22c       ??_C@_04CBBMIBLK@HKLM?$AA@ 1001022c     win.obj
 0001:0000f234       ??_C@_0BH@NOJOGNJM@unsupported?5value?5type?$AA@ 10010234     win.obj
 0001:0000f24c       ??_C@_0M@PEGIPCHN@multistring?$AA@ 1001024c     win.obj
 0001:0000f258       ??_C@_0N@CBOMHLPN@expandstring?$AA@ 10010258     win.obj
 0001:0000f268       ??_C@_06FNFBAEBE@binary?$AA@ 10010268     win.obj
 0001:0000f270       ??_C@_05KDALNKAH@dword?$AA@ 10010270     win.obj
 0001:0000f278       ??_C@_0BI@COLHBIIE@RegQueryValueEx?5failed?4?$AA@ 10010278     win.obj
 0001:0000f290       ??_C@_0BD@MJODDCFG@OpenRegKey?5failed?4?$AA@ 10010290     win.obj
 0001:0000f2a4       ??_C@_0BG@HHFHBIKG@RegOpenKeyExW?5failed?4?$AA@ 100102a4     win.obj
 0001:0000f2bc       ??_C@_0O@HBAPEOKP@wMilliseconds?$AA@ 100102bc     win.obj
 0001:0000f2cc       ??_C@_07IIEDHHJN@wSecond?$AA@ 100102cc     win.obj
 0001:0000f2d4       ??_C@_07HPODENI@wMinute?$AA@ 100102d4     win.obj
 0001:0000f2dc       ??_C@_05BMOPCGDH@wHour?$AA@ 100102dc     win.obj
 0001:0000f2e4       ??_C@_04NBLBJIPP@wDay?$AA@ 100102e4     win.obj
 0001:0000f2ec       ??_C@_0L@OAHPHHP@wDayOfWeek?$AA@ 100102ec     win.obj
 0001:0000f2f8       ??_C@_06MGNNJGBJ@wMonth?$AA@ 100102f8     win.obj
 0001:0000f300       ??_C@_05DFPNHDMN@wYear?$AA@ 10010300     win.obj
 0001:0000f308       ??_C@_01LKDEMHDF@s?$AA@    10010308     win.obj
 0001:0000f30c       ??_C@_0BD@BKPAAFMJ@MaximumWindowSizeY?$AA@ 1001030c     win.obj
 0001:0000f320       ??_C@_0BD@DOLDEII@MaximumWindowSizeX?$AA@ 10010320     win.obj
 0001:0000f334       ??_C@_0N@JPIJCAOJ@WindowBottom?$AA@ 10010334     win.obj
 0001:0000f344       ??_C@_0M@HHPHMPGH@WindowRight?$AA@ 10010344     win.obj
 0001:0000f350       ??_C@_09JHGOALHG@WindowTop?$AA@ 10010350     win.obj
 0001:0000f35c       ??_C@_0L@NFCEOFBF@WindowLeft?$AA@ 1001035c     win.obj
 0001:0000f368       ??_C@_0BA@JJEFAHJN@CursorPositionY?$AA@ 10010368     win.obj
 0001:0000f378       ??_C@_0BA@IAFODGNM@CursorPositionX?$AA@ 10010378     win.obj
 0001:0000f388       ??_C@_0BJ@LPJMBJJL@directory?5already?5exists?$AA@ 10010388     win.obj
 0001:0000f3a4       ??_C@_01PFHFFBPC@t?$AA@    100103a4     win.obj
 0001:0000f3b0       __imp__EncodePointer@4     100103b0     vc_crt_fix.obj
 0001:0000f3b4       __imp__DecodePointer@4     100103b4     vc_crt_fix.obj
 0001:0000f3b8       __imp__GetModuleHandleExW@12 100103b8     vc_crt_fix.obj
 0001:0000f3d0       ??_C@_0O@NLDKAIKN@EncodePointer?$AA@ 100103d0     vc_crt_fix_impl.obj
 0001:0000f3e0       ??_C@_0O@KBPMFGHI@DecodePointer?$AA@ 100103e0     vc_crt_fix_impl.obj
 0001:0000f3f0       ??_C@_0BD@GIGEJCNH@GetModuleHandleExW?$AA@ 100103f0     vc_crt_fix_impl.obj
 0001:0000f404       __FPinit                   10010404     LIBCMT:_fpinit_.obj
 0001:0000f408       ??_C@_0EA@FCLIIPNN@Visual?5C?$CL?$CL?5CRT?3?5Not?5enough?5memor@ 10010408     LIBCMT:strerror.obj
 0001:0000f448       ??_C@_01KICIPPFI@?2?$AA@   10010448     LIBCMT:popen.obj
 0001:0000f44c       ??_C@_19IJOJOJIB@?$AAP?$AAA?$AAT?$AAH?$AA?$AA@ 1001044c     LIBCMT:wpopen.obj
 0001:0000f458       ??_C@_19FNCMDGGJ@?$AA?5?$AA?1?$AAc?$AA?5?$AA?$AA@ 10010458     LIBCMT:wpopen.obj
 0001:0000f464       ??_C@_1BA@DBKIDAPL@?$AAc?$AAm?$AAd?$AA?4?$AAe?$AAx?$AAe?$AA?$AA@ 10010464     LIBCMT:wpopen.obj
 0001:0000f474       ??_C@_1BA@HMCCKBDK@?$AAC?$AAO?$AAM?$AAS?$AAP?$AAE?$AAC?$AA?$AA@ 10010474     LIBCMT:wpopen.obj
 0001:0000f484       ??_C@_15JBFELBFC@?$AA?1?$AAc?$AA?$AA@ 10010484     LIBCMT:wsystem.obj
 0001:0000f48c       __pRawDllMain              1001048c     LIBCMT:dllcrt0.obj
 0001:0000f48c       __pDefaultRawDllMain       1001048c     LIBCMT:dllcrt0.obj
 0001:0000f490       ??_C@_05KLBDPFGC@e?$CL000?$AA@ 10010490     LIBCMT:cvt.obj
 0001:0000f498       ??_C@_1O@CEDCILHN@?$AA?$CI?$AAn?$AAu?$AAl?$AAl?$AA?$CJ?$AA?$AA@ 10010498     LIBCMT:output.obj
 0001:0000f4a8       ??_C@_06OJHGLDPL@?$CInull?$CJ?$AA@ 100104a8     LIBCMT:output.obj
 0001:0000f4b0       ___lookuptable             100104b0     LIBCMT:output.obj
 0001:0000f50c       ??_C@_0P@MIGLKIOC@CorExitProcess?$AA@ 1001050c     LIBCMT:crt0dat.obj
 0001:0000f51c       ??_C@_1BI@BGOHAHKC@?$AAm?$AAs?$AAc?$AAo?$AAr?$AAe?$AAe?$AA?4?$AAd?$AAl?$AAl?$AA?$AA@ 1001051c     LIBCMT:crt0dat.obj
 0001:0000f534       ??_C@_1BO@BKOMIGKJ@?$AAr?$AAu?$AAn?$AAt?$AAi?$AAm?$AAe?$AA?5?$AAe?$AAr?$AAr?$AAo?$AAr?$AA?5?$AA?$AA@ 10010534     LIBCMT:crt0msg.obj
 0001:0000f554       ??_C@_15JNBOKNOG@?$AA?$AN?$AA?6?$AA?$AA@ 10010554     LIBCMT:crt0msg.obj
 0001:0000f55c       ??_C@_1BM@JBBEPPHI@?$AAT?$AAL?$AAO?$AAS?$AAS?$AA?5?$AAe?$AAr?$AAr?$AAo?$AAr?$AA?$AN?$AA?6?$AA?$AA@ 1001055c     LIBCMT:crt0msg.obj
 0001:0000f578       ??_C@_1BK@KMOMNAAI@?$AAS?$AAI?$AAN?$AAG?$AA?5?$AAe?$AAr?$AAr?$AAo?$AAr?$AA?$AN?$AA?6?$AA?$AA@ 10010578     LIBCMT:crt0msg.obj
 0001:0000f594       ??_C@_1BO@BFCDCGC@?$AAD?$AAO?$AAM?$AAA?$AAI?$AAN?$AA?5?$AAe?$AAr?$AAr?$AAo?$AAr?$AA?$AN?$AA?6?$AA?$AA@ 10010594     LIBCMT:crt0msg.obj
 0001:0000f5b8       ??_C@_1BOO@KGEDBGAJ@?$AAR?$AA6?$AA0?$AA3?$AA3?$AA?$AN?$AA?6?$AA?9?$AA?5?$AAA?$AAt?$AAt?$AAe?$AAm?$AAp?$AAt?$AA?5?$AAt?$AAo?$AA?5?$AAu?$AAs?$AAe?$AA?5?$AAM?$AAS?$AAI?$AAL?$AA?5?$AAc?$AAo?$AAd@ 100105b8     LIBCMT:crt0msg.obj
 0001:0000f7a8       ??_C@_1GG@GOPILAJP@?$AAR?$AA6?$AA0?$AA3?$AA2?$AA?$AN?$AA?6?$AA?9?$AA?5?$AAn?$AAo?$AAt?$AA?5?$AAe?$AAn?$AAo?$AAu?$AAg?$AAh?$AA?5?$AAs?$AAp?$AAa?$AAc?$AAe?$AA?5?$AAf?$AAo?$AAr?$AA?5?$AAl?$AAo@ 100107a8     LIBCMT:crt0msg.obj
 0001:0000f810       ??_C@_1MG@ENCOOIDF@?$AAR?$AA6?$AA0?$AA3?$AA1?$AA?$AN?$AA?6?$AA?9?$AA?5?$AAA?$AAt?$AAt?$AAe?$AAm?$AAp?$AAt?$AA?5?$AAt?$AAo?$AA?5?$AAi?$AAn?$AAi?$AAt?$AAi?$AAa?$AAl?$AAi?$AAz?$AAe?$AA?5?$AAt@ 10010810     LIBCMT:crt0msg.obj
 0001:0000f8d8       ??_C@_1DO@BMFCDCD@?$AAR?$AA6?$AA0?$AA3?$AA0?$AA?$AN?$AA?6?$AA?9?$AA?5?$AAC?$AAR?$AAT?$AA?5?$AAn?$AAo?$AAt?$AA?5?$AAi?$AAn?$AAi?$AAt?$AAi?$AAa?$AAl?$AAi?$AAz?$AAe?$AAd?$AA?$AN?$AA?6?$AA?$AA@ 100108d8     LIBCMT:crt0msg.obj
 0001:0000f918       ??_C@_1EK@HHFLMAOL@?$AAR?$AA6?$AA0?$AA2?$AA8?$AA?$AN?$AA?6?$AA?9?$AA?5?$AAu?$AAn?$AAa?$AAb?$AAl?$AAe?$AA?5?$AAt?$AAo?$AA?5?$AAi?$AAn?$AAi?$AAt?$AAi?$AAa?$AAl?$AAi?$AAz?$AAe?$AA?5?$AAh?$AAe@ 10010918     LIBCMT:crt0msg.obj
 0001:0000f968       ??_C@_1GK@MFGOKLAG@?$AAR?$AA6?$AA0?$AA2?$AA7?$AA?$AN?$AA?6?$AA?9?$AA?5?$AAn?$AAo?$AAt?$AA?5?$AAe?$AAn?$AAo?$AAu?$AAg?$AAh?$AA?5?$AAs?$AAp?$AAa?$AAc?$AAe?$AA?5?$AAf?$AAo?$AAr?$AA?5?$AAl?$AAo@ 10010968     LIBCMT:crt0msg.obj
 0001:0000f9d8       ??_C@_1GK@MCAAGJMO@?$AAR?$AA6?$AA0?$AA2?$AA6?$AA?$AN?$AA?6?$AA?9?$AA?5?$AAn?$AAo?$AAt?$AA?5?$AAe?$AAn?$AAo?$AAu?$AAg?$AAh?$AA?5?$AAs?$AAp?$AAa?$AAc?$AAe?$AA?5?$AAf?$AAo?$AAr?$AA?5?$AAs?$AAt@ 100109d8     LIBCMT:crt0msg.obj
 0001:0000fa48       ??_C@_1EM@MAADIHMB@?$AAR?$AA6?$AA0?$AA2?$AA5?$AA?$AN?$AA?6?$AA?9?$AA?5?$AAp?$AAu?$AAr?$AAe?$AA?5?$AAv?$AAi?$AAr?$AAt?$AAu?$AAa?$AAl?$AA?5?$AAf?$AAu?$AAn?$AAc?$AAt?$AAi?$AAo?$AAn?$AA?5?$AAc@ 10010a48     LIBCMT:crt0msg.obj
 0001:0000fa98       ??_C@_1GK@FHCKBEFA@?$AAR?$AA6?$AA0?$AA2?$AA4?$AA?$AN?$AA?6?$AA?9?$AA?5?$AAn?$AAo?$AAt?$AA?5?$AAe?$AAn?$AAo?$AAu?$AAg?$AAh?$AA?5?$AAs?$AAp?$AAa?$AAc?$AAe?$AA?5?$AAf?$AAo?$AAr?$AA?5?$AA_?$AAo@ 10010a98     LIBCMT:crt0msg.obj
 0001:0000fb08       ??_C@_1FC@ECHBIFBC@?$AAR?$AA6?$AA0?$AA1?$AA9?$AA?$AN?$AA?6?$AA?9?$AA?5?$AAu?$AAn?$AAa?$AAb?$AAl?$AAe?$AA?5?$AAt?$AAo?$AA?5?$AAo?$AAp?$AAe?$AAn?$AA?5?$AAc?$AAo?$AAn?$AAs?$AAo?$AAl?$AAe?$AA?5@ 10010b08     LIBCMT:crt0msg.obj
 0001:0000fb60       ??_C@_1EC@JIBHAOPH@?$AAR?$AA6?$AA0?$AA1?$AA8?$AA?$AN?$AA?6?$AA?9?$AA?5?$AAu?$AAn?$AAe?$AAx?$AAp?$AAe?$AAc?$AAt?$AAe?$AAd?$AA?5?$AAh?$AAe?$AAa?$AAp?$AA?5?$AAe?$AAr?$AAr?$AAo?$AAr?$AA?$AN?$AA?6@ 10010b60     LIBCMT:crt0msg.obj
 0001:0000fba8       ??_C@_1FK@BEOGODMC@?$AAR?$AA6?$AA0?$AA1?$AA7?$AA?$AN?$AA?6?$AA?9?$AA?5?$AAu?$AAn?$AAe?$AAx?$AAp?$AAe?$AAc?$AAt?$AAe?$AAd?$AA?5?$AAm?$AAu?$AAl?$AAt?$AAi?$AAt?$AAh?$AAr?$AAe?$AAa?$AAd?$AA?5@ 10010ba8     LIBCMT:crt0msg.obj
 0001:0000fc08       ??_C@_1FI@LOGNIKDM@?$AAR?$AA6?$AA0?$AA1?$AA6?$AA?$AN?$AA?6?$AA?9?$AA?5?$AAn?$AAo?$AAt?$AA?5?$AAe?$AAn?$AAo?$AAu?$AAg?$AAh?$AA?5?$AAs?$AAp?$AAa?$AAc?$AAe?$AA?5?$AAf?$AAo?$AAr?$AA?5?$AAt?$AAh@ 10010c08     LIBCMT:crt0msg.obj
 0001:0000fc60       ??_C@_1EG@BEHAGFJD@?$AAR?$AA6?$AA0?$AA1?$AA0?$AA?$AN?$AA?6?$AA?9?$AA?5?$AAa?$AAb?$AAo?$AAr?$AAt?$AA?$CI?$AA?$CJ?$AA?5?$AAh?$AAa?$AAs?$AA?5?$AAb?$AAe?$AAe?$AAn?$AA?5?$AAc?$AAa?$AAl?$AAl?$AAe?$AAd@ 10010c60     LIBCMT:crt0msg.obj
 0001:0000fca8       ??_C@_1FI@HONFMGBI@?$AAR?$AA6?$AA0?$AA0?$AA9?$AA?$AN?$AA?6?$AA?9?$AA?5?$AAn?$AAo?$AAt?$AA?5?$AAe?$AAn?$AAo?$AAu?$AAg?$AAh?$AA?5?$AAs?$AAp?$AAa?$AAc?$AAe?$AA?5?$AAf?$AAo?$AAr?$AA?5?$AAe?$AAn@ 10010ca8     LIBCMT:crt0msg.obj
 0001:0000fd00       ??_C@_1FE@LLNEDJMD@?$AAR?$AA6?$AA0?$AA0?$AA8?$AA?$AN?$AA?6?$AA?9?$AA?5?$AAn?$AAo?$AAt?$AA?5?$AAe?$AAn?$AAo?$AAu?$AAg?$AAh?$AA?5?$AAs?$AAp?$AAa?$AAc?$AAe?$AA?5?$AAf?$AAo?$AAr?$AA?5?$AAa?$AAr@ 10010d00     LIBCMT:crt0msg.obj
 0001:0000fd58       ??_C@_1FK@PGACCAFB@?$AAR?$AA6?$AA0?$AA0?$AA2?$AA?$AN?$AA?6?$AA?9?$AA?5?$AAf?$AAl?$AAo?$AAa?$AAt?$AAi?$AAn?$AAg?$AA?5?$AAp?$AAo?$AAi?$AAn?$AAt?$AA?5?$AAs?$AAu?$AAp?$AAp?$AAo?$AAr?$AAt?$AA?5@ 10010d58     LIBCMT:crt0msg.obj
 0001:0000fe68       ??_C@_1EK@MBDPDCGA@?$AAM?$AAi?$AAc?$AAr?$AAo?$AAs?$AAo?$AAf?$AAt?$AA?5?$AAV?$AAi?$AAs?$AAu?$AAa?$AAl?$AA?5?$AAC?$AA?$CL?$AA?$CL?$AA?5?$AAR?$AAu?$AAn?$AAt?$AAi?$AAm?$AAe?$AA?5?$AAL?$AAi?$AAb@ 10010e68     LIBCMT:crt0msg.obj
 0001:0000feb4       ??_C@_15IABLJNFO@?$AA?6?$AA?6?$AA?$AA@ 10010eb4     LIBCMT:crt0msg.obj
 0001:0000febc       ??_C@_17LGKOMLJ@?$AA?4?$AA?4?$AA?4?$AA?$AA@ 10010ebc     LIBCMT:crt0msg.obj
 0001:0000fec4       ??_C@_1CO@EAEJAADC@?$AA?$DM?$AAp?$AAr?$AAo?$AAg?$AAr?$AAa?$AAm?$AA?5?$AAn?$AAa?$AAm?$AAe?$AA?5?$AAu?$AAn?$AAk?$AAn?$AAo?$AAw?$AAn?$AA?$DO?$AA?$AA@ 10010ec4     LIBCMT:crt0msg.obj
 0001:0000fef4       ??_C@_1DE@JNGNBFGO@?$AAR?$AAu?$AAn?$AAt?$AAi?$AAm?$AAe?$AA?5?$AAE?$AAr?$AAr?$AAo?$AAr?$AA?$CB?$AA?6?$AA?6?$AAP?$AAr?$AAo?$AAg?$AAr?$AAa?$AAm?$AA?3?$AA?5?$AA?$AA@ 10010ef4     LIBCMT:crt0msg.obj
 0001:0000ff60       ??_C@_0BG@KLEAJEFJ@Illegal?5byte?5sequence?$AA@ 10010f60     LIBCMT:syserr.obj
 0001:0000ff78       ??_C@_0BE@ICMCHPHH@Directory?5not?5empty?$AA@ 10010f78     LIBCMT:syserr.obj
 0001:0000ff8c       ??_C@_0BJ@IHEHINLI@Function?5not?5implemented?$AA@ 10010f8c     LIBCMT:syserr.obj
 0001:0000ffa8       ??_C@_0BD@CLHBCGPB@No?5locks?5available?$AA@ 10010fa8     LIBCMT:syserr.obj
 0001:0000ffbc       ??_C@_0BC@BEDIHIDK@Filename?5too?5long?$AA@ 10010fbc     LIBCMT:syserr.obj
 0001:0000ffd0       ??_C@_0BK@JAEBMJJM@Resource?5deadlock?5avoided?$AA@ 10010fd0     LIBCMT:syserr.obj
 0001:0000ffec       ??_C@_0BB@FCBJFCAJ@Result?5too?5large?$AA@ 10010fec     LIBCMT:syserr.obj
 0001:00010000       ??_C@_0N@MMJPGLJK@Domain?5error?$AA@ 10011000     LIBCMT:syserr.obj
 0001:00010010       ??_C@_0M@LHEPIIOM@Broken?5pipe?$AA@ 10011010     LIBCMT:syserr.obj
 0001:0001001c       ??_C@_0P@PKCJJLLM@Too?5many?5links?$AA@ 1001101c     LIBCMT:syserr.obj
 0001:0001002c       ??_C@_0BG@DDBFNKBH@Read?9only?5file?5system?$AA@ 1001102c     LIBCMT:syserr.obj
 0001:00010044       ??_C@_0N@FEHLOILP@Invalid?5seek?$AA@ 10011044     LIBCMT:syserr.obj
 0001:00010054       ??_C@_0BI@FEALHKLD@No?5space?5left?5on?5device?$AA@ 10011054     LIBCMT:syserr.obj
 0001:0001006c       ??_C@_0P@LFMMIPAE@File?5too?5large?$AA@ 1001106c     LIBCMT:syserr.obj
 0001:0001007c       ??_C@_0CE@ONOKNLPF@Inappropriate?5I?1O?5control?5operat@ 1001107c     LIBCMT:syserr.obj
 0001:000100a0       ??_C@_0BE@INBJMKGG@Too?5many?5open?5files?$AA@ 100110a0     LIBCMT:syserr.obj
 0001:000100b4       ??_C@_0BO@IIFBODJE@Too?5many?5open?5files?5in?5system?$AA@ 100110b4     LIBCMT:syserr.obj
 0001:000100d4       ??_C@_0BB@HMGGCEBG@Invalid?5argument?$AA@ 100110d4     LIBCMT:syserr.obj
 0001:000100e8       ??_C@_0P@NDHGCGKE@Is?5a?5directory?$AA@ 100110e8     LIBCMT:syserr.obj
 0001:000100f8       ??_C@_0BA@CJBACOOL@Not?5a?5directory?$AA@ 100110f8     LIBCMT:syserr.obj
 0001:00010108       ??_C@_0P@NLEIANHE@No?5such?5device?$AA@ 10011108     LIBCMT:syserr.obj
 0001:00010118       ??_C@_0O@OAMDNOCP@Improper?5link?$AA@ 10011118     LIBCMT:syserr.obj
 0001:00010128       ??_C@_0M@NAAJNNGH@File?5exists?$AA@ 10011128     LIBCMT:syserr.obj
 0001:00010134       ??_C@_0BA@BIBLIOEK@Resource?5device?$AA@ 10011134     LIBCMT:syserr.obj
 0001:00010144       ??_C@_0O@NIPGCINC@Unknown?5error?$AA@ 10011144     LIBCMT:syserr.obj
 0001:00010154       ??_C@_0M@LOEHLCJD@Bad?5address?$AA@ 10011154     LIBCMT:syserr.obj
 0001:00010160       ??_C@_0BC@HFNFNKAI@Permission?5denied?$AA@ 10011160     LIBCMT:syserr.obj
 0001:00010174       ??_C@_0BB@IMDKMPFB@Not?5enough?5space?$AA@ 10011174     LIBCMT:syserr.obj
 0001:00010188       ??_C@_0CB@EPFKGNAK@Resource?5temporarily?5unavailable@ 10011188     LIBCMT:syserr.obj
 0001:000101ac       ??_C@_0BD@LOHELEP@No?5child?5processes?$AA@ 100111ac     LIBCMT:syserr.obj
 0001:000101c0       ??_C@_0BE@NFGDDCEF@Bad?5file?5descriptor?$AA@ 100111c0     LIBCMT:syserr.obj
 0001:000101d4       ??_C@_0BC@HKPNECK@Exec?5format?5error?$AA@ 100111d4     LIBCMT:syserr.obj
 0001:000101e8       ??_C@_0BC@MFFGCDFL@Arg?5list?5too?5long?$AA@ 100111e8     LIBCMT:syserr.obj
 0001:000101fc       ??_C@_0BK@DPKMCKJ@No?5such?5device?5or?5address?$AA@ 100111fc     LIBCMT:syserr.obj
 0001:00010218       ??_C@_0BD@KKNFOBBD@Input?1output?5error?$AA@ 10011218     LIBCMT:syserr.obj
 0001:0001022c       ??_C@_0BK@FJBOAFDK@Interrupted?5function?5call?$AA@ 1001122c     LIBCMT:syserr.obj
 0001:00010248       ??_C@_0BA@FKIAIBGA@No?5such?5process?$AA@ 10011248     LIBCMT:syserr.obj
 0001:00010258       ??_C@_0BK@FMDHKPNF@No?5such?5file?5or?5directory?$AA@ 10011258     LIBCMT:syserr.obj
 0001:00010274       ??_C@_0BI@BJFCGOHL@Operation?5not?5permitted?$AA@ 10011274     LIBCMT:syserr.obj
 0001:0001028c       ??_C@_08INEPGKHH@No?5error?$AA@ 1001128c     LIBCMT:syserr.obj
 0001:00010298       ??_C@_1BK@DBDEIDLH@?$AAK?$AAE?$AAR?$AAN?$AAE?$AAL?$AA3?$AA2?$AA?4?$AAD?$AAL?$AAL?$AA?$AA@ 10011298     LIBCMT:tidtable.obj
 0001:000102b4       ??_C@_07PEJMOBNF@FlsFree?$AA@ 100112b4     LIBCMT:tidtable.obj
 0001:000102bc       ??_C@_0M@JCPCPOEF@FlsSetValue?$AA@ 100112bc     LIBCMT:tidtable.obj
 0001:000102c8       ??_C@_0M@GDNOONDI@FlsGetValue?$AA@ 100112c8     LIBCMT:tidtable.obj
 0001:000102d4       ??_C@_08KNHFBNJ@FlsAlloc?$AA@ 100112d4     LIBCMT:tidtable.obj
 0001:000102e0       ___newctype                100112e0     LIBCMT:ctype.obj
 0001:000105e0       __wctype                   100115e0     LIBCMT:ctype.obj
 0001:000107e8       ___newclmap                100117e8     LIBCMT:ctype.obj
 0001:00010968       ___newcumap                10011968     LIBCMT:ctype.obj
 0001:00010ae8       ??_C@_1BC@GDGBMEMK@?$AAH?$AAH?$AA?3?$AAm?$AAm?$AA?3?$AAs?$AAs?$AA?$AA@ 10011ae8     LIBCMT:nlsdata2.obj
 0001:00010afc       ??_C@_1CI@KNAKOEBC@?$AAd?$AAd?$AAd?$AAd?$AA?0?$AA?5?$AAM?$AAM?$AAM?$AAM?$AA?5?$AAd?$AAd?$AA?0?$AA?5?$AAy?$AAy?$AAy?$AAy?$AA?$AA@ 10011afc     LIBCMT:nlsdata2.obj
 0001:00010b24       ??_C@_1BC@IEBCMHCM@?$AAM?$AAM?$AA?1?$AAd?$AAd?$AA?1?$AAy?$AAy?$AA?$AA@ 10011b24     LIBCMT:nlsdata2.obj
 0001:00010b38       ??_C@_15CLMNNGEL@?$AAP?$AAM?$AA?$AA@ 10011b38     LIBCMT:nlsdata2.obj
 0001:00010b40       ??_C@_15ODEHAHHF@?$AAA?$AAM?$AA?$AA@ 10011b40     LIBCMT:nlsdata2.obj
 0001:00010b48       ??_C@_1BC@FEMKIFH@?$AAD?$AAe?$AAc?$AAe?$AAm?$AAb?$AAe?$AAr?$AA?$AA@ 10011b48     LIBCMT:nlsdata2.obj
 0001:00010b5c       ??_C@_1BC@BGLIFPF@?$AAN?$AAo?$AAv?$AAe?$AAm?$AAb?$AAe?$AAr?$AA?$AA@ 10011b5c     LIBCMT:nlsdata2.obj
 0001:00010b70       ??_C@_1BA@EPANDLNG@?$AAO?$AAc?$AAt?$AAo?$AAb?$AAe?$AAr?$AA?$AA@ 10011b70     LIBCMT:nlsdata2.obj
 0001:00010b80       ??_C@_1BE@DKAAMBJL@?$AAS?$AAe?$AAp?$AAt?$AAe?$AAm?$AAb?$AAe?$AAr?$AA?$AA@ 10011b80     LIBCMT:nlsdata2.obj
 0001:00010b94       ??_C@_1O@PAHLKOAC@?$AAA?$AAu?$AAg?$AAu?$AAs?$AAt?$AA?$AA@ 10011b94     LIBCMT:nlsdata2.obj
 0001:00010ba4       ??_C@_19BIFMLPCD@?$AAJ?$AAu?$AAl?$AAy?$AA?$AA@ 10011ba4     LIBCMT:nlsdata2.obj
 0001:00010bb0       ??_C@_19EPFLPGAP@?$AAJ?$AAu?$AAn?$AAe?$AA?$AA@ 10011bb0     LIBCMT:nlsdata2.obj
 0001:00010bbc       ??_C@_1M@GJNLMHFD@?$AAA?$AAp?$AAr?$AAi?$AAl?$AA?$AA@ 10011bbc     LIBCMT:nlsdata2.obj
 0001:00010bc8       ??_C@_1M@IKEENEDF@?$AAM?$AAa?$AAr?$AAc?$AAh?$AA?$AA@ 10011bc8     LIBCMT:nlsdata2.obj
 0001:00010bd4       ??_C@_1BC@JGDDFFAM@?$AAF?$AAe?$AAb?$AAr?$AAu?$AAa?$AAr?$AAy?$AA?$AA@ 10011bd4     LIBCMT:nlsdata2.obj
 0001:00010be8       ??_C@_1BA@EFMEIEBA@?$AAJ?$AAa?$AAn?$AAu?$AAa?$AAr?$AAy?$AA?$AA@ 10011be8     LIBCMT:nlsdata2.obj
 0001:00010bf8       ??_C@_17EGKACKIF@?$AAD?$AAe?$AAc?$AA?$AA@ 10011bf8     LIBCMT:nlsdata2.obj
 0001:00010c00       ??_C@_17BBDMLCIG@?$AAN?$AAo?$AAv?$AA?$AA@ 10011c00     LIBCMT:nlsdata2.obj
 0001:00010c08       ??_C@_17FNLKOI@?$AAO?$AAc?$AAt?$AA?$AA@ 10011c08     LIBCMT:nlsdata2.obj
 0001:00010c10       ??_C@_17HCHCOKMG@?$AAS?$AAe?$AAp?$AA?$AA@ 10011c10     LIBCMT:nlsdata2.obj
 0001:00010c18       ??_C@_17ICPELBCN@?$AAA?$AAu?$AAg?$AA?$AA@ 10011c18     LIBCMT:nlsdata2.obj
 0001:00010c20       ??_C@_17IJPCKHK@?$AAJ?$AAu?$AAl?$AA?$AA@ 10011c20     LIBCMT:nlsdata2.obj
 0001:00010c28       ??_C@_17KCJGOCPB@?$AAJ?$AAu?$AAn?$AA?$AA@ 10011c28     LIBCMT:nlsdata2.obj
 0001:00010c30       ??_C@_17PNNKMEED@?$AAM?$AAa?$AAy?$AA?$AA@ 10011c30     LIBCMT:nlsdata2.obj
 0001:00010c38       ??_C@_17LFPOIHDD@?$AAA?$AAp?$AAr?$AA?$AA@ 10011c38     LIBCMT:nlsdata2.obj
 0001:00010c40       ??_C@_17CKNLEDEC@?$AAM?$AAa?$AAr?$AA?$AA@ 10011c40     LIBCMT:nlsdata2.obj
 0001:00010c48       ??_C@_17LMDJEKJN@?$AAF?$AAe?$AAb?$AA?$AA@ 10011c48     LIBCMT:nlsdata2.obj
 0001:00010c50       ??_C@_17DKNBKCHM@?$AAJ?$AAa?$AAn?$AA?$AA@ 10011c50     LIBCMT:nlsdata2.obj
 0001:00010c58       ??_C@_1BC@ENMNNPAJ@?$AAS?$AAa?$AAt?$AAu?$AAr?$AAd?$AAa?$AAy?$AA?$AA@ 10011c58     LIBCMT:nlsdata2.obj
 0001:00010c6c       ??_C@_1O@PDICJHAG@?$AAF?$AAr?$AAi?$AAd?$AAa?$AAy?$AA?$AA@ 10011c6c     LIBCMT:nlsdata2.obj
 0001:00010c7c       ??_C@_1BC@HHMNLIHE@?$AAT?$AAh?$AAu?$AAr?$AAs?$AAd?$AAa?$AAy?$AA?$AA@ 10011c7c     LIBCMT:nlsdata2.obj
 0001:00010c90       ??_C@_1BE@EBOGMDOH@?$AAW?$AAe?$AAd?$AAn?$AAe?$AAs?$AAd?$AAa?$AAy?$AA?$AA@ 10011c90     LIBCMT:nlsdata2.obj
 0001:00010ca4       ??_C@_1BA@ENFBFFEK@?$AAT?$AAu?$AAe?$AAs?$AAd?$AAa?$AAy?$AA?$AA@ 10011ca4     LIBCMT:nlsdata2.obj
 0001:00010cb4       ??_C@_1O@MMNBFLIA@?$AAM?$AAo?$AAn?$AAd?$AAa?$AAy?$AA?$AA@ 10011cb4     LIBCMT:nlsdata2.obj
 0001:00010cc4       ??_C@_1O@IHNHDHPB@?$AAS?$AAu?$AAn?$AAd?$AAa?$AAy?$AA?$AA@ 10011cc4     LIBCMT:nlsdata2.obj
 0001:00010cd4       ??_C@_17GGIBDPIH@?$AAS?$AAa?$AAt?$AA?$AA@ 10011cd4     LIBCMT:nlsdata2.obj
 0001:00010cdc       ??_C@_17HFOLPPLP@?$AAF?$AAr?$AAi?$AA?$AA@ 10011cdc     LIBCMT:nlsdata2.obj
 0001:00010ce4       ??_C@_17PDPHAADD@?$AAT?$AAh?$AAu?$AA?$AA@ 10011ce4     LIBCMT:nlsdata2.obj
 0001:00010cec       ??_C@_17CJEDCEPE@?$AAW?$AAe?$AAd?$AA?$AA@ 10011cec     LIBCMT:nlsdata2.obj
 0001:00010cf4       ??_C@_17BMKGEGOJ@?$AAT?$AAu?$AAe?$AA?$AA@ 10011cf4     LIBCMT:nlsdata2.obj
 0001:00010cfc       ??_C@_17KBOMKBF@?$AAM?$AAo?$AAn?$AA?$AA@ 10011cfc     LIBCMT:nlsdata2.obj
 0001:00010d04       ??_C@_17MBGCMIPB@?$AAS?$AAu?$AAn?$AA?$AA@ 10011d04     LIBCMT:nlsdata2.obj
 0001:00010d0c       ??_C@_08JCCMCCIL@HH?3mm?3ss?$AA@ 10011d0c     LIBCMT:nlsdata2.obj
 0001:00010d18       ??_C@_0BE@CKGJFCPC@dddd?0?5MMMM?5dd?0?5yyyy?$AA@ 10011d18     LIBCMT:nlsdata2.obj
 0001:00010d2c       ??_C@_08BPBNCDIB@MM?1dd?1yy?$AA@ 10011d2c     LIBCMT:nlsdata2.obj
 0001:00010d38       ??_C@_02CJNFDJBF@PM?$AA@   10011d38     LIBCMT:nlsdata2.obj
 0001:00010d3c       ??_C@_02DEDBPAFC@AM?$AA@   10011d3c     LIBCMT:nlsdata2.obj
 0001:00010d40       ??_C@_08EDHMEBNP@December?$AA@ 10011d40     LIBCMT:nlsdata2.obj
 0001:00010d4c       ??_C@_08HCHEGEOA@November?$AA@ 10011d4c     LIBCMT:nlsdata2.obj
 0001:00010d58       ??_C@_07JJNFCEND@October?$AA@ 10011d58     LIBCMT:nlsdata2.obj
 0001:00010d60       ??_C@_09BHHEALKD@September?$AA@ 10011d60     LIBCMT:nlsdata2.obj
 0001:00010d6c       ??_C@_06LBBHFDDG@August?$AA@ 10011d6c     LIBCMT:nlsdata2.obj
 0001:00010d74       ??_C@_04MIEPOIFP@July?$AA@ 10011d74     LIBCMT:nlsdata2.obj
 0001:00010d7c       ??_C@_04CNLMGBGM@June?$AA@ 10011d7c     LIBCMT:nlsdata2.obj
 0001:00010d84       ??_C@_05DMJDNLEJ@April?$AA@ 10011d84     LIBCMT:nlsdata2.obj
 0001:00010d8c       ??_C@_05HPCKOFNC@March?$AA@ 10011d8c     LIBCMT:nlsdata2.obj
 0001:00010d94       ??_C@_08GNJGEPFN@February?$AA@ 10011d94     LIBCMT:nlsdata2.obj
 0001:00010da0       ??_C@_07CGJPFGJA@January?$AA@ 10011da0     LIBCMT:nlsdata2.obj
 0001:00010da8       ??_C@_03MKABNOCG@Dec?$AA@  10011da8     LIBCMT:nlsdata2.obj
 0001:00010dac       ??_C@_03JPJOFNIA@Nov?$AA@  10011dac     LIBCMT:nlsdata2.obj
 0001:00010db0       ??_C@_03BMAOKBAD@Oct?$AA@  10011db0     LIBCMT:nlsdata2.obj
 0001:00010db4       ??_C@_03GGCAPAJC@Sep?$AA@  10011db4     LIBCMT:nlsdata2.obj
 0001:00010db8       ??_C@_03IFJFEIGA@Aug?$AA@  10011db8     LIBCMT:nlsdata2.obj
 0001:00010dbc       ??_C@_03LBGABGKK@Jul?$AA@  10011dbc     LIBCMT:nlsdata2.obj
 0001:00010dc0       ??_C@_03IDFGHECI@Jun?$AA@  10011dc0     LIBCMT:nlsdata2.obj
 0001:00010dc4       ??_C@_03CNMDKL@May?$AA@    10011dc4     LIBCMT:nlsdata2.obj
 0001:00010dc8       ??_C@_03LEOLGMJP@Apr?$AA@  10011dc8     LIBCMT:nlsdata2.obj
 0001:00010dcc       ??_C@_03ODNJBKGA@Mar?$AA@  10011dcc     LIBCMT:nlsdata2.obj
 0001:00010dd0       ??_C@_03HJBDCHOM@Feb?$AA@  10011dd0     LIBCMT:nlsdata2.obj
 0001:00010dd4       ??_C@_03JIHJHPIE@Jan?$AA@  10011dd4     LIBCMT:nlsdata2.obj
 0001:00010dd8       ??_C@_08INBOOONO@Saturday?$AA@ 10011dd8     LIBCMT:nlsdata2.obj
 0001:00010de4       ??_C@_06JECMNKMI@Friday?$AA@ 10011de4     LIBCMT:nlsdata2.obj
 0001:00010dec       ??_C@_08HACCIKIA@Thursday?$AA@ 10011dec     LIBCMT:nlsdata2.obj
 0001:00010df8       ??_C@_09DLIGFAKA@Wednesday?$AA@ 10011df8     LIBCMT:nlsdata2.obj
 0001:00010e04       ??_C@_07BAAGCFCM@Tuesday?$AA@ 10011e04     LIBCMT:nlsdata2.obj
 0001:00010e0c       ??_C@_06JLEDEDGH@Monday?$AA@ 10011e0c     LIBCMT:nlsdata2.obj
 0001:00010e14       ??_C@_06OOPIFAJ@Sunday?$AA@ 10011e14     LIBCMT:nlsdata2.obj
 0001:00010e1c       ??_C@_03FEFJNEK@Sat?$AA@   10011e1c     LIBCMT:nlsdata2.obj
 0001:00010e20       ??_C@_03IDIOELNC@Fri?$AA@  10011e20     LIBCMT:nlsdata2.obj
 0001:00010e24       ??_C@_03IOFIKPDN@Thu?$AA@  10011e24     LIBCMT:nlsdata2.obj
 0001:00010e28       ??_C@_03MHOMLAJA@Wed?$AA@  10011e28     LIBCMT:nlsdata2.obj
 0001:00010e2c       ??_C@_03NAGEINEP@Tue?$AA@  10011e2c     LIBCMT:nlsdata2.obj
 0001:00010e30       ??_C@_03PDAGKDH@Mon?$AA@   10011e30     LIBCMT:nlsdata2.obj
 0001:00010e34       ??_C@_03KOEHGMDN@Sun?$AA@  10011e34     LIBCMT:nlsdata2.obj
 0001:00010eb8       ??_C@_19CDGLJBOD@?$AA?4?$AAc?$AAo?$AAm?$AA?$AA@ 10011eb8     LIBCMT:wspawnve.obj
 0001:00010ec4       ??_C@_19DOGDICKI@?$AA?4?$AAe?$AAx?$AAe?$AA?$AA@ 10011ec4     LIBCMT:wspawnve.obj
 0001:00010ed0       ??_C@_19PINKOIBI@?$AA?4?$AAb?$AAa?$AAt?$AA?$AA@ 10011ed0     LIBCMT:wspawnve.obj
 0001:00010edc       ??_C@_19BDKLHPGC@?$AA?4?$AAc?$AAm?$AAd?$AA?$AA@ 10011edc     LIBCMT:wspawnve.obj
 0001:00010ee8       ??_C@_15PCEAIKAA@?$AA?4?$AA?2?$AA?$AA@ 10011ee8     LIBCMT:wspawnve.obj
 0001:00010ef0       __XcptActTab               10011ef0     LIBCMT:winxfltr.obj
 0001:00010f80       __First_FPE_Indx           10011f80     LIBCMT:winxfltr.obj
 0001:00010f84       __Num_FPE                  10011f84     LIBCMT:winxfltr.obj
 0001:00010f88       __XcptActTabSize           10011f88     LIBCMT:winxfltr.obj
 0001:00010f8c       __XcptActTabCount          10011f8c     LIBCMT:winxfltr.obj
 0001:00010f90       ___lookuptable_s           10011f90     LIBCMT:outputs.obj
 0001:00010fec       ??_C@_0BI@DFKBFLJE@GetProcessWindowStation?$AA@ 10011fec     LIBCMT:crtmboxw.obj
 0001:00011004       ??_C@_0BK@DEKFELLI@GetUserObjectInformationW?$AA@ 10012004     LIBCMT:crtmboxw.obj
 0001:00011020       ??_C@_0BD@HHGDFDBJ@GetLastActivePopup?$AA@ 10012020     LIBCMT:crtmboxw.obj
 0001:00011034       ??_C@_0BA@HNOPNCHB@GetActiveWindow?$AA@ 10012034     LIBCMT:crtmboxw.obj
 0001:00011044       ??_C@_0M@DLDCCGNP@MessageBoxW?$AA@ 10012044     LIBCMT:crtmboxw.obj
 0001:00011050       ??_C@_1BG@GOEBHBDC@?$AAU?$AAS?$AAE?$AAR?$AA3?$AA2?$AA?4?$AAD?$AAL?$AAL?$AA?$AA@ 10012050     LIBCMT:crtmboxw.obj
 0001:00011070       ??_C@_13NMPKAAJP@?$AA?$DN?$AA?$AA@ 10012070     LIBCMT:wcenvarg.obj
 0001:00011074       ??_C@_1BG@FIGGICF@?$AAS?$AAy?$AAs?$AAt?$AAe?$AAm?$AAR?$AAo?$AAo?$AAt?$AA?$AA@ 10012074     LIBCMT:wcenvarg.obj
 0001:0001108c       ??_C@_06IMKFLFPG@1?$CDQNAN?$AA@ 1001208c     LIBCMT:_x10fout_.obj
 0001:00011094       ??_C@_05DNEBIAHO@1?$CDINF?$AA@ 10012094     LIBCMT:_x10fout_.obj
 0001:0001109c       ??_C@_05PHHOCPM@1?$CDIND?$AA@ 1001209c     LIBCMT:_x10fout_.obj
 0001:000110a4       ??_C@_06PGGFOGJG@1?$CDSNAN?$AA@ 100120a4     LIBCMT:_x10fout_.obj
 0001:000110ac       ??_C@_1BA@BALFACEM@?$AAC?$AAO?$AAN?$AAO?$AAU?$AAT?$AA$?$AA?$AA@ 100120ac     LIBCMT:initcon.obj
 0001:000110c0       __load_config_used         100120c0     LIBCMT:loadcfg.obj
 0001:00011110       ___safe_se_handler_table   10012110     <linker-defined>
 0001:0001111c       ___rtc_iaa                 1001211c     LIBCMT:_initsect_.obj
 0001:00011120       ___rtc_izz                 10012120     LIBCMT:_initsect_.obj
 0001:00011124       ___rtc_taa                 10012124     LIBCMT:_initsect_.obj
 0001:00011128       ___rtc_tzz                 10012128     LIBCMT:_initsect_.obj
 0001:00011130       __chkstk                   10012130 f   chkstk.obj
 0001:00011130       __alloca_probe             10012130     chkstk.obj
 0001:00011160       _bit64_pushuserdata        10012160 f   bit64.obj
 0001:000111a0       _bit64_push                100121a0 f   bit64.obj
 0001:00011230       _bit64_getvalue            10012230 f   bit64.obj
 0001:00012b70       _luaopen_bit64             10013b70 f   bit64.obj
 0001:00012bb0       _traceback                 10013bb0 f   exported.obj
 0001:00012c40       _GetExportFunction         10013c40 f   exported.obj
 0001:00012cd0       _pcall_msg                 10013cd0 f   exported.obj
 0001:00012d80       _ReplacePluginInfoCollector 10013d80 f   exported.obj
 0001:00012db0       _DestroyCollector          10013db0 f   exported.obj
 0001:00012df0       _AddStringToCollectorField 10013df0 f   exported.obj
 0001:00012e50       _AddBufToCollector         10013e50 f   exported.obj
 0001:00012ea0       _CreateStringsArray        10013ea0 f   exported.obj
 0001:00012fd0       _FarPanelItemFreeCallback@8 10013fd0 f   exported.obj
 0001:00013000       _FillPluginPanelItem       10014000 f   exported.obj
 0001:000131f0       _FillFindData              100141f0 f   exported.obj
 0001:00013530       _LF_GetFindData            10014530 f   exported.obj
 0001:00013600       _LF_FreeFindData           10014600 f   exported.obj
 0001:00013650       _UpdateFileSelection       10014650 f   exported.obj
 0001:00013720       _LF_GetFiles               10014720 f   exported.obj
 0001:00013a30       _LF_RunDefaultScript       10014a30 f   exported.obj
 0001:00013b60       _LF_Analyse                10014b60 f   exported.obj
 0001:00013c00       _LF_CloseAnalyse           10014c00 f   exported.obj
 0001:00013c20       _LF_GetOpenPanelInfo       10014c20 f   exported.obj
 0001:00014280       _PushFarMacroValue         10015280 f   exported.obj
 0001:00014380       _PackMacroValues           10015380 f   exported.obj
 0001:00014720       _LF_Open                   10015720 f   exported.obj
 0001:00014aa0       _LF_ClosePanel             10015aa0 f   exported.obj
 0001:00014b40       _LF_Compare                10015b40 f   exported.obj
 0001:00014bf0       _LF_Configure              10015bf0 f   exported.obj
 0001:00014c50       _LF_DeleteFiles            10015c50 f   exported.obj
 0001:00014d00       _LF_MakeDirectory          10015d00 f   exported.obj
 0001:00014e10       _LF_ProcessPanelEvent      10015e10 f   exported.obj
 0001:00014ed0       _LF_ProcessHostFile        10015ed0 f   exported.obj
 0001:00014fb0       _LF_ProcessPanelInput      10015fb0 f   exported.obj
 0001:00015040       _LF_PutFiles               10016040 f   exported.obj
 0001:00015130       _LF_SetDirectory           10016130 f   exported.obj
 0001:000151d0       _LF_SetFindList            100161d0 f   exported.obj
 0001:00015260       _LF_ExitFAR                10016260 f   exported.obj
 0001:00015290       _getPluginMenuItems        10016290 f   exported.obj
 0001:00015320       _LF_GetPluginInfo          10016320 f   exported.obj
 0001:00015420       _LF_ProcessEditorInput     10016420 f   exported.obj
 0001:00015480       _LF_ProcessEditorEvent     10016480 f   exported.obj
 0001:000155a0       _LF_ProcessViewerEvent     100165a0 f   exported.obj
 0001:00015620       _LF_ProcessDialogEvent     10016620 f   exported.obj
 0001:00015810       _LF_ProcessSynchroEvent    10016810 f   exported.obj
 0001:000159c0       _LF_GetContentFields       100169c0 f   exported.obj
 0001:00015a50       _LF_GetContentData         10016a50 f   exported.obj
 0001:00015b60       _LF_FreeContentData        10016b60 f   exported.obj
 0001:00015b90       _LF_GetGlobalInfo          10016b90 f   exported.obj
 0001:00015f30       _LF_ProcessConsoleInput    10016f30 f   exported.obj
 0001:00016020       _push_flags_table          10017020 f   flags.obj
 0001:00016070       _SetFarColors              10017070 f   keysandcolors.obj
 0001:000161b0       _LF_LoadFile               100171b0 f   lflua.obj
 0001:000163f0       _luaB_loadfileW            100173f0 f   lflua.obj
 0001:00016430       _luaB_dofileW              10017430 f   lflua.obj
 0001:00016480       _LF_Gsub                   10017480 f   lflua.obj
 0001:00016590       _method_gc                 10017590 f   lregex.obj
 0001:000165f0       _method_tostring           100175f0 f   lregex.obj
 0001:00016640       _check_regex_pattern       10017640 f   lregex.obj
 0001:000166e0       _push_far_regex            100176e0 f   lregex.obj
 0001:00016760       __regex_gmatch_closure     10017760 f   lregex.obj
 0001:00016850       _regex_gmatch_closure      10017850 f   lregex.obj
 0001:00016860       _regex_gmatch_closureW     10017860 f   lregex.obj
 0001:00016870       __Gmatch                   10017870 f   lregex.obj
 0001:00016950       _func_Gmatch               10017950 f   lregex.obj
 0001:00016960       _func_GmatchW              10017960 f   lregex.obj
 0001:00016970       _rx_find_match             10017970 f   lregex.obj
 0001:00016bb0       _method_bracketscount      10017bb0 f   lregex.obj
 0001:00016c10       _rx_gsub                   10017c10 f   lregex.obj
 0001:00017330       _func_New                  10018330 f   lregex.obj
 0001:00017360       _method_find               10018360 f   lregex.obj
 0001:00017380       _func_find                 10018380 f   lregex.obj
 0001:000173a0       _method_findW              100183a0 f   lregex.obj
 0001:000173c0       _func_findW                100183c0 f   lregex.obj
 0001:000173e0       _method_match              100183e0 f   lregex.obj
 0001:00017400       _func_match                10018400 f   lregex.obj
 0001:00017420       _method_matchW             10018420 f   lregex.obj
 0001:00017440       _func_matchW               10018440 f   lregex.obj
 0001:00017460       _method_gsub               10018460 f   lregex.obj
 0001:00017480       _func_gsub                 10018480 f   lregex.obj
 0001:000174a0       _method_gsubW              100184a0 f   lregex.obj
 0001:000174c0       _func_gsubW                100184c0 f   lregex.obj
 0001:000174e0       _luaopen_regex             100184e0 f   lregex.obj
 0001:000175c0       _Open_Luamacro             100185c0 f   luamacro.obj
 0001:000179b0       _far_MacroCallFar          100189b0 f   luamacro.obj
 0001:00017b50       _far_FarMacroCallToLua     10018b50 f   luamacro.obj
 0001:00017bc0       _CheckFarUserControl       10018bc0 f   lusercontrol.obj
 0001:00017c10       _uc_len                    10018c10 f   lusercontrol.obj
 0001:00017e10       _luaopen_usercontrol       10018e10 f   lusercontrol.obj
 0001:00017e50       _CreateRegKey              10018e50 f   reg.obj
 0001:00017e90       _OpenRegKey                10018e90 f   reg.obj
 0001:00017ec0       _SetRegKeyStr              10018ec0 f   reg.obj
 0001:00017f40       _SetRegKeyDword            10018f40 f   reg.obj
 0001:00017fa0       _SetRegKeyArr              10018fa0 f   reg.obj
 0001:00018000       _IsLuaJIT                  10019000 f   service.obj
 0001:00018010       _DllMain@12                10019010 f   service.obj
 0001:000180a0       _OptHandle                 100190a0 f   service.obj
 0001:000182b0       _GetFlagCombination        100192b0 f   service.obj
 0001:00018550       _GetFlagsFromTable         10019550 f   service.obj
 0001:00018590       _PutFlagsToTable           10019590 f   service.obj
 0001:000185c0       _GetPluginData             100195c0 f   service.obj
 0001:000185e0       _ConvertLuaValue           100195e0 f   service.obj
 0001:00018870       _PutMouseEvent             10019870 f   service.obj
 0001:00018a20       _PushPanelItem             10019a20 f   service.obj
 0001:00018c60       _PushPanelItems            10019c60 f   service.obj
 0001:0001ab10       _GetFarColor               1001bb10 f   service.obj
 0001:0001ac60       _PushFarColor              1001bc60 f   service.obj
 0001:0001b130       _PushInputRecord           1001c130 f   service.obj
 0001:0001b350       _FillInputRecord           1001c350 f   service.obj
 0001:0001be40       _LF_Message                1001ce40 f   service.obj
 0001:0001c2b0       _LF_Error                  1001d2b0 f   service.obj
 0001:0001db90       _CreateList                1001eb90 f   service.obj
 0001:0001e250       _NewDialogData             1001f250 f   service.obj
 0001:0001e2c0       _DialogHandleEqual         1001f2c0 f   service.obj
 0001:0001e300       _PushDMParams              1001f300 f   service.obj
 0001:0001f4e0       _PushDNParams              100204e0 f   service.obj
 0001:0001f730       _ProcessDNResult           10020730 f   service.obj
 0001:0001f990       _LF_DlgProc                10020990 f   service.obj
 0001:000225c0       _MacroAddCallback@12       100235c0 f   service.obj
 0001:00022a40       _pushFileTime              10023a40 f   service.obj
 0001:00022dc0       _NewVirtualKeyTable        10023dc0 f   service.obj
 0001:00023af0       _TimerThreadFunc@4         10024af0 f   service.obj
 0001:00024110       _dir_exist                 10025110 f   service.obj
 0001:00024d50       _LF_RunLuafarInit          10025d50 f   service.obj
 0001:00024e10       _LF_ProcessEnvVars         10025e10 f   service.obj
 0001:00024e20       _LF_InitLuaState1          10025e20 f   service.obj
 0001:00024f80       _LF_MacroCallback          10025f80 f   service.obj
 0001:00024f90       _LF_DoFile                 10025f90 f   service.obj
 0001:00025020       _LF_GetLuafarAPI           10026020 f   service.obj
 0001:000252f0       _LF_InitLuaState2          100262f0 f   service.obj
 0001:00027b60       _luaopen_unicode           10028b60 f   slnunico.obj
 0001:00028c00       _luaopen_uio               10029c00 f   uliolib51.obj
 0001:00029ab0       _luaopen_upackage          1002aab0 f   uloadlib51.obj
 0001:00029bf0       _PutIntToArray             1002abf0 f   ustring.obj
 0001:00029c20       _PutIntToTable             1002ac20 f   ustring.obj
 0001:00029c50       _PutNumToTable             1002ac50 f   ustring.obj
 0001:00029c80       _PutBoolToTable            1002ac80 f   ustring.obj
 0001:00029cb0       _PutStrToTable             1002acb0 f   ustring.obj
 0001:00029ce0       _PutStrToArray             1002ace0 f   ustring.obj
 0001:00029d10       _PutLStrToTable            1002ad10 f   ustring.obj
 0001:00029d40       _GetOptNumFromTable        1002ad40 f   ustring.obj
 0001:00029d90       _GetOptIntFromTable        1002ad90 f   ustring.obj
 0001:00029de0       _GetOptIntFromArray        1002ade0 f   ustring.obj
 0001:00029e30       _GetBoolFromTable          1002ae30 f   ustring.obj
 0001:00029e60       _GetOptBoolFromTable       1002ae60 f   ustring.obj
 0001:00029ec0       _convert_multibyte_string  1002aec0 f   ustring.obj
 0001:00029fb0       _check_utf8_string         1002afb0 f   ustring.obj
 0001:00029fe0       _utf8_to_utf16             1002afe0 f   ustring.obj
 0001:0002a0b0       _opt_utf8_string           1002b0b0 f   ustring.obj
 0001:0002a180       _oem_to_utf16              1002b180 f   ustring.obj
 0001:0002a250       _push_multibyte_string     1002b250 f   ustring.obj
 0001:0002a300       _push_utf8_string          1002b300 f   ustring.obj
 0001:0002a320       _ustring_WideCharToMultiByte 1002b320 f   ustring.obj
 0001:0002a450       _ustring_OemToUtf8         1002b450 f   ustring.obj
 0001:0002a490       _ustring_Utf8ToOem         1002b490 f   ustring.obj
 0001:0002a540       _ustring_Utf16ToUtf8       1002b540 f   ustring.obj
 0001:0002a580       _ustring_Utf8ToUtf16       1002b580 f   ustring.obj
 0001:0002a630       _ustring_GetACP            1002b630 f   ustring.obj
 0001:0002a650       _ustring_GetOEMCP          1002b650 f   ustring.obj
 0001:0002a670       _ustring_GetDriveType      1002b670 f   ustring.obj
 0001:0002a750       _ustring_Uuid              1002b750 f   ustring.obj
 0001:0002a830       _ustring_SearchPath        1002b830 f   ustring.obj
 0001:0002aa30       _ustring_Sleep             1002ba30 f   ustring.obj
 0001:0002aa80       _PushAttrString            1002ba80 f   ustring.obj
 0001:0002ab10       _PutAttrToTable            1002bb10 f   ustring.obj
 0001:0002ab40       _DecodeAttributes          1002bb40 f   ustring.obj
 0001:0002ac10       _ustring_SHGetFolderPath   1002bc10 f   ustring.obj
 0001:0002ad10       _push_utf16_string         1002bd10 f   ustring.obj
 0001:0002ad50       _ustring_sub               1002bd50 f   ustring.obj
 0001:0002ade0       _ustring_len               1002bde0 f   ustring.obj
 0001:0002ae10       _check_utf16_string        1002be10 f   ustring.obj
 0001:0002ae40       _opt_utf16_string          1002be40 f   ustring.obj
 0001:0002b050       _luaopen_ustring           1002c050 f   ustring.obj
 0001:0002b0a0       _pusherrorcode             1002c0a0 f   ustring.obj
 0001:0002b120       _pusherror                 1002c120 f   ustring.obj
 0001:0002b140       _SysErrorReturn            1002c140 f   ustring.obj
 0001:0002b170       _PutWStrToTable            1002c170 f   ustring.obj
 0001:0002b1a0       _PutWStrToArray            1002c1a0 f   ustring.obj
 0001:0002b1e0       _ustring_MultiByteToWideChar 1002c1e0 f   ustring.obj
 0001:0002b330       _EnumCodePagesProc@4       1002c330 f   ustring.obj
 0001:0002b3f0       _ustring_EnumSystemCodePages 1002c3f0 f   ustring.obj
 0001:0002b460       _ustring_GetCPInfo         1002c460 f   ustring.obj
 0001:0002b650       _ustring_GetLogicalDriveStrings 1002c650 f   ustring.obj
 0001:0002b790       _ustring_GlobalMemoryStatus 1002c790 f   ustring.obj
 0001:0002ba40       _ustring_SetFileAttr       1002ca40 f   ustring.obj
 0001:0002bb30       _ustring_GetFileAttr       1002cb30 f   ustring.obj
 0001:0002bc10       _ustring_GetCurrentDir     1002cc10 f   ustring.obj
 0001:0002bda0       _ustring_SetCurrentDir     1002cda0 f   ustring.obj
 0001:0002be80       _luaLF_SlotError           1002ce80 f   util.obj
 0001:0002bec0       _luaLF_FieldError          1002cec0 f   util.obj
 0001:0002bf00       _GetIntFromArray           1002cf00 f   util.obj
 0001:0002bf80       _GetFileSizeFromTable      1002cf80 f   util.obj
 0001:0002bff0       _GetFileTimeFromTable      1002cff0 f   util.obj
 0001:0002c070       _PutFileTimeToTable        1002d070 f   util.obj
 0001:0002c0b0       _GetAttrFromTable          1002d0b0 f   util.obj
 0001:0002d5f0       _luaopen_win               1002e5f0 f   win.obj
 0001:0002d6b0       _EncodePointerWrapper@4    1002e6b0 f   vc_crt_fix_impl.obj
 0001:0002d700       _DecodePointerWrapper@4    1002e700 f   vc_crt_fix_impl.obj
 0001:0002d750       _GetModuleHandleExWWrapper@12 1002e750 f   vc_crt_fix_impl.obj
 0001:0002d794       _lua_setmetatable          1002e794 f   lua51:lua51.dll
 0001:0002d79a       _lua_getfield              1002e79a f   lua51:lua51.dll
 0001:0002d7a0       _lua_newuserdata           1002e7a0 f   lua51:lua51.dll
 0001:0002d7a6       _lua_pushnumber            1002e7a6 f   lua51:lua51.dll
 0001:0002d7ac       _lua_touserdata            1002e7ac f   lua51:lua51.dll
 0001:0002d7b2       _lua_settop                1002e7b2 f   lua51:lua51.dll
 0001:0002d7b8       _lua_rawequal              1002e7b8 f   lua51:lua51.dll
 0001:0002d7be       _lua_getmetatable          1002e7be f   lua51:lua51.dll
 0001:0002d7c4       _lua_type                  1002e7c4 f   lua51:lua51.dll
 0001:0002d7ca       _luaL_argerror             1002e7ca f   lua51:lua51.dll
 0001:0002d7d0       _lua_tonumber              1002e7d0 f   lua51:lua51.dll
 0001:0002d7d6       _lua_gettop                1002e7d6 f   lua51:lua51.dll
 0001:0002d7dc       _luaL_checkinteger         1002e7dc f   lua51:lua51.dll
 0001:0002d7e2       _lua_pushnil               1002e7e2 f   lua51:lua51.dll
 0001:0002d7e8       _lua_tolstring             1002e7e8 f   lua51:lua51.dll
 0001:0002d7ee       _lua_pushstring            1002e7ee f   lua51:lua51.dll
 0001:0002d7f4       _lua_pushboolean           1002e7f4 f   lua51:lua51.dll
 0001:0002d7fa       _luaL_register             1002e7fa f   lua51:lua51.dll
 0001:0002d800       _luaL_newmetatable         1002e800 f   lua51:lua51.dll
 0001:0002d806       _lua_call                  1002e806 f   lua51:lua51.dll
 0001:0002d80c       _lua_pushinteger           1002e80c f   lua51:lua51.dll
 0001:0002d812       _lua_pushvalue             1002e812 f   lua51:lua51.dll
 0001:0002d818       _lua_gc                    1002e818 f   lua51:lua51.dll
 0001:0002d81e       _lua_remove                1002e81e f   lua51:lua51.dll
 0001:0002d824       _lua_pcall                 1002e824 f   lua51:lua51.dll
 0001:0002d82a       _lua_insert                1002e82a f   lua51:lua51.dll
 0001:0002d830       _lua_pushcclosure          1002e830 f   lua51:lua51.dll
 0001:0002d836       _lua_rawgeti               1002e836 f   lua51:lua51.dll
 0001:0002d83c       _lua_setfield              1002e83c f   lua51:lua51.dll
 0001:0002d842       _lua_createtable           1002e842 f   lua51:lua51.dll
 0001:0002d848       _lua_rawseti               1002e848 f   lua51:lua51.dll
 0001:0002d84e       _lua_objlen                1002e84e f   lua51:lua51.dll
 0001:0002d854       _lua_isstring              1002e854 f   lua51:lua51.dll
 0001:0002d85a       _lua_gettable              1002e85a f   lua51:lua51.dll
 0001:0002d860       _luaL_unref                1002e860 f   lua51:lua51.dll
 0001:0002d866       _luaL_ref                  1002e866 f   lua51:lua51.dll
 0001:0002d86c       _lua_toboolean             1002e86c f   lua51:lua51.dll
 0001:0002d872       _lua_tointeger             1002e872 f   lua51:lua51.dll
 0001:0002d878       _lua_isnumber              1002e878 f   lua51:lua51.dll
 0001:0002d87e       _lua_pushlightuserdata     1002e87e f   lua51:lua51.dll
 0001:0002d884       _lua_pushlstring           1002e884 f   lua51:lua51.dll
 0001:0002d88a       _luaL_loadstring           1002e88a f   lua51:lua51.dll
 0001:0002d890       _lua_pushfstring           1002e890 f   lua51:lua51.dll
 0001:0002d896       _lua_load                  1002e896 f   lua51:lua51.dll
 0001:0002d89c       _lua_concat                1002e89c f   lua51:lua51.dll
 0001:0002d8a2       _lua_error                 1002e8a2 f   lua51:lua51.dll
 0001:0002d8a8       _luaL_pushresult           1002e8a8 f   lua51:lua51.dll
 0001:0002d8ae       _luaL_addlstring           1002e8ae f   lua51:lua51.dll
 0001:0002d8b4       _luaL_buffinit             1002e8b4 f   lua51:lua51.dll
 0001:0002d8ba       _luaL_checkudata           1002e8ba f   lua51:lua51.dll
 0001:0002d8c0       _lua_replace               1002e8c0 f   lua51:lua51.dll
 0001:0002d8c6       _luaL_optlstring           1002e8c6 f   lua51:lua51.dll
 0001:0002d8cc       _luaL_checklstring         1002e8cc f   lua51:lua51.dll
 0001:0002d8d2       _luaL_error                1002e8d2 f   lua51:lua51.dll
 0001:0002d8d8       _lua_checkstack            1002e8d8 f   lua51:lua51.dll
 0001:0002d8de       _luaL_optinteger           1002e8de f   lua51:lua51.dll
 0001:0002d8e4       _luaL_addvalue             1002e8e4 f   lua51:lua51.dll
 0001:0002d8ea       _lua_getinfo               1002e8ea f   lua51:lua51.dll
 0001:0002d8f0       _lua_getstack              1002e8f0 f   lua51:lua51.dll
 0001:0002d8f6       _luaL_checktype            1002e8f6 f   lua51:lua51.dll
 0001:0002d8fc       _luaopen_debug             1002e8fc f   lua51:lua51.dll
 0001:0002d902       _luaopen_math              1002e902 f   lua51:lua51.dll
 0001:0002d908       _luaopen_string            1002e908 f   lua51:lua51.dll
 0001:0002d90e       _luaopen_os                1002e90e f   lua51:lua51.dll
 0001:0002d914       _luaopen_table             1002e914 f   lua51:lua51.dll
 0001:0002d91a       _luaopen_base              1002e91a f   lua51:lua51.dll
 0001:0002d920       _luaL_typerror             1002e920 f   lua51:lua51.dll
 0001:0002d926       _lua_next                  1002e926 f   lua51:lua51.dll
 0001:0002d92c       _lua_getallocf             1002e92c f   lua51:lua51.dll
 0001:0002d932       _lua_rawset                1002e932 f   lua51:lua51.dll
 0001:0002d938       _luaL_optnumber            1002e938 f   lua51:lua51.dll
 0001:0002d93e       _lua_rawget                1002e93e f   lua51:lua51.dll
 0001:0002d944       _luaL_checkany             1002e944 f   lua51:lua51.dll
 0001:0002d94a       _lua_settable              1002e94a f   lua51:lua51.dll
 0001:0002d950       _lua_setfenv               1002e950 f   lua51:lua51.dll
 0001:0002d956       _lua_getfenv               1002e956 f   lua51:lua51.dll
 0001:0002d95c       _luaL_checknumber          1002e95c f   lua51:lua51.dll
 0001:0002d962       _lua_setallocf             1002e962 f   lua51:lua51.dll
 0001:0002d968       _luaL_prepbuffer           1002e968 f   lua51:lua51.dll
 0001:0002d96e       _luaL_checkstack           1002e96e f   lua51:lua51.dll
 0001:0002d974       _lua_dump                  1002e974 f   lua51:lua51.dll
 0001:0002d97a       _lua_typename              1002e97a f   lua51:lua51.dll
 0001:0002d980       _lua_tocfunction           1002e980 f   lua51:lua51.dll
 0001:0002d986       _luaL_checkoption          1002e986 f   lua51:lua51.dll
 0001:0002d98c       _luaL_gsub                 1002e98c f   lua51:lua51.dll
 0001:0002d992       _lua_iscfunction           1002e992 f   lua51:lua51.dll
 0001:0002d998       _luaL_findtable            1002e998 f   lua51:lua51.dll
 0001:0002d99e       _lua_isuserdata            1002e99e f   lua51:lua51.dll
 0001:0002d9a4       __cfltcvt_init             1002e9a4 f   LIBCMT:_fpinit_.obj
 0001:0002da04       __fpmath                   1002ea04 f   LIBCMT:_fpinit_.obj
 0001:0002da20       __ftol2_sse                1002ea20 f   LIBCMT:ftol2.obj
 0001:0002da29       __ftol2_pentium4           1002ea29 f   LIBCMT:ftol2.obj
 0001:0002da3c       __ftol2_sse_excpt          1002ea3c f   LIBCMT:ftol2.obj
 0001:0002da56       __ftol2                    1002ea56 f   LIBCMT:ftol2.obj
 0001:0002dad0       __allshl                   1002ead0 f   LIBCMT:llshl.obj
 0001:0002daf0       __aullshr                  1002eaf0 f   LIBCMT:ullshr.obj
 0001:0002db10       __allshr                   1002eb10 f   LIBCMT:llshr.obj
 0001:0002db31       _sprintf                   1002eb31 f   LIBCMT:sprintf.obj
 0001:0002dbc0       __allmul                   1002ebc0 f   LIBCMT:llmul.obj
 0001:0002dc00       __alldiv                   1002ec00 f   LIBCMT:lldiv.obj
 0001:0002dcb0       __allrem                   1002ecb0 f   LIBCMT:llrem.obj
 0001:0002de90       __control87                1002ee90 f i LIBCMT:_ieee87_.obj
 0001:0002e1b0       _memset                    1002f1b0 f   LIBCMT:memset.obj
 0001:0002e22a       _free                      1002f22a f   LIBCMT:free.obj
 0001:0002e264       _malloc                    1002f264 f   LIBCMT:malloc.obj
 0001:0002e2f8       __fclose_nolock            1002f2f8 f   LIBCMT:fclose.obj
 0001:0002e365       _fclose                    1002f365 f   LIBCMT:fclose.obj
 0001:0002e3d9       __wfsopen                  1002f3d9 f   LIBCMT:wfopen.obj
 0001:0002e497       __wfopen                   1002f497 f   LIBCMT:wfopen.obj
 0001:0002e4ae       _wcsrchr                   1002f4ae f   LIBCMT:wcsrchr.obj
 0001:0002e4e0       _memcpy                    1002f4e0 f   LIBCMT:memcpy.obj
 0001:0002e841       __wcsdup                   1002f841 f   LIBCMT:wcsdup.obj
 0001:0002e841       _wcsdup                    1002f841 f   LIBCMT:wcsdup.obj
 0001:0002e896       __fread_nolock_s           1002f896 f   LIBCMT:fread.obj
 0001:0002ea52       _fread_s                   1002fa52 f   LIBCMT:fread.obj
 0001:0002eae0       _fread                     1002fae0 f   LIBCMT:fread.obj
 0001:0002eafd       _feof                      1002fafd f   LIBCMT:feoferr.obj
 0001:0002eb25       _ferror                    1002fb25 f   LIBCMT:feoferr.obj
 0001:0002eb4d       __get_sys_err_msg          1002fb4d f i LIBCMT:strerror.obj
 0001:0002eb75       _strerror                  1002fb75 f   LIBCMT:strerror.obj
 0001:0002ebdf       __get_errno_from_oserr     1002fbdf f   LIBCMT:dosmap.obj
 0001:0002ec21       __errno                    1002fc21 f   LIBCMT:dosmap.obj
 0001:0002ec34       ___doserrno                1002fc34 f   LIBCMT:dosmap.obj
 0001:0002ec47       __dosmaperr                1002fc47 f   LIBCMT:dosmap.obj
 0001:0002ec6a       _rewind                    1002fc6a f   LIBCMT:rewind.obj
 0001:0002ed28       _getc                      1002fd28 f   LIBCMT:fgetc.obj
 0001:0002ee1c       __ungetc_nolock            1002fe1c f   LIBCMT:ungetc.obj
 0001:0002eeff       _ungetc                    1002feff f   LIBCMT:ungetc.obj
 0001:0002ef68       __wfreopen_helper          1002ff68 f   LIBCMT:wfreopen.obj
 0001:0002f03a       __wfreopen                 1003003a f   LIBCMT:wfreopen.obj
 0001:0002f060       ___iob_func                10030060 f   LIBCMT:_file.obj
 0001:0002f066       ___initstdio               10030066 f   LIBCMT:_file.obj
 0001:0002f117       ___endstdio                10030117 f   LIBCMT:_file.obj
 0001:0002f137       __lock_file                10030137 f   LIBCMT:_file.obj
 0001:0002f178       __lock_file2               10030178 f   LIBCMT:_file.obj
 0001:0002f1aa       __unlock_file              100301aa f   LIBCMT:_file.obj
 0001:0002f1e6       __unlock_file2             100301e6 f   LIBCMT:_file.obj
 0001:0002f215       _wcsstr                    10030215 f   LIBCMT:wcsstr.obj
 0001:0002f290       _strchr                    10030290 f   LIBCMT:strchr.obj
 0001:0002f296       ___from_strstr_to_strchr   10030296     LIBCMT:strchr.obj
 0001:0002f34e       _wcsncpy                   1003034e f   LIBCMT:wcsncpy.obj
 0001:0002f39a       _iswctype                  1003039a f   LIBCMT:iswctype.obj
 0001:0002f3ef       _wcschr                    100303ef f   LIBCMT:wcschr.obj
 0001:0002f416       ??0_LocaleUpdate@@QAE@PAUlocaleinfo_struct@@@Z 10030416 f i LIBCMT:wcsicmp.obj
 0001:0002f49d       __wcsicmp_l                1003049d f   LIBCMT:wcsicmp.obj
 0001:0002f5a0       __wcsicmp                  100305a0 f   LIBCMT:wcsicmp.obj
 0001:0002f62b       _strncmp                   1003062b f   LIBCMT:strncmp.obj
 0001:0002f6f0       __aulldiv                  100306f0 f   LIBCMT:ulldiv.obj
 0001:0002f758       _fprintf                   10030758 f   LIBCMT:fprintf.obj
 0001:0002f864       __isdigit_l                10030864 f i LIBCMT:_ctype.obj
 0001:0002f8b5       _isdigit                   100308b5 f i LIBCMT:_ctype.obj
 0001:0002f8e3       __isxdigit_l               100308e3 f i LIBCMT:_ctype.obj
 0001:0002f939       _isxdigit                  10030939 f i LIBCMT:_ctype.obj
 0001:0002f969       __isspace_l                10030969 f i LIBCMT:_ctype.obj
 0001:0002f9ba       _isspace                   100309ba f i LIBCMT:_ctype.obj
 0001:0002f9f0       _memchr                    100309f0 f   LIBCMT:memchr.obj
 0001:0002faa0       _strpbrk                   10030aa0 f   LIBCMT:strpbrk.obj
 0001:0002fae0       _strncpy                   10030ae0 f   LIBCMT:strncpy.obj
 0001:0002fc04       __snwprintf                10030c04 f   LIBCMT:snwprint.obj
 0001:0002fd32       __pclose                   10030d32 f   LIBCMT:popen.obj
 0001:0002fdfd       __wpopen                   10030dfd f   LIBCMT:wpopen.obj
 0001:00030369       __tmpfile_helper           10031369 f   LIBCMT:tmpfile.obj
 0001:0003055c       _tmpfile                   1003155c f   LIBCMT:tmpfile.obj
 0001:00030578       _vfscanf                   10031578 f   LIBCMT:fscanf.obj
 0001:00030672       _fscanf                    10031672 f   LIBCMT:fscanf.obj
 0001:00030692       _fgets                     10031692 f   LIBCMT:fgets.obj
 0001:000307ca       _clearerr_s                100317ca f   LIBCMT:clearerr.obj
 0001:0003086e       _clearerr                  1003186e f   LIBCMT:clearerr.obj
 0001:00030879       __fwrite_nolock            10031879 f   LIBCMT:fwrite.obj
 0001:000309d0       _fwrite                    100319d0 f   LIBCMT:fwrite.obj
 0001:00030a4a       __ftell_nolock             10031a4a f   LIBCMT:ftell.obj
 0001:00030bde       _ftell                     10031bde f   LIBCMT:ftell.obj
 0001:00030c43       __fseek_nolock             10031c43 f   LIBCMT:fseek.obj
 0001:00030ccd       _fseek                     10031ccd f   LIBCMT:fseek.obj
 0001:00030d49       _setvbuf                   10031d49 f   LIBCMT:setvbuf.obj
 0001:00030e3f       __flush                    10031e3f f   LIBCMT:fflush.obj
 0001:00030ea7       __fflush_nolock            10031ea7 f   LIBCMT:fflush.obj
 0001:00030fc9       _fflush                    10031fc9 f   LIBCMT:fflush.obj
 0001:0003101c       __flushall                 1003201c f   LIBCMT:fflush.obj
 0001:00031030       _strrchr                   10032030 f   LIBCMT:strrchr.obj
 0001:0003105d       __wgetenv_helper_nolock    1003205d f   LIBCMT:wgetenv.obj
 0001:000310f8       __wgetenv                  100320f8 f   LIBCMT:wgetenv.obj
 0001:00031172       __wdupenv_s                10032172 f   LIBCMT:wgetenv.obj
 0001:00031249       __wsystem                  10032249 f   LIBCMT:wsystem.obj
 0001:00031330       __alldvrm                  10032330 f   LIBCMT:lldvrm.obj
 0001:0003140f       _wcscmp                    1003240f f   LIBCMT:wcscmp.obj
 0001:0003144d       __CRT_INIT@12              1003244d f   LIBCMT:dllcrt0.obj
 0001:000316a7       __DllMainCRTStartup@12     100326a7 f   LIBCMT:dllcrt0.obj
 0001:000316ca       __forcdecpt_l              100326ca f   LIBCMT:cvt.obj
 0001:0003173e       __cropzeros_l              1003273e f   LIBCMT:cvt.obj
 0001:000317c0       __positive                 100327c0 f   LIBCMT:cvt.obj
 0001:000317dc       __fassign_l                100327dc f   LIBCMT:cvt.obj
 0001:0003181e       __fassign                  1003281e f   LIBCMT:cvt.obj
 0001:00031857       __forcdecpt                10032857 f   LIBCMT:cvt.obj
 0001:0003186a       __cropzeros                1003286a f   LIBCMT:cvt.obj
 0001:000319de       __cftoe_l                  100329de f   LIBCMT:cvt.obj
 0001:00031aa5       __cftoe                    10032aa5 f   LIBCMT:cvt.obj
 0001:00031ac5       __cftoa_l                  10032ac5 f   LIBCMT:cvt.obj
 0001:00031f3e       __cftof_l                  10032f3e f   LIBCMT:cvt.obj
 0001:00031fff       __cftog_l                  10032fff f   LIBCMT:cvt.obj
 0001:000320ec       __cfltcvt_l                100330ec f   LIBCMT:cvt.obj
 0001:00032174       __cfltcvt                  10033174 f   LIBCMT:cvt.obj
 0001:00032197       __initp_misc_cfltcvt_tab   10033197 f   LIBCMT:cmiscdat.obj
 0001:000321ba       __setdefaultprecision      100331ba f   LIBCMT:fp8.obj
 0001:000321e2       ___sse2_available_init     100331e2 f   LIBCMT:cpu_disp.obj
 0001:000321f2       __flsbuf                   100331f2 f   LIBCMT:_flsbuf.obj
 0001:000323fd       __output_l                 100333fd f   LIBCMT:output.obj
 0001:00032fa9       __initp_misc_invarg        10033fa9 f   LIBCMT:invarg.obj
 0001:00032fb8       __call_reportfault         10033fb8 f   LIBCMT:invarg.obj
 0001:000330e1       __invoke_watson            100340e1 f   LIBCMT:invarg.obj
 0001:00033106       __invalid_parameter        10034106 f   LIBCMT:invarg.obj
 0001:00033133       __invalid_parameter_noinfo 10034133 f   LIBCMT:invarg.obj
 0001:00033143       __controlfp_s              10034143 f   LIBCMT:_contrlfp_.obj
 0001:000331a2       ___set_fpsr_sse2           100341a2 f   LIBCMT:_fpctrl_.obj
 0001:00033214       __initp_misc_winsig        10034214 f   LIBCMT:winsig.obj
 0001:00033269       ___get_sigabrt             10034269 f   LIBCMT:winsig.obj
 0001:00033276       _raise                     10034276 f   LIBCMT:winsig.obj
 0001:00033419       __VEC_memzero              10034419 f   LIBCMT:p4_memset.obj
 0001:000334d3       __heap_init                100344d3 f   LIBCMT:heapinit.obj
 0001:000334f1       __heap_term                100344f1 f   LIBCMT:heapinit.obj
 0001:00033505       ___crtCorExitProcess       10034505 f   LIBCMT:crt0dat.obj
 0001:00033530       ___crtExitProcess          10034530 f   LIBCMT:crt0dat.obj
 0001:00033548       __lockexit                 10034548 f   LIBCMT:crt0dat.obj
 0001:00033551       __unlockexit               10034551 f   LIBCMT:crt0dat.obj
 0001:0003355a       __init_pointers            1003455a f   LIBCMT:crt0dat.obj
 0001:0003358d       __initterm_e               1003458d f   LIBCMT:crt0dat.obj
 0001:000335b1       __cinit                    100345b1 f   LIBCMT:crt0dat.obj
 0001:00033788       __exit                     10034788 f   LIBCMT:crt0dat.obj
 0001:0003379e       __cexit                    1003479e f   LIBCMT:crt0dat.obj
 0001:000337ad       __amsg_exit                100347ad f   LIBCMT:crt0dat.obj
 0001:000337cb       __GET_RTERRMSG             100347cb f   LIBCMT:crt0msg.obj
 0001:000337f1       __NMSG_WRITE               100347f1 f   LIBCMT:crt0msg.obj
 0001:000339a0       __FF_MSGBANNER             100349a0 f   LIBCMT:crt0msg.obj
 0001:000339d9       __initp_heap_handler       100349d9 f   LIBCMT:handler.obj
 0001:000339e8       __callnewh                 100349e8 f   LIBCMT:handler.obj
 0001:00033a10       __close_nolock             10034a10 f   LIBCMT:close.obj
 0001:00033aac       __close                    10034aac f   LIBCMT:close.obj
 0001:00033b70       __fileno                   10034b70 f   LIBCMT:fileno.obj
 0001:00033b96       __freebuf                  10034b96 f   LIBCMT:_freebuf.obj
 0001:00033bd0       __SEH_prolog4              10034bd0 f   LIBCMT:sehprolg4.obj
 0001:00033c15       __SEH_epilog4              10034c15 f   LIBCMT:sehprolg4.obj
 0001:00033c30       __except_handler4          10034c30 f   LIBCMT:chandler4.obj
 0001:00033dbf       __wopenfile                10034dbf f   LIBCMT:_wopen.obj
 0001:00034078       __getstream                10035078 f   LIBCMT:stream.obj
 0001:000341b0       __local_unwind4            100351b0 f   LIBCMT:exsup4.obj
 0001:00034286       __seh_longjmp_unwind4@4    10035286 f   LIBCMT:exsup4.obj
 0001:000342a2       @_EH4_CallFilterFunc@8     100352a2 f   LIBCMT:exsup4.obj
 0001:000342b9       @_EH4_TransferToHandler@8  100352b9 f   LIBCMT:exsup4.obj
 0001:000342d2       @_EH4_GlobalUnwind2@8      100352d2 f   LIBCMT:exsup4.obj
 0001:000342eb       @_EH4_LocalUnwind@16       100352eb f   LIBCMT:exsup4.obj
 0001:00034302       __VEC_memcpy               10035302 f   LIBCMT:p4_memcpy.obj
 0001:00034405       _wcscpy_s                  10035405 f   LIBCMT:wcscpy_s.obj
 0001:00034468       _calloc                    10035468 f   LIBCMT:calloc.obj
 0001:000344a8       _wcslen                    100354a8 f   LIBCMT:wcslen.obj
 0001:000344c3       __filbuf                   100354c3 f   LIBCMT:_filbuf.obj
 0001:000345e5       __read_nolock              100355e5 f   LIBCMT:read.obj
 0001:00034b9c       __read                     10035b9c f   LIBCMT:read.obj
 0001:00034c92       _memcpy_s                  10035c92 f   LIBCMT:memcpy_s.obj
 0001:00034d07       ___sys_nerr                10035d07 f   LIBCMT:syserr.obj
 0001:00034d0d       ___sys_errlist             10035d0d f   LIBCMT:syserr.obj
 0001:00034d13       _strcpy_s                  10035d13 f   LIBCMT:strcpy_s.obj
 0001:00034d72       __malloc_crt               10035d72 f   LIBCMT:crtheap.obj
 0001:00034db7       __calloc_crt               10035db7 f   LIBCMT:crtheap.obj
 0001:00034e03       __realloc_crt              10035e03 f   LIBCMT:crtheap.obj
 0001:00034e51       __recalloc_crt             10035e51 f   LIBCMT:crtheap.obj
 0001:00034ea3       __encoded_null             10035ea3 f   LIBCMT:tidtable.obj
 0001:00034eac       ___crtTlsAlloc@4           10035eac f   LIBCMT:tidtable.obj
 0001:00034eb5       ___set_flsgetvalue         10035eb5 f   LIBCMT:tidtable.obj
 0001:00034ee9       __mtterm                   10035ee9 f   LIBCMT:tidtable.obj
 0001:00034f26       __initptd                  10035f26 f   LIBCMT:tidtable.obj
 0001:00034fda       __getptd_noexit            10035fda f   LIBCMT:tidtable.obj
 0001:00035053       __getptd                   10036053 f   LIBCMT:tidtable.obj
 0001:0003506d       __freefls@4                1003606d f   LIBCMT:tidtable.obj
 0001:0003519c       __freeptd                  1003619c f   LIBCMT:tidtable.obj
 0001:0003520a       __mtinit                   1003620a f   LIBCMT:tidtable.obj
 0001:00035385       __lseek_nolock             10036385 f   LIBCMT:lseek.obj
 0001:000353fa       __lseek                    100363fa f   LIBCMT:lseek.obj
 0001:000354ce       __ioinit                   100364ce f   LIBCMT:ioinit.obj
 0001:00035713       __ioterm                   10036713 f   LIBCMT:ioinit.obj
 0001:00035766       __getbuf                   10036766 f   LIBCMT:_getbuf.obj
 0001:000357af       __fcloseall                100367af f   LIBCMT:closeall.obj
 0001:0003584b       __mtinitlocks              1003684b f   LIBCMT:mlock.obj
 0001:00035895       __mtdeletelocks            10036895 f   LIBCMT:mlock.obj
 0001:000358ec       __unlock                   100368ec f   LIBCMT:mlock.obj
 0001:00035903       __mtinitlocknum            10036903 f   LIBCMT:mlock.obj
 0001:000359c5       __lock                     100369c5 f   LIBCMT:mlock.obj
 0001:00035c1b       ___updatetmbcinfo          10036c1b f   LIBCMT:mbctype.obj
 0001:00035d3b       __setmbcp_nolock           10036d3b f   LIBCMT:mbctype.obj
 0001:00035f24       __setmbcp                  10036f24 f   LIBCMT:mbctype.obj
 0001:000360be       ___initmbctable            100370be f   LIBCMT:mbctype.obj
 0001:000360dc       ___addlocaleref            100370dc f   LIBCMT:localref.obj
 0001:0003616b       ___removelocaleref         1003716b f   LIBCMT:localref.obj
 0001:00036204       ___freetlocinfo            10037204 f   LIBCMT:localref.obj
 0001:0003634f       __updatetlocinfoEx_nolock  1003734f f   LIBCMT:localref.obj
 0001:0003639c       ___updatetlocinfo          1003739c f   LIBCMT:localref.obj
 0001:00036415       __towlower_l               10037415 f   LIBCMT:towlower.obj
 0001:000364b5       __stbuf                    100374b5 f   LIBCMT:_sftbuf.obj
 0001:00036551       __ftbuf                    10037551 f   LIBCMT:_sftbuf.obj
 0001:00036585       __isctype_l                10037585 f   LIBCMT:isctype.obj
 0001:000366e5       __woutput_l                100376e5 f   LIBCMT:woutput.obj
 0001:000372a9       __mbsrchr_l                100382a9 f   LIBCMT:mbsrchr.obj
 0001:00037353       __mbsrchr                  10038353 f   LIBCMT:mbsrchr.obj
 0001:0003736a       _strcat_s                  1003836a f   LIBCMT:strcat_s.obj
 0001:000373e0       _strlen                    100383e0 f   LIBCMT:strlen.obj
 0001:0003746b       __pipe                     1003846b f   LIBCMT:pipe.obj
 0001:00037711       __cwait                    10038711 f   LIBCMT:wait.obj
 0001:000377a2       __wgetpath                 100387a2 f   LIBCMT:wgetpath.obj
 0001:00037853       __waccess_s                10038853 f   LIBCMT:waccess.obj
 0001:000378d2       _wcscat_s                  100388d2 f   LIBCMT:wcscat_s.obj
 0001:00037947       __wfdopen                  10038947 f   LIBCMT:wfdopen.obj
 0001:00037ad0       __SEH_prolog4_GS           10038ad0 f   LIBCMT:sehprolg4gs.obj
 0001:00037b18       __SEH_epilog4_GS           10038b18 f   LIBCMT:sehprolg4gs.obj
 0001:00037be1       __ultoa_s                  10038be1 f   LIBCMT:xtoas.obj
 0001:00037bfb       __getpid                   10038bfb f   LIBCMT:getpid.obj
 0001:00037e2c       _strtoul                   10038e2c f   LIBCMT:strtol.obj
 0001:00037e58       @__security_check_cookie@4 10038e58 f   LIBCMT:secchk.obj
 0001:00037e67       __rmtmp                    10038e67 f   LIBCMT:rmtmp.obj
 0001:00037f10       __strdup                   10038f10 f   LIBCMT:strdup.obj
 0001:00038696       __sopen_helper             10039696 f   LIBCMT:open.obj
 0001:0003875a       __sopen_s                  1003975a f   LIBCMT:open.obj
 0001:00038831       __input_l                  10039831 f   LIBCMT:input.obj
 0001:00039835       __write_nolock             1003a835 f   LIBCMT:write.obj
 0001:00039f32       __write                    1003af32 f   LIBCMT:write.obj
 0001:0003a006       __commit                   1003b006 f   LIBCMT:commit.obj
 0001:0003a0df       __wcsnicoll_l              1003b0df f   LIBCMT:wcsnicol.obj
 0001:0003a1ff       __wcsnicoll                1003b1ff f   LIBCMT:wcsnicol.obj
 0001:0003a2b9       ___mbtow_environ           1003b2b9 f   LIBCMT:mbtowenv.obj
 0001:0003a340       __wsetenvp                 1003b340 f   LIBCMT:wstdenvp.obj
 0001:0003a41c       ___crtGetEnvironmentStringsW 1003b41c f   LIBCMT:w_env.obj
 0001:0003a474       _wcsnlen                   1003b474 f   LIBCMT:wcslen_s.obj
 0001:0003a494       __wspawnvpe                1003b494 f   LIBCMT:wspwnvpe.obj
 0001:0003a71e       __wspawnve                 1003b71e f   LIBCMT:wspawnve.obj
 0001:0003a90c       __setenvp                  1003b90c f   LIBCMT:stdenvp.obj
 0001:0003ab82       __setargv                  1003bb82 f   LIBCMT:stdargv.obj
 0001:0003ac3d       ___crtGetEnvironmentStringsA 1003bc3d f   LIBCMT:a_env.obj
 0001:0003acd4       __RTC_Initialize           1003bcd4 f   LIBCMT:_initsect_.obj
 0001:0003acfa       __RTC_Terminate            1003bcfa f   LIBCMT:_initsect_.obj
 0001:0003ad20       __XcptFilter               1003bd20 f   LIBCMT:winxfltr.obj
 0001:0003ae6a       ___CppXcptFilter           1003be6a f   LIBCMT:winxfltr.obj
 0001:0003ae8a       ___security_init_cookie    1003be8a f   LIBCMT:gs_support.obj
 0001:0003af25       __tolower_l                1003bf25 f   LIBCMT:tolower.obj
 0001:0003b03a       _tolower                   1003c03a f   LIBCMT:tolower.obj
 0001:0003b066       __atodbl_l                 1003c066 f   LIBCMT:atodbl.obj
 0001:0003b10e       __atoflt_l                 1003c10e f   LIBCMT:atodbl.obj
 0001:0003b1c0       _memmove                   1003c1c0 f   LIBCMT:memmove.obj
 0001:0003b521       __fptostr                  1003c521 f   LIBCMT:_fptostr.obj
 0001:0003b5d4       ___dtold                   1003c5d4 f   LIBCMT:_cfout_.obj
 0001:0003b687       __fltout2                  1003c687 f   LIBCMT:_cfout_.obj
 0001:0003b715       __fptrap                   1003c715 f   LIBCMT:crt0fp.obj
 0001:0003b71e       __lseeki64_nolock          1003c71e f   LIBCMT:lseeki64.obj
 0001:0003b7a3       __lseeki64                 1003c7a3 f   LIBCMT:lseeki64.obj
 0001:0003b88d       __isatty                   1003c88d f   LIBCMT:isatty.obj
 0001:0003b8e3       __get_printf_count_output  1003c8e3 f   LIBCMT:printf.obj
 0001:0003b8f9       __wctomb_s_l               1003c8f9 f   LIBCMT:wctomb.obj
 0001:0003ba4e       _wctomb_s                  1003ca4e f   LIBCMT:wctomb.obj
 0001:0003ba6b       __isleadbyte_l             1003ca6b f i LIBCMT:_wctype.obj
 0001:0003baa3       _isleadbyte                1003caa3 f i LIBCMT:_wctype.obj
 0001:0003bac0       __aulldvrm                 1003cac0 f   LIBCMT:ulldvrm.obj
 0001:0003bb55       __crt_debugger_hook        1003cb55 f   LIBCMT:dbghook.obj
 0001:0003bb5d       ?terminate@@YAXXZ          1003cb5d f   LIBCMT:hooks.obj
 0001:0003bb96       __initp_eh_hooks           1003cb96 f   LIBCMT:hooks.obj
 0001:0003bba7       __initp_misc_rand_s        1003cba7 f   LIBCMT:rand_s.obj
 0001:0003bbb6       __initp_misc_purevirt      1003cbb6 f   LIBCMT:inithelp.obj
 0001:0003bc7b       ___onexitinit              1003cc7b f   LIBCMT:onexit.obj
 0001:0003bcac       __onexit                   1003ccac f   LIBCMT:onexit.obj
 0001:0003bce8       _atexit                    1003cce8 f   LIBCMT:onexit.obj
 0001:0003bd00       __ValidateImageBase        1003cd00 f   LIBCMT:pesect.obj
 0001:0003bd40       __FindPESection            1003cd40 f   LIBCMT:pesect.obj
 0001:0003bd90       __IsNonwritableInCurrentImage 1003cd90 f   LIBCMT:pesect.obj
 0001:0003be4c       ___crtMessageBoxW          1003ce4c f   LIBCMT:crtmboxw.obj
 0001:0003bfb8       _wcsncpy_s                 1003cfb8 f   LIBCMT:wcsncpy_s.obj
 0001:0003c085       __set_error_mode           1003d085 f   LIBCMT:errmode.obj
 0001:0003c0c4       __set_osfhnd               1003d0c4 f   LIBCMT:osfinfo.obj
 0001:0003c145       __free_osfhnd              1003d145 f   LIBCMT:osfinfo.obj
 0001:0003c1cb       __get_osfhandle            1003d1cb f   LIBCMT:osfinfo.obj
 0001:0003c234       ___lock_fhandle            1003d234 f   LIBCMT:osfinfo.obj
 0001:0003c2d3       __unlock_fhandle           1003d2d3 f   LIBCMT:osfinfo.obj
 0001:0003c2fa       __alloc_osfhnd             1003d2fa f   LIBCMT:osfinfo.obj
 0001:0003cbc8       __wsopen_helper            1003dbc8 f   LIBCMT:wopen.obj
 0001:0003cc8c       __wsopen_s                 1003dc8c f   LIBCMT:wopen.obj
 0001:0003ccac       __wcsnicmp_l               1003dcac f   LIBCMT:wcsnicmp.obj
 0001:0003cd91       __wcsnicmp                 1003dd91 f   LIBCMT:wcsnicmp.obj
 0001:0003ce2f       _wcsncmp                   1003de2f f   LIBCMT:wcsncmp.obj
 0001:0003ce70       __global_unwind2           1003de70 f   LIBCMT:exsup.obj
 0001:0003ced5       __local_unwind2            1003ded5 f   LIBCMT:exsup.obj
 0001:0003cf59       __abnormal_termination     1003df59 f   LIBCMT:exsup.obj
 0001:0003cf7c       __NLG_Notify1              1003df7c f   LIBCMT:exsup.obj
 0001:0003cf85       __NLG_Notify               1003df85 f   LIBCMT:exsup.obj
 0001:0003cf9c       __NLG_Dispatch2            1003df9c     LIBCMT:exsup.obj
 0001:0003cf9c       __NLG_Dispatch             1003df9c     LIBCMT:exsup.obj
 0001:0003cfa4       __NLG_Call                 1003dfa4 f   LIBCMT:exsup.obj
 0001:0003cfa6       __NLG_Return2              1003dfa6     LIBCMT:exsup.obj
 0001:0003cfa7       __calloc_impl              1003dfa7 f   LIBCMT:calloc_impl.obj
 0001:0003d029       _realloc                   1003e029 f   LIBCMT:realloc.obj
 0001:0003d0d6       __recalloc                 1003e0d6 f   LIBCMT:recalloc.obj
 0001:0003d144       __freea                    1003e144 f i LIBCMT:a_map.obj
 0001:0003d34b       ___crtLCMapStringA         1003e34b f   LIBCMT:a_map.obj
 0001:0003d478       ___crtGetStringTypeA       1003e478 f   LIBCMT:a_str.obj
 0001:0003d4b8       ___free_lc_time            1003e4b8 f   LIBCMT:inittime.obj
 0001:0003d82f       ___free_lconv_num          1003e82f f   LIBCMT:initnum.obj
 0001:0003d898       ___free_lconv_mon          1003e898 f   LIBCMT:initmon.obj
 0001:0003d996       ___crtLCMapStringW         1003e996 f   LIBCMT:w_map.obj
 0001:0003d9d0       _strcspn                   1003e9d0 f   LIBCMT:strcspn.obj
 0001:0003da20       _strcmp                    1003ea20 f   LIBCMT:strcmp.obj
 0001:0003daa8       __fputwc_nolock            1003eaa8 f   LIBCMT:fputwc.obj
 0001:0003dc2f       __mbtowc_l                 1003ec2f f   LIBCMT:mbtowc.obj
 0001:0003dd45       _mbtowc                    1003ed45 f   LIBCMT:mbtowc.obj
 0001:0003dd5f       _strnlen                   1003ed5f f   LIBCMT:strlen_s.obj
 0001:0003dd7c       __setmode_nolock           1003ed7c f   LIBCMT:setmode.obj
 0001:0003de37       __get_fmode                1003ee37 f   LIBCMT:setmode.obj
 0001:0003de64       ___report_gsfailure        1003ee64 f   LIBCMT:gs_report.obj
 0001:0003df6a       __chsize_nolock            1003ef6a f   LIBCMT:chsize.obj
 0001:0003e120       __putwch_nolock            1003f120 f   LIBCMT:putwch.obj
 0001:0003e162       ___crtCompareStringW       1003f162 f   LIBCMT:w_cmp.obj
 0001:0003e27a       ___crtwsetenv              1003f27a f   LIBCMT:wsetenv.obj
 0001:0003e4fa       __wdospawn                 1003f4fa f   LIBCMT:wdospawn.obj
 0001:0003e709       __wcenvarg                 1003f709 f   LIBCMT:wcenvarg.obj
 0001:0003eb3a       __ismbblead                1003fb3a f   LIBCMT:ismbbyte.obj
 0001:0003eb52       __ld12tod                  1003fb52 f   LIBCMT:_intrncvt_.obj
 0001:0003f0a3       __ld12tof                  100400a3 f   LIBCMT:_intrncvt_.obj
 0001:0003f5f4       ___strgtold12_l            100405f4 f   LIBCMT:_strgtold_.obj
 0001:0003fcd0       _$I10_OUTPUT               10040cd0 f   LIBCMT:_x10fout_.obj
 0001:000405c8       _abort                     100415c8 f   LIBCMT:abort.obj
 0001:000405fb       __msize                    100415fb f   LIBCMT:msize.obj
 0001:00040630       __alloca_probe_16          10041630 f   LIBCMT:alloca16.obj
 0001:00040646       __alloca_probe_8           10041646     LIBCMT:alloca16.obj
 0001:0004065c       __flswbuf                  1004165c f   LIBCMT:_flswbuf.obj
 0001:000407d0       ___initconout              100417d0 f   LIBCMT:initcon.obj
 0001:000407ef       ___termconout              100417ef f   LIBCMT:initcon.obj
 0001:00040806       ___mtold12                 10041806 f   LIBCMT:_mantold_.obj
 0001:000409f0       ___ascii_strnicmp          100419f0 f   LIBCMT:_strnicm.obj
 0001:00040a52       _RtlUnwind@16              10041a52 f   kernel32:KERNEL32.dll
 0001:00040bcc       __strupr_s_l               10041bcc f   LIBCMT:strupr.obj
 0001:00040c01       __strupr                   10041c01 f   LIBCMT:strupr.obj
 0001:00040c01       _strupr                    10041c01 f   LIBCMT:strupr.obj
 0001:000412ec       __IMPORT_DESCRIPTOR_KERNEL32 100422ec     kernel32:KERNEL32.dll
 0001:00041300       __IMPORT_DESCRIPTOR_ADVAPI32 10042300     advapi32:ADVAPI32.dll
 0001:00041314       __IMPORT_DESCRIPTOR_SHELL32 10042314     shell32:SHELL32.dll
 0001:00041328       __IMPORT_DESCRIPTOR_lua51  10042328     lua51:lua51.dll
 0001:0004133c       __IMPORT_DESCRIPTOR_RPCRT4 1004233c     rpcrt4:RPCRT4.dll
 0001:00041350       __NULL_IMPORT_DESCRIPTOR   10042350     kernel32:KERNEL32.dll
 0002:00000000       _Keys                      10044000     flags.obj
 0002:00000ac8       _VirtualKeyStrings         10044ac8     service.obj
 0002:00007c40       __fltused                  1004bc40     LIBCMT:_fpinit_.obj
 0002:00007c44       __ldused                   1004bc44     LIBCMT:_fpinit_.obj
 0002:00007dc0       __iob                      1004bdc0     LIBCMT:_file.obj
 0002:00008040       __cfltcvt_tab              1004c040     LIBCMT:cmiscdat.obj
 0002:00008068       ___nullstring              1004c068     LIBCMT:output.obj
 0002:0000806c       ___wnullstring             1004c06c     LIBCMT:output.obj
 0002:00008090       ___security_cookie         1004c090     LIBCMT:gs_cookie.obj
 0002:00008094       ___security_cookie_complement 1004c094     LIBCMT:gs_cookie.obj
 0002:000080a0       __lookuptrailbytes         1004c0a0     LIBCMT:read.obj
 0002:000081a0       __sys_errlist              1004c1a0     LIBCMT:syserr.obj
 0002:00008250       __sys_nerr                 1004c250     LIBCMT:syserr.obj
 0002:00008254       ___flsindex                1004c254     LIBCMT:tidtable.obj
 0002:00008258       ___getvalueindex           1004c258     LIBCMT:tidtable.obj
 0002:00008260       ___badioinfo               1004c260     LIBCMT:ioinit.obj
 0002:000083c0       __pctype                   1004c3c0     LIBCMT:ctype.obj
 0002:000083c4       __pwctype                  1004c3c4     LIBCMT:ctype.obj
 0002:000083c8       ___initialmbcinfo          1004c3c8     LIBCMT:mbctype.obj
 0002:000085e8       __mbctype                  1004c5e8     LIBCMT:mbctype.obj
 0002:000086f0       __mbcasemap                1004c6f0     LIBCMT:mbctype.obj
 0002:000087f0       ___ptmbcinfo               1004c7f0     LIBCMT:mbctype.obj
 0002:000088e8       ___globallocalestatus      1004c8e8     LIBCMT:glstatus.obj
 0002:000088ec       ___clocalestr              1004c8ec     LIBCMT:nlsdata2.obj
 0002:000088f0       ___lc_time_c               1004c8f0     LIBCMT:nlsdata2.obj
 0002:00008a58       ___initiallocinfo          1004ca58     LIBCMT:nlsdata2.obj
 0002:00008b30       ___ptlocinfo               1004cb30     LIBCMT:nlsdata2.obj
 0002:00008b34       ___initiallocalestructinfo 1004cb34     LIBCMT:nlsdata2.obj
 0002:00008b40       __tmpoff                   1004cb40     LIBCMT:rmtmp.obj
 0002:00008b44       __tempoff                  1004cb44     LIBCMT:rmtmp.obj
 0002:00008b60       __NLG_Destination          1004cb60     LIBCMT:exsup.obj
 0002:00008b70       ___lconv_static_decimal    1004cb70     LIBCMT:lconv.obj
 0002:00008b74       ___lconv_static_W_decimal  1004cb74     LIBCMT:lconv.obj
 0002:00008b78       ___lconv_c                 1004cb78     LIBCMT:lconv.obj
 0002:00008bc8       ___lconv                   1004cbc8     LIBCMT:lconv.obj
 0002:00008bcc       ___mb_cur_max              1004cbcc     LIBCMT:nlsdata1.obj
 0002:00008bd0       ___decimal_point           1004cbd0     LIBCMT:nlsdata1.obj
 0002:00008bd4       ___decimal_point_length    1004cbd4     LIBCMT:nlsdata1.obj
 0002:00008c10       ___abort_behavior          1004cc10     LIBCMT:abort.obj
 0002:00008c20       __confh                    1004cc20     LIBCMT:initcon.obj
 0002:00008c28       __pow10pos                 1004cc28     LIBCMT:_constpow_.obj
 0002:00008d88       __pow10neg                 1004cd88     LIBCMT:_constpow_.obj
 0002:00008f24       ___fastflag                1004cf24     LIBCMT:_fpinit_.obj
 0002:00008f28       __cflush                   1004cf28     LIBCMT:_file.obj
 0002:00008f2c       ___idtabsiz                1004cf2c     LIBCMT:popen.obj
 0002:00008f30       ___idpairs                 1004cf30     LIBCMT:popen.obj
 0002:00008f70       __aenvptr                  1004cf70     LIBCMT:dllcrt0.obj
 0002:00008f74       __wenvptr                  1004cf74     LIBCMT:dllcrt0.obj
 0002:00008f78       ___error_mode              1004cf78     LIBCMT:dllcrt0.obj
 0002:00008f7c       ___app_type                1004cf7c     LIBCMT:dllcrt0.obj
 0002:00008f80       ___pInvalidArgHandler      1004cf80     LIBCMT:invarg.obj
 0002:00008f98       __crtheap                  1004cf98     LIBCMT:heapinit.obj
 0002:00008f9c       __umaskval                 1004cf9c     LIBCMT:crt0dat.obj
 0002:00008fa0       ___argc                    1004cfa0     LIBCMT:crt0dat.obj
 0002:00008fa4       ___argv                    1004cfa4     LIBCMT:crt0dat.obj
 0002:00008fa8       ___wargv                   1004cfa8     LIBCMT:crt0dat.obj
 0002:00008fac       __environ                  1004cfac     LIBCMT:crt0dat.obj
 0002:00008fb0       ___initenv                 1004cfb0     LIBCMT:crt0dat.obj
 0002:00008fb4       __wenviron                 1004cfb4     LIBCMT:crt0dat.obj
 0002:00008fb8       ___winitenv                1004cfb8     LIBCMT:crt0dat.obj
 0002:00008fbc       __pgmptr                   1004cfbc     LIBCMT:crt0dat.obj
 0002:00008fc0       __wpgmptr                  1004cfc0     LIBCMT:crt0dat.obj
 0002:00008fc4       __exitflag                 1004cfc4     LIBCMT:crt0dat.obj
 0002:00008fc8       __C_Termination_Done       1004cfc8     LIBCMT:crt0dat.obj
 0002:00008fcc       __C_Exit_Done              1004cfcc     LIBCMT:crt0dat.obj
 0002:000095f8       ?_pnhHeap@@3P6AHI@ZA       1004d5f8     LIBCMT:handler.obj
 0002:000095fc       __newmode                  1004d5fc     LIBCMT:_newmode.obj
 0002:00009600       __maxwait                  1004d600     LIBCMT:crtheap.obj
 0002:00009604       _gpFlsAlloc                1004d604     LIBCMT:tidtable.obj
 0002:00009608       _gpFlsGetValue             1004d608     LIBCMT:tidtable.obj
 0002:0000960c       _gpFlsSetValue             1004d60c     LIBCMT:tidtable.obj
 0002:00009610       _gpFlsFree                 1004d610     LIBCMT:tidtable.obj
 0002:0000976c       ___mbulinfo                1004d76c     LIBCMT:mbctype.obj
 0002:00009778       ___mbcodepage              1004d778     LIBCMT:mbctype.obj
 0002:0000977c       ___ismbcodepage            1004d77c     LIBCMT:mbctype.obj
 0002:00009780       ___mblcid                  1004d780     LIBCMT:mbctype.obj
 0002:00009784       ___locale_changed          1004d784     LIBCMT:setlocal.obj
 0002:00009788       __stdbuf                   1004d788     LIBCMT:_sftbuf.obj
 0002:00009790       __old_pfxlen               1004d790     LIBCMT:rmtmp.obj
 0002:00009794       __commode                  1004d794     LIBCMT:ncommode.obj
 0002:000098a0       __outputformat             1004d8a0     LIBCMT:outputformat.obj
 0002:000098a8       ?__pInconsistency@@3P6AXXZA 1004d8a8     LIBCMT:hooks.obj
 0002:000098b0       ___pPurecall               1004d8b0     LIBCMT:inithelp.obj
 0002:000098c8       ___lconv_static_null       1004d8c8     LIBCMT:lconv.obj
 0002:000098cc       ___lconv_static_W_null     1004d8cc     LIBCMT:lconv.obj
 0002:00009bf4       __fmode                    1004dbf4     LIBCMT:txtmode.obj
 0002:00009bf8       _EnumCP                    1004dbf8     <common>
 0002:00009c00       __debugger_hook_dummy      1004dc00     <common>
 0002:00009c04       __nhandle                  1004dc04     <common>
 0002:00009c20       ___pioinfo                 1004dc20     <common>
 0002:00009d20       __pDestructExceptionObject 1004dd20     <common>
 0002:00009d24       ___env_initialized         1004dd24     <common>
 0002:00009d28       ___onexitend               1004dd28     <common>
 0002:00009d2c       ___onexitbegin             1004dd2c     <common>
 0002:00009d30       ___mbctype_initialized     1004dd30     <common>
 0002:00009d34       ___dyn_tls_init_callback   1004dd34     <common>
 0002:00009d38       ___sse2_available          1004dd38     <common>
 0002:00009d3c       __acmdln                   1004dd3c     <common>
 0002:00009d40       ___piob                    1004dd40     <common>
 0002:00009d60       __bufin                    1004dd60     <common>
 0002:0000ad60       __nstream                  1004ed60     <common>

 entry point at        0001:000316a7

 Static symbols

 0001:000112b0       _band                      100122b0 f   bit64.obj
 0001:00011430       _bor                       10012430 f   bit64.obj
 0001:000115b0       _bxor                      100125b0 f   bit64.obj
 0001:00011730       _bnot                      10012730 f   bit64.obj
 0001:00011820       _lshift                    10012820 f   bit64.obj
 0001:00011910       _rshift                    10012910 f   bit64.obj
 0001:00011a00       _arshift                   10012a00 f   bit64.obj
 0001:00011af0       _f_new                     10012af0 f   bit64.obj
 0001:00011d20       _f_tostring                10012d20 f   bit64.obj
 0001:00011df0       _f_type                    10012df0 f   bit64.obj
 0001:00011e60       _f_add                     10012e60 f   bit64.obj
 0001:00011fe0       _f_sub                     10012fe0 f   bit64.obj
 0001:00012140       _f_mul                     10013140 f   bit64.obj
 0001:000122d0       _f_div                     100132d0 f   bit64.obj
 0001:000124f0       _f_mod                     100134f0 f   bit64.obj
 0001:00012660       _f_unm                     10013660 f   bit64.obj
 0001:00012720       _f_eq                      10013720 f   bit64.obj
 0001:00012890       _f_lt                      10013890 f   bit64.obj
 0001:00012a00       _f_le                      10013a00 f   bit64.obj
 0001:00013850       _RunDefaultScript          10014850 f   exported.obj
 0001:00013a50       _CheckReloadDefaultScript  10014a50 f   exported.obj
 0001:00013ac0       _RegisterObject            10014ac0 f   exported.obj
 0001:00013b00       _PushAnalyseInfo           10014b00 f   exported.obj
 0001:000144d0       _FillFarMacroCall_Callback@12 100154d0 f   exported.obj
 0001:00014530       _FillFarMacroCall          10015530 f   exported.obj
 0001:000160c0       _getF                      100170c0 f   lflua.obj
 0001:00016120       _errfile                   10017120 f   lflua.obj
 0001:00016160       _skipBOM                   10017160 f   lflua.obj
 0001:00017550       _FL_PushParams             10018550 f   luamacro.obj
 0001:00017980       _MacroCallFarCallback@12   10018980 f   luamacro.obj
 0001:00017be0       _uc_tostring               10018be0 f   lusercontrol.obj
 0001:00017c40       _uc_index                  10018c40 f   lusercontrol.obj
 0001:00017cc0       _uc_newindex               10018cc0 f   lusercontrol.obj
 0001:00017d80       _uc_New                    10018d80 f   lusercontrol.obj
 0001:00018080       _CreateSynchroData         10019080 f   service.obj
 0001:00018130       _get_env_flag              10019130 f   service.obj
 0001:00018260       _check_env_flag            10019260 f   service.obj
 0001:000184c0       _CheckFlags                100194c0 f   service.obj
 0001:00018500       _CheckFlagsFromTable       10019500 f   service.obj
 0001:00018730       _far_GetFileOwner          10019730 f   service.obj
 0001:000187c0       _far_GetNumberOfLinks      100197c0 f   service.obj
 0001:00018810       _GetMouseEvent             10019810 f   service.obj
 0001:00018940       _PushEditorSetPosition     10019940 f   service.obj
 0001:000189b0       _FillEditorSetPosition     100199b0 f   service.obj
 0001:00018ed0       _far_PluginStartupInfo     10019ed0 f   service.obj
 0001:00018f70       _far_GetCurrentDirectory   10019f70 f   service.obj
 0001:00018fd0       _editor_GetFileName        10019fd0 f   service.obj
 0001:00019080       _editor_GetInfo            1001a080 f   service.obj
 0001:00019380       _FastGetString             1001a380 f   service.obj
 0001:000193e0       __EditorGetString          1001a3e0 f   service.obj
 0001:000195f0       _editor_GetString          1001a5f0 f   service.obj
 0001:00019600       _editor_GetStringW         1001a600 f   service.obj
 0001:00019610       __EditorSetString          1001a610 f   service.obj
 0001:00019700       _editor_SetString          1001a700 f   service.obj
 0001:00019720       _editor_SetStringW         1001a720 f   service.obj
 0001:00019740       _editor_InsertString       1001a740 f   service.obj
 0001:000197b0       _editor_DeleteString       1001a7b0 f   service.obj
 0001:00019800       __EditorInsertText         1001a800 f   service.obj
 0001:000198d0       _editor_InsertText         1001a8d0 f   service.obj
 0001:00019930       _editor_InsertTextW        1001a930 f   service.obj
 0001:00019950       _editor_DeleteChar         1001a950 f   service.obj
 0001:000199a0       _editor_DeleteBlock        1001a9a0 f   service.obj
 0001:000199f0       _editor_UndoRedo           1001a9f0 f   service.obj
 0001:00019a90       _FillKeyBarTitles          1001aa90 f   service.obj
 0001:00019c20       _SetKeyBar                 1001ac20 f   service.obj
 0001:00019d70       _editor_SetKeyBar          1001ad70 f   service.obj
 0001:00019d80       _viewer_SetKeyBar          1001ad80 f   service.obj
 0001:00019d90       _editor_SetParam           1001ad90 f   service.obj
 0001:00019f00       _editor_SetPosition        1001af00 f   service.obj
 0001:00019fe0       _editor_Redraw             1001afe0 f   service.obj
 0001:0001a030       _editor_ExpandTabs         1001b030 f   service.obj
 0001:0001a090       _PushBookmarks             1001b090 f   service.obj
 0001:0001a200       _editor_GetBookmarks       1001b200 f   service.obj
 0001:0001a220       _editor_GetSessionBookmarks 1001b220 f   service.obj
 0001:0001a240       _editor_AddSessionBookmark 1001b240 f   service.obj
 0001:0001a290       _editor_ClearSessionBookmarks 1001b290 f   service.obj
 0001:0001a2e0       _editor_DeleteSessionBookmark 1001b2e0 f   service.obj
 0001:0001a340       _editor_NextSessionBookmark 1001b340 f   service.obj
 0001:0001a390       _editor_PrevSessionBookmark 1001b390 f   service.obj
 0001:0001a3e0       _editor_SetTitle           1001b3e0 f   service.obj
 0001:0001a440       _editor_GetTitle           1001b440 f   service.obj
 0001:0001a4d0       _editor_Quit               1001b4d0 f   service.obj
 0001:0001a520       _FillEditorSelect          1001b520 f   service.obj
 0001:0001a5c0       _editor_Select             1001b5c0 f   service.obj
 0001:0001a6c0       _editor_GetSelection       1001b6c0 f   service.obj
 0001:0001aa40       __EditorTabConvert         1001ba40 f   service.obj
 0001:0001aad0       _editor_TabToReal          1001bad0 f   service.obj
 0001:0001aaf0       _editor_RealToTab          1001baf0 f   service.obj
 0001:0001ace0       _GetOptGuid                1001bce0 f   service.obj
 0001:0001ad60       _editor_AddColor           1001bd60 f   service.obj
 0001:0001aeb0       _editor_DelColor           1001beb0 f   service.obj
 0001:0001af50       _editor_GetColor           1001bf50 f   service.obj
 0001:0001b0a0       _editor_SaveFile           1001c0a0 f   service.obj
 0001:0001b2e0       _editor_ReadInput          1001c2e0 f   service.obj
 0001:0001b570       _OptInputRecord            1001c570 f   service.obj
 0001:0001b5f0       _editor_ProcessInput       1001c5f0 f   service.obj
 0001:0001b660       _editor_SubscribeChangeEvent 1001c660 f   service.obj
 0001:0001b6f0       _far_Menu                  1001c6f0 f   service.obj
 0001:0001c370       _far_Message               1001d370 f   service.obj
 0001:0001c4b0       _panel_CheckPanelsExist    1001d4b0 f   service.obj
 0001:0001c4f0       _panel_ClosePanel          1001d4f0 f   service.obj
 0001:0001c540       _panel_GetPanelInfo        1001d540 f   service.obj
 0001:0001c730       _get_panel_item            1001d730 f   service.obj
 0001:0001c820       _panel_GetPanelItem        1001d820 f   service.obj
 0001:0001c840       _panel_GetSelectedPanelItem 1001d840 f   service.obj
 0001:0001c860       _panel_GetCurrentPanelItem 1001d860 f   service.obj
 0001:0001c880       _get_string_info           1001d880 f   service.obj
 0001:0001c940       _panel_GetPanelFormat      1001d940 f   service.obj
 0001:0001c960       _panel_GetPanelHostFile    1001d960 f   service.obj
 0001:0001c980       _panel_GetColumnTypes      1001d980 f   service.obj
 0001:0001c9a0       _panel_GetColumnWidths     1001d9a0 f   service.obj
 0001:0001c9c0       _panel_GetPanelPrefix      1001d9c0 f   service.obj
 0001:0001c9e0       _panel_RedrawPanel         1001d9e0 f   service.obj
 0001:0001cac0       _SetPanelBooleanProperty   1001dac0 f   service.obj
 0001:0001cb50       _SetPanelIntegerProperty   1001db50 f   service.obj
 0001:0001cc10       _panel_SetCaseSensitiveSort 1001dc10 f   service.obj
 0001:0001cc30       _panel_SetNumericSort      1001dc30 f   service.obj
 0001:0001cc50       _panel_SetSortOrder        1001dc50 f   service.obj
 0001:0001cc70       _panel_SetDirectoriesFirst 1001dc70 f   service.obj
 0001:0001cc90       _panel_UpdatePanel         1001dc90 f   service.obj
 0001:0001ccb0       _panel_SetSortMode         1001dcb0 f   service.obj
 0001:0001ccc0       _panel_SetViewMode         1001dcc0 f   service.obj
 0001:0001ccd0       _panel_GetPanelDirectory   1001dcd0 f   service.obj
 0001:0001cde0       _panel_SetPanelDirectory   1001dde0 f   service.obj
 0001:0001cfa0       _panel_GetCmdLine          1001dfa0 f   service.obj
 0001:0001d020       _panel_SetCmdLine          1001e020 f   service.obj
 0001:0001d080       _panel_GetCmdLinePos       1001e080 f   service.obj
 0001:0001d0f0       _panel_SetCmdLinePos       1001e0f0 f   service.obj
 0001:0001d150       _panel_InsertCmdLine       1001e150 f   service.obj
 0001:0001d1b0       _panel_GetCmdLineSelection 1001e1b0 f   service.obj
 0001:0001d240       _panel_SetCmdLineSelection 1001e240 f   service.obj
 0001:0001d2d0       _ChangePanelSelection      1001e2d0 f   service.obj
 0001:0001d4d0       _panel_SetSelection        1001e4d0 f   service.obj
 0001:0001d4f0       _panel_ClearSelection      1001e4f0 f   service.obj
 0001:0001d500       _panel_SetUserScreen       1001e500 f   service.obj
 0001:0001d550       _panel_GetUserScreen       1001e550 f   service.obj
 0001:0001d5a0       _panel_IsActivePanel       1001e5a0 f   service.obj
 0001:0001d5f0       _panel_SetActivePanel      1001e5f0 f   service.obj
 0001:0001d670       _far_GetDirList            1001e670 f   service.obj
 0001:0001d970       _far_GetPluginDirList      1001e970 f   service.obj
 0001:0001da00       _far_RestoreScreen         1001ea00 f   service.obj
 0001:0001da80       _far_SaveScreen            1001ea80 f   service.obj
 0001:0001db20       _GetDialogItemType         1001eb20 f   service.obj
 0001:0001dd30       _PushList                  1001ed30 f   service.obj
 0001:0001ddd0       _SetFarDialogItem          1001edd0 f   service.obj
 0001:0001e030       _PushDlgItem               1001f030 f   service.obj
 0001:0001e120       _PushDlgItemNum            1001f120 f   service.obj
 0001:0001e1d0       _SetDlgItem                1001f1d0 f   service.obj
 0001:0001e3f0       _far_SendDlgMessage        1001f3f0 f   service.obj
 0001:0001faf0       _far_DialogInit            10020af0 f   service.obj
 0001:0001fdc0       _far_DialogRun             10020dc0 f   service.obj
 0001:0001fe70       _far_DialogFree            10020e70 f   service.obj
 0001:0001fed0       _dialog_tostring           10020ed0 f   service.obj
 0001:0001ff30       _dialog_rawhandle          10020f30 f   service.obj
 0001:0001ff70       _far_GetDlgItem            10020f70 f   service.obj
 0001:0001ffe0       _far_SetDlgItem            10020fe0 f   service.obj
 0001:00020050       _far_SubscribeDialogDrawEvents 10021050 f   service.obj
 0001:00020070       _editor_Editor             10021070 f   service.obj
 0001:00020190       _viewer_Viewer             10021190 f   service.obj
 0001:00020290       _viewer_GetFileName        10021290 f   service.obj
 0001:00020340       _viewer_GetInfo            10021340 f   service.obj
 0001:000205a0       _viewer_Quit               100215a0 f   service.obj
 0001:000205e0       _viewer_Redraw             100215e0 f   service.obj
 0001:00020620       _viewer_Select             10021620 f   service.obj
 0001:000206b0       _viewer_SetPosition        100216b0 f   service.obj
 0001:00020860       _viewer_SetMode            10021860 f   service.obj
 0001:00020960       _far_ShowHelp              10021960 f   service.obj
 0001:000209f0       _far_InputBox              100219f0 f   service.obj
 0001:00020b70       _far_GetMsg                10021b70 f   service.obj
 0001:00020be0       _far_Text                  10021be0 f   service.obj
 0001:00020c70       _far_CopyToClipboard       10021c70 f   service.obj
 0001:00020d50       _far_PasteFromClipboard    10021d50 f   service.obj
 0001:00020e20       _far_InputRecordToName     10021e20 f   service.obj
 0001:00020ff0       _far_NameToInputRecord     10021ff0 f   service.obj
 0001:00021060       _far_LStricmp              10022060 f   service.obj
 0001:000210b0       _far_LStrnicmp             100220b0 f   service.obj
 0001:00021120       _far_ProcessName           10022120 f   service.obj
 0001:00021340       _far_GetReparsePointInfo   10022340 f   service.obj
 0001:000213d0       _far_LIsAlpha              100223d0 f   service.obj
 0001:00021420       _far_LIsAlphanum           10022420 f   service.obj
 0001:00021470       _far_LIsLower              10022470 f   service.obj
 0001:000214c0       _far_LIsUpper              100224c0 f   service.obj
 0001:00021510       _far_LLowerBuf             10022510 f   service.obj
 0001:00021570       _far_LUpperBuf             10022570 f   service.obj
 0001:000215d0       _far_MkTemp                100225d0 f   service.obj
 0001:00021650       _far_MkLink                10022650 f   service.obj
 0001:00021720       _far_GetPathRoot           10022720 f   service.obj
 0001:000217a0       _truncstring               100227a0 f   service.obj
 0001:00021860       _far_TruncPathStr          10022860 f   service.obj
 0001:00021880       _far_TruncStr              10022880 f   service.obj
 0001:000218a0       _FrsUserFunc@12            100228a0 f   service.obj
 0001:00021960       _far_RecursiveSearch       10022960 f   service.obj
 0001:00021a70       _far_ConvertPath           10022a70 f   service.obj
 0001:00021b30       _far_AdvControl            10022b30 f   service.obj
 0001:00022270       _far_MacroLoadAll          10023270 f   service.obj
 0001:00022330       _far_MacroSaveAll          10023330 f   service.obj
 0001:00022380       _far_MacroGetState         10023380 f   service.obj
 0001:000223c0       _far_MacroGetArea          100233c0 f   service.obj
 0001:00022400       _MacroSendString           10023400 f   service.obj
 0001:000224e0       _far_MacroPost             100234e0 f   service.obj
 0001:000224f0       _far_MacroCheck            100234f0 f   service.obj
 0001:00022500       _far_MacroGetLastError     10023500 f   service.obj
 0001:00022660       _far_MacroAdd              10023660 f   service.obj
 0001:00022840       _far_MacroDelete           10023840 f   service.obj
 0001:000228d0       _AddMacroData_gc           100238d0 f   service.obj
 0001:000228e0       _far_MacroExecute          100238e0 f   service.obj
 0001:00022a10       _far_CPluginStartupInfo    10023a10 f   service.obj
 0001:00022a90       _far_MakeMenuItems         10023a90 f   service.obj
 0001:00022d40       _far_Show                  10023d40 f   service.obj
 0001:00022e40       _far_CreateFileFilter      10023e40 f   service.obj
 0001:00022f10       _filefilter_Free           10023f10 f   service.obj
 0001:00022f90       _filefilter_gc             10023f90 f   service.obj
 0001:00022fa0       _filefilter_tostring       10023fa0 f   service.obj
 0001:00022ff0       _filefilter_OpenMenu       10023ff0 f   service.obj
 0001:00023060       _filefilter_Starting       10024060 f   service.obj
 0001:000230d0       _filefilter_IsFileInFilter 100240d0 f   service.obj
 0001:00023170       _plugin_load               10024170 f   service.obj
 0001:00023230       _far_LoadPlugin            10024230 f   service.obj
 0001:00023240       _far_ForcedLoadPlugin      10024240 f   service.obj
 0001:00023250       _far_UnloadPlugin          10024250 f   service.obj
 0001:000232a0       _far_FindPlugin            100242a0 f   service.obj
 0001:00023380       _PutPluginMenuItemToTable  10024380 f   service.obj
 0001:00023440       _PutVersionInfoToTable     10024440 f   service.obj
 0001:000234a0       _far_GetPluginInformation  100244a0 f   service.obj
 0001:000236b0       _far_GetPlugins            100246b0 f   service.obj
 0001:00023790       _far_IsPluginLoaded        10024790 f   service.obj
 0001:000238a0       _far_XLat                  100248a0 f   service.obj
 0001:00023990       _far_FormatFileSize        10024990 f   service.obj
 0001:00023a80       _far_FarClock              10024a80 f   service.obj
 0001:00023bf0       _far_Timer                 10024bf0 f   service.obj
 0001:00023d50       _timer_Close               10024d50 f   service.obj
 0001:00023d70       _timer_tostring            10024d70 f   service.obj
 0001:00023dc0       _timer_index               10024dc0 f   service.obj
 0001:00023f90       _timer_newindex            10024f90 f   service.obj
 0001:00024130       _far_CreateSettings        10025130 f   service.obj
 0001:00024340       _Settings_set              10025340 f   service.obj
 0001:00024470       _Settings_get              10025470 f   service.obj
 0001:000245c0       _Settings_delete           100255c0 f   service.obj
 0001:00024660       _Settings_createsubkey     10025660 f   service.obj
 0001:00024770       _Settings_opensubkey       10025770 f   service.obj
 0001:00024820       _Settings_enum             10025820 f   service.obj
 0001:00024ae0       _Settings_free             10025ae0 f   service.obj
 0001:00024b60       _far_FreeSettings          10025b60 f   service.obj
 0001:00024be0       _Settings_tostring         10025be0 f   service.obj
 0001:00024c40       _far_ColorDialog           10025c40 f   service.obj
 0001:00024f70       _CustomAllocator           10025f70 f   service.obj
 0001:00025050       _luaopen_far               10026050 f   service.obj
 0001:00025390       _grab_one_utf8             10026390 f   slnunico.obj
 0001:00025410       _utf8_enco                 10026410 f   slnunico.obj
 0001:00025500       _utf8_deco                 10026500 f   slnunico.obj
 0001:000255e0       _utf8_oced                 100265e0 f   slnunico.obj
 0001:000256b0       _utf8_graphext             100266b0 f   slnunico.obj
 0001:000257d0       _utf8_count                100267d0 f   slnunico.obj
 0001:00025860       _unic_len                  10026860 f   slnunico.obj
 0001:000258e0       _unic_sub                  100268e0 f   slnunico.obj
 0001:00025a30       _str_reverse               10026a30 f   slnunico.obj
 0001:00025b90       _unic_lower                10026b90 f   slnunico.obj
 0001:00025ce0       _unic_upper                10026ce0 f   slnunico.obj
 0001:00025e30       _str_rep                   10026e30 f   slnunico.obj
 0001:00025eb0       _unic_byte                 10026eb0 f   slnunico.obj
 0001:00026040       _unic_char                 10027040 f   slnunico.obj
 0001:00026140       _writer                    10027140 f   slnunico.obj
 0001:00026160       _str_dump                  10027160 f   slnunico.obj
 0001:000261d0       _classend                  100271d0 f   slnunico.obj
 0001:00026270       _match_class               10027270 f   slnunico.obj
 0001:000263c0       _singlematch               100273c0 f   slnunico.obj
 0001:00026680       _matchbalance              10027680 f   slnunico.obj
 0001:000266f0       _max_expand                100276f0 f   slnunico.obj
 0001:000267f0       _start_capture             100277f0 f   slnunico.obj
 0001:00026840       _end_capture               10027840 f   slnunico.obj
 0001:000268a0       _match_capture             100278a0 f   slnunico.obj
 0001:00026930       _match                     10027930 f   slnunico.obj
 0001:00026b40       _lmemfind                  10027b40 f   slnunico.obj
 0001:00026bf0       _push_onecapture           10027bf0 f   slnunico.obj
 0001:00026c70       _push_captures             10027c70 f   slnunico.obj
 0001:00026d30       _unic_find_aux             10027d30 f   slnunico.obj
 0001:00026f30       _unic_find                 10027f30 f   slnunico.obj
 0001:00026f40       _unic_match                10027f40 f   slnunico.obj
 0001:00026f50       _gmatch_aux                10027f50 f   slnunico.obj
 0001:00027030       _gmatch                    10028030 f   slnunico.obj
 0001:000270e0       _gfind_nodef               100280e0 f   slnunico.obj
 0001:00027100       _add_s                     10028100 f   slnunico.obj
 0001:000271e0       _add_value                 100281e0 f   slnunico.obj
 0001:00027300       _unic_gsub                 10028300 f   slnunico.obj
 0001:000274a0       _addquoted                 100284a0 f   slnunico.obj
 0001:00027600       _scanformat                10028600 f   slnunico.obj
 0001:00027700       _str_format                10028700 f   slnunico.obj
 0001:00027a60       _utf8_valid                10028a60 f   slnunico.obj
 0001:00027c90       _pushresult                10028c90 f   uliolib51.obj
 0001:00027d30       _fileerror                 10028d30 f   uliolib51.obj
 0001:00027d80       _io_type                   10028d80 f   uliolib51.obj
 0001:00027e20       _io_noclose                10028e20 f   uliolib51.obj
 0001:00027e50       _io_pclose                 10028e50 f   uliolib51.obj
 0001:00027ed0       _io_fclose                 10028ed0 f   uliolib51.obj
 0001:00027f50       _io_close                  10028f50 f   uliolib51.obj
 0001:00027fd0       _io_gc                     10028fd0 f   uliolib51.obj
 0001:00028020       _io_tostring               10029020 f   uliolib51.obj
 0001:00028070       _io_open                   10029070 f   uliolib51.obj
 0001:00028150       _io_popen                  10029150 f   uliolib51.obj
 0001:000281d0       _io_tmpfile                100291d0 f   uliolib51.obj
 0001:00028250       _g_iofile                  10029250 f   uliolib51.obj
 0001:00028340       _io_input                  10029340 f   uliolib51.obj
 0001:00028360       _io_output                 10029360 f   uliolib51.obj
 0001:00028380       _read_number               10029380 f   uliolib51.obj
 0001:000283c0       _read_line                 100293c0 f   uliolib51.obj
 0001:00028490       _read_chars                10029490 f   uliolib51.obj
 0001:00028520       _g_read                    10029520 f   uliolib51.obj
 0001:000286b0       _io_read                   100296b0 f   uliolib51.obj
 0001:00028700       _f_read                    10029700 f   uliolib51.obj
 0001:00028740       _io_readline               10029740 f   uliolib51.obj
 0001:00028800       _g_write                   10029800 f   uliolib51.obj
 0001:000288f0       _io_write                  100298f0 f   uliolib51.obj
 0001:00028940       _f_write                   10029940 f   uliolib51.obj
 0001:00028980       _f_seek                    10029980 f   uliolib51.obj
 0001:00028a30       _f_setvbuf                 10029a30 f   uliolib51.obj
 0001:00028ae0       _io_flush                  10029ae0 f   uliolib51.obj
 0001:00028b70       _f_flush                   10029b70 f   uliolib51.obj
 0001:00028e20       _f_lines                   10029e20 f   uliolib51.obj
 0001:00028e70       _io_lines                  10029e70 f   uliolib51.obj
 0001:00028f50       _setprogdir                10029f50 f   uloadlib51.obj
 0001:00028fd0       _ll_register               10029fd0 f   uloadlib51.obj
 0001:00029080       _gctm                      1002a080 f   uloadlib51.obj
 0001:000290b0       _ll_loadfunc               1002a0b0 f   uloadlib51.obj
 0001:00029120       _ll_loadlib                1002a120 f   uloadlib51.obj
 0001:00029190       _pushnexttemplate          1002a190 f   uloadlib51.obj
 0001:00029210       _findfile                  1002a210 f   uloadlib51.obj
 0001:00029340       _loaderror                 1002a340 f   uloadlib51.obj
 0001:00029380       _loader_Lua                1002a380 f   uloadlib51.obj
 0001:00029400       _mkfuncname                1002a400 f   uloadlib51.obj
 0001:00029450       _loader_C                  1002a450 f   uloadlib51.obj
 0001:00029510       _loader_Croot              1002a510 f   uloadlib51.obj
 0001:000295a0       _loader_preload            1002a5a0 f   uloadlib51.obj
 0001:00029610       _ll_require                1002a610 f   uloadlib51.obj
 0001:000297c0       _setfenv                   1002a7c0 f   uloadlib51.obj
 0001:00029830       _dooptions                 1002a830 f   uloadlib51.obj
 0001:00029870       _modinit                   1002a870 f   uloadlib51.obj
 0001:000298d0       _ll_module                 1002a8d0 f   uloadlib51.obj
 0001:000299b0       _ll_seeall                 1002a9b0 f   uloadlib51.obj
 0001:00029a10       _setpath                   1002aa10 f   uloadlib51.obj
 0001:0002ae60       _ustring_OutputDebugString 1002be60 f   ustring.obj
 0001:0002b020       _ustring_system            1002c020 f   ustring.obj
 0001:0002c100       _win_GetEnv                1002d100 f   win.obj
 0001:0002c1b0       _win_SetEnv                1002d1b0 f   win.obj
 0001:0002c1f0       _CheckHKey                 1002d1f0 f   win.obj
 0001:0002c330       _win_SetRegKey             1002d330 f   win.obj
 0001:0002c5a0       _win_GetRegKey             1002d5a0 f   win.obj
 0001:0002c740       _win_DeleteRegKey          1002d740 f   win.obj
 0001:0002c780       _win_EnumRegKey            1002d780 f   win.obj
 0001:0002c870       _win_EnumRegValue          1002d870 f   win.obj
 0001:0002c960       _ExtractKey                1002d960 f   win.obj
 0001:0002c9e0       _win_ExtractKey            1002d9e0 f   win.obj
 0001:0002ca30       _PushWinFindData           1002da30 f   win.obj
 0001:0002caf0       _win_GetFileInfo           1002daf0 f   win.obj
 0001:0002cb60       _pushSystemTime            1002db60 f   win.obj
 0001:0002cbf0       _win_GetSystemTimeAsFileTime 1002dbf0 f   win.obj
 0001:0002cc20       _win_FileTimeToSystemTime  1002dc20 f   win.obj
 0001:0002cc90       _win_SystemTimeToFileTime  1002dc90 f   win.obj
 0001:0002cd90       _win_FileTimeToLocalFileTime 1002dd90 f   win.obj
 0001:0002ce00       _win_CompareString         1002de00 f   win.obj
 0001:0002cf90       _win_wcscmp                1002df90 f   win.obj
 0001:0002cfe0       _win_GetVirtualKeys        1002dfe0 f   win.obj
 0001:0002d000       _win_GetConsoleScreenBufferInfo 1002e000 f   win.obj
 0001:0002d110       _win_CopyFile              1002e110 f   win.obj
 0001:0002d180       _win_MoveFile              1002e180 f   win.obj
 0001:0002d250       _win_DeleteFile            1002e250 f   win.obj
 0001:0002d290       _mkdir                     1002e290 f   win.obj
 0001:0002d430       _win_CreateDir             1002e430 f   win.obj
 0001:0002d510       _win_RemoveDir             1002e510 f   win.obj
 0001:0002d550       _win_ShellExecute          1002e550 f   win.obj
 0001:0002d660       ?EncodePointer@implementation@?1??EncodePointerWrapper@@9@4@SGPAXPAX@Z 1002e660 f   vc_crt_fix_impl.obj
 0001:0002d660       ?DecodePointer@implementation@?1??DecodePointerWrapper@@9@4@SGPAXPAX@Z 1002e660 f   vc_crt_fix_impl.obj
 0001:0002d670       ?GetModuleHandleExW@implementation@?1??GetModuleHandleExWWrapper@@9@12@SGHKPB_WPAPAUHINSTANCE__@@@Z 1002e670 f   vc_crt_fix_impl.obj
 0001:0002dd62       __hw_cw                    1002ed62 f   LIBCMT:_ieee87_.obj
 0001:0002ddf0       ___hw_cw_sse2              1002edf0 f   LIBCMT:_ieee87_.obj
 0001:0002fcd4       _idtab                     10030cd4 f   LIBCMT:popen.obj
 0001:0002fcd4       _idtab                     10030cd4 f   LIBCMT:popen.obj
 0001:000302d1       _genfname                  100312d1 f   LIBCMT:tmpfile.obj
 0001:00030eef       _flsall                    10031eef f   LIBCMT:fflush.obj
 0001:000315b1       ___DllMainCRTStartup       100325b1 f   LIBCMT:dllcrt0.obj
 0001:00031838       __shift                    10032838 f   LIBCMT:cvt.obj
 0001:0003187d       __cftoe2_l                 1003287d f   LIBCMT:cvt.obj
 0001:00031e3b       __cftof2_l                 10032e3b f   LIBCMT:cvt.obj
 0001:00032356       _write_char                10033356 f   LIBCMT:output.obj
 0001:00032389       _write_string              10033389 f   LIBCMT:output.obj
 0001:00033232       _siglookup                 10034232 f   LIBCMT:winsig.obj
 0001:00033648       _doexit                    10034648 f   LIBCMT:crt0dat.obj
 0001:00034240       __unwind_handler4          10035240 f   LIBCMT:exsup4.obj
 0001:000359f8       ?CPtoLCID@@YAHH@Z          100369f8 f   LIBCMT:mbctype.obj
 0001:00035a27       ?setSBCS@@YAXPAUthreadmbcinfostruct@@@Z 10036a27 f   LIBCMT:mbctype.obj
 0001:00035a8b       ?setSBUpLow@@YAXPAUthreadmbcinfostruct@@@Z 10036a8b f   LIBCMT:mbctype.obj
 0001:00035cbf       ?getSystemCP@@YAHH@Z       10036cbf f   LIBCMT:mbctype.obj
 0001:0003663d       _write_char                1003763d f   LIBCMT:woutput.obj
 0001:0003666c       _write_string              1003766c f   LIBCMT:woutput.obj
 0001:00037b27       _xtoa_s@20                 10038b27 f   LIBCMT:xtoas.obj
 0001:00037c01       ?strtoxl@@YAKPAUlocaleinfo_struct@@PBDPAPBDHH@Z 10038c01 f   LIBCMT:strtol.obj
 0001:00037f62       __tsopen_nolock            10038f62 f   LIBCMT:open.obj
 0001:0003877a       ___check_float_string      1003977a f   LIBCMT:input.obj
 0001:000387d1       __hextodec                 100397d1 f   LIBCMT:input.obj
 0001:000387f1       __inc                      100397f1 f   LIBCMT:input.obj
 0001:00038807       __whiteout                 10039807 f   LIBCMT:input.obj
 0001:0003a6ac       _wcomexecmd                1003b6ac f   LIBCMT:wspawnve.obj
 0001:0003a9e8       _parse_cmdline             1003b9e8 f   LIBCMT:stdargv.obj
 0001:0003bbc5       __onexit_nolock            1003cbc5 f   LIBCMT:onexit.obj
 0001:0003c493       __tsopen_nolock            1003d493 f   LIBCMT:wopen.obj
 0001:0003ce90       __unwind_handler           1003de90 f   LIBCMT:exsup.obj
 0001:0003d164       ?__crtLCMapStringA_stat@@YAHPAUlocaleinfo_struct@@KKPBDHPADHHH@Z 1003e164 f   LIBCMT:a_map.obj
 0001:0003d391       ?__crtGetStringTypeA_stat@@YAHPAUlocaleinfo_struct@@KPBDHPAGHHH@Z 1003e391 f   LIBCMT:a_str.obj
 0001:0003e1c5       _wfindenv                  1003f1c5 f   LIBCMT:wsetenv.obj
 0001:0003e21a       _copy_environ              1003f21a f   LIBCMT:wsetenv.obj
 0001:0003eae7       ?x_ismbbtype_l@@YAHPAUlocaleinfo_struct@@IHH@Z 1003fae7 f   LIBCMT:ismbbyte.obj
 0001:00040a58       ?_strupr_s_l_stat@@YAHPADIPAUlocaleinfo_struct@@@Z 10041a58 f   LIBCMT:strupr.obj
