 luafar3

 Timestamp is 56453830 (Fri Nov 13 04:09:04 2015)

 Preferred load address is 0000000180000000

 Start         Length     Name                   Class
 0001:00000000 000006a8H .idata$5                CODE
 0001:000006a8 00000008H .CRT$XCA                CODE
 0001:000006b0 00000008H .CRT$XCZ                CODE
 0001:000006b8 00000008H .CRT$XIA                CODE
 0001:000006c0 00000018H .CRT$XIC                CODE
 0001:000006d8 00000008H .CRT$XIZ                CODE
 0001:000006e0 00000008H .CRT$XPA                CODE
 0001:000006e8 00000010H .CRT$XPX                CODE
 0001:000006f8 00000008H .CRT$XPXA               CODE
 0001:00000700 00000008H .CRT$XPZ                CODE
 0001:00000708 00000008H .CRT$XTA                CODE
 0001:00000710 00000008H .CRT$XTZ                CODE
 0001:00000720 00012618H .rdata                  CODE
 0001:00012d38 00000008H .rtc$IAA                CODE
 0001:00012d40 00000008H .rtc$IZZ                CODE
 0001:00012d48 00000008H .rtc$TAA                CODE
 0001:00012d50 00000008H .rtc$TZZ                CODE
 0001:00012d60 000378deH .text                   CODE
 0001:0004a640 00000455H .text$x                 CODE
 0001:0004aa98 00003188H .xdata                  CODE
 0001:0004dc20 00000064H .idata$2                CODE
 0001:0004dc84 00000014H .idata$3                CODE
 0001:0004dc98 000006a8H .idata$4                CODE
 0001:0004e340 00000e70H .idata$6                CODE
 0001:0004f1b0 00000482H .edata                  CODE
 0002:00000000 0000a34cH .data                   DATA
 0002:0000a360 00002324H .bss                    DATA
 0003:00000000 00003300H .pdata                  DATA
 0004:00000000 00000058H .rsrc$01                DATA
 0004:00000060 00000358H .rsrc$02                DATA

  Address         Publics by Value              Rva+Base               Lib:Object

 0000:00000000       ___safe_se_handler_count   0000000000000000     <absolute>
 0000:00000000       ___safe_se_handler_table   0000000000000000     <absolute>
 0000:00000000       __ImageBase                0000000180000000     <linker-defined>
 0001:00000000       __imp_RegEnumKeyExW        0000000180001000     advapi32:ADVAPI32.dll
 0001:00000008       __imp_RegQueryValueExW     0000000180001008     advapi32:ADVAPI32.dll
 0001:00000010       __imp_RegSetValueExW       0000000180001010     advapi32:ADVAPI32.dll
 0001:00000018       __imp_RegCloseKey          0000000180001018     advapi32:ADVAPI32.dll
 0001:00000020       __imp_RegOpenKeyExW        0000000180001020     advapi32:ADVAPI32.dll
 0001:00000028       __imp_RegCreateKeyExW      0000000180001028     advapi32:ADVAPI32.dll
 0001:00000030       __imp_RegDeleteKeyW        0000000180001030     advapi32:ADVAPI32.dll
 0001:00000038       __imp_RegEnumValueW        0000000180001038     advapi32:ADVAPI32.dll
 0001:00000040       \177ADVAPI32_NULL_THUNK_DATA 0000000180001040     advapi32:ADVAPI32.dll
 0001:00000048       __imp_GetEnvironmentVariableW 0000000180001048     kernel32:KERNEL32.dll
 0001:00000050       __imp_GetModuleFileNameW   0000000180001050     kernel32:KERNEL32.dll
 0001:00000058       __imp_FreeLibrary          0000000180001058     kernel32:KERNEL32.dll
 0001:00000060       __imp_LoadLibraryW         0000000180001060     kernel32:KERNEL32.dll
 0001:00000068       __imp_MultiByteToWideChar  0000000180001068     kernel32:KERNEL32.dll
 0001:00000070       __imp_WideCharToMultiByte  0000000180001070     kernel32:KERNEL32.dll
 0001:00000078       __imp_GetACP               0000000180001078     kernel32:KERNEL32.dll
 0001:00000080       __imp_GetOEMCP             0000000180001080     kernel32:KERNEL32.dll
 0001:00000088       __imp_GetDriveTypeW        0000000180001088     kernel32:KERNEL32.dll
 0001:00000090       __imp_SearchPathW          0000000180001090     kernel32:KERNEL32.dll
 0001:00000098       __imp_OutputDebugStringW   0000000180001098     kernel32:KERNEL32.dll
 0001:000000a0       __imp_FormatMessageW       00000001800010a0     kernel32:KERNEL32.dll
 0001:000000a8       __imp_GetLastError         00000001800010a8     kernel32:KERNEL32.dll
 0001:000000b0       __imp_EnumSystemCodePagesW 00000001800010b0     kernel32:KERNEL32.dll
 0001:000000b8       __imp_GetCPInfoExW         00000001800010b8     kernel32:KERNEL32.dll
 0001:000000c0       __imp_GetLogicalDriveStringsW 00000001800010c0     kernel32:KERNEL32.dll
 0001:000000c8       __imp_GlobalMemoryStatusEx 00000001800010c8     kernel32:KERNEL32.dll
 0001:000000d0       __imp_GetFileAttributesW   00000001800010d0     kernel32:KERNEL32.dll
 0001:000000d8       __imp_GetCurrentDirectoryW 00000001800010d8     kernel32:KERNEL32.dll
 0001:000000e0       __imp_SetCurrentDirectoryW 00000001800010e0     kernel32:KERNEL32.dll
 0001:000000e8       __imp_SetEnvironmentVariableW 00000001800010e8     kernel32:KERNEL32.dll
 0001:000000f0       __imp_ReadConsoleInputW    00000001800010f0     kernel32:KERNEL32.dll
 0001:000000f8       __imp_PeekConsoleInputW    00000001800010f8     kernel32:KERNEL32.dll
 0001:00000100       __imp_FindClose            0000000180001100     kernel32:KERNEL32.dll
 0001:00000108       __imp_FindFirstFileW       0000000180001108     kernel32:KERNEL32.dll
 0001:00000110       __imp_FileTimeToSystemTime 0000000180001110     kernel32:KERNEL32.dll
 0001:00000118       __imp_SystemTimeToFileTime 0000000180001118     kernel32:KERNEL32.dll
 0001:00000120       __imp_FileTimeToLocalFileTime 0000000180001120     kernel32:KERNEL32.dll
 0001:00000128       __imp_CompareStringW       0000000180001128     kernel32:KERNEL32.dll
 0001:00000130       __imp_CopyFileW            0000000180001130     kernel32:KERNEL32.dll
 0001:00000138       __imp_MoveFileExW          0000000180001138     kernel32:KERNEL32.dll
 0001:00000140       __imp_DeleteFileW          0000000180001140     kernel32:KERNEL32.dll
 0001:00000148       __imp_RemoveDirectoryW     0000000180001148     kernel32:KERNEL32.dll
 0001:00000150       __imp_CreateDirectoryW     0000000180001150     kernel32:KERNEL32.dll
 0001:00000158       __imp_SwitchToThread       0000000180001158     kernel32:KERNEL32.dll
 0001:00000160       __imp_CreateThread         0000000180001160     kernel32:KERNEL32.dll
 0001:00000168       __imp_GetSystemTimeAsFileTime 0000000180001168     kernel32:KERNEL32.dll
 0001:00000170       __imp_Sleep                0000000180001170     kernel32:KERNEL32.dll
 0001:00000178       __imp_GetStdHandle         0000000180001178     kernel32:KERNEL32.dll
 0001:00000180       __imp_GetConsoleScreenBufferInfo 0000000180001180     kernel32:KERNEL32.dll
 0001:00000188       __imp_GetModuleHandleA     0000000180001188     kernel32:KERNEL32.dll
 0001:00000190       __imp_SetFileAttributesW   0000000180001190     kernel32:KERNEL32.dll
 0001:00000198       __imp_GetProcAddress       0000000180001198     kernel32:KERNEL32.dll
 0001:000001a0       __imp_HeapSize             00000001800011a0     kernel32:KERNEL32.dll
 0001:000001a8       __imp_WriteConsoleW        00000001800011a8     kernel32:KERNEL32.dll
 0001:000001b0       __imp_GetProcessHeap       00000001800011b0     kernel32:KERNEL32.dll
 0001:000001b8       __imp_SetEndOfFile         00000001800011b8     kernel32:KERNEL32.dll
 0001:000001c0       __imp_LCMapStringW         00000001800011c0     kernel32:KERNEL32.dll
 0001:000001c8       __imp_HeapReAlloc          00000001800011c8     kernel32:KERNEL32.dll
 0001:000001d0       __imp_CreateFileW          00000001800011d0     kernel32:KERNEL32.dll
 0001:000001d8       __imp_SetStdHandle         00000001800011d8     kernel32:KERNEL32.dll
 0001:000001e0       __imp_GetTickCount         00000001800011e0     kernel32:KERNEL32.dll
 0001:000001e8       __imp_QueryPerformanceCounter 00000001800011e8     kernel32:KERNEL32.dll
 0001:000001f0       __imp_GetModuleFileNameA   00000001800011f0     kernel32:KERNEL32.dll
 0001:000001f8       __imp_GetEnvironmentStringsW 00000001800011f8     kernel32:KERNEL32.dll
 0001:00000200       __imp_FreeEnvironmentStringsW 0000000180001200     kernel32:KERNEL32.dll
 0001:00000208       __imp_FlushFileBuffers     0000000180001208     kernel32:KERNEL32.dll
 0001:00000210       __imp_GetConsoleMode       0000000180001210     kernel32:KERNEL32.dll
 0001:00000218       __imp_GetConsoleCP         0000000180001218     kernel32:KERNEL32.dll
 0001:00000220       __imp_CreateFileA          0000000180001220     kernel32:KERNEL32.dll
 0001:00000228       __imp_GetCurrentProcessId  0000000180001228     kernel32:KERNEL32.dll
 0001:00000230       __imp_WaitForSingleObject  0000000180001230     kernel32:KERNEL32.dll
 0001:00000238       __imp_GetExitCodeProcess   0000000180001238     kernel32:KERNEL32.dll
 0001:00000240       __imp_CreatePipe           0000000180001240     kernel32:KERNEL32.dll
 0001:00000248       __imp_IsValidCodePage      0000000180001248     kernel32:KERNEL32.dll
 0001:00000250       __imp_GetCPInfo            0000000180001250     kernel32:KERNEL32.dll
 0001:00000258       __imp_DeleteCriticalSection 0000000180001258     kernel32:KERNEL32.dll
 0001:00000260       __imp_GetStartupInfoW      0000000180001260     kernel32:KERNEL32.dll
 0001:00000268       __imp_GetFileType          0000000180001268     kernel32:KERNEL32.dll
 0001:00000270       __imp_SetHandleCount       0000000180001270     kernel32:KERNEL32.dll
 0001:00000278       __imp_SetFilePointer       0000000180001278     kernel32:KERNEL32.dll
 0001:00000280       __imp_FlsAlloc             0000000180001280     kernel32:KERNEL32.dll
 0001:00000288       __imp_SetLastError         0000000180001288     kernel32:KERNEL32.dll
 0001:00000290       __imp_FlsFree              0000000180001290     kernel32:KERNEL32.dll
 0001:00000298       __imp_FlsGetValue          0000000180001298     kernel32:KERNEL32.dll
 0001:000002a0       __imp_ReadFile             00000001800012a0     kernel32:KERNEL32.dll
 0001:000002a8       __imp_InitializeCriticalSectionAndSpinCount 00000001800012a8     kernel32:KERNEL32.dll
 0001:000002b0       __imp_WriteFile            00000001800012b0     kernel32:KERNEL32.dll
 0001:000002b8       __imp_ExitProcess          00000001800012b8     kernel32:KERNEL32.dll
 0001:000002c0       __imp_GetModuleHandleW     00000001800012c0     kernel32:KERNEL32.dll
 0001:000002c8       __imp_HeapDestroy          00000001800012c8     kernel32:KERNEL32.dll
 0001:000002d0       __imp_HeapCreate           00000001800012d0     kernel32:KERNEL32.dll
 0001:000002d8       __imp_GetVersion           00000001800012d8     kernel32:KERNEL32.dll
 0001:000002e0       __imp_HeapSetInformation   00000001800012e0     kernel32:KERNEL32.dll
 0001:000002e8       __imp_RtlUnwindEx          00000001800012e8     kernel32:KERNEL32.dll
 0001:000002f0       __imp_TerminateProcess     00000001800012f0     kernel32:KERNEL32.dll
 0001:000002f8       __imp_RtlCaptureContext    00000001800012f8     kernel32:KERNEL32.dll
 0001:00000300       __imp_RtlLookupFunctionEntry 0000000180001300     kernel32:KERNEL32.dll
 0001:00000308       __imp_RtlVirtualUnwind     0000000180001308     kernel32:KERNEL32.dll
 0001:00000310       __imp_IsDebuggerPresent    0000000180001310     kernel32:KERNEL32.dll
 0001:00000318       __imp_SetUnhandledExceptionFilter 0000000180001318     kernel32:KERNEL32.dll
 0001:00000320       __imp_UnhandledExceptionFilter 0000000180001320     kernel32:KERNEL32.dll
 0001:00000328       __imp_DecodePointer        0000000180001328     kernel32:KERNEL32.dll
 0001:00000330       __imp_EncodePointer        0000000180001330     kernel32:KERNEL32.dll
 0001:00000338       __imp_GetCommandLineA      0000000180001338     kernel32:KERNEL32.dll
 0001:00000340       __imp_FlsSetValue          0000000180001340     kernel32:KERNEL32.dll
 0001:00000348       __imp_GetCurrentThreadId   0000000180001348     kernel32:KERNEL32.dll
 0001:00000350       __imp_CreateProcessW       0000000180001350     kernel32:KERNEL32.dll
 0001:00000358       __imp_GetCurrentProcess    0000000180001358     kernel32:KERNEL32.dll
 0001:00000360       __imp_DuplicateHandle      0000000180001360     kernel32:KERNEL32.dll
 0001:00000368       __imp_CloseHandle          0000000180001368     kernel32:KERNEL32.dll
 0001:00000370       __imp_GetStringTypeW       0000000180001370     kernel32:KERNEL32.dll
 0001:00000378       __imp_LeaveCriticalSection 0000000180001378     kernel32:KERNEL32.dll
 0001:00000380       __imp_EnterCriticalSection 0000000180001380     kernel32:KERNEL32.dll
 0001:00000388       __imp_HeapAlloc            0000000180001388     kernel32:KERNEL32.dll
 0001:00000390       __imp_HeapFree             0000000180001390     kernel32:KERNEL32.dll
 0001:00000398       \177KERNEL32_NULL_THUNK_DATA 0000000180001398     kernel32:KERNEL32.dll
 0001:000003a0       __imp_UuidCreate           00000001800013a0     rpcrt4:RPCRT4.dll
 0001:000003a8       __imp_RpcStringFreeA       00000001800013a8     rpcrt4:RPCRT4.dll
 0001:000003b0       __imp_UuidToStringA        00000001800013b0     rpcrt4:RPCRT4.dll
 0001:000003b8       __imp_UuidFromStringA      00000001800013b8     rpcrt4:RPCRT4.dll
 0001:000003c0       \177RPCRT4_NULL_THUNK_DATA 00000001800013c0     rpcrt4:RPCRT4.dll
 0001:000003c8       __imp_ShellExecuteW        00000001800013c8     shell32:SHELL32.dll
 0001:000003d0       __imp_SHGetFolderPathW     00000001800013d0     shell32:SHELL32.dll
 0001:000003d8       \177SHELL32_NULL_THUNK_DATA 00000001800013d8     shell32:SHELL32.dll
 0001:000003e0       __imp_luaL_checkstack      00000001800013e0     lua51:lua51.dll
 0001:000003e8       __imp_lua_dump             00000001800013e8     lua51:lua51.dll
 0001:000003f0       __imp_lua_typename         00000001800013f0     lua51:lua51.dll
 0001:000003f8       __imp_lua_tocfunction      00000001800013f8     lua51:lua51.dll
 0001:00000400       __imp_luaL_checkoption     0000000180001400     lua51:lua51.dll
 0001:00000408       __imp_luaL_gsub            0000000180001408     lua51:lua51.dll
 0001:00000410       __imp_lua_iscfunction      0000000180001410     lua51:lua51.dll
 0001:00000418       __imp_luaL_findtable       0000000180001418     lua51:lua51.dll
 0001:00000420       __imp_lua_isuserdata       0000000180001420     lua51:lua51.dll
 0001:00000428       __imp_luaL_prepbuffer      0000000180001428     lua51:lua51.dll
 0001:00000430       __imp_lua_setallocf        0000000180001430     lua51:lua51.dll
 0001:00000438       __imp_luaL_checknumber     0000000180001438     lua51:lua51.dll
 0001:00000440       __imp_lua_getfenv          0000000180001440     lua51:lua51.dll
 0001:00000448       __imp_lua_setfenv          0000000180001448     lua51:lua51.dll
 0001:00000450       __imp_luaL_optnumber       0000000180001450     lua51:lua51.dll
 0001:00000458       __imp_lua_rawset           0000000180001458     lua51:lua51.dll
 0001:00000460       __imp_lua_getallocf        0000000180001460     lua51:lua51.dll
 0001:00000468       __imp_lua_next             0000000180001468     lua51:lua51.dll
 0001:00000470       __imp_luaL_typerror        0000000180001470     lua51:lua51.dll
 0001:00000478       __imp_luaopen_base         0000000180001478     lua51:lua51.dll
 0001:00000480       __imp_luaopen_table        0000000180001480     lua51:lua51.dll
 0001:00000488       __imp_luaopen_os           0000000180001488     lua51:lua51.dll
 0001:00000490       __imp_luaopen_string       0000000180001490     lua51:lua51.dll
 0001:00000498       __imp_luaopen_math         0000000180001498     lua51:lua51.dll
 0001:000004a0       __imp_luaopen_debug        00000001800014a0     lua51:lua51.dll
 0001:000004a8       __imp_luaL_checktype       00000001800014a8     lua51:lua51.dll
 0001:000004b0       __imp_lua_getstack         00000001800014b0     lua51:lua51.dll
 0001:000004b8       __imp_lua_getinfo          00000001800014b8     lua51:lua51.dll
 0001:000004c0       __imp_luaL_optinteger      00000001800014c0     lua51:lua51.dll
 0001:000004c8       __imp_lua_checkstack       00000001800014c8     lua51:lua51.dll
 0001:000004d0       __imp_luaL_error           00000001800014d0     lua51:lua51.dll
 0001:000004d8       __imp_luaL_checklstring    00000001800014d8     lua51:lua51.dll
 0001:000004e0       __imp_luaL_optlstring      00000001800014e0     lua51:lua51.dll
 0001:000004e8       __imp_lua_replace          00000001800014e8     lua51:lua51.dll
 0001:000004f0       __imp_luaL_checkudata      00000001800014f0     lua51:lua51.dll
 0001:000004f8       __imp_luaL_buffinit        00000001800014f8     lua51:lua51.dll
 0001:00000500       __imp_luaL_addlstring      0000000180001500     lua51:lua51.dll
 0001:00000508       __imp_luaL_pushresult      0000000180001508     lua51:lua51.dll
 0001:00000510       __imp_lua_settable         0000000180001510     lua51:lua51.dll
 0001:00000518       __imp_lua_concat           0000000180001518     lua51:lua51.dll
 0001:00000520       __imp_lua_load             0000000180001520     lua51:lua51.dll
 0001:00000528       __imp_lua_pushfstring      0000000180001528     lua51:lua51.dll
 0001:00000530       __imp_luaL_loadstring      0000000180001530     lua51:lua51.dll
 0001:00000538       __imp_lua_pushlstring      0000000180001538     lua51:lua51.dll
 0001:00000540       __imp_lua_pushlightuserdata 0000000180001540     lua51:lua51.dll
 0001:00000548       __imp_lua_isnumber         0000000180001548     lua51:lua51.dll
 0001:00000550       __imp_lua_tointeger        0000000180001550     lua51:lua51.dll
 0001:00000558       __imp_lua_toboolean        0000000180001558     lua51:lua51.dll
 0001:00000560       __imp_luaL_ref             0000000180001560     lua51:lua51.dll
 0001:00000568       __imp_luaL_unref           0000000180001568     lua51:lua51.dll
 0001:00000570       __imp_lua_gettable         0000000180001570     lua51:lua51.dll
 0001:00000578       __imp_lua_isstring         0000000180001578     lua51:lua51.dll
 0001:00000580       __imp_lua_objlen           0000000180001580     lua51:lua51.dll
 0001:00000588       __imp_lua_rawseti          0000000180001588     lua51:lua51.dll
 0001:00000590       __imp_lua_createtable      0000000180001590     lua51:lua51.dll
 0001:00000598       __imp_lua_setfield         0000000180001598     lua51:lua51.dll
 0001:000005a0       __imp_lua_rawgeti          00000001800015a0     lua51:lua51.dll
 0001:000005a8       __imp_lua_pushcclosure     00000001800015a8     lua51:lua51.dll
 0001:000005b0       __imp_lua_insert           00000001800015b0     lua51:lua51.dll
 0001:000005b8       __imp_lua_pcall            00000001800015b8     lua51:lua51.dll
 0001:000005c0       __imp_lua_remove           00000001800015c0     lua51:lua51.dll
 0001:000005c8       __imp_lua_gc               00000001800015c8     lua51:lua51.dll
 0001:000005d0       __imp_lua_pushvalue        00000001800015d0     lua51:lua51.dll
 0001:000005d8       __imp_lua_pushinteger      00000001800015d8     lua51:lua51.dll
 0001:000005e0       __imp_lua_call             00000001800015e0     lua51:lua51.dll
 0001:000005e8       __imp_luaL_newmetatable    00000001800015e8     lua51:lua51.dll
 0001:000005f0       __imp_luaL_register        00000001800015f0     lua51:lua51.dll
 0001:000005f8       __imp_lua_pushboolean      00000001800015f8     lua51:lua51.dll
 0001:00000600       __imp_lua_pushstring       0000000180001600     lua51:lua51.dll
 0001:00000608       __imp_lua_tolstring        0000000180001608     lua51:lua51.dll
 0001:00000610       __imp_lua_pushnil          0000000180001610     lua51:lua51.dll
 0001:00000618       __imp_luaL_checkinteger    0000000180001618     lua51:lua51.dll
 0001:00000620       __imp_lua_gettop           0000000180001620     lua51:lua51.dll
 0001:00000628       __imp_lua_tonumber         0000000180001628     lua51:lua51.dll
 0001:00000630       __imp_luaL_argerror        0000000180001630     lua51:lua51.dll
 0001:00000638       __imp_lua_type             0000000180001638     lua51:lua51.dll
 0001:00000640       __imp_lua_getmetatable     0000000180001640     lua51:lua51.dll
 0001:00000648       __imp_lua_rawequal         0000000180001648     lua51:lua51.dll
 0001:00000650       __imp_lua_settop           0000000180001650     lua51:lua51.dll
 0001:00000658       __imp_lua_touserdata       0000000180001658     lua51:lua51.dll
 0001:00000660       __imp_lua_pushnumber       0000000180001660     lua51:lua51.dll
 0001:00000668       __imp_lua_newuserdata      0000000180001668     lua51:lua51.dll
 0001:00000670       __imp_lua_getfield         0000000180001670     lua51:lua51.dll
 0001:00000678       __imp_lua_setmetatable     0000000180001678     lua51:lua51.dll
 0001:00000680       __imp_luaL_checkany        0000000180001680     lua51:lua51.dll
 0001:00000688       __imp_lua_error            0000000180001688     lua51:lua51.dll
 0001:00000690       __imp_lua_rawget           0000000180001690     lua51:lua51.dll
 0001:00000698       __imp_luaL_addvalue        0000000180001698     lua51:lua51.dll
 0001:000006a0       \177lua51_NULL_THUNK_DATA  00000001800016a0     lua51:lua51.dll
 0001:000006a8       __xc_a                     00000001800016a8     LIBCMT:crt0init.obj
 0001:000006b0       __xc_z                     00000001800016b0     LIBCMT:crt0init.obj
 0001:000006b8       __xi_a                     00000001800016b8     LIBCMT:crt0init.obj
 0001:000006d8       __xi_z                     00000001800016d8     LIBCMT:crt0init.obj
 0001:000006e0       __xp_a                     00000001800016e0     LIBCMT:crt0init.obj
 0001:00000700       __xp_z                     0000000180001700     LIBCMT:crt0init.obj
 0001:00000708       __xt_a                     0000000180001708     LIBCMT:crt0init.obj
 0001:00000710       __xt_z                     0000000180001710     LIBCMT:crt0init.obj
 0001:00000720       ??_C@_0L@HDFPAPPH@__tostring?$AA@ 0000000180001720     bit64.obj
 0001:0000072c       ??_C@_04EJLHOCKK@__le?$AA@ 000000018000172c     bit64.obj
 0001:00000734       ??_C@_04BKGOMBLK@__lt?$AA@ 0000000180001734     bit64.obj
 0001:0000073c       ??_C@_04GIMIAOHA@__eq?$AA@ 000000018000173c     bit64.obj
 0001:00000744       ??_C@_05MHFNBPAK@__unm?$AA@ 0000000180001744     bit64.obj
 0001:0000074c       ??_C@_05ICPALBAE@__mod?$AA@ 000000018000174c     bit64.obj
 0001:00000754       ??_C@_05IDIBPCOP@__div?$AA@ 0000000180001754     bit64.obj
 0001:0000075c       ??_C@_05FLJIBNKK@__mul?$AA@ 000000018000175c     bit64.obj
 0001:00000764       ??_C@_05HFNNBAII@__sub?$AA@ 0000000180001764     bit64.obj
 0001:0000076c       ??_C@_05MEHDOBFN@__add?$AA@ 000000018000176c     bit64.obj
 0001:00000774       ??_C@_04GPMDFGEJ@type?$AA@ 0000000180001774     bit64.obj
 0001:0000077c       ??_C@_02FJPJILEL@le?$AA@   000000018000177c     bit64.obj
 0001:00000780       ??_C@_02KCAKIFL@lt?$AA@    0000000180001780     bit64.obj
 0001:00000784       ??_C@_02HIIGGHJB@eq?$AA@   0000000180001784     bit64.obj
 0001:00000788       ??_C@_03FFONCNID@mod?$AA@  0000000180001788     bit64.obj
 0001:0000078c       ??_C@_03FEJMGOGI@div?$AA@  000000018000178c     bit64.obj
 0001:00000790       ??_C@_03IMIFIBCN@mul?$AA@  0000000180001790     bit64.obj
 0001:00000794       ??_C@_03KCMAIMAP@sub?$AA@  0000000180001794     bit64.obj
 0001:00000798       ??_C@_03BDGOHNNK@add?$AA@  0000000180001798     bit64.obj
 0001:0000079c       ??_C@_03CLCAEGCJ@new?$AA@  000000018000179c     bit64.obj
 0001:000007a0       ??_C@_07JILILBLL@arshift?$AA@ 00000001800017a0     bit64.obj
 0001:000007a8       ??_C@_06HMLHBBIJ@rshift?$AA@ 00000001800017a8     bit64.obj
 0001:000007b0       ??_C@_06ELFGPGBK@lshift?$AA@ 00000001800017b0     bit64.obj
 0001:000007b8       ??_C@_04CKCGDDNF@bxor?$AA@ 00000001800017b8     bit64.obj
 0001:000007c0       ??_C@_03BBBGIIAC@bor?$AA@  00000001800017c0     bit64.obj
 0001:000007c4       ??_C@_04BKGNPECA@band?$AA@ 00000001800017c4     bit64.obj
 0001:000007cc       ??_C@_04JAOJMBA@bnot?$AA@  00000001800017cc     bit64.obj
 0001:000007e0       metatable_name             00000001800017e0     bit64.obj
 0001:000009c0       ??_C@_09GPALILFO@bad?5int64?$AA@ 00000001800019c0     bit64.obj
 0001:000009d0       __mask@@NegDouble@         00000001800019d0     bit64.obj
 0001:000009e0       __real@433fffffffffffff    00000001800019e0     bit64.obj
 0001:000009e8       ??_C@_05LLAMLEHD@?$CFI64d?$AA@ 00000001800019e8     bit64.obj
 0001:000009f0       ??_C@_05OALCLICP@bit64?$AA@ 00000001800019f0     bit64.obj
 0001:00001228       COLLECTOR_FD               0000000180002228     exported.obj
 0001:00001240       COLLECTOR_OPI              0000000180002240     exported.obj
 0001:00001258       COLLECTOR_PI               0000000180002258     exported.obj
 0001:00001270       KEY_OBJECT                 0000000180002270     exported.obj
 0001:00001278       ??_C@_09GPFEECNC@traceback?$AA@ 0000000180002278     exported.obj
 0001:00001284       ??_C@_05GFCDIDHO@debug?$AA@ 0000000180002284     exported.obj
 0001:0000128c       ??_C@_06NKNNMLDJ@export?$AA@ 000000018000228c     exported.obj
 0001:00001298       ??_C@_07PCNKBAGB@OnError?$AA@ 0000000180002298     exported.obj
 0001:000012a0       ??_C@_08JNHPECBG@UserData?$AA@ 00000001800022a0     exported.obj
 0001:000012ac       ??_C@_11LOCGONAA@?$AA?$AA@ 00000001800022ac     exported.obj
 0001:000012ac       ??_C@_01LOCGONAA@?$AA?$AA@ 00000001800022ac     service.obj
 0001:000012b0       ??_C@_0BB@OKGMKOG@CustomColumnData?$AA@ 00000001800022b0     exported.obj
 0001:000012c4       ??_C@_05HDCNEILF@Owner?$AA@ 00000001800022c4     exported.obj
 0001:000012d0       ??_C@_0M@OHKMKKDH@Description?$AA@ 00000001800022d0     exported.obj
 0001:000012e0       ??_C@_0BC@COCBGKAE@AlternateFileName?$AA@ 00000001800022e0     exported.obj
 0001:000012f8       ??_C@_08FDCJCDOL@FileName?$AA@ 00000001800022f8     exported.obj
 0001:00001304       ??_C@_05MHNOECFO@CRC32?$AA@ 0000000180002304     exported.obj
 0001:00001310       ??_C@_0O@DLGJHFNH@NumberOfLinks?$AA@ 0000000180002310     exported.obj
 0001:00001320       ??_C@_05BOOEKJH@Flags?$AA@ 0000000180002320     exported.obj
 0001:00001328       ??_C@_0P@JBACEJLL@AllocationSize?$AA@ 0000000180002328     exported.obj
 0001:00001338       ??_C@_08BHIEONMC@FileSize?$AA@ 0000000180002338     exported.obj
 0001:00001348       ??_C@_0L@FCILKIIG@ChangeTime?$AA@ 0000000180002348     exported.obj
 0001:00001358       ??_C@_0O@FCFNCAHK@LastWriteTime?$AA@ 0000000180002358     exported.obj
 0001:00001368       ??_C@_0P@MFHPCDDH@LastAccessTime?$AA@ 0000000180002368     exported.obj
 0001:00001378       ??_C@_0N@NJMIGDDL@CreationTime?$AA@ 0000000180002378     exported.obj
 0001:00001388       ??_C@_0M@DFMHDHBL@GetFindData?$AA@ 0000000180002388     exported.obj
 0001:00001398       ??_C@_08CJLOJPNI@selected?$AA@ 0000000180002398     exported.obj
 0001:000013a8       ??_C@_0BC@IECOKJFL@GetFiles?4DestPath?$AA@ 00000001800023a8     exported.obj
 0001:000013c0       ??_C@_08FFPEEIHA@GetFiles?$AA@ 00000001800023c0     exported.obj
 0001:000013d0       ??_C@_1DC@PABHCCON@?$AAD?$AAe?$AAf?$AAa?$AAu?$AAl?$AAt?$AA?5?$AAs?$AAc?$AAr?$AAi?$AAp?$AAt?$AA?5?$AAn?$AAo?$AAt?$AA?5?$AAf?$AAo?$AAu?$AAn?$AAd?$AA?$AA@ 00000001800023d0     exported.obj
 0001:00001404       ??_C@_13BPINEIPE@?$AAr?$AA?$AA@ 0000000180002404     exported.obj
 0001:00001408       ??_C@_19BCNABNAK@?$AA?4?$AAl?$AAu?$AAa?$AA?$AA@ 0000000180002408     exported.obj
 0001:00001414       ??_C@_05LFOKGKBN@?$DMboot?$AA@ 0000000180002414     exported.obj
 0001:00001420       ??_C@_07GCEAJMEA@preload?$AA@ 0000000180002420     exported.obj
 0001:00001428       ??_C@_07KNEGBPNO@package?$AA@ 0000000180002428     exported.obj
 0001:00001430       ??_C@_15CBMDENPJ@?$AA?4?$AA?9?$AA?$AA@ 0000000180002430     exported.obj
 0001:00001438       ??_C@_0BE@HCPAIELH@ReloadDefaultScript?$AA@ 0000000180002438     exported.obj
 0001:0000144c       ??_C@_03JEOKDCFP@far?$AA@  000000018000244c     exported.obj
 0001:00001450       ??_C@_06EPIAKPGD@OpMode?$AA@ 0000000180002450     exported.obj
 0001:00001458       ??_C@_06LBMCOACO@Buffer?$AA@ 0000000180002458     exported.obj
 0001:00001460       ??_C@_0L@OCPPMCCK@StructSize?$AA@ 0000000180002460     exported.obj
 0001:00001470       ??_C@_07GDADDFBD@Analyse?$AA@ 0000000180002470     exported.obj
 0001:00001478       ??_C@_0N@IHDKLODA@ShortcutData?$AA@ 0000000180002478     exported.obj
 0001:00001488       ??_C@_08DGDJEKCP@LongText?$AA@ 0000000180002488     exported.obj
 0001:00001498       ??_C@_0BA@MFFHAKP@ControlKeyState?$AA@ 0000000180002498     exported.obj
 0001:000014a8       ??_C@_0P@PKDBPEJI@VirtualKeyCode?$AA@ 00000001800024a8     exported.obj
 0001:000014b8       ??_C@_06ONGFDHIA@KeyBar?$AA@ 00000001800024b8     exported.obj
 0001:000014c0       ??_C@_0P@KMACBLNK@StartSortOrder?$AA@ 00000001800024c0     exported.obj
 0001:000014d0       ??_C@_0O@NIFKFGBJ@StartSortMode?$AA@ 00000001800024d0     exported.obj
 0001:000014e0       ??_C@_0P@BEEDPJDK@StartPanelMode?$AA@ 00000001800024e0     exported.obj
 0001:000014f0       ??_C@_0N@EHCEJHEE@ColumnTitles?$AA@ 00000001800024f0     exported.obj
 0001:00001500       ??_C@_0BD@DNDIPKDK@StatusColumnWidths?$AA@ 0000000180002500     exported.obj
 0001:00001518       ??_C@_0BC@KELOOKNK@StatusColumnTypes?$AA@ 0000000180002518     exported.obj
 0001:00001530       ??_C@_0N@ILFJPGHI@ColumnWidths?$AA@ 0000000180002530     exported.obj
 0001:00001540       ??_C@_0M@KDJPJFOF@ColumnTypes?$AA@ 0000000180002540     exported.obj
 0001:00001550       ??_C@_0BB@LFNABPEF@PanelModesNumber?$AA@ 0000000180002550     exported.obj
 0001:00001568       ??_C@_0BA@BBOGKOKF@PanelModesArray?$AA@ 0000000180002568     exported.obj
 0001:00001578       ??_C@_0L@FPEHOFAI@DescrFiles?$AA@ 0000000180002578     exported.obj
 0001:00001584       ??_C@_04DICKPMGH@Data?$AA@ 0000000180002584     exported.obj
 0001:0000158c       ??_C@_04OJAHODMC@Text?$AA@ 000000018000258c     exported.obj
 0001:00001598       ??_C@_0BA@BLCGOCOG@InfoLinesNumber?$AA@ 0000000180002598     exported.obj
 0001:000015a8       ??_C@_09PMEOAIAA@InfoLines?$AA@ 00000001800025a8     exported.obj
 0001:000015b8       ??_C@_0L@CMHIOLLB@PanelTitle?$AA@ 00000001800025b8     exported.obj
 0001:000015c4       ??_C@_06PEPCFMNJ@Format?$AA@ 00000001800025c4     exported.obj
 0001:000015cc       ??_C@_06IBPEEEAJ@CurDir?$AA@ 00000001800025cc     exported.obj
 0001:000015d8       ??_C@_08PAJOMFPO@HostFile?$AA@ 00000001800025d8     exported.obj
 0001:000015e8       __real@43e0000000000000    00000001800025e8     exported.obj
 0001:000015f0       ??_C@_08KDMNIFGM@FreeSize?$AA@ 00000001800025f0     exported.obj
 0001:00001600       ??_C@_1EO@OOOCECGK@?$AAG?$AAe?$AAt?$AAO?$AAp?$AAe?$AAn?$AAP?$AAa?$AAn?$AAe?$AAl?$AAI?$AAn?$AAf?$AAo?$AA?5?$AAs?$AAh?$AAo?$AAu?$AAl?$AAd?$AA?5?$AAr?$AAe?$AAt?$AAu?$AAr?$AAn?$AA?5?$AAa@ 0000000180002600     exported.obj
 0001:00001650       ??_C@_05ELNJBDOO@reuse?$AA@ 0000000180002650     exported.obj
 0001:00001658       ??_C@_0BB@CKIGBGLB@GetOpenPanelInfo?$AA@ 0000000180002658     exported.obj
 0001:0000166c       ??_C@_05HIFJDKLD@array?$AA@ 000000018000266c     exported.obj
 0001:00001674       ??_C@_01EFFIKLCJ@n?$AA@    0000000180002674     exported.obj
 0001:00001676       ??_C@_00CNPNBAHC@?$AA@     0000000180002676     exported.obj
 0001:00001678       __real@bff0000000000000    0000000180002678     exported.obj
 0001:00001680       ??_C@_05LNOAKADA@panel?$AA@ 0000000180002680     exported.obj
 0001:00001688       ??_C@_06BNNOMDLO@Handle?$AA@ 0000000180002688     exported.obj
 0001:00001690       ??_C@_04OPJIDECA@hDlg?$AA@ 0000000180002690     exported.obj
 0001:00001698       ??_C@_04DNCDCIAE@Open?$AA@ 0000000180002698     exported.obj
 0001:000016a0       ??_C@_0L@JMPDJFBN@ClosePanel?$AA@ 00000001800026a0     exported.obj
 0001:000016b0       ??_C@_07MBOMJGGF@Compare?$AA@ 00000001800026b0     exported.obj
 0001:000016b8       ??_C@_09NANCCILE@Configure?$AA@ 00000001800026b8     exported.obj
 0001:000016c8       ??_C@_0M@MMKKMEFA@DeleteFiles?$AA@ 00000001800026c8     exported.obj
 0001:000016d8       ??_C@_0BD@PJNONGDB@MakeDirectory?4Name?$AA@ 00000001800026d8     exported.obj
 0001:000016f0       ??_C@_0O@GLLEDHJA@MakeDirectory?$AA@ 00000001800026f0     exported.obj
 0001:00001700       ??_C@_0BC@COPMJGBI@ProcessPanelEvent?$AA@ 0000000180002700     exported.obj
 0001:00001718       ??_C@_0BA@DPJAKFGC@ProcessHostFile?$AA@ 0000000180002718     exported.obj
 0001:00001728       ??_C@_0BC@HOBKGBBM@ProcessPanelInput?$AA@ 0000000180002728     exported.obj
 0001:00001740       ??_C@_08OBOOFGOD@PutFiles?$AA@ 0000000180002740     exported.obj
 0001:00001750       ??_C@_0N@KCFEBPAO@SetDirectory?$AA@ 0000000180002750     exported.obj
 0001:00001760       ??_C@_0M@PNOHHCCH@SetFindList?$AA@ 0000000180002760     exported.obj
 0001:00001770       ??_C@_07EACELFAO@ExitFAR?$AA@ 0000000180002770     exported.obj
 0001:00001778       ??_C@_0BE@GAFPNGIP@PluginConfigStrings?$AA@ 0000000180002778     exported.obj
 0001:00001790       ??_C@_0BC@ILBHAHCH@PluginConfigGuids?$AA@ 0000000180002790     exported.obj
 0001:000017a8       ??_C@_0BC@DJMJFBJC@PluginMenuStrings?$AA@ 00000001800027a8     exported.obj
 0001:000017c0       ??_C@_0BA@FOMPNLJF@PluginMenuGuids?$AA@ 00000001800027c0     exported.obj
 0001:000017d0       ??_C@_0BA@NLBDFPEO@DiskMenuStrings?$AA@ 00000001800027d0     exported.obj
 0001:000017e0       ??_C@_0O@PHBKMNMJ@DiskMenuGuids?$AA@ 00000001800027e0     exported.obj
 0001:000017f0       ??_C@_0O@GDMHGAFH@CommandPrefix?$AA@ 00000001800027f0     exported.obj
 0001:00001800       ??_C@_0O@OBCKADMD@GetPluginInfo?$AA@ 0000000180002800     exported.obj
 0001:00001810       ??_C@_0BD@DECJPBBK@ProcessEditorInput?$AA@ 0000000180002810     exported.obj
 0001:00001828       ??_C@_08DOHJINHB@CodePage?$AA@ 0000000180002828     exported.obj
 0001:00001838       ??_C@_07MOCFLHCN@FileEOL?$AA@ 0000000180002838     exported.obj
 0001:00001840       ??_C@_0N@EKPHGDMI@StringNumber?$AA@ 0000000180002840     exported.obj
 0001:00001850       ??_C@_04KOACHJEN@Type?$AA@ 0000000180002850     exported.obj
 0001:00001858       ??_C@_0BD@GEMPAGBO@ProcessEditorEvent?$AA@ 0000000180002858     exported.obj
 0001:00001870       ??_C@_0BD@GGKMLEJG@ProcessViewerEvent?$AA@ 0000000180002870     exported.obj
 0001:00001884       ??_C@_03MLMOILGK@Msg?$AA@  0000000180002884     exported.obj
 0001:00001888       ??_C@_06EDEGJMB@Param1?$AA@ 0000000180002888     exported.obj
 0001:00001890       ??_C@_06CPBJDKAC@Param2?$AA@ 0000000180002890     exported.obj
 0001:00001898       ??_C@_0BD@FNHBEIC@ProcessDialogEvent?$AA@ 0000000180002898     exported.obj
 0001:000018b0       ??_C@_0BE@LHJGGGHN@ProcessSynchroEvent?$AA@ 00000001800028b0     exported.obj
 0001:000018c8       ??_C@_0BB@PHIEFGHD@GetContentFields?$AA@ 00000001800028c8     exported.obj
 0001:000018e0       ??_C@_0P@DPJDPMPI@GetContentData?$AA@ 00000001800028e0     exported.obj
 0001:000018f0       ??_C@_06HHECMMLE@Author?$AA@ 00000001800028f0     exported.obj
 0001:000018f8       ??_C@_05PABKJLOM@Title?$AA@ 00000001800028f8     exported.obj
 0001:00001900       ??_C@_04MJHIICBJ@Guid?$AA@ 0000000180002900     exported.obj
 0001:00001908       ??_C@_07NGFJPNPN@Version?$AA@ 0000000180002908     exported.obj
 0001:00001910       ??_C@_0O@CALOEOI@MinFarVersion?$AA@ 0000000180002910     exported.obj
 0001:00001920       ??_C@_0O@GJMOPLGM@GetGlobalInfo?$AA@ 0000000180002920     exported.obj
 0001:00001930       ??_C@_1CA@IBKDMBNJ@?$AA_?$AAg?$AAl?$AAo?$AAb?$AAa?$AAl?$AAi?$AAn?$AAf?$AAo?$AA?4?$AAl?$AAu?$AAa?$AA?$AA@ 0000000180002930     exported.obj
 0001:00001950       ??_C@_0N@DDJEHLKE@?$DM_globalinfo?$AA@ 0000000180002950     exported.obj
 0001:00001960       __real@0000000000000000    0000000180002960     exported.obj
 0001:00001968       ??_C@_0BE@DONMOPMJ@ProcessConsoleInput?$AA@ 0000000180002968     exported.obj
 0001:00001980       ??_C@_0O@GABDOPO@MOUSE_WHEELED?$AA@ 0000000180002980     flags.obj
 0001:00001990       ??_C@_0N@EDCKBGJE@DOUBLE_CLICK?$AA@ 0000000180002990     flags.obj
 0001:000019a0       ??_C@_0M@KKBDEELB@MOUSE_MOVED?$AA@ 00000001800029a0     flags.obj
 0001:000019b0       ??_C@_0BN@CNMHAAPD@FROM_LEFT_4TH_BUTTON_PRESSED?$AA@ 00000001800029b0     flags.obj
 0001:000019d0       ??_C@_0BN@PMJNFPGM@FROM_LEFT_3RD_BUTTON_PRESSED?$AA@ 00000001800029d0     flags.obj
 0001:000019f0       ??_C@_0BN@BJCFPKCG@FROM_LEFT_2ND_BUTTON_PRESSED?$AA@ 00000001800029f0     flags.obj
 0001:00001a10       ??_C@_0BJ@JECFAJNJ@RIGHTMOST_BUTTON_PRESSED?$AA@ 0000000180002a10     flags.obj
 0001:00001a30       ??_C@_0BN@HACKHGAB@FROM_LEFT_1ST_BUTTON_PRESSED?$AA@ 0000000180002a30     flags.obj
 0001:00001a50       ??_C@_0O@LAHFNPLG@SCROLLLOCK_ON?$AA@ 0000000180002a50     flags.obj
 0001:00001a60       ??_C@_0L@IMGKKBIM@NUMLOCK_ON?$AA@ 0000000180002a60     flags.obj
 0001:00001a70       ??_C@_0O@OGDFJMBK@SHIFT_PRESSED?$AA@ 0000000180002a70     flags.obj
 0001:00001a80       ??_C@_0BC@FDNOAAAE@LEFT_CTRL_PRESSED?$AA@ 0000000180002a80     flags.obj
 0001:00001a98       ??_C@_0BD@NEHHNAHO@RIGHT_CTRL_PRESSED?$AA@ 0000000180002a98     flags.obj
 0001:00001ab0       ??_C@_0BB@MCADLJJO@LEFT_ALT_PRESSED?$AA@ 0000000180002ab0     flags.obj
 0001:00001ac8       ??_C@_0BC@GDHABBAP@RIGHT_ALT_PRESSED?$AA@ 0000000180002ac8     flags.obj
 0001:00001ae0       ??_C@_0N@EMEOEKDA@ENHANCED_KEY?$AA@ 0000000180002ae0     flags.obj
 0001:00001af0       ??_C@_0M@MKBGBFGO@CAPSLOCK_ON?$AA@ 0000000180002af0     flags.obj
 0001:00001b00       ??_C@_0M@LNGHCCGJ@FOCUS_EVENT?$AA@ 0000000180002b00     flags.obj
 0001:00001b10       ??_C@_0L@MPODFLFH@MENU_EVENT?$AA@ 0000000180002b10     flags.obj
 0001:00001b20       ??_C@_0BJ@OHDOHJKG@WINDOW_BUFFER_SIZE_EVENT?$AA@ 0000000180002b20     flags.obj
 0001:00001b40       ??_C@_0M@CPILDGOO@MOUSE_EVENT?$AA@ 0000000180002b40     flags.obj
 0001:00001b50       ??_C@_09JBABGNAE@KEY_EVENT?$AA@ 0000000180002b50     flags.obj
 0001:00001b60       ??_C@_0BK@CDKLKCHJ@ENABLE_WRAP_AT_EOL_OUTPUT?$AA@ 0000000180002b60     flags.obj
 0001:00001b80       ??_C@_0BI@MHKNPIFM@ENABLE_PROCESSED_OUTPUT?$AA@ 0000000180002b80     flags.obj
 0001:00001b98       ??_C@_0BF@PEBFEBKN@ENABLE_AUTO_POSITION?$AA@ 0000000180002b98     flags.obj
 0001:00001bb0       ??_C@_0BG@CBCHHIEH@ENABLE_EXTENDED_FLAGS?$AA@ 0000000180002bb0     flags.obj
 0001:00001bc8       ??_C@_0BH@BJKMFKAO@ENABLE_QUICK_EDIT_MODE?$AA@ 0000000180002bc8     flags.obj
 0001:00001be0       ??_C@_0BD@KJBPOMPN@ENABLE_INSERT_MODE?$AA@ 0000000180002be0     flags.obj
 0001:00001bf8       ??_C@_0BD@BJECBJPO@ENABLE_MOUSE_INPUT?$AA@ 0000000180002bf8     flags.obj
 0001:00001c10       ??_C@_0BE@BLAHACNB@ENABLE_WINDOW_INPUT?$AA@ 0000000180002c10     flags.obj
 0001:00001c28       ??_C@_0BH@EHINFMOF@ENABLE_PROCESSED_INPUT?$AA@ 0000000180002c28     flags.obj
 0001:00001c40       ??_C@_0BC@JPFKLHOC@ENABLE_ECHO_INPUT?$AA@ 0000000180002c40     flags.obj
 0001:00001c58       ??_C@_0BC@BBOPHMOM@ENABLE_LINE_INPUT?$AA@ 0000000180002c58     flags.obj
 0001:00001c70       ??_C@_0BE@BCNEFGKM@CTRL_SHUTDOWN_EVENT?$AA@ 0000000180002c70     flags.obj
 0001:00001c88       ??_C@_0BC@MCKCEPAL@CTRL_LOGOFF_EVENT?$AA@ 0000000180002c88     flags.obj
 0001:00001ca0       ??_C@_0BB@KMPDMOKK@CTRL_CLOSE_EVENT?$AA@ 0000000180002ca0     flags.obj
 0001:00001cb8       ??_C@_0BB@ELEIIFAE@CTRL_BREAK_EVENT?$AA@ 0000000180002cb8     flags.obj
 0001:00001cd0       ??_C@_0N@FEFOEFHG@CTRL_C_EVENT?$AA@ 0000000180002cd0     flags.obj
 0001:00001ce0       ??_C@_0BF@NIGKKPCF@BACKGROUND_INTENSITY?$AA@ 0000000180002ce0     flags.obj
 0001:00001cf8       ??_C@_0P@DANALJMC@BACKGROUND_RED?$AA@ 0000000180002cf8     flags.obj
 0001:00001d08       ??_C@_0BB@GKLNBMEL@BACKGROUND_GREEN?$AA@ 0000000180002d08     flags.obj
 0001:00001d20       ??_C@_0BA@PIFINJCK@BACKGROUND_BLUE?$AA@ 0000000180002d20     flags.obj
 0001:00001d30       ??_C@_0BF@OOGEJCC@FOREGROUND_INTENSITY?$AA@ 0000000180002d30     flags.obj
 0001:00001d48       ??_C@_0P@PBJHCFGA@FOREGROUND_RED?$AA@ 0000000180002d48     flags.obj
 0001:00001d58       ??_C@_0BB@PDFNMAI@FOREGROUND_GREEN?$AA@ 0000000180002d58     flags.obj
 0001:00001d70       ??_C@_0BA@MAEBFMHC@FOREGROUND_BLUE?$AA@ 0000000180002d70     flags.obj
 0001:00001d80       ??_C@_09HNBBLIGN@PCIF_NONE?$AA@ 0000000180002d80     flags.obj
 0001:00001d90       ??_C@_0O@PLFENGLI@PCIF_FROMMAIN?$AA@ 0000000180002d90     flags.obj
 0001:00001da0       ??_C@_09FMOOJHDF@FOSF_NONE?$AA@ 0000000180002da0     flags.obj
 0001:00001db0       ??_C@_0M@MIGJPBPE@FOSF_ACTIVE?$AA@ 0000000180002db0     flags.obj
 0001:00001dc0       ??_C@_08EGEBMPBD@OPM_NONE?$AA@ 0000000180002dc0     flags.obj
 0001:00001dd0       ??_C@_0N@HKCLLJDG@OPM_COMMANDS?$AA@ 0000000180002dd0     flags.obj
 0001:00001de0       ??_C@_08LCEGJCAC@OPM_PGDN?$AA@ 0000000180002de0     flags.obj
 0001:00001df0       ??_C@_0O@OPDAGBBE@OPM_QUICKVIEW?$AA@ 0000000180002df0     flags.obj
 0001:00001e00       ??_C@_09EBKAPHPA@OPM_DESCR?$AA@ 0000000180002e00     flags.obj
 0001:00001e10       ??_C@_0N@NDGKAFDM@OPM_TOPLEVEL?$AA@ 0000000180002e10     flags.obj
 0001:00001e20       ??_C@_08LAAGEMJG@OPM_EDIT?$AA@ 0000000180002e20     flags.obj
 0001:00001e30       ??_C@_08EHBLNDLO@OPM_VIEW?$AA@ 0000000180002e30     flags.obj
 0001:00001e40       ??_C@_08EKEBOKEP@OPM_FIND?$AA@ 0000000180002e40     flags.obj
 0001:00001e50       ??_C@_0L@GEHHKNBL@OPM_SILENT?$AA@ 0000000180002e50     flags.obj
 0001:00001e60       ??_C@_09DOPJBMLM@OPIF_NONE?$AA@ 0000000180002e60     flags.obj
 0001:00001e70       ??_C@_0O@FJPLJDBC@OPIF_SHORTCUT?$AA@ 0000000180002e70     flags.obj
 0001:00001e80       ??_C@_0BB@PFDFAFHG@OPIF_USEFREESIZE?$AA@ 0000000180002e80     flags.obj
 0001:00001e98       ??_C@_0O@JHHHMHIG@OPIF_USECRC32?$AA@ 0000000180002e98     flags.obj
 0001:00001ea8       ??_C@_0BJ@CALDMPLF@OPIF_USEATTRHIGHLIGHTING?$AA@ 0000000180002ea8     flags.obj
 0001:00001ec8       ??_C@_0BD@JIMJPFEP@OPIF_EXTERNALMKDIR?$AA@ 0000000180002ec8     flags.obj
 0001:00001ee0       ??_C@_0BE@LKEMICNM@OPIF_EXTERNALDELETE?$AA@ 0000000180002ee0     flags.obj
 0001:00001ef8       ??_C@_0BB@CFFPNDFK@OPIF_EXTERNALPUT?$AA@ 0000000180002ef8     flags.obj
 0001:00001f10       ??_C@_0BB@PELHBPAM@OPIF_EXTERNALGET?$AA@ 0000000180002f10     flags.obj
 0001:00001f28       ??_C@_0BE@GJEJHNKJ@OPIF_COMPAREFATTIME?$AA@ 0000000180002f28     flags.obj
 0001:00001f40       ??_C@_0BG@HGPMKHIE@OPIF_SHOWPRESERVECASE?$AA@ 0000000180002f40     flags.obj
 0001:00001f58       ??_C@_0BJ@NMIFAPJD@OPIF_SHOWRIGHTALIGNNAMES?$AA@ 0000000180002f58     flags.obj
 0001:00001f78       ??_C@_0BD@FPGMNAPD@OPIF_SHOWNAMESONLY?$AA@ 0000000180002f78     flags.obj
 0001:00001f90       ??_C@_0P@OFEDJCO@OPIF_REALNAMES?$AA@ 0000000180002f90     flags.obj
 0001:00001fa0       ??_C@_0BC@HOFHNJIG@OPIF_RAWSELECTION?$AA@ 0000000180002fa0     flags.obj
 0001:00001fb8       ??_C@_0N@JANKJMLP@OPIF_ADDDOTS?$AA@ 0000000180002fb8     flags.obj
 0001:00001fc8       ??_C@_0BJ@NGLIANCL@OPIF_DISABLEHIGHLIGHTING?$AA@ 0000000180002fc8     flags.obj
 0001:00001fe8       ??_C@_0BH@FHBKALPD@OPIF_DISABLESORTGROUPS?$AA@ 0000000180002fe8     flags.obj
 0001:00002000       ??_C@_0BD@PBMGDJEM@OPIF_DISABLEFILTER?$AA@ 0000000180003000     flags.obj
 0001:00002018       ??_C@_0BH@KOFCBJBO@PMFLAGS_CASECONVERSION?$AA@ 0000000180003018     flags.obj
 0001:00002030       ??_C@_0BI@BMHIBDMH@PMFLAGS_ALIGNEXTENSIONS?$AA@ 0000000180003030     flags.obj
 0001:00002048       ??_C@_0BH@GDAAKEMH@PMFLAGS_DETAILEDSTATUS?$AA@ 0000000180003048     flags.obj
 0001:00002060       ??_C@_0BD@KGHJOBGM@PMFLAGS_FULLSCREEN?$AA@ 0000000180003060     flags.obj
 0001:00002078       ??_C@_0BD@EGELEIIG@IPLFLAGS_SEPARATOR?$AA@ 0000000180003078     flags.obj
 0001:00002090       ??_C@_07MGEGJMPI@PF_NONE?$AA@ 0000000180003090     flags.obj
 0001:00002098       ??_C@_09GMFDAFKL@PF_DIALOG?$AA@ 0000000180003098     flags.obj
 0001:000020a8       ??_C@_0P@MBLBBCNK@PF_FULLCMDLINE?$AA@ 00000001800030a8     flags.obj
 0001:000020b8       ??_C@_09NEKIJNNA@PF_VIEWER?$AA@ 00000001800030b8     flags.obj
 0001:000020c8       ??_C@_09OENCMPGE@PF_EDITOR?$AA@ 00000001800030c8     flags.obj
 0001:000020d8       ??_C@_0BB@GCINAIGN@PF_DISABLEPANELS?$AA@ 00000001800030d8     flags.obj
 0001:000020f0       ??_C@_0L@NHEJGKCF@PF_PRELOAD?$AA@ 00000001800030f0     flags.obj
 0001:00002100       ??_C@_0BH@PEGBPJKE@FFFS_MINSIZEINDEX_MASK?$AA@ 0000000180003100     flags.obj
 0001:00002118       ??_C@_0BC@LLLANJJO@FFFS_MINSIZEINDEX?$AA@ 0000000180003118     flags.obj
 0001:00002130       ??_C@_0O@HFIGPFIH@FFFS_THOUSAND?$AA@ 0000000180003130     flags.obj
 0001:00002140       ??_C@_0O@FPIOAIMC@FFFS_ECONOMIC?$AA@ 0000000180003140     flags.obj
 0001:00002150       ??_C@_0BE@NPKCCEJ@FFFS_SHOWBYTESINDEX?$AA@ 0000000180003150     flags.obj
 0001:00002168       ??_C@_0P@JPMLNBKL@FFFS_FLOATSIZE?$AA@ 0000000180003168     flags.obj
 0001:00002178       ??_C@_0M@JDMKDBDH@FFFS_COMMAS?$AA@ 0000000180003178     flags.obj
 0001:00002188       ??_C@_08EBKEJHAL@MLF_NONE?$AA@ 0000000180003188     flags.obj
 0001:00002198       ??_C@_0P@EPFBLPAE@MLF_HOLDTARGET?$AA@ 0000000180003198     flags.obj
 0001:000021a8       ??_C@_0BF@LMAGFLHF@MLF_DONOTUPDATEPANEL?$AA@ 00000001800031a8     flags.obj
 0001:000021c0       ??_C@_0P@LJPBHEIE@MLF_SHOWERRMSG?$AA@ 00000001800031c0     flags.obj
 0001:000021d0       ??_C@_0BA@JCPHOEAE@FRS_SCANSYMLINK?$AA@ 00000001800031d0     flags.obj
 0001:000021e0       ??_C@_09GHEPLOHO@FRS_RECUR?$AA@ 00000001800031e0     flags.obj
 0001:000021f0       ??_C@_0N@PJEDCNNJ@FRS_RETUPDIR?$AA@ 00000001800031f0     flags.obj
 0001:00002200       ??_C@_09JCNLKBBK@XLAT_NONE?$AA@ 0000000180003200     flags.obj
 0001:00002210       ??_C@_0BH@IANKLOAC@XLAT_CONVERTALLCMDLINE?$AA@ 0000000180003210     flags.obj
 0001:00002228       ??_C@_0BH@KBFAFPNA@XLAT_USEKEYBLAYOUTNAME?$AA@ 0000000180003228     flags.obj
 0001:00002240       ??_C@_0BE@KOIJDNLA@XLAT_SWITCHKEYBBEEP?$AA@ 0000000180003240     flags.obj
 0001:00002258       ??_C@_0BG@GOMJDMCK@XLAT_SWITCHKEYBLAYOUT?$AA@ 0000000180003258     flags.obj
 0001:00002270       ??_C@_0BE@OPDBOAAE@PN_SHOWERRORMESSAGE?$AA@ 0000000180003270     flags.obj
 0001:00002288       ??_C@_0M@NOOLKEBH@PN_SKIPPATH?$AA@ 0000000180003288     flags.obj
 0001:00002298       ??_C@_0N@FEGPCCPJ@PN_CHECKMASK?$AA@ 0000000180003298     flags.obj
 0001:000022a8       ??_C@_0BA@BJCCEIOI@PN_GENERATENAME?$AA@ 00000001800032a8     flags.obj
 0001:000022b8       ??_C@_0P@KDEENAHJ@PN_CMPNAMELIST?$AA@ 00000001800032b8     flags.obj
 0001:000022c8       ??_C@_0L@HODJIPGA@PN_CMPNAME?$AA@ 00000001800032c8     flags.obj
 0001:000022d8       ??_C@_08OIOFCNLC@FPF_NONE?$AA@ 00000001800032d8     flags.obj
 0001:000022e8       ??_C@_08GKECKCCJ@FPF_ANSI?$AA@ 00000001800032e8     flags.obj
 0001:000022f8       ??_C@_0L@NMBLFMBN@FPF_LOADED?$AA@ 00000001800032f8     flags.obj
 0001:00002308       ??_C@_08HPFOCDKB@FIB_NONE?$AA@ 0000000180003308     flags.obj
 0001:00002318       ??_C@_0BB@DCODFLEL@FIB_EDITPATHEXEC?$AA@ 0000000180003318     flags.obj
 0001:00002330       ??_C@_0N@LBOCEEGH@FIB_EDITPATH?$AA@ 0000000180003330     flags.obj
 0001:00002340       ??_C@_0BA@COBBDHNL@FIB_NOAMPERSAND?$AA@ 0000000180003340     flags.obj
 0001:00002350       ??_C@_0M@KJOJJDIM@FIB_BUTTONS?$AA@ 0000000180003350     flags.obj
 0001:00002360       ??_C@_0BF@CEMIHIOK@FIB_NOUSELASTHISTORY?$AA@ 0000000180003360     flags.obj
 0001:00002378       ??_C@_0O@DOHEGELC@FIB_EXPANDENV?$AA@ 0000000180003378     flags.obj
 0001:00002388       ??_C@_0N@DLDJCGJI@FIB_PASSWORD?$AA@ 0000000180003388     flags.obj
 0001:00002398       ??_C@_0BA@KNNLMGCA@FIB_ENABLEEMPTY?$AA@ 0000000180003398     flags.obj
 0001:000023a8       ??_C@_0P@BAFEMBAJ@ECF_AUTODELETE?$AA@ 00000001800033a8     flags.obj
 0001:000023b8       ??_C@_0BD@DKGCCJNG@ECF_TABMARKCURRENT?$AA@ 00000001800033b8     flags.obj
 0001:000023d0       ??_C@_0BB@EDGIEBDF@ECF_TABMARKFIRST?$AA@ 00000001800033d0     flags.obj
 0001:000023e8       ??_C@_0N@GHBDMLON@VMF_WORDWRAP?$AA@ 00000001800033e8     flags.obj
 0001:000023f8       ??_C@_08FAPBJAKB@VMF_WRAP?$AA@ 00000001800033f8     flags.obj
 0001:00002408       ??_C@_0BA@JKDMJLJG@VSP_NORETNEWPOS?$AA@ 0000000180003408     flags.obj
 0001:00002418       ??_C@_0N@JGGGCNIP@VSP_RELATIVE?$AA@ 0000000180003418     flags.obj
 0001:00002428       ??_C@_0M@LHNGMHFO@VSP_PERCENT?$AA@ 0000000180003428     flags.obj
 0001:00002438       ??_C@_0N@GHEHKHJN@VSP_NOREDRAW?$AA@ 0000000180003438     flags.obj
 0001:00002448       ??_C@_0N@ILNDJNNO@VSMFL_REDRAW?$AA@ 0000000180003448     flags.obj
 0001:00002458       ??_C@_09FIOJMNJ@VOPT_NONE?$AA@ 0000000180003458     flags.obj
 0001:00002468       ??_C@_0BI@NCAHLEBN@VOPT_AUTODETECTCODEPAGE?$AA@ 0000000180003468     flags.obj
 0001:00002480       ??_C@_0BG@JMJAOELH@VOPT_SAVEFILEPOSITION?$AA@ 0000000180003480     flags.obj
 0001:00002498       ??_C@_09FPGEBDGO@WIF_MODAL?$AA@ 0000000180003498     flags.obj
 0001:000024a8       ??_C@_0M@ICPAPCOF@WIF_CURRENT?$AA@ 00000001800034a8     flags.obj
 0001:000024b8       ??_C@_0N@MLMCEKPH@WIF_MODIFIED?$AA@ 00000001800034b8     flags.obj
 0001:000024c8       ??_C@_0N@LCOHPDHN@FSETCLR_NONE?$AA@ 00000001800034c8     flags.obj
 0001:000024d8       ??_C@_0P@LMBMJIMF@FSETCLR_REDRAW?$AA@ 00000001800034d8     flags.obj
 0001:000024e8       ??_C@_0O@GKOLBMFK@AKMFLAGS_NONE?$AA@ 00000001800034e8     flags.obj
 0001:000024f8       ??_C@_0N@GIJCDFJI@KMFLAGS_NONE?$AA@ 00000001800034f8     flags.obj
 0001:00002508       ??_C@_0BD@JHNPMIGP@KMFLAGS_MOONSCRIPT?$AA@ 0000000180003508     flags.obj
 0001:00002520       ??_C@_0M@HFBACHCP@KMFLAGS_LUA?$AA@ 0000000180003520     flags.obj
 0001:00002530       ??_C@_0BB@NCECNBPK@KMFLAGS_LANGMASK?$AA@ 0000000180003530     flags.obj
 0001:00002548       ??_C@_0BF@PHHPAAOK@KMFLAGS_ENABLEOUTPUT?$AA@ 0000000180003548     flags.obj
 0001:00002560       ??_C@_0BM@BBOPLPKC@KMFLAGS_NOSENDKEYSTOPLUGINS?$AA@ 0000000180003560     flags.obj
 0001:00002580       ??_C@_0BE@GEGKIINM@KMFLAGS_SILENTCHECK?$AA@ 0000000180003580     flags.obj
 0001:00002598       ??_C@_0L@MAGMKNFN@FHELP_NONE?$AA@ 0000000180003598     flags.obj
 0001:000025a8       ??_C@_0BC@PNPOIHMG@FHELP_USECONTENTS?$AA@ 00000001800035a8     flags.obj
 0001:000025c0       ??_C@_0L@OOIMFPBD@FHELP_GUID?$AA@ 00000001800035c0     flags.obj
 0001:000025d0       ??_C@_0BB@IHFFPJJA@FHELP_CUSTOMPATH?$AA@ 00000001800035d0     flags.obj
 0001:000025e8       ??_C@_0BB@KNKDPNI@FHELP_CUSTOMFILE?$AA@ 00000001800035e8     flags.obj
 0001:00002600       ??_C@_0O@FLGGLFLC@FHELP_FARHELP?$AA@ 0000000180003600     flags.obj
 0001:00002610       ??_C@_0P@GANNLHEJ@FHELP_SELFHELP?$AA@ 0000000180003610     flags.obj
 0001:00002620       ??_C@_0BC@HHNGCBAM@FHELP_NOSHOWERROR?$AA@ 0000000180003620     flags.obj
 0001:00002638       ??_C@_07MBPCONNA@EN_NONE?$AA@ 0000000180003638     flags.obj
 0001:00002640       ??_C@_0BJ@MOLGCBMH@EF_OPENMODE_RELOADIFOPEN?$AA@ 0000000180003640     flags.obj
 0001:00002660       ??_C@_0BI@EJBKKDJ@EF_OPENMODE_BREAKIFOPEN?$AA@ 0000000180003660     flags.obj
 0001:00002678       ??_C@_0BI@KGOKGPEI@EF_OPENMODE_USEEXISTING?$AA@ 0000000180003678     flags.obj
 0001:00002690       ??_C@_0BG@BFKJJBAG@EF_OPENMODE_NEWIFOPEN?$AA@ 0000000180003690     flags.obj
 0001:000026a8       ??_C@_0BC@GAIDEJIA@EF_OPENMODE_QUERY?$AA@ 00000001800036a8     flags.obj
 0001:000026c0       ??_C@_0BB@NILAHAFO@EF_OPENMODE_MASK?$AA@ 00000001800036c0     flags.obj
 0001:000026d8       ??_C@_0BC@GFHJGKD@EF_DISABLESAVEPOS?$AA@ 00000001800036d8     flags.obj
 0001:000026f0       ??_C@_09IJMPFPLB@EF_LOCKED?$AA@ 00000001800036f0     flags.obj
 0001:00002700       ??_C@_0BJ@ILCPOFKL@EF_DELETEONLYFILEONCLOSE?$AA@ 0000000180003700     flags.obj
 0001:00002720       ??_C@_0BD@IHIGHGPL@EF_IMMEDIATERETURN?$AA@ 0000000180003720     flags.obj
 0001:00002738       ??_C@_0BB@KGPIDKFC@EF_DELETEONCLOSE?$AA@ 0000000180003738     flags.obj
 0001:00002750       ??_C@_0BC@PPEPEFFI@EF_DISABLEHISTORY?$AA@ 0000000180003750     flags.obj
 0001:00002768       ??_C@_0N@LKLNHALI@EF_ENABLE_F6?$AA@ 0000000180003768     flags.obj
 0001:00002778       ??_C@_0N@DBHFPBEO@EF_CREATENEW?$AA@ 0000000180003778     flags.obj
 0001:00002788       ??_C@_0M@PIFGAPFH@EF_NONMODAL?$AA@ 0000000180003788     flags.obj
 0001:00002798       ??_C@_07CJJFHP@VF_NONE?$AA@ 0000000180003798     flags.obj
 0001:000027a0       ??_C@_0BJ@OGNFHEJG@VF_DELETEONLYFILEONCLOSE?$AA@ 00000001800037a0     flags.obj
 0001:000027c0       ??_C@_0BD@DHJCMLFI@VF_IMMEDIATERETURN?$AA@ 00000001800037c0     flags.obj
 0001:000027d8       ??_C@_0BC@DLGKMECC@VF_DISABLEHISTORY?$AA@ 00000001800037d8     flags.obj
 0001:000027f0       ??_C@_0N@LDHALKKM@VF_ENABLE_F6?$AA@ 00000001800037f0     flags.obj
 0001:00002800       ??_C@_0BB@OCDDPIKL@VF_DELETEONCLOSE?$AA@ 0000000180003800     flags.obj
 0001:00002818       ??_C@_0M@IDNADAFL@VF_NONMODAL?$AA@ 0000000180003818     flags.obj
 0001:00002828       ??_C@_0M@NEMAHHGP@PFLAGS_NONE?$AA@ 0000000180003828     flags.obj
 0001:00002838       ??_C@_0BA@GHMDCHHI@PFLAGS_SHORTCUT?$AA@ 0000000180003838     flags.obj
 0001:00002848       ??_C@_0BI@EOCCAHFA@PFLAGS_ALTERNATIVENAMES?$AA@ 0000000180003848     flags.obj
 0001:00002860       ??_C@_0N@EOFAELOJ@PFLAGS_FOCUS?$AA@ 0000000180003860     flags.obj
 0001:00002870       ??_C@_0P@MLDEBNPK@PFLAGS_VISIBLE?$AA@ 0000000180003870     flags.obj
 0001:00002880       ??_C@_0O@DBPJGING@PFLAGS_PLUGIN?$AA@ 0000000180003880     flags.obj
 0001:00002890       ??_C@_0BJ@HJFOABKG@PFLAGS_CASESENSITIVESORT?$AA@ 0000000180003890     flags.obj
 0001:000028b0       ??_C@_0BA@KJEPHDOM@PFLAGS_USECRC32?$AA@ 00000001800038b0     flags.obj
 0001:000028c0       ??_C@_0BI@EHHAJLOH@PFLAGS_DIRECTORIESFIRST?$AA@ 00000001800038c0     flags.obj
 0001:000028d8       ??_C@_0BB@ILEHDKFJ@PFLAGS_PANELLEFT?$AA@ 00000001800038d8     flags.obj
 0001:000028f0       ??_C@_0BD@MOODMDAB@PFLAGS_NUMERICSORT?$AA@ 00000001800038f0     flags.obj
 0001:00002908       ??_C@_0BB@KDANIJNM@PFLAGS_REALNAMES?$AA@ 0000000180003908     flags.obj
 0001:00002920       ??_C@_0BF@LBBAIOCD@PFLAGS_SELECTEDFIRST?$AA@ 0000000180003920     flags.obj
 0001:00002938       ??_C@_0BF@KJNCJPKN@PFLAGS_USESORTGROUPS?$AA@ 0000000180003938     flags.obj
 0001:00002950       ??_C@_0BI@BFAFODJ@PFLAGS_REVERSESORTORDER?$AA@ 0000000180003950     flags.obj
 0001:00002968       ??_C@_0BB@BCAJEJEH@PFLAGS_HIGHLIGHT?$AA@ 0000000180003968     flags.obj
 0001:00002980       ??_C@_0BC@BONLDOOD@PFLAGS_SHOWHIDDEN?$AA@ 0000000180003980     flags.obj
 0001:00002998       ??_C@_09OIFMMGNJ@PPIF_NONE?$AA@ 0000000180003998     flags.obj
 0001:000029a8       ??_C@_0BC@LPBDBIOM@PPIF_PROCESSDESCR?$AA@ 00000001800039a8     flags.obj
 0001:000029c0       ??_C@_0O@JEAJLDHC@PPIF_SELECTED?$AA@ 00000001800039c0     flags.obj
 0001:000029d0       ??_C@_0L@DGFIEOMD@FMENU_NONE?$AA@ 00000001800039d0     flags.obj
 0001:000029e0       ??_C@_0BJ@FCEONOJC@FMENU_CHANGECONSOLETITLE?$AA@ 00000001800039e0     flags.obj
 0001:00002a00       ??_C@_0BL@OKAIKPMN@FMENU_REVERSEAUTOHIGHLIGHT?$AA@ 0000000180003a00     flags.obj
 0001:00002a20       ??_C@_0BE@IDAMFDEA@FMENU_AUTOHIGHLIGHT?$AA@ 0000000180003a20     flags.obj
 0001:00002a38       ??_C@_0P@HICDNKDJ@FMENU_WRAPMODE?$AA@ 0000000180003a38     flags.obj
 0001:00002a48       ??_C@_0BE@FALMPPJK@FMENU_SHOWAMPERSAND?$AA@ 0000000180003a48     flags.obj
 0001:00002a60       ??_C@_08JEEJJGP@MIF_NONE?$AA@ 0000000180003a60     flags.obj
 0001:00002a70       ??_C@_0L@DEJINBIP@MIF_HIDDEN?$AA@ 0000000180003a70     flags.obj
 0001:00002a80       ??_C@_0L@DLLNLLIG@MIF_GRAYED?$AA@ 0000000180003a80     flags.obj
 0001:00002a90       ??_C@_0M@OPPCPJOL@MIF_DISABLE?$AA@ 0000000180003a90     flags.obj
 0001:00002aa0       ??_C@_0O@DEIKOCPA@MIF_SEPARATOR?$AA@ 0000000180003aa0     flags.obj
 0001:00002ab0       ??_C@_0M@IHMNAMOE@MIF_CHECKED?$AA@ 0000000180003ab0     flags.obj
 0001:00002ac0       ??_C@_0N@JOOGIBAO@MIF_SELECTED?$AA@ 0000000180003ac0     flags.obj
 0001:00002ad0       ??_C@_09NNFHCBNL@FDLG_NONE?$AA@ 0000000180003ad0     flags.obj
 0001:00002ae0       ??_C@_0BG@GHNOOENB@FDLG_KEEPCONSOLETITLE?$AA@ 0000000180003ae0     flags.obj
 0001:00002af8       ??_C@_0BB@NPLEEAKK@FDLG_NODRAWPANEL?$AA@ 0000000180003af8     flags.obj
 0001:00002b10       ??_C@_0BC@ONGLDAJN@FDLG_NODRAWSHADOW?$AA@ 0000000180003b10     flags.obj
 0001:00002b28       ??_C@_0BB@DKMEBDJJ@FDLG_SMALLDIALOG?$AA@ 0000000180003b28     flags.obj
 0001:00002b40       ??_C@_0N@OLGDMHKL@FDLG_WARNING?$AA@ 0000000180003b40     flags.obj
 0001:00002b50       ??_C@_0L@EPACPANF@LINFO_NONE?$AA@ 0000000180003b50     flags.obj
 0001:00002b60       ??_C@_0BE@OHJCOKAE@LINFO_SHOWAMPERSAND?$AA@ 0000000180003b60     flags.obj
 0001:00002b78       ??_C@_0P@KLBMHNCG@LINFO_WRAPMODE?$AA@ 0000000180003b78     flags.obj
 0001:00002b88       ??_C@_0BH@BADLEILJ@LINFO_REVERSEHIGHLIGHT?$AA@ 0000000180003b88     flags.obj
 0001:00002ba0       ??_C@_0BE@DECCEGNO@LINFO_AUTOHIGHLIGHT?$AA@ 0000000180003ba0     flags.obj
 0001:00002bb8       ??_C@_0BA@OOIEKCFB@LINFO_SHOWNOBOX?$AA@ 0000000180003bb8     flags.obj
 0001:00002bc8       ??_C@_0M@FPOGKIGO@LIFIND_NONE?$AA@ 0000000180003bc8     flags.obj
 0001:00002bd8       ??_C@_0BC@BGAENNBJ@LIFIND_EXACTMATCH?$AA@ 0000000180003bd8     flags.obj
 0001:00002bf0       ??_C@_08BODPINCM@LIF_NONE?$AA@ 0000000180003bf0     flags.obj
 0001:00002c00       ??_C@_0BD@HEPCOIEH@LIF_DELETEUSERDATA?$AA@ 0000000180003c00     flags.obj
 0001:00002c18       ??_C@_0L@PFBGAOEP@LIF_HIDDEN?$AA@ 0000000180003c18     flags.obj
 0001:00002c28       ??_C@_0L@PKDDGEEG@LIF_GRAYED?$AA@ 0000000180003c28     flags.obj
 0001:00002c38       ??_C@_0M@HEFHLFIE@LIF_DISABLE?$AA@ 0000000180003c38     flags.obj
 0001:00002c48       ??_C@_0O@KJIFADIG@LIF_SEPARATOR?$AA@ 0000000180003c48     flags.obj
 0001:00002c58       ??_C@_0M@BMGIEAIL@LIF_CHECKED?$AA@ 0000000180003c58     flags.obj
 0001:00002c68       ??_C@_0N@EDHAFIIL@LIF_SELECTED?$AA@ 0000000180003c68     flags.obj
 0001:00002c78       ??_C@_08KFOHCPDE@DIF_NONE?$AA@ 0000000180003c78     flags.obj
 0001:00002c88       ??_C@_0N@LAEOODAD@DIF_WORDWRAP?$AA@ 0000000180003c88     flags.obj
 0001:00002c98       ??_C@_0O@KJADCBBN@DIF_RIGHTTEXT?$AA@ 0000000180003c98     flags.obj
 0001:00002ca8       ??_C@_09LCJIOEMN@DIF_FOCUS?$AA@ 0000000180003ca8     flags.obj
 0001:00002cb8       ??_C@_0BC@CHAAKEJO@DIF_DEFAULTBUTTON?$AA@ 0000000180003cb8     flags.obj
 0001:00002cd0       ??_C@_0M@HCFLMDHK@DIF_DISABLE?$AA@ 0000000180003cd0     flags.obj
 0001:00002ce0       ??_C@_0M@NLLDINIM@DIF_NOFOCUS?$AA@ 0000000180003ce0     flags.obj
 0001:00002cf0       ??_C@_0N@KOGKCAKJ@DIF_READONLY?$AA@ 0000000180003cf0     flags.obj
 0001:00002d00       ??_C@_0L@EPNFOPAK@DIF_HIDDEN?$AA@ 0000000180003d00     flags.obj
 0001:00002d10       ??_C@_0BB@GMKDKOOP@DIF_EDITPATHEXEC?$AA@ 0000000180003d10     flags.obj
 0001:00002d28       ??_C@_0BA@JNOKLHOL@DIF_LISTNOCLOSE?$AA@ 0000000180003d28     flags.obj
 0001:00002d38       ??_C@_0BG@MONEJILE@DIF_LISTAUTOHIGHLIGHT?$AA@ 0000000180003d38     flags.obj
 0001:00002d50       ??_C@_0BD@MFOKKGGF@DIF_NOAUTOCOMPLETE?$AA@ 0000000180003d50     flags.obj
 0001:00002d68       ??_C@_0BB@NPNALIGO@DIF_LISTWRAPMODE?$AA@ 0000000180003d68     flags.obj
 0001:00002d80       ??_C@_0N@GBGHICKO@DIF_EDITPATH?$AA@ 0000000180003d80     flags.obj
 0001:00002d90       ??_C@_0L@KKNJDNBK@DIF_3STATE?$AA@ 0000000180003d90     flags.obj
 0001:00002da0       ??_C@_0BC@JNLDMGBD@DIF_SELECTONENTRY?$AA@ 0000000180003da0     flags.obj
 0001:00002db8       ??_C@_0BK@LEFIBDOA@DIF_LISTTRACKMOUSEINFOCUS?$AA@ 0000000180003db8     flags.obj
 0001:00002dd8       ??_C@_0BD@LPDHCLJI@DIF_LISTTRACKMOUSE?$AA@ 0000000180003dd8     flags.obj
 0001:00002df0       ??_C@_0N@MOCGNIKC@DIF_MASKEDIT?$AA@ 0000000180003df0     flags.obj
 0001:00002e00       ??_C@_0BD@MNGIOLFF@DIF_USELASTHISTORY?$AA@ 0000000180003e00     flags.obj
 0001:00002e18       ??_C@_0BB@EIMEKEFP@DIF_DROPDOWNLIST?$AA@ 0000000180003e18     flags.obj
 0001:00002e30       ??_C@_0P@EEJEDBLH@DIF_EDITEXPAND?$AA@ 0000000180003e30     flags.obj
 0001:00002e40       ??_C@_0O@IKJBMPOF@DIF_SETSHIELD?$AA@ 0000000180003e40     flags.obj
 0001:00002e50       ??_C@_0BC@ODEMBOPK@DIF_SEPARATORUSER?$AA@ 0000000180003e50     flags.obj
 0001:00002e68       ??_C@_0P@KOJCCCGB@DIF_CENTERTEXT?$AA@ 0000000180003e68     flags.obj
 0001:00002e78       ??_C@_0P@EGFAEEDC@DIF_BTNNOCLOSE?$AA@ 0000000180003e78     flags.obj
 0001:00002e88       ??_C@_0M@IPFBMFDN@DIF_HISTORY?$AA@ 0000000180003e88     flags.obj
 0001:00002e98       ??_C@_0O@FFJNBMAD@DIF_LISTNOBOX?$AA@ 0000000180003e98     flags.obj
 0001:00002ea8       ??_C@_0BE@PFICAGJF@DIF_LISTNOAMPERSAND?$AA@ 0000000180003ea8     flags.obj
 0001:00002ec0       ??_C@_0L@NBPFNGLB@DIF_EDITOR?$AA@ 0000000180003ec0     flags.obj
 0001:00002ed0       ??_C@_0P@CGILDLOA@DIF_SEPARATOR2?$AA@ 0000000180003ed0     flags.obj
 0001:00002ee0       ??_C@_0O@JKNMBNLA@DIF_SEPARATOR?$AA@ 0000000180003ee0     flags.obj
 0001:00002ef0       ??_C@_0BF@JBCDBJCL@DIF_MANUALADDHISTORY?$AA@ 0000000180003ef0     flags.obj
 0001:00002f08       ??_C@_0P@MKFBJPOB@DIF_NOBRACKETS?$AA@ 0000000180003f08     flags.obj
 0001:00002f18       ??_C@_0BA@BLCOKAAO@DIF_CENTERGROUP?$AA@ 0000000180003f18     flags.obj
 0001:00002f28       ??_C@_0BC@PDKFKKEI@DIF_SHOWAMPERSAND?$AA@ 0000000180003f28     flags.obj
 0001:00002f40       ??_C@_0P@BGPBEDHH@DIF_MOVESELECT?$AA@ 0000000180003f40     flags.obj
 0001:00002f50       ??_C@_0N@GCKJNBCM@DIF_LEFTTEXT?$AA@ 0000000180003f50     flags.obj
 0001:00002f60       ??_C@_09IAEPIICA@DIF_GROUP?$AA@ 0000000180003f60     flags.obj
 0001:00002f70       ??_C@_0N@DHJCDIKM@DIF_BOXCOLOR?$AA@ 0000000180003f70     flags.obj
 0001:00002f80       ??_C@_09NEGPLEAH@FMSG_NONE?$AA@ 0000000180003f80     flags.obj
 0001:00002f90       ??_C@_0BE@OCLAIENB@FMSG_MB_RETRYCANCEL?$AA@ 0000000180003f90     flags.obj
 0001:00002fa8       ??_C@_0BE@IBNOLCGP@FMSG_MB_YESNOCANCEL?$AA@ 0000000180003fa8     flags.obj
 0001:00002fc0       ??_C@_0O@GPCAPHCL@FMSG_MB_YESNO?$AA@ 0000000180003fc0     flags.obj
 0001:00002fd0       ??_C@_0BJ@BKJADAHA@FMSG_MB_ABORTRETRYIGNORE?$AA@ 0000000180003fd0     flags.obj
 0001:00002ff0       ??_C@_0BB@JGAPGIEP@FMSG_MB_OKCANCEL?$AA@ 0000000180003ff0     flags.obj
 0001:00003008       ??_C@_0L@BGALGPOK@FMSG_MB_OK?$AA@ 0000000180004008     flags.obj
 0001:00003018       ??_C@_0O@FOIOKDHJ@FMSG_ALLINONE?$AA@ 0000000180004018     flags.obj
 0001:00003028       ??_C@_0P@KBEMNNEP@FMSG_LEFTALIGN?$AA@ 0000000180004028     flags.obj
 0001:00003038       ??_C@_0BE@FHOOILPH@FMSG_KEEPBACKGROUND?$AA@ 0000000180004038     flags.obj
 0001:00003050       ??_C@_0P@HHIGLJAP@FMSG_ERRORTYPE?$AA@ 0000000180004050     flags.obj
 0001:00003060       ??_C@_0N@ELMEMNDH@FMSG_WARNING?$AA@ 0000000180004060     flags.obj
 0001:00003070       ??_C@_08FKIDFHCM@CDF_NONE?$AA@ 0000000180004070     flags.obj
 0001:00003080       ??_C@_08BKNBBLHK@FCF_NONE?$AA@ 0000000180004080     flags.obj
 0001:00003090       ??_C@_0O@LGBGBIGB@FCF_STYLEMASK?$AA@ 0000000180004090     flags.obj
 0001:000030a0       ??_C@_0BB@NPEFGEGA@FCF_FG_UNDERLINE?$AA@ 00000001800040a0     flags.obj
 0001:000030b8       ??_C@_0O@FAPDECBF@FCF_FG_ITALIC?$AA@ 00000001800040b8     flags.obj
 0001:000030c8       ??_C@_0M@LFMGCKHG@FCF_FG_BOLD?$AA@ 00000001800040c8     flags.obj
 0001:000030d8       ??_C@_0BC@NKBLNNIA@FCF_EXTENDEDFLAGS?$AA@ 00000001800040d8     flags.obj
 0001:000030f0       ??_C@_0BB@PJFLJJLD@FCF_RAWATTR_MASK?$AA@ 00000001800040f0     flags.obj
 0001:00003108       ??_C@_0N@HMKJBHOA@FCF_4BITMASK?$AA@ 0000000180004108     flags.obj
 0001:00003118       ??_C@_0M@PJHNDJIE@FCF_BG_4BIT?$AA@ 0000000180004118     flags.obj
 0001:00003128       ??_C@_0M@HNDHDHHO@FCF_FG_4BIT?$AA@ 0000000180004128     flags.obj
 0001:00003138       ??_C@_0BE@PONEECEM@FE_CHANGESORTPARAMS?$AA@ 0000000180004138     flags.obj
 0001:00003150       ??_C@_0N@DGHFKMFL@FE_KILLFOCUS?$AA@ 0000000180004150     flags.obj
 0001:00003160       ??_C@_0M@FIECADDF@FE_GOTFOCUS?$AA@ 0000000180004160     flags.obj
 0001:00003170       ??_C@_0L@LELAIPLL@FE_COMMAND?$AA@ 0000000180004170     flags.obj
 0001:00003180       ??_C@_08MOMCCKPB@FE_BREAK?$AA@ 0000000180004180     flags.obj
 0001:00003190       ??_C@_08DENCGKED@FE_CLOSE?$AA@ 0000000180004190     flags.obj
 0001:000031a0       ??_C@_07CLNPDBLG@FE_IDLE?$AA@ 00000001800041a0     flags.obj
 0001:000031a8       ??_C@_09DENIDBMJ@FE_REDRAW?$AA@ 00000001800041a8     flags.obj
 0001:000031b8       ??_C@_0BC@PNCKAHJO@FE_CHANGEVIEWMODE?$AA@ 00000001800041b8     flags.obj
 0001:000031d0       ??_C@_0BA@GEAFHJNF@MPRT_HASNOMACRO?$AA@ 00000001800041d0     flags.obj
 0001:000031e0       ??_C@_0O@IEMNLPAB@MPRT_USERMENU?$AA@ 00000001800041e0     flags.obj
 0001:000031f0       ??_C@_0BD@HHINMPPI@MPRT_PLUGINCOMMAND?$AA@ 00000001800041f0     flags.obj
 0001:00003208       ??_C@_0BC@LEDOPMKI@MPRT_PLUGINCONFIG?$AA@ 0000000180004208     flags.obj
 0001:00003220       ??_C@_0BA@EJFFOAMM@MPRT_PLUGINMENU?$AA@ 0000000180004220     flags.obj
 0001:00003230       ??_C@_0BA@OBIDLEIM@MPRT_PLUGINCALL?$AA@ 0000000180004230     flags.obj
 0001:00003240       ??_C@_0L@GEHHCKFA@MPRT_PRINT?$AA@ 0000000180004240     flags.obj
 0001:00003250       ??_C@_09EJDAADCN@MPRT_KEYS?$AA@ 0000000180004250     flags.obj
 0001:00003260       ??_C@_0BA@BCBAEEOI@MPRT_ERRORPARSE?$AA@ 0000000180004260     flags.obj
 0001:00003270       ??_C@_0BB@PMCBIGCA@MPRT_ERRORFINISH?$AA@ 0000000180004270     flags.obj
 0001:00003288       ??_C@_0BC@IOECJI@MPRT_NORMALFINISH?$AA@ 0000000180004288     flags.obj
 0001:000032a0       ??_C@_0N@BHFJFHA@MCT_KEYMACRO?$AA@ 00000001800042a0     flags.obj
 0001:000032b0       ??_C@_0N@FOPIOCHO@MCT_ADDMACRO?$AA@ 00000001800042b0     flags.obj
 0001:000032c0       ??_C@_0BH@PKKJIOHM@MCT_GETCUSTOMSORTMODES?$AA@ 00000001800042c0     flags.obj
 0001:000032d8       ??_C@_0O@CDBDPKIC@MCT_PANELSORT?$AA@ 00000001800042d8     flags.obj
 0001:000032e8       ??_C@_0P@HOMHAEFB@MCT_EXECSTRING?$AA@ 00000001800042e8     flags.obj
 0001:000032f8       ??_C@_0BC@NALHIHJ@MCT_RUNSTARTMACRO?$AA@ 00000001800042f8     flags.obj
 0001:00003310       ??_C@_0N@OLCKOJMI@MCT_DELMACRO?$AA@ 0000000180004310     flags.obj
 0001:00003320       ??_C@_0BC@NFGGBILF@MCT_RECORDEDMACRO?$AA@ 0000000180004320     flags.obj
 0001:00003338       ??_C@_0N@IGJGAHKE@MCT_GETMACRO?$AA@ 0000000180004338     flags.obj
 0001:00003348       ??_C@_0BA@MOCJHMJK@MCT_WRITEMACROS?$AA@ 0000000180004348     flags.obj
 0001:00003358       ??_C@_0P@HMDDACMI@MCT_ENUMMACROS?$AA@ 0000000180004358     flags.obj
 0001:00003368       ??_C@_0P@GNPFPCF@MCT_LOADMACROS?$AA@ 0000000180004368     flags.obj
 0001:00003378       ??_C@_0P@GBMLNMMI@MCT_MACROPARSE?$AA@ 0000000180004378     flags.obj
 0001:00003388       ??_C@_0O@NEDDJIHC@OPEN_LUAMACRO?$AA@ 0000000180004388     flags.obj
 0001:00003398       ??_C@_0P@FOKOAMLC@OPEN_FROMMACRO?$AA@ 0000000180004398     flags.obj
 0001:000033a8       ??_C@_0BD@NFNGGFHI@OPEN_RIGHTDISKMENU?$AA@ 00000001800043a8     flags.obj
 0001:000033c0       ??_C@_0N@CBHPGAKB@OPEN_ANALYSE?$AA@ 00000001800043c0     flags.obj
 0001:000033d0       ??_C@_0M@LEBKLGKD@OPEN_DIALOG?$AA@ 00000001800043d0     flags.obj
 0001:000033e0       ??_C@_0P@LCDNLGDE@OPEN_FILEPANEL?$AA@ 00000001800043e0     flags.obj
 0001:000033f0       ??_C@_0M@MOBCONI@OPEN_VIEWER?$AA@ 00000001800043f0     flags.obj
 0001:00003400       ??_C@_0M@DMJLHMGM@OPEN_EDITOR?$AA@ 0000000180004400     flags.obj
 0001:00003410       ??_C@_0BB@JHCCMIPF@OPEN_COMMANDLINE?$AA@ 0000000180004410     flags.obj
 0001:00003428       ??_C@_0O@OGDCDPNG@OPEN_SHORTCUT?$AA@ 0000000180004428     flags.obj
 0001:00003438       ??_C@_0O@IEJHJCNB@OPEN_FINDLIST?$AA@ 0000000180004438     flags.obj
 0001:00003448       ??_C@_0BB@CEFDHHLF@OPEN_PLUGINSMENU?$AA@ 0000000180004448     flags.obj
 0001:00003460       ??_C@_0BC@OOKLINPG@OPEN_LEFTDISKMENU?$AA@ 0000000180004460     flags.obj
 0001:00003474       ??_C@_05MMFLPJEB@VS_RC?$AA@ 0000000180004474     flags.obj
 0001:00003480       ??_C@_07OKFPMINB@VS_BETA?$AA@ 0000000180004480     flags.obj
 0001:00003488       ??_C@_08BDGLHPMJ@VS_ALPHA?$AA@ 0000000180004488     flags.obj
 0001:00003498       ??_C@_0L@NCFOENCC@VS_RELEASE?$AA@ 0000000180004498     flags.obj
 0001:000034a8       ??_C@_0L@NPJNPCJM@CPM_NATIVE?$AA@ 00000001800044a8     flags.obj
 0001:000034b8       ??_C@_08LAEGFKJE@CPM_REAL?$AA@ 00000001800044b8     flags.obj
 0001:000034c8       ??_C@_08HNOHKPBK@CPM_FULL?$AA@ 00000001800044c8     flags.obj
 0001:000034d8       ??_C@_0N@PJENIJFN@LINK_SYMLINK?$AA@ 00000001800044d8     flags.obj
 0001:000034e8       ??_C@_0BA@GFPIOFMG@LINK_SYMLINKDIR?$AA@ 00000001800044e8     flags.obj
 0001:000034f8       ??_C@_0BB@JDBEPJDK@LINK_SYMLINKFILE?$AA@ 00000001800044f8     flags.obj
 0001:00003510       ??_C@_0O@FIAPLKLH@LINK_VOLMOUNT?$AA@ 0000000180004510     flags.obj
 0001:00003520       ??_C@_0O@OOAFIIDA@LINK_JUNCTION?$AA@ 0000000180004520     flags.obj
 0001:00003530       ??_C@_0O@KJFMBLFE@LINK_HARDLINK?$AA@ 0000000180004530     flags.obj
 0001:00003540       ??_C@_0L@IADFDBJB@FCT_COLUMN?$AA@ 0000000180004540     flags.obj
 0001:00003550       ??_C@_0L@CDAEILNM@FCT_STREAM?$AA@ 0000000180004550     flags.obj
 0001:00003560       ??_C@_07BPEFOPGM@FCT_ANY?$AA@ 0000000180004560     flags.obj
 0001:00003568       ??_C@_09EDBNDHCM@PSL_LOCAL?$AA@ 0000000180004568     flags.obj
 0001:00003578       ??_C@_0M@JCGHGLJF@PSL_ROAMING?$AA@ 0000000180004578     flags.obj
 0001:00003588       ??_C@_0BB@GBBEBNKE@FSSF_PANELLAYOUT?$AA@ 0000000180004588     flags.obj
 0001:000035a0       ??_C@_0P@OCDADNBF@FSSF_INTERFACE?$AA@ 00000001800045a0     flags.obj
 0001:000035b0       ??_C@_0M@CBDJLJIE@FSSF_DIALOG?$AA@ 00000001800045b0     flags.obj
 0001:000035c0       ??_C@_0M@KEMGKEOF@FSSF_SCREEN?$AA@ 00000001800045c0     flags.obj
 0001:000035d0       ??_C@_0M@KJLIHDEL@FSSF_EDITOR?$AA@ 00000001800045d0     flags.obj
 0001:000035e0       ??_C@_0L@LBFNJGFB@FSSF_PANEL?$AA@ 00000001800045e0     flags.obj
 0001:000035f0       ??_C@_0M@PIGDMPJB@FSSF_SYSTEM?$AA@ 00000001800045f0     flags.obj
 0001:00003600       ??_C@_0BD@PBIEGEHP@FSSF_CONFIRMATIONS?$AA@ 0000000180004600     flags.obj
 0001:00003618       ??_C@_0BG@OHMIIBBD@FSSF_FOLDERSHORTCUT_9?$AA@ 0000000180004618     flags.obj
 0001:00003630       ??_C@_0BG@PONDLAFC@FSSF_FOLDERSHORTCUT_8?$AA@ 0000000180004630     flags.obj
 0001:00003648       ??_C@_0BG@HJELKMJN@FSSF_FOLDERSHORTCUT_7?$AA@ 0000000180004648     flags.obj
 0001:00003660       ??_C@_0BG@GAFAJNNM@FSSF_FOLDERSHORTCUT_6?$AA@ 0000000180004660     flags.obj
 0001:00003678       ??_C@_0BG@ELHNMOBP@FSSF_FOLDERSHORTCUT_5?$AA@ 0000000180004678     flags.obj
 0001:00003690       ??_C@_0BG@FCGGPPFO@FSSF_FOLDERSHORTCUT_4?$AA@ 0000000180004690     flags.obj
 0001:000036a8       ??_C@_0BG@BNCHGJJJ@FSSF_FOLDERSHORTCUT_3?$AA@ 00000001800046a8     flags.obj
 0001:000036c0       ??_C@_0BG@EDMFINI@FSSF_FOLDERSHORTCUT_2?$AA@ 00000001800046c0     flags.obj
 0001:000036d8       ??_C@_0BG@CPBBALBL@FSSF_FOLDERSHORTCUT_1?$AA@ 00000001800046d8     flags.obj
 0001:000036f0       ??_C@_0BG@DGAKDKFK@FSSF_FOLDERSHORTCUT_0?$AA@ 00000001800046f0     flags.obj
 0001:00003708       ??_C@_0BG@IFGEMJIF@FSSF_HISTORY_EXTERNAL?$AA@ 0000000180004708     flags.obj
 0001:00003720       ??_C@_0BC@CODELNPP@FSSF_HISTORY_EDIT?$AA@ 0000000180004720     flags.obj
 0001:00003738       ??_C@_0BC@NJCJCCNH@FSSF_HISTORY_VIEW?$AA@ 0000000180004738     flags.obj
 0001:00003750       ??_C@_0BE@BLPOFODL@FSSF_HISTORY_FOLDER?$AA@ 0000000180004750     flags.obj
 0001:00003768       ??_C@_0BB@HDKCPBIO@FSSF_HISTORY_CMD?$AA@ 0000000180004768     flags.obj
 0001:00003780       ??_C@_09OBBBBFPE@FSSF_ROOT?$AA@ 0000000180004780     flags.obj
 0001:00003790       ??_C@_08EJJJCLIG@FST_DATA?$AA@ 0000000180004790     flags.obj
 0001:000037a0       ??_C@_0L@LPMPBKDL@FST_STRING?$AA@ 00000001800047a0     flags.obj
 0001:000037b0       ??_C@_09LFEEAJIC@FST_QWORD?$AA@ 00000001800047b0     flags.obj
 0001:000037c0       ??_C@_0L@GGGOEGKJ@FST_SUBKEY?$AA@ 00000001800047c0     flags.obj
 0001:000037d0       ??_C@_0M@OIOMMFOE@FST_UNKNOWN?$AA@ 00000001800047d0     flags.obj
 0001:000037e0       ??_C@_0L@LGPEDLLD@FFT_CUSTOM?$AA@ 00000001800047e0     flags.obj
 0001:000037f0       ??_C@_0L@EKPDMFDD@FFT_SELECT?$AA@ 00000001800047f0     flags.obj
 0001:00003800       ??_C@_08KKCPIPGP@FFT_COPY?$AA@ 0000000180004800     flags.obj
 0001:00003810       ??_C@_0N@GMEDAGNH@FFT_FINDFILE?$AA@ 0000000180004810     flags.obj
 0001:00003820       ??_C@_09BOODOHKD@FFT_PANEL?$AA@ 0000000180004820     flags.obj
 0001:00003830       ??_C@_0P@KKEMMPNI@PFM_MODULENAME?$AA@ 0000000180004830     flags.obj
 0001:00003840       ??_C@_08KBAMIIFB@PFM_GUID?$AA@ 0000000180004840     flags.obj
 0001:00003850       ??_C@_08HHHKLJPB@PLT_PATH?$AA@ 0000000180004850     flags.obj
 0001:00003860       ??_C@_0P@NMOJJPOB@ECTYPE_DELETED?$AA@ 0000000180004860     flags.obj
 0001:00003870       ??_C@_0N@MDEFMEEA@ECTYPE_ADDED?$AA@ 0000000180004870     flags.obj
 0001:00003880       ??_C@_0P@DOBJCNIG@ECTYPE_CHANGED?$AA@ 0000000180004880     flags.obj
 0001:00003890       ??_C@_0P@BECIAJAM@ECSTATE_LOCKED?$AA@ 0000000180004890     flags.obj
 0001:000038a0       ??_C@_0O@GBBGHDFM@ECSTATE_SAVED?$AA@ 00000001800048a0     flags.obj
 0001:000038b0       ??_C@_0BB@BNPDAPGB@ECSTATE_MODIFIED?$AA@ 00000001800048b0     flags.obj
 0001:000038c8       ??_C@_0N@EMEGNPLI@BTYPE_COLUMN?$AA@ 00000001800048c8     flags.obj
 0001:000038d8       ??_C@_0N@OPHHGFPF@BTYPE_STREAM?$AA@ 00000001800048d8     flags.obj
 0001:000038e8       ??_C@_0L@BJCBJJNB@BTYPE_NONE?$AA@ 00000001800048e8     flags.obj
 0001:000038f8       ??_C@_0BD@CLLAKGOA@EOPT_SHOWLINEBREAK?$AA@ 00000001800048f8     flags.obj
 0001:00003910       ??_C@_08HMMLONBH@EOPT_BOM?$AA@ 0000000180004910     flags.obj
 0001:00003920       ??_C@_0BE@DDKCDJDC@EOPT_SHOWWHITESPACE?$AA@ 0000000180004920     flags.obj
 0001:00003938       ??_C@_0BH@CJPAGGLC@EOPT_EXPANDONLYNEWTABS?$AA@ 0000000180004938     flags.obj
 0001:00003950       ??_C@_0BF@IMCOEIAL@EOPT_CURSORBEYONDEOL?$AA@ 0000000180004950     flags.obj
 0001:00003968       ??_C@_0BI@PFHCGCAI@EOPT_AUTODETECTCODEPAGE?$AA@ 0000000180004968     flags.obj
 0001:00003980       ??_C@_0BG@MBPADLG@EOPT_SAVEFILEPOSITION?$AA@ 0000000180004980     flags.obj
 0001:00003998       ??_C@_0BA@KPJEAKBD@EOPT_AUTOINDENT?$AA@ 0000000180004998     flags.obj
 0001:000039a8       ??_C@_0BG@PIIHHCAN@EOPT_DELREMOVESBLOCKS?$AA@ 00000001800049a8     flags.obj
 0001:000039c0       ??_C@_0BG@BOINMDEK@EOPT_PERSISTENTBLOCKS?$AA@ 00000001800049c0     flags.obj
 0001:000039d8       ??_C@_0BD@DKHPEOHH@EOPT_EXPANDALLTABS?$AA@ 00000001800049d8     flags.obj
 0001:000039f0       ??_C@_0P@OONGIIBL@EXPAND_NEWTABS?$AA@ 00000001800049f0     flags.obj
 0001:00003a00       ??_C@_0P@MLHPCNDM@EXPAND_ALLTABS?$AA@ 0000000180004a00     flags.obj
 0001:00003a10       ??_C@_0O@PKOIFEBO@EXPAND_NOTABS?$AA@ 0000000180004a10     flags.obj
 0001:00003a20       ??_C@_08DHMMFAHF@EUR_REDO?$AA@ 0000000180004a20     flags.obj
 0001:00003a30       ??_C@_08FCONALGE@EUR_UNDO?$AA@ 0000000180004a30     flags.obj
 0001:00003a40       ??_C@_07DDJDFJCN@EUR_END?$AA@ 0000000180004a40     flags.obj
 0001:00003a48       ??_C@_09FLEMPKKP@EUR_BEGIN?$AA@ 0000000180004a48     flags.obj
 0001:00003a58       ??_C@_0M@FICNFPPA@ESPT_SETBOM?$AA@ 0000000180004a58     flags.obj
 0001:00003a68       ??_C@_0BE@MACJBCFP@ESPT_SHOWWHITESPACE?$AA@ 0000000180004a68     flags.obj
 0001:00003a80       ??_C@_0BA@FGEHLJDF@ESPT_GETWORDDIV?$AA@ 0000000180004a80     flags.obj
 0001:00003a90       ??_C@_0BA@EIGIAOHM@ESPT_SETWORDDIV?$AA@ 0000000180004a90     flags.obj
 0001:00003aa0       ??_C@_0O@KCPDJCKC@ESPT_LOCKMODE?$AA@ 0000000180004aa0     flags.obj
 0001:00003ab0       ??_C@_0BG@HAPABMJH@ESPT_SAVEFILEPOSITION?$AA@ 0000000180004ab0     flags.obj
 0001:00003ac8       ??_C@_0O@PIAOJINE@ESPT_CODEPAGE?$AA@ 0000000180004ac8     flags.obj
 0001:00003ad8       ??_C@_0BC@OECOCGLJ@ESPT_CHARCODEBASE?$AA@ 0000000180004ad8     flags.obj
 0001:00003af0       ??_C@_0BF@LPNONOMF@ESPT_CURSORBEYONDEOL?$AA@ 0000000180004af0     flags.obj
 0001:00003b08       ??_C@_0BA@KOADDMLI@ESPT_AUTOINDENT?$AA@ 0000000180004b08     flags.obj
 0001:00003b18       ??_C@_0BA@GOKHPFCK@ESPT_EXPANDTABS?$AA@ 0000000180004b18     flags.obj
 0001:00003b28       ??_C@_0N@HKGMPMJE@ESPT_TABSIZE?$AA@ 0000000180004b28     flags.obj
 0001:00003b38       ??_C@_0BB@MNODJNPE@SE_COMMONSYNCHRO?$AA@ 0000000180004b38     flags.obj
 0001:00003b50       ??_C@_0O@ICBCOJCG@DE_DLGPROCEND?$AA@ 0000000180004b50     flags.obj
 0001:00003b60       ??_C@_0BC@BMFEJAMO@DE_DEFDLGPROCINIT?$AA@ 0000000180004b60     flags.obj
 0001:00003b78       ??_C@_0P@MBHAHBBG@DE_DLGPROCINIT?$AA@ 0000000180004b78     flags.obj
 0001:00003b88       ??_C@_09MIOGFFI@EE_CHANGE?$AA@ 0000000180004b88     flags.obj
 0001:00003b98       ??_C@_0N@ILLPMAJF@EE_KILLFOCUS?$AA@ 0000000180004b98     flags.obj
 0001:00003ba8       ??_C@_0M@CPNMNBMF@EE_GOTFOCUS?$AA@ 0000000180004ba8     flags.obj
 0001:00003bb8       ??_C@_08NFPFGIG@EE_CLOSE?$AA@ 0000000180004bb8     flags.obj
 0001:00003bc8       ??_C@_09NPOPIKMK@EE_REDRAW?$AA@ 0000000180004bc8     flags.obj
 0001:00003bd8       ??_C@_07KJGPGPOC@EE_SAVE?$AA@ 0000000180004bd8     flags.obj
 0001:00003be0       ??_C@_07BLBPFFLB@EE_READ?$AA@ 0000000180004be0     flags.obj
 0001:00003be8       ??_C@_0N@ICHCAKIB@VE_KILLFOCUS?$AA@ 0000000180004be8     flags.obj
 0001:00003bf8       ??_C@_0M@FEFKOOMJ@VE_GOTFOCUS?$AA@ 0000000180004bf8     flags.obj
 0001:00003c08       ??_C@_08JIBCCIDC@VE_CLOSE?$AA@ 0000000180004c08     flags.obj
 0001:00003c18       ??_C@_07OJCLGDHJ@VE_READ?$AA@ 0000000180004c18     flags.obj
 0001:00003c20       ??_C@_08BDDNDBMJ@VMT_DUMP?$AA@ 0000000180004c20     flags.obj
 0001:00003c30       ??_C@_07FLIHDEDA@VMT_HEX?$AA@ 0000000180004c30     flags.obj
 0001:00003c38       ??_C@_08FNEFFFEL@VMT_TEXT?$AA@ 0000000180004c38     flags.obj
 0001:00003c48       ??_C@_0O@INKALKJK@VSMT_WORDWRAP?$AA@ 0000000180004c48     flags.obj
 0001:00003c58       ??_C@_09FLKONCNO@VSMT_WRAP?$AA@ 0000000180004c58     flags.obj
 0001:00003c68       ??_C@_0O@MCNCFBLF@VSMT_VIEWMODE?$AA@ 0000000180004c68     flags.obj
 0001:00003c78       ??_C@_0M@GHGAPHPP@TBPS_PAUSED?$AA@ 0000000180004c78     flags.obj
 0001:00003c88       ??_C@_0L@DFDPCOFD@TBPS_ERROR?$AA@ 0000000180004c88     flags.obj
 0001:00003c98       ??_C@_0M@KHLNKPHE@TBPS_NORMAL?$AA@ 0000000180004c98     flags.obj
 0001:00003ca8       ??_C@_0BD@HMEHMDAL@TBPS_INDETERMINATE?$AA@ 0000000180004ca8     flags.obj
 0001:00003cc0       ??_C@_0BA@IPEAOBGN@TBPS_NOPROGRESS?$AA@ 0000000180004cc0     flags.obj
 0001:00003cd0       ??_C@_0L@BCEMNGOG@WTYPE_HELP?$AA@ 0000000180004cd0     flags.obj
 0001:00003ce0       ??_C@_0M@OMKLELFA@WTYPE_VMENU?$AA@ 0000000180004ce0     flags.obj
 0001:00003cf0       ??_C@_0N@PBFHKEGB@WTYPE_DIALOG?$AA@ 0000000180004cf0     flags.obj
 0001:00003d00       ??_C@_0N@HJNGGOKO@WTYPE_EDITOR?$AA@ 0000000180004d00     flags.obj
 0001:00003d10       ??_C@_0N@EJKMDMBK@WTYPE_VIEWER?$AA@ 0000000180004d10     flags.obj
 0001:00003d20       ??_C@_0N@FNCFCPIG@WTYPE_PANELS?$AA@ 0000000180004d20     flags.obj
 0001:00003d30       ??_C@_0O@DCGKMPOM@WTYPE_DESKTOP?$AA@ 0000000180004d30     flags.obj
 0001:00003d40       ??_C@_0L@PMDDFEBD@FMVT_PANEL?$AA@ 0000000180004d40     flags.obj
 0001:00003d50       ??_C@_0L@DJIKMOJA@FMVT_ARRAY?$AA@ 0000000180004d50     flags.obj
 0001:00003d60       ??_C@_08DDPDBBNO@FMVT_NIL?$AA@ 0000000180004d60     flags.obj
 0001:00003d70       ??_C@_0N@FMHCFNDF@FMVT_POINTER?$AA@ 0000000180004d70     flags.obj
 0001:00003d80       ??_C@_0M@GKPDICDA@FMVT_BINARY?$AA@ 0000000180004d80     flags.obj
 0001:00003d90       ??_C@_0N@MHKOBOGF@FMVT_BOOLEAN?$AA@ 0000000180004d90     flags.obj
 0001:00003da0       ??_C@_0M@CKDAIOEN@FMVT_DOUBLE?$AA@ 0000000180004da0     flags.obj
 0001:00003db0       ??_C@_0M@LFMLDDKI@FMVT_STRING?$AA@ 0000000180004db0     flags.obj
 0001:00003dc0       ??_C@_0N@BDMFKEKE@FMVT_INTEGER?$AA@ 0000000180004dc0     flags.obj
 0001:00003dd0       ??_C@_0N@IBOAADDD@FMVT_UNKNOWN?$AA@ 0000000180004dd0     flags.obj
 0001:00003de0       ??_C@_0L@FJDDLDNN@MPEC_ERROR?$AA@ 0000000180004de0     flags.obj
 0001:00003df0       ??_C@_0N@CGFFMLBC@MPEC_SUCCESS?$AA@ 0000000180004df0     flags.obj
 0001:00003e00       ??_C@_0BM@OICPADFE@MACROSTATE_RECORDING_COMMON?$AA@ 0000000180004e00     flags.obj
 0001:00003e20       ??_C@_0BF@BGODKPBB@MACROSTATE_RECORDING?$AA@ 0000000180004e20     flags.obj
 0001:00003e38       ??_C@_0BM@EJOFDENO@MACROSTATE_EXECUTING_COMMON?$AA@ 0000000180004e38     flags.obj
 0001:00003e58       ??_C@_0BF@PCDEFEGP@MACROSTATE_EXECUTING?$AA@ 0000000180004e58     flags.obj
 0001:00003e70       ??_C@_0BD@DIKEKAIJ@MACROSTATE_NOMACRO?$AA@ 0000000180004e70     flags.obj
 0001:00003e88       ??_C@_0BB@JPEEDDOG@MACROAREA_COMMON?$AA@ 0000000180004e88     flags.obj
 0001:00003ea0       ??_C@_0BP@OIHAIGBK@MACROAREA_DIALOGAUTOCOMPLETION?$AA@ 0000000180004ea0     flags.obj
 0001:00003ec0       ??_C@_0BO@OMLEPJPM@MACROAREA_SHELLAUTOCOMPLETION?$AA@ 0000000180004ec0     flags.obj
 0001:00003ee0       ??_C@_0BD@JCFMJGDE@MACROAREA_USERMENU?$AA@ 0000000180004ee0     flags.obj
 0001:00003ef8       ??_C@_0BF@FCHKCGLL@MACROAREA_FINDFOLDER?$AA@ 0000000180004ef8     flags.obj
 0001:00003f10       ??_C@_0BE@HBMEGBOC@MACROAREA_TREEPANEL?$AA@ 0000000180004f10     flags.obj
 0001:00003f28       ??_C@_0BF@NLJMHMPP@MACROAREA_QVIEWPANEL?$AA@ 0000000180004f28     flags.obj
 0001:00003f40       ??_C@_0BE@MDJPICHC@MACROAREA_INFOPANEL?$AA@ 0000000180004f40     flags.obj
 0001:00003f58       ??_C@_0P@DKPKIEO@MACROAREA_HELP?$AA@ 0000000180004f58     flags.obj
 0001:00003f68       ??_C@_0P@LFLMAHBF@MACROAREA_MENU?$AA@ 0000000180004f68     flags.obj
 0001:00003f78       ??_C@_0BD@IGOOIJP@MACROAREA_MAINMENU?$AA@ 0000000180004f78     flags.obj
 0001:00003f90       ??_C@_0BA@KKMKOLIK@MACROAREA_DISKS?$AA@ 0000000180004f90     flags.obj
 0001:00003fa0       ??_C@_0BB@MLMLHIGE@MACROAREA_SEARCH?$AA@ 0000000180004fa0     flags.obj
 0001:00003fb8       ??_C@_0BB@CADENPFI@MACROAREA_DIALOG?$AA@ 0000000180004fb8     flags.obj
 0001:00003fd0       ??_C@_0BB@KILFBFJH@MACROAREA_EDITOR?$AA@ 0000000180004fd0     flags.obj
 0001:00003fe8       ??_C@_0BB@JIMPEHCD@MACROAREA_VIEWER?$AA@ 0000000180004fe8     flags.obj
 0001:00004000       ??_C@_0BA@DEBOOAEB@MACROAREA_SHELL?$AA@ 0000000180005000     flags.obj
 0001:00004010       ??_C@_0BA@MMOAIEKP@MACROAREA_OTHER?$AA@ 0000000180005010     flags.obj
 0001:00004020       ??_C@_0L@MOADGAEB@MSSC_CHECK?$AA@ 0000000180005020     flags.obj
 0001:00004030       ??_C@_09CEDFMINA@MSSC_POST?$AA@ 0000000180005030     flags.obj
 0001:00004040       ??_C@_0BD@IPKOEBIA@ACTL_GETWINDOWTYPE?$AA@ 0000000180005040     flags.obj
 0001:00004058       ??_C@_0BE@NPJGMDBM@ACTL_PROGRESSNOTIFY?$AA@ 0000000180005058     flags.obj
 0001:00004070       ??_C@_0BC@CAAPIEHK@ACTL_SETCURSORPOS?$AA@ 0000000180005070     flags.obj
 0001:00004088       ??_C@_0BC@FELBEIDG@ACTL_GETCURSORPOS?$AA@ 0000000180005088     flags.obj
 0001:000040a0       ??_C@_0BA@LJCPDIKK@ACTL_GETFARRECT?$AA@ 00000001800050a0     flags.obj
 0001:000040b0       ??_C@_09HNDBKLDC@ACTL_QUIT?$AA@ 00000001800050b0     flags.obj
 0001:000040c0       ??_C@_0BG@ICJFAPHK@ACTL_SETPROGRESSVALUE?$AA@ 00000001800050c0     flags.obj
 0001:000040d8       ??_C@_0BG@IJPADENB@ACTL_SETPROGRESSSTATE?$AA@ 00000001800050d8     flags.obj
 0001:000040f0       ??_C@_0N@DHPLJLHO@ACTL_SYNCHRO?$AA@ 00000001800050f0     flags.obj
 0001:00004100       ??_C@_0P@JECKFIA@ACTL_REDRAWALL?$AA@ 0000000180005100     flags.obj
 0001:00004110       ??_C@_0BD@JFOOLBPN@ACTL_SETARRAYCOLOR?$AA@ 0000000180005110     flags.obj
 0001:00004128       ??_C@_0BA@CLHFKJJP@ACTL_GETFARHWND?$AA@ 0000000180005128     flags.obj
 0001:00004138       ??_C@_0M@IHHFGPPA@ACTL_COMMIT?$AA@ 0000000180005138     flags.obj
 0001:00004148       ??_C@_0BG@MNKPOEEN@ACTL_SETCURRENTWINDOW?$AA@ 0000000180005148     flags.obj
 0001:00004160       ??_C@_0BE@PJBIPKOD@ACTL_GETWINDOWCOUNT?$AA@ 0000000180005160     flags.obj
 0001:00004178       ??_C@_0BD@DIFEEKNN@ACTL_GETWINDOWINFO?$AA@ 0000000180005178     flags.obj
 0001:00004190       ??_C@_0BD@OKPAACIK@ACTL_GETARRAYCOLOR?$AA@ 0000000180005190     flags.obj
 0001:000041a8       ??_C@_0O@CEHHJAFD@ACTL_GETCOLOR?$AA@ 00000001800051a8     flags.obj
 0001:000041b8       ??_C@_0N@DPABJDML@ACTL_WAITKEY?$AA@ 00000001800051b8     flags.obj
 0001:000041c8       ??_C@_0BK@PHBCABMB@ACTL_GETFARMANAGERVERSION?$AA@ 00000001800051c8     flags.obj
 0001:000041e8       ??_C@_0BI@CNPFKHKO@EEC_LOADING_INTERRUPTED?$AA@ 00000001800051e8     flags.obj
 0001:00004200       ??_C@_0BB@HALKEFOL@EEC_NOT_MODIFIED?$AA@ 0000000180005200     flags.obj
 0001:00004218       ??_C@_0N@GLMELIKF@EEC_MODIFIED?$AA@ 0000000180005218     flags.obj
 0001:00004228       ??_C@_0P@FEMAMJLE@EEC_OPEN_ERROR?$AA@ 0000000180005228     flags.obj
 0001:00004238       ??_C@_09KFKGJDHC@SM_CHTIME?$AA@ 0000000180005238     flags.obj
 0001:00004248       ??_C@_0M@OAFEBGNH@SM_FULLNAME?$AA@ 0000000180005248     flags.obj
 0001:00004258       ??_C@_0P@PKGMDPMD@SM_STREAMSSIZE?$AA@ 0000000180005258     flags.obj
 0001:00004268       ??_C@_0O@CCKEKPHL@SM_NUMSTREAMS?$AA@ 0000000180005268     flags.obj
 0001:00004278       ??_C@_0M@PKNLKFI@SM_NUMLINKS?$AA@ 0000000180005278     flags.obj
 0001:00004288       ??_C@_0BC@NKDBNAHD@SM_COMPRESSEDSIZE?$AA@ 0000000180005288     flags.obj
 0001:000042a0       ??_C@_08MEAGCMBB@SM_OWNER?$AA@ 00000001800052a0     flags.obj
 0001:000042b0       ??_C@_08BCBPOLMA@SM_DESCR?$AA@ 00000001800052b0     flags.obj
 0001:000042c0       ??_C@_07OMPKMIKC@SM_SIZE?$AA@ 00000001800052c0     flags.obj
 0001:000042c8       ??_C@_08CPOLNKCG@SM_ATIME?$AA@ 00000001800052c8     flags.obj
 0001:000042d8       ??_C@_08GCCDHLCN@SM_CTIME?$AA@ 00000001800052d8     flags.obj
 0001:000042e8       ??_C@_08FICJBKFN@SM_MTIME?$AA@ 00000001800052e8     flags.obj
 0001:000042f4       ??_C@_06GJJJNNFE@SM_EXT?$AA@ 00000001800052f4     flags.obj
 0001:00004300       ??_C@_07KIFHAGIL@SM_NAME?$AA@ 0000000180005300     flags.obj
 0001:00004308       ??_C@_0M@JGBFGGEA@SM_UNSORTED?$AA@ 0000000180005308     flags.obj
 0001:00004318       ??_C@_0L@OPHJOKKE@SM_DEFAULT?$AA@ 0000000180005318     flags.obj
 0001:00004328       ??_C@_0BA@NKMDEBG@PTYPE_INFOPANEL?$AA@ 0000000180005328     flags.obj
 0001:00004338       ??_C@_0BB@JBINOKAI@PTYPE_QVIEWPANEL?$AA@ 0000000180005338     flags.obj
 0001:00004350       ??_C@_0BA@LPPHNHIG@PTYPE_TREEPANEL?$AA@ 0000000180005350     flags.obj
 0001:00004360       ??_C@_0BA@KNHGEBNE@PTYPE_FILEPANEL?$AA@ 0000000180005360     flags.obj
 0001:00004370       ??_C@_0L@KHCLMGFJ@CBET_MOUSE?$AA@ 0000000180005370     flags.obj
 0001:00004380       ??_C@_08PPADCPCM@CBET_KEY?$AA@ 0000000180005380     flags.obj
 0001:00004390       ??_C@_0O@ILJOJGLD@BSTATE_TOGGLE?$AA@ 0000000180005390     flags.obj
 0001:000043a0       ??_C@_0O@KBIFGGHO@BSTATE_3STATE?$AA@ 00000001800053a0     flags.obj
 0001:000043b0       ??_C@_0P@FALAMPGP@BSTATE_CHECKED?$AA@ 00000001800053b0     flags.obj
 0001:000043c0       ??_C@_0BB@HLBBGMAN@BSTATE_UNCHECKED?$AA@ 00000001800053c0     flags.obj
 0001:000043d8       ??_C@_07DIJJNCBA@DM_USER?$AA@ 00000001800053d8     flags.obj
 0001:000043e0       ??_C@_0BD@NGEKAPIF@DN_DRAWDLGITEMDONE?$AA@ 00000001800053e0     flags.obj
 0001:000043f8       ??_C@_0BC@MHCBFAAO@DN_DROPDOWNOPENED?$AA@ 00000001800053f8     flags.obj
 0001:00004410       ??_C@_0M@POIFBPFN@DN_GETVALUE?$AA@ 0000000180005410     flags.obj
 0001:00004420       ??_C@_08EHEOFOJD@DN_CLOSE?$AA@ 0000000180005420     flags.obj
 0001:00004430       ??_C@_0BA@FGOGLDBC@DN_CONTROLINPUT?$AA@ 0000000180005430     flags.obj
 0001:00004440       ??_C@_08MDDLDGPO@DN_INPUT?$AA@ 0000000180005440     flags.obj
 0001:00004450       ??_C@_0O@EONPBNNP@DN_LISTHOTKEY?$AA@ 0000000180005450     flags.obj
 0001:00004460       ??_C@_0BC@FHPPFLKG@DN_DRAWDIALOGDONE?$AA@ 0000000180005460     flags.obj
 0001:00004478       ??_C@_0BB@BOOOCAEG@DN_RESIZECONSOLE?$AA@ 0000000180005478     flags.obj
 0001:00004490       ??_C@_0L@MLMFBHN@DN_DRAGGED?$AA@ 0000000180005490     flags.obj
 0001:000044a0       ??_C@_0O@CLPABIGO@DN_LISTCHANGE?$AA@ 00000001800054a0     flags.obj
 0001:000044b0       ??_C@_0N@CHLLLNBO@DN_KILLFOCUS?$AA@ 00000001800054b0     flags.obj
 0001:000044c0       ??_C@_0O@BJECHBCA@DN_INITDIALOG?$AA@ 00000001800054c0     flags.obj
 0001:000044d0       ??_C@_09EDGJFAK@DN_HOTKEY?$AA@ 00000001800054d0     flags.obj
 0001:000044e0       ??_C@_07NJJEMKPA@DN_HELP?$AA@ 00000001800054e0     flags.obj
 0001:000044e8       ??_C@_0M@JHFIBKOO@DN_GOTFOCUS?$AA@ 00000001800054e8     flags.obj
 0001:000044f8       ??_C@_0N@OCGKCPJF@DN_ENTERIDLE?$AA@ 00000001800054f8     flags.obj
 0001:00004508       ??_C@_0O@JMKNGFLE@DN_EDITCHANGE?$AA@ 0000000180005508     flags.obj
 0001:00004518       ??_C@_0P@KGKEDPBI@DN_DRAWDLGITEM?$AA@ 0000000180005518     flags.obj
 0001:00004528       ??_C@_0O@NKBDPILK@DN_DRAWDIALOG?$AA@ 0000000180005528     flags.obj
 0001:00004538       ??_C@_0BD@JMFJPHPD@DN_CTLCOLORDLGLIST?$AA@ 0000000180005538     flags.obj
 0001:00004550       ??_C@_0BD@HFGBIBBL@DN_CTLCOLORDLGITEM?$AA@ 0000000180005550     flags.obj
 0001:00004568       ??_C@_0BC@MJFJAANN@DN_CTLCOLORDIALOG?$AA@ 0000000180005568     flags.obj
 0001:00004580       ??_C@_0M@NNNAPNMA@DN_BTNCLICK?$AA@ 0000000180005580     flags.obj
 0001:00004590       ??_C@_08COMJOMAC@DN_FIRST?$AA@ 0000000180005590     flags.obj
 0001:000045a0       ??_C@_0BC@KJOLMFGG@DM_GETDIALOGTITLE?$AA@ 00000001800055a0     flags.obj
 0001:000045b8       ??_C@_0BB@GAPFMPKE@DM_GETDIALOGINFO?$AA@ 00000001800055b8     flags.obj
 0001:000045d0       ??_C@_0BD@EMPBPAFP@DM_SETDLGITEMSHORT?$AA@ 00000001800055d0     flags.obj
 0001:000045e8       ??_C@_0BD@HOOHICEG@DM_GETDLGITEMSHORT?$AA@ 00000001800055e8     flags.obj
 0001:00004600       ??_C@_0BD@CJEPBACF@DM_GETCONSTTEXTPTR?$AA@ 0000000180005600     flags.obj
 0001:00004618       ??_C@_0BE@KGBLNJKA@DM_GETCOMBOBOXEVENT?$AA@ 0000000180005618     flags.obj
 0001:00004630       ??_C@_0BE@MCECGHBC@DM_SETCOMBOBOXEVENT?$AA@ 0000000180005630     flags.obj
 0001:00004648       ??_C@_0BD@GKGFBKHH@DM_SETEDITPOSITION?$AA@ 0000000180005648     flags.obj
 0001:00004660       ??_C@_0BD@FIHDGIGO@DM_GETEDITPOSITION?$AA@ 0000000180005660     flags.obj
 0001:00004678       ??_C@_0BA@GDNOBFED@DM_SETSELECTION?$AA@ 0000000180005678     flags.obj
 0001:00004688       ??_C@_0BA@BHGANJAP@DM_GETSELECTION?$AA@ 0000000180005688     flags.obj
 0001:00004698       ??_C@_0BD@LAOOKGHD@DM_LISTGETDATASIZE?$AA@ 0000000180005698     flags.obj
 0001:000046b0       ??_C@_0BB@DANLMDCJ@DM_SETCURSORSIZE?$AA@ 00000001800056b0     flags.obj
 0001:000046c8       ??_C@_0BB@EPMFHAFO@DM_GETCURSORSIZE?$AA@ 00000001800056c8     flags.obj
 0001:000046e0       ??_C@_0L@KNFAKFKE@DM_LISTSET?$AA@ 00000001800056e0     flags.obj
 0001:000046f0       ??_C@_0P@OGLDKOHO@DM_SETITEMDATA?$AA@ 00000001800056f0     flags.obj
 0001:00004700       ??_C@_0P@OJKNHIPN@DM_GETITEMDATA?$AA@ 0000000180005700     flags.obj
 0001:00004710       ??_C@_0BF@IAGIACOD@DM_EDITUNCHANGEDFLAG?$AA@ 0000000180005710     flags.obj
 0001:00004728       ??_C@_0BH@CFMLLNNM@DM_SETMOUSEEVENTNOTIFY?$AA@ 0000000180005728     flags.obj
 0001:00004740       ??_C@_0BC@BENFKLNH@DM_SETINPUTNOTIFY?$AA@ 0000000180005740     flags.obj
 0001:00004758       ??_C@_0BD@BPHAAEIM@DM_GETITEMPOSITION?$AA@ 0000000180005758     flags.obj
 0001:00004770       ??_C@_0O@NPDKADMJ@DM_SETHISTORY?$AA@ 0000000180005770     flags.obj
 0001:00004780       ??_C@_0BF@LJIGJNAO@DM_SETDROPDOWNOPENED?$AA@ 0000000180005780     flags.obj
 0001:00004798       ??_C@_0BF@JMINBGBA@DM_GETDROPDOWNOPENED?$AA@ 0000000180005798     flags.obj
 0001:000047b0       ??_C@_0BD@CNGGHGJF@DM_SETITEMPOSITION?$AA@ 00000001800057b0     flags.obj
 0001:000047c8       ??_C@_0BA@ICDJCFLE@DM_RESIZEDIALOG?$AA@ 00000001800057c8     flags.obj
 0001:000047d8       ??_C@_0BB@KPJPKCP@DM_LISTGETTITLES?$AA@ 00000001800057d8     flags.obj
 0001:000047f0       ??_C@_0BB@CELMNLLN@DM_LISTSETTITLES?$AA@ 00000001800057f0     flags.obj
 0001:00004808       ??_C@_0P@DGKKKCB@DM_LISTSETDATA?$AA@ 0000000180005808     flags.obj
 0001:00004818       ??_C@_0P@PLJLJFPA@DM_LISTGETDATA?$AA@ 0000000180005818     flags.obj
 0001:00004828       ??_C@_0M@EEAEBLKC@DM_LISTINFO?$AA@ 0000000180005828     flags.obj
 0001:00004838       ??_C@_0BC@MIFCLOBD@DM_LISTFINDSTRING?$AA@ 0000000180005838     flags.obj
 0001:00004850       ??_C@_0O@GAAGMJJL@DM_LISTINSERT?$AA@ 0000000180005850     flags.obj
 0001:00004860       ??_C@_0O@PDFCNPKN@DM_LISTUPDATE?$AA@ 0000000180005860     flags.obj
 0001:00004870       ??_C@_0O@HBHDMHP@DM_LISTADDSTR?$AA@ 0000000180005870     flags.obj
 0001:00004880       ??_C@_0L@BMEAECNG@DM_LISTADD?$AA@ 0000000180005880     flags.obj
 0001:00004890       ??_C@_0O@NOPCAHGJ@DM_LISTDELETE?$AA@ 0000000180005890     flags.obj
 0001:000048a0       ??_C@_0BB@GKMJCDEM@DM_LISTSETCURPOS?$AA@ 00000001800058a0     flags.obj
 0001:000048b8       ??_C@_0BB@EEIMACNO@DM_LISTGETCURPOS?$AA@ 00000001800058b8     flags.obj
 0001:000048d0       ??_C@_0P@NFJNHAKH@DM_LISTGETITEM?$AA@ 00000001800058d0     flags.obj
 0001:000048e0       ??_C@_0M@GEPBDDNC@DM_LISTSORT?$AA@ 00000001800058e0     flags.obj
 0001:000048f0       ??_C@_0N@MEGOPFGK@DM_SET3STATE?$AA@ 00000001800058f0     flags.obj
 0001:00004900       ??_C@_0M@DDGACGLO@DM_SETCHECK?$AA@ 0000000180005900     flags.obj
 0001:00004910       ??_C@_0M@MCEMDFMD@DM_GETCHECK?$AA@ 0000000180005910     flags.obj
 0001:00004920       ??_C@_0O@GKKCFHIM@DM_ADDHISTORY?$AA@ 0000000180005920     flags.obj
 0001:00004930       ??_C@_0M@NCOJHJKI@DM_SHOWITEM?$AA@ 0000000180005930     flags.obj
 0001:00004940       ??_C@_0O@LGEKFPKK@DM_SETTEXTPTR?$AA@ 0000000180005940     flags.obj
 0001:00004950       ??_C@_0BA@KPHABNOF@DM_SETCURSORPOS?$AA@ 0000000180005950     flags.obj
 0001:00004960       ??_C@_0BA@NLMONBKJ@DM_GETCURSORPOS?$AA@ 0000000180005960     flags.obj
 0001:00004970       ??_C@_0M@JPHKGACH@DM_GETFOCUS?$AA@ 0000000180005970     flags.obj
 0001:00004980       ??_C@_0O@BIFKIPIP@DM_SHOWDIALOG?$AA@ 0000000180005980     flags.obj
 0001:00004990       ??_C@_0BE@LABEAIPD@DM_SETMAXTEXTLENGTH?$AA@ 0000000180005990     flags.obj
 0001:000049a8       ??_C@_0L@LDOCOEIP@DM_SETTEXT?$AA@ 00000001800059a8     flags.obj
 0001:000049b8       ??_C@_09ILPFEDOM@DM_REDRAW?$AA@ 00000001800059b8     flags.obj
 0001:000049c8       ??_C@_0M@GOFGHDFK@DM_SETFOCUS?$AA@ 00000001800059c8     flags.obj
 0001:000049d8       ??_C@_0O@GKEFJIKB@DM_SETDLGITEM?$AA@ 00000001800059d8     flags.obj
 0001:000049e8       ??_C@_0O@EEEDHNPG@DM_SETDLGDATA?$AA@ 00000001800059e8     flags.obj
 0001:000049f8       ??_C@_0O@DIPLLJEH@DM_MOVEDIALOG?$AA@ 00000001800059f8     flags.obj
 0001:00004a08       ??_C@_06IKGPEGEJ@DM_KEY?$AA@ 0000000180005a08     flags.obj
 0001:00004a10       ??_C@_0L@ELBDNLFO@DM_GETTEXT?$AA@ 0000000180005a10     flags.obj
 0001:00004a20       ??_C@_0O@BEHCGMCL@DM_GETDLGRECT?$AA@ 0000000180005a20     flags.obj
 0001:00004a30       ??_C@_0O@HEGKCPOI@DM_GETDLGITEM?$AA@ 0000000180005a30     flags.obj
 0001:00004a40       ??_C@_0O@FKGMMKLP@DM_GETDLGDATA?$AA@ 0000000180005a40     flags.obj
 0001:00004a50       ??_C@_0BA@KAMJGFDG@DM_ENABLEREDRAW?$AA@ 0000000180005a50     flags.obj
 0001:00004a60       ??_C@_09KLJOCKAA@DM_ENABLE?$AA@ 0000000180005a60     flags.obj
 0001:00004a70       ??_C@_08MJMBFJHA@DM_CLOSE?$AA@ 0000000180005a70     flags.obj
 0001:00004a80       ??_C@_08KAEGOLOB@DM_FIRST?$AA@ 0000000180005a80     flags.obj
 0001:00004a90       ??_C@_0P@GDJDPEIK@DI_USERCONTROL?$AA@ 0000000180005a90     flags.obj
 0001:00004aa0       ??_C@_0L@ONDMPPPO@DI_LISTBOX?$AA@ 0000000180005aa0     flags.obj
 0001:00004ab0       ??_C@_0M@MAKBFNGC@DI_COMBOBOX?$AA@ 0000000180005ab0     flags.obj
 0001:00004ac0       ??_C@_0P@GIPCGMBE@DI_RADIOBUTTON?$AA@ 0000000180005ac0     flags.obj
 0001:00004ad0       ??_C@_0M@MHFHGPHJ@DI_CHECKBOX?$AA@ 0000000180005ad0     flags.obj
 0001:00004ae0       ??_C@_09GGAEMAPJ@DI_BUTTON?$AA@ 0000000180005ae0     flags.obj
 0001:00004af0       ??_C@_0L@MGOIMBKF@DI_FIXEDIT?$AA@ 0000000180005af0     flags.obj
 0001:00004b00       ??_C@_0L@EOMEIIFM@DI_PSWEDIT?$AA@ 0000000180005b00     flags.obj
 0001:00004b10       ??_C@_07DOLIFAEF@DI_EDIT?$AA@ 0000000180005b10     flags.obj
 0001:00004b18       ??_C@_0N@EDCLIEAE@DI_DOUBLEBOX?$AA@ 0000000180005b18     flags.obj
 0001:00004b28       ??_C@_0N@IGKKGFMF@DI_SINGLEBOX?$AA@ 0000000180005b28     flags.obj
 0001:00004b38       ??_C@_08HODBDEHE@DI_VTEXT?$AA@ 0000000180005b38     flags.obj
 0001:00004b48       ??_C@_07MGGAEAFF@DI_TEXT?$AA@ 0000000180005b48     flags.obj
 0001:00004b50       ??_C@_0BN@PPNDCHHA@EDITOR_COLOR_NORMAL_PRIORITY?$AA@ 0000000180005b50     flags.obj
 0001:00004b70       ??_C@_0P@NHNDIKJ@CURRENT_EDITOR?$AA@ 0000000180005b70     flags.obj
 0001:00004b80       ??_C@_0N@HLIFAAPJ@EEREDRAW_ALL?$AA@ 0000000180005b80     flags.obj
 0001:00004b90       ??_C@_0L@GOEBPENN@PANEL_STOP?$AA@ 0000000180005b90     flags.obj
 0001:00004ba0       ??_C@_0O@HPKEABPN@PANEL_PASSIVE?$AA@ 0000000180005ba0     flags.obj
 0001:00004bb0       ??_C@_0N@LPMKALBG@PANEL_ACTIVE?$AA@ 0000000180005bb0     flags.obj
 0001:00004bc0       ??_C@_0L@EHFOPLFD@PANEL_NONE?$AA@ 0000000180005bc0     flags.obj
 0001:00004bd0       ??_C@_09ENNBLPJC@ALPHAMASK?$AA@ 0000000180005bd0     flags.obj
 0001:00004be0       ??_C@_09BLFIDJLF@COLORMASK?$AA@ 0000000180005be0     flags.obj
 0001:00004bf0       ??_C@_09MNAPNKKC@INDEXMASK?$AA@ 0000000180005bf0     flags.obj
 0001:00004c00       ??_C@_0M@OMCMFJHA@CP_REDETECT?$AA@ 0000000180005c00     flags.obj
 0001:00004c10       ??_C@_0L@JDNPCEDH@CP_DEFAULT?$AA@ 0000000180005c10     flags.obj
 0001:00004c20       ??_C@_0O@MNMCMEJH@CP_REVERSEBOM?$AA@ 0000000180005c20     flags.obj
 0001:00004c30       ??_C@_0L@MIDBGFJO@CP_UNICODE?$AA@ 0000000180005c30     flags.obj
 0001:00004c40       ??_C@_0BI@MOOFLFPC@FARMANAGERVERSION_STAGE?$AA@ 0000000180005c40     flags.obj
 0001:00004c58       ??_C@_0BI@OLPFLLDD@FARMANAGERVERSION_BUILD?$AA@ 0000000180005c58     flags.obj
 0001:00004c70       ??_C@_0BL@NMALNAFP@FARMANAGERVERSION_REVISION?$AA@ 0000000180005c70     flags.obj
 0001:00004c90       ??_C@_0BI@DMLKEAFC@FARMANAGERVERSION_MINOR?$AA@ 0000000180005c90     flags.obj
 0001:00004ca8       ??_C@_0BI@IDKIJMME@FARMANAGERVERSION_MAJOR?$AA@ 0000000180005ca8     flags.obj
 0001:000054e0       Vals                       00000001800064e0     flags.obj
 0001:00008c8c       ??_C@_05GALAPKHH@Guids?$AA@ 0000000180009c8c     keysandcolors.obj
 0001:00008c94       ??_C@_06ICDCBJPI@Colors?$AA@ 0000000180009c94     keysandcolors.obj
 0001:000094d0       ??_C@_01EEMJAFIK@?6?$AA@   000000018000a4d0     lflua.obj
 0001:000094d8       ??_C@_0BB@BJDGDOHH@cannot?5?$CFs?5?$CFs?3?5?$CFs?$AA@ 000000018000a4d8     lflua.obj
 0001:000094ec       ??_C@_03PKPBNCAL@?o?$LL?$LP?$AA@ 000000018000a4ec     lflua.obj
 0001:000094f0       ??_C@_04POLDLDMI@read?$AA@ 000000018000a4f0     lflua.obj
 0001:000094f8       ??_C@_06IEGCHAII@reopen?$AA@ 000000018000a4f8     lflua.obj
 0001:00009500       ??_C@_15JJPIMNBO@?$AAr?$AAb?$AA?$AA@ 000000018000a500     lflua.obj
 0001:00009508       ??_C@_04PMOCAHAA@open?$AA@ 000000018000a508     lflua.obj
 0001:00009510       ??_C@_01EOFPKCAF@?$EA?$AA@ 000000018000a510     lflua.obj
 0001:00009514       ??_C@_06CCPPALKB@?$DNstdin?$AA@ 000000018000a514     lflua.obj
 0001:0000951c       ??_C@_02LOCGON@?$AA?$AA?$AA@ 000000018000a51c     lflua.obj
 0001:00009520       ??_C@_07PPMFDHAH@gmatchW?$AA@ 000000018000a520     lregex.obj
 0001:00009528       ??_C@_06DPFCLDIO@gmatch?$AA@ 000000018000a528     lregex.obj
 0001:00009530       ??_C@_04BDLIKKMN@__gc?$AA@ 000000018000a530     lregex.obj
 0001:00009538       ??_C@_0O@OJAOCNID@bracketscount?$AA@ 000000018000a538     lregex.obj
 0001:00009548       ??_C@_06NNKFJOLC@matchW?$AA@ 000000018000a548     lregex.obj
 0001:00009550       ??_C@_05HPGHPNC@gsubW?$AA@ 000000018000a550     lregex.obj
 0001:00009558       ??_C@_05GFGPIPHI@findW?$AA@ 000000018000a558     lregex.obj
 0001:00009560       ??_C@_05FNONLPDI@match?$AA@ 000000018000a560     lregex.obj
 0001:00009568       ??_C@_04GOLEAPFD@gsub?$AA@ 000000018000a568     lregex.obj
 0001:00009570       ??_C@_04CKFJHKAP@find?$AA@ 000000018000a570     lregex.obj
 0001:00009db0       regex_methods              000000018000adb0     lregex.obj
 0001:00009e50       regex_functions            000000018000ae50     lregex.obj
 0001:00009ef0       ??_C@_0BO@PBOFMCLL@attempt?5to?5access?5freed?5regex?$AA@ 000000018000aef0     lregex.obj
 0001:00009f10       ??_C@_09KIEPBIJC@far_regex?$AA@ 000000018000af10     lregex.obj
 0001:00009f20       ??_C@_07IHINEPFG@?$CFs?5?$CI?$CFp?$CJ?$AA@ 000000018000af20     lregex.obj
 0001:00009f28       ??_C@_01KMDKNFGN@?1?$AA@   000000018000af28     lregex.obj
 0001:00009f30       ??_C@_0BL@HEFMPIBG@invalid?5regular?5expression?$AA@ 000000018000af30     lregex.obj
 0001:00009f50       ??_C@_0BE@BBBEAHLK@RECTL_CREATE?5failed?$AA@ 000000018000af50     lregex.obj
 0001:00009f68       ??_C@_0BK@JCLHPPNA@cannot?5add?5?$CFd?5stack?5slots?$AA@ 000000018000af68     lregex.obj
 0001:00009f88       ??_C@_0BE@KPDOHKBE@invalid?5return?5type?$AA@ 000000018000af88     lregex.obj
 0001:00009fa0       ??_C@_0BJ@IMAIDFKH@invalid?5replacement?5type?$AA@ 000000018000afa0     lregex.obj
 0001:00009fc0       ??_C@_0CG@IDFLGMFM@replace?5string?3?5invalid?5capture?5@ 000000018000afc0     lregex.obj
 0001:00009fe8       ??_C@_0BM@MOHHGMBK@string?5or?5table?5or?5function?$AA@ 000000018000afe8     lregex.obj
 0001:0000a004       ??_C@_05FGAODPCE@regex?$AA@ 000000018000b004     lregex.obj
 0001:0000a010       ??_C@_07NHABFFHN@__index?$AA@ 000000018000b010     lregex.obj
 0001:0000a858       ??_C@_0BC@PMGNICBE@MacroPluginReturn?$AA@ 000000018000b858     luamacro.obj
 0001:0000a870       ??_C@_1FA@DAFHIDEP@?$AAt?$AAo?$AAo?$AA?5?$AAm?$AAa?$AAn?$AAy?$AA?5?$AAv?$AAa?$AAl?$AAu?$AAe?$AAs?$AA?5?$AAt?$AAo?$AA?5?$AAp?$AAl?$AAa?$AAc?$AAe?$AA?5?$AAo?$AAn?$AAt?$AAo?$AA?5?$AAL?$AAu@ 000000018000b870     luamacro.obj
 0001:0000a8c0       ??_C@_1BC@GBFPAMBP@?$AAL?$AAu?$AAa?$AAM?$AAa?$AAc?$AAr?$AAo?$AA?$AA@ 000000018000b8c0     luamacro.obj
 0001:0000a8d4       ??_C@_15PMCGDJNJ@?$AAO?$AAK?$AA?$AA@ 000000018000b8d4     luamacro.obj
 0001:0000a8dc       ??_C@_02JIEIHMJD@wl?$AA@   000000018000b8dc     luamacro.obj
 0001:0000a8e0       ??_C@_0BB@FCMFBGOM@invalid?5argument?$AA@ 000000018000b8e0     luamacro.obj
 0001:0000a8f8       ??_C@_0BN@ICDOMFBB@invalid?5argument?5?$CD?$CFd?5to?5?8?$CFs?8?$AA@ 000000018000b8f8     luamacro.obj
 0001:0000a918       ??_C@_0BC@KFJDHEIC@CreateUserControl?$AA@ 000000018000b918     lusercontrol.obj
 0001:0000a930       ??_C@_0L@GADKNKH@__newindex?$AA@ 000000018000b930     lusercontrol.obj
 0001:0000a93c       ??_C@_05MNDELLDN@__len?$AA@ 000000018000b93c     lusercontrol.obj
 0001:0000b170       usercontrol_methods        000000018000c170     lusercontrol.obj
 0001:0000b1c0       usercontrol_functions      000000018000c1c0     lusercontrol.obj
 0001:0000b1e0       ??_C@_0BA@MDNLMOMP@far_usercontrol?$AA@ 000000018000c1e0     lusercontrol.obj
 0001:0000b1f0       ??_C@_0BH@DOPNHMGD@bounds?5checking?5failed?$AA@ 000000018000c1f0     lusercontrol.obj
 0001:0000b208       ??_C@_0L@PLFFHFAH@Attributes?$AA@ 000000018000c208     lusercontrol.obj
 0001:0000b214       ??_C@_04IMAAEPPE@Char?$AA@ 000000018000c214     lusercontrol.obj
 0001:0000b220       ??_C@_0BD@MIGOMCGP@Y?5must?5be?5positive?$AA@ 000000018000c220     lusercontrol.obj
 0001:0000b238       ??_C@_0BD@BPIMECDH@X?5must?5be?5positive?$AA@ 000000018000c238     lusercontrol.obj
 0001:0000b24c       ??_C@_03IGHFHLNJ@jit?$AA@  000000018000c24c     service.obj
 0001:0000b250       ??_C@_03DIJDOPEA@ffi?$AA@  000000018000c250     service.obj
 0001:0000b254       ??_C@_03EDMBFDDG@bit?$AA@  000000018000c254     service.obj
 0001:0000b258       ??_C@_03JECLAOEA@win?$AA@  000000018000c258     service.obj
 0001:0000b260       ??_C@_07GAJMMAJO@unicode?$AA@ 000000018000c260     service.obj
 0001:0000b268       ??_C@_04CFDJAKFL@math?$AA@ 000000018000c268     service.obj
 0001:0000b270       ??_C@_06ICGJLFIM@string?$AA@ 000000018000c270     service.obj
 0001:0000b278       ??_C@_02EHCHIAMF@os?$AA@   000000018000c278     service.obj
 0001:0000b27c       ??_C@_02KFNNKBCK@io?$AA@   000000018000c27c     service.obj
 0001:0000b280       ??_C@_05LCLENNFI@table?$AA@ 000000018000c280     service.obj
 0001:0000b288       ??_C@_05NHFJDMOA@Timer?$AA@ 000000018000c288     service.obj
 0001:0000b290       ??_C@_04JLAJABDJ@Show?$AA@ 000000018000c290     service.obj
 0001:0000b298       ??_C@_0O@BJEAJNBH@MakeMenuItems?$AA@ 000000018000c298     service.obj
 0001:0000b2a8       ??_C@_0BB@JBNBALEM@GetNumberOfLinks?$AA@ 000000018000c2a8     service.obj
 0001:0000b2c0       ??_C@_0N@MOMBJEKA@GetFileOwner?$AA@ 000000018000c2c0     service.obj
 0001:0000b2d0       ??_C@_0BE@DJLJEKBK@GetCurrentDirectory?$AA@ 000000018000c2d0     service.obj
 0001:0000b2e8       ??_C@_0BD@ELMHPHAC@CPluginStartupInfo?$AA@ 000000018000c2e8     service.obj
 0001:0000b300       ??_C@_08KJBLDCDF@FarClock?$AA@ 000000018000c300     service.obj
 0001:0000b310       ??_C@_0P@BGLLKGOI@FormatFileSize?$AA@ 000000018000c310     service.obj
 0001:0000b320       ??_C@_04OCDKHGII@XLat?$AA@ 000000018000c320     service.obj
 0001:0000b328       ??_C@_0M@HKHGOOHG@ConvertPath?$AA@ 000000018000c328     service.obj
 0001:0000b338       ??_C@_0BA@CLEHBIPM@RecursiveSearch?$AA@ 000000018000c338     service.obj
 0001:0000b348       ??_C@_08BNEIIKEJ@TruncStr?$AA@ 000000018000c348     service.obj
 0001:0000b358       ??_C@_0N@CCDDAJK@TruncPathStr?$AA@ 000000018000c358     service.obj
 0001:0000b368       ??_C@_06DKBBJCCG@MkLink?$AA@ 000000018000c368     service.obj
 0001:0000b370       ??_C@_06ILCHIEBO@MkTemp?$AA@ 000000018000c370     service.obj
 0001:0000b378       ??_C@_09GLKFOOEP@LUpperBuf?$AA@ 000000018000c378     service.obj
 0001:0000b388       ??_C@_09LPKAHGM@LLowerBuf?$AA@ 000000018000c388     service.obj
 0001:0000b398       ??_C@_08FHLJMDJK@LIsUpper?$AA@ 000000018000c398     service.obj
 0001:0000b3a8       ??_C@_08MAHKICD@LIsLower?$AA@ 000000018000c3a8     service.obj
 0001:0000b3b8       ??_C@_0M@LKJIEECA@LIsAlphanum?$AA@ 000000018000c3b8     service.obj
 0001:0000b3c8       ??_C@_08DNJCLFF@LIsAlpha?$AA@ 000000018000c3c8     service.obj
 0001:0000b3d8       ??_C@_0BE@EPGHGPJC@GetReparsePointInfo?$AA@ 000000018000c3d8     service.obj
 0001:0000b3f0       ??_C@_0M@KFCNKLDK@GetPathRoot?$AA@ 000000018000c3f0     service.obj
 0001:0000b400       ??_C@_0M@KPPMMAOL@ProcessName?$AA@ 000000018000c400     service.obj
 0001:0000b410       ??_C@_09GALOFBAC@LStrnicmp?$AA@ 000000018000c410     service.obj
 0001:0000b420       ??_C@_08HGLFNLMB@LStricmp?$AA@ 000000018000c420     service.obj
 0001:0000b430       ??_C@_0BC@FFNOIDFI@NameToInputRecord?$AA@ 000000018000c430     service.obj
 0001:0000b448       ??_C@_0BC@FJDIKOMH@InputRecordToName?$AA@ 000000018000c448     service.obj
 0001:0000b460       ??_C@_0BD@PLIHDKFC@PasteFromClipboard?$AA@ 000000018000c460     service.obj
 0001:0000b478       ??_C@_0BA@EOCNNPOG@CopyToClipboard?$AA@ 000000018000c478     service.obj
 0001:0000b488       ??_C@_0M@IFKFGKML@ColorDialog?$AA@ 000000018000c488     service.obj
 0001:0000b498       ??_C@_0N@GOMOBHDB@FreeSettings?$AA@ 000000018000c498     service.obj
 0001:0000b4a8       ??_C@_0P@HMKEDHIE@CreateSettings?$AA@ 000000018000c4a8     service.obj
 0001:0000b4b8       ??_C@_0P@IKAEEPOB@IsPluginLoaded?$AA@ 000000018000c4b8     service.obj
 0001:0000b4c8       ??_C@_0L@JIDCIJHM@GetPlugins?$AA@ 000000018000c4c8     service.obj
 0001:0000b4d8       ??_C@_0BF@KLOGLFMF@GetPluginInformation?$AA@ 000000018000c4d8     service.obj
 0001:0000b4f0       ??_C@_0L@DACPHGGH@FindPlugin?$AA@ 000000018000c4f0     service.obj
 0001:0000b500       ??_C@_0BB@IJHIBGJA@ForcedLoadPlugin?$AA@ 000000018000c500     service.obj
 0001:0000b518       ??_C@_0N@DHIONCLI@UnloadPlugin?$AA@ 000000018000c518     service.obj
 0001:0000b528       ??_C@_0L@CHJBHF@LoadPlugin?$AA@ 000000018000c528     service.obj
 0001:0000b538       ??_C@_0BB@BICELPOF@CreateFileFilter?$AA@ 000000018000c538     service.obj
 0001:0000b550       ??_C@_0N@COEPENFH@MacroExecute?$AA@ 000000018000c550     service.obj
 0001:0000b560       ??_C@_0BC@MJDKBAPF@MacroGetLastError?$AA@ 000000018000c560     service.obj
 0001:0000b578       ??_C@_0M@KFMHCNNB@MacroDelete?$AA@ 000000018000c578     service.obj
 0001:0000b588       ??_C@_08KAFLEHAN@MacroAdd?$AA@ 000000018000c588     service.obj
 0001:0000b598       ??_C@_0L@KBAKOGFP@MacroCheck?$AA@ 000000018000c598     service.obj
 0001:0000b5a8       ??_C@_09KGKKBHMO@MacroPost?$AA@ 000000018000c5a8     service.obj
 0001:0000b5b8       ??_C@_0N@PNLHCOIE@MacroGetArea?$AA@ 000000018000c5b8     service.obj
 0001:0000b5c8       ??_C@_0O@KGHDMPAJ@MacroGetState?$AA@ 000000018000c5c8     service.obj
 0001:0000b5d8       ??_C@_0N@NAGBAPAE@MacroSaveAll?$AA@ 000000018000c5d8     service.obj
 0001:0000b5e8       ??_C@_0N@GHGEMEN@MacroLoadAll?$AA@ 000000018000c5e8     service.obj
 0001:0000b5f8       ??_C@_0L@HHLOIHOP@AdvControl?$AA@ 000000018000c5f8     service.obj
 0001:0000b608       ??_C@_08IAADAJIH@InputBox?$AA@ 000000018000c608     service.obj
 0001:0000b618       ??_C@_08DAHHHDJC@ShowHelp?$AA@ 000000018000c618     service.obj
 0001:0000b628       ??_C@_0L@PGGGPLFK@SaveScreen?$AA@ 000000018000c628     service.obj
 0001:0000b638       ??_C@_0O@CGLFPNOD@RestoreScreen?$AA@ 000000018000c638     service.obj
 0001:0000b648       ??_C@_07BEIHKDLJ@Message?$AA@ 000000018000c648     service.obj
 0001:0000b650       ??_C@_04IFEHPILC@Menu?$AA@ 000000018000c650     service.obj
 0001:0000b658       ??_C@_0BB@HIDBFOJJ@GetPluginDirList?$AA@ 000000018000c658     service.obj
 0001:0000b66c       ??_C@_06KCCBBIBJ@GetMsg?$AA@ 000000018000c66c     service.obj
 0001:0000b678       ??_C@_0L@MCFABBED@GetDirList?$AA@ 000000018000c678     service.obj
 0001:0000b688       ??_C@_0BK@EBIPEKDH@SubscribeDialogDrawEvents?$AA@ 000000018000c688     service.obj
 0001:0000b6a8       ??_C@_0L@DEGEGMGN@SetDlgItem?$AA@ 000000018000c6a8     service.obj
 0001:0000b6b8       ??_C@_0L@CKELNLCE@GetDlgItem?$AA@ 000000018000c6b8     service.obj
 0001:0000b6c8       ??_C@_0P@HLOFPDFP@SendDlgMessage?$AA@ 000000018000c6c8     service.obj
 0001:0000b6d8       ??_C@_0L@DLFLHLOO@DialogFree?$AA@ 000000018000c6d8     service.obj
 0001:0000b6e8       ??_C@_09DBEDLMHB@DialogRun?$AA@ 000000018000c6e8     service.obj
 0001:0000b6f8       ??_C@_0L@PJAHNOGM@DialogInit?$AA@ 000000018000c6f8     service.obj
 0001:0000b708       ??_C@_0BC@BIIKJLKB@PluginStartupInfo?$AA@ 000000018000c708     service.obj
 0001:0000b720       ??_C@_0M@EICBHAOA@UpdatePanel?$AA@ 000000018000c720     service.obj
 0001:0000b730       ??_C@_0M@IENJPEBA@SetViewMode?$AA@ 000000018000c730     service.obj
 0001:0000b740       ??_C@_0O@LHNNDOB@SetUserScreen?$AA@ 000000018000c740     service.obj
 0001:0000b750       ??_C@_0N@HCHLALN@SetSortOrder?$AA@ 000000018000c750     service.obj
 0001:0000b760       ??_C@_0M@CMMMGIDG@SetSortMode?$AA@ 000000018000c760     service.obj
 0001:0000b770       ??_C@_0N@NMDFLOPL@SetSelection?$AA@ 000000018000c770     service.obj
 0001:0000b780       ??_C@_0BC@PDKEABHF@SetPanelDirectory?$AA@ 000000018000c780     service.obj
 0001:0000b798       ??_C@_0P@NPNKOENM@SetNumericSort?$AA@ 000000018000c798     service.obj
 0001:0000b7a8       ??_C@_0BE@PAPEKLCP@SetDirectoriesFirst?$AA@ 000000018000c7a8     service.obj
 0001:0000b7c0       ??_C@_0BE@IPNAPCDL@SetCmdLineSelection?$AA@ 000000018000c7c0     service.obj
 0001:0000b7d8       ??_C@_0O@KECGHKDH@SetCmdLinePos?$AA@ 000000018000c7d8     service.obj
 0001:0000b7e8       ??_C@_0L@LAFNHJLF@SetCmdLine?$AA@ 000000018000c7e8     service.obj
 0001:0000b7f8       ??_C@_0BF@LKMKIFPG@SetCaseSensitiveSort?$AA@ 000000018000c7f8     service.obj
 0001:0000b810       ??_C@_0P@OPKJJMLB@SetActivePanel?$AA@ 000000018000c810     service.obj
 0001:0000b820       ??_C@_0M@LCEPDNPK@RedrawPanel?$AA@ 000000018000c820     service.obj
 0001:0000b830       ??_C@_0O@OMMHIHHH@IsActivePanel?$AA@ 000000018000c830     service.obj
 0001:0000b840       ??_C@_0O@EHOCCHAL@InsertCmdLine?$AA@ 000000018000c840     service.obj
 0001:0000b850       ??_C@_0O@HEGDGAJG@GetUserScreen?$AA@ 000000018000c850     service.obj
 0001:0000b860       ??_C@_0BF@MEMFMMGB@GetSelectedPanelItem?$AA@ 000000018000c860     service.obj
 0001:0000b878       ??_C@_0P@HCBKDPMP@GetPanelPrefix?$AA@ 000000018000c878     service.obj
 0001:0000b888       ??_C@_0N@HAFLAIHA@GetPanelItem?$AA@ 000000018000c888     service.obj
 0001:0000b898       ??_C@_0N@HPIPGDFA@GetPanelInfo?$AA@ 000000018000c898     service.obj
 0001:0000b8a8       ??_C@_0BB@LCMBHPNI@GetPanelHostFile?$AA@ 000000018000c8a8     service.obj
 0001:0000b8c0       ??_C@_0P@GODLFFFJ@GetPanelFormat?$AA@ 000000018000c8c0     service.obj
 0001:0000b8d0       ??_C@_0BC@NGKPIKGL@GetPanelDirectory?$AA@ 000000018000c8d0     service.obj
 0001:0000b8e8       ??_C@_0BE@JPAIJBCI@GetCurrentPanelItem?$AA@ 000000018000c8e8     service.obj
 0001:0000b900       ??_C@_0BA@DJGLDCBG@GetColumnWidths?$AA@ 000000018000c900     service.obj
 0001:0000b910       ??_C@_0P@CMFANDFM@GetColumnTypes?$AA@ 000000018000c910     service.obj
 0001:0000b920       ??_C@_0BE@CBPLLCEH@GetCmdLineSelection?$AA@ 000000018000c920     service.obj
 0001:0000b938       ??_C@_0O@NLDIMJEA@GetCmdLinePos?$AA@ 000000018000c938     service.obj
 0001:0000b948       ??_C@_0L@KOHCMOPM@GetCmdLine?$AA@ 000000018000c948     service.obj
 0001:0000b958       ??_C@_0P@DFBDDHFA@ClearSelection?$AA@ 000000018000c958     service.obj
 0001:0000b968       ??_C@_0BB@PJGDGIKA@CheckPanelsExist?$AA@ 000000018000c968     service.obj
 0001:0000b97c       ??_C@_06PJECNADJ@Viewer?$AA@ 000000018000c97c     service.obj
 0001:0000b988       ??_C@_07JMDLHPJF@SetMode?$AA@ 000000018000c988     service.obj
 0001:0000b990       ??_C@_08IBJJAHJG@UndoRedo?$AA@ 000000018000c990     service.obj
 0001:0000b9a0       ??_C@_09JFBCONJH@TabToReal?$AA@ 000000018000c9a0     service.obj
 0001:0000b9b0       ??_C@_0BF@LIMPGNED@SubscribeChangeEvent?$AA@ 000000018000c9b0     service.obj
 0001:0000b9c8       ??_C@_08JNAOBKMI@GetTitle?$AA@ 000000018000c9c8     service.obj
 0001:0000b9d8       ??_C@_08GMCCAJLF@SetTitle?$AA@ 000000018000c9d8     service.obj
 0001:0000b9e8       ??_C@_0L@JNHIIHDG@SetStringW?$AA@ 000000018000c9e8     service.obj
 0001:0000b9f8       ??_C@_09FPPPFNNC@SetString?$AA@ 000000018000c9f8     service.obj
 0001:0000ba08       ??_C@_0M@GKIFPNAD@SetPosition?$AA@ 000000018000ca08     service.obj
 0001:0000ba18       ??_C@_08CCKJEGOF@SetParam?$AA@ 000000018000ca18     service.obj
 0001:0000ba28       ??_C@_09PPEOOGEC@SetKeyBar?$AA@ 000000018000ca28     service.obj
 0001:0000ba34       ??_C@_06HJGPBJLE@Select?$AA@ 000000018000ca34     service.obj
 0001:0000ba40       ??_C@_08FBDDPFPJ@SaveFile?$AA@ 000000018000ca40     service.obj
 0001:0000ba4c       ??_C@_06KAPLBEK@Redraw?$AA@ 000000018000ca4c     service.obj
 0001:0000ba58       ??_C@_09DBPLBJBJ@RealToTab?$AA@ 000000018000ca58     service.obj
 0001:0000ba68       ??_C@_09KINLOJJJ@ReadInput?$AA@ 000000018000ca68     service.obj
 0001:0000ba74       ??_C@_04GMBKPCGK@Quit?$AA@ 000000018000ca74     service.obj
 0001:0000ba80       ??_C@_0N@FNCEPAJJ@ProcessInput?$AA@ 000000018000ca80     service.obj
 0001:0000ba90       ??_C@_0BE@IEBIGOAP@PrevSessionBookmark?$AA@ 000000018000ca90     service.obj
 0001:0000baa8       ??_C@_0BE@CNGODNDI@NextSessionBookmark?$AA@ 000000018000caa8     service.obj
 0001:0000bac0       ??_C@_0M@BINOKANK@InsertTextW?$AA@ 000000018000cac0     service.obj
 0001:0000bad0       ??_C@_0L@JMOIGJIA@InsertText?$AA@ 000000018000cad0     service.obj
 0001:0000bae0       ??_C@_0N@ICPGLOEG@InsertString?$AA@ 000000018000cae0     service.obj
 0001:0000baf0       ??_C@_0L@IDFHDAHP@GetStringW?$AA@ 000000018000caf0     service.obj
 0001:0000bb00       ??_C@_09HBLKHMEA@GetString?$AA@ 000000018000cb00     service.obj
 0001:0000bb10       ??_C@_0BE@LBJJGOGD@GetSessionBookmarks?$AA@ 000000018000cb10     service.obj
 0001:0000bb28       ??_C@_0N@KIILHCLH@GetSelection?$AA@ 000000018000cb28     service.obj
 0001:0000bb38       ??_C@_07NAJNLNAF@GetInfo?$AA@ 000000018000cb38     service.obj
 0001:0000bb40       ??_C@_0M@FECPLAMN@GetFileName?$AA@ 000000018000cb40     service.obj
 0001:0000bb50       ??_C@_08JOPFJIPE@GetColor?$AA@ 000000018000cb50     service.obj
 0001:0000bb60       ??_C@_0N@MGAOADJN@GetBookmarks?$AA@ 000000018000cb60     service.obj
 0001:0000bb70       ??_C@_0L@HDLPOLMA@ExpandTabs?$AA@ 000000018000cb70     service.obj
 0001:0000bb7c       ??_C@_06MJDIICIN@Editor?$AA@ 000000018000cb7c     service.obj
 0001:0000bb88       ??_C@_0N@EKENACAE@DeleteString?$AA@ 000000018000cb88     service.obj
 0001:0000bb98       ??_C@_0BG@KOELEFCN@DeleteSessionBookmark?$AA@ 000000018000cb98     service.obj
 0001:0000bbb0       ??_C@_0L@BCLIBKOC@DeleteChar?$AA@ 000000018000cbb0     service.obj
 0001:0000bbc0       ??_C@_0M@LPIECDD@DeleteBlock?$AA@ 000000018000cbc0     service.obj
 0001:0000bbd0       ??_C@_08PDEJHGJI@DelColor?$AA@ 000000018000cbd0     service.obj
 0001:0000bbe0       ??_C@_0BG@IGFHDIIN@ClearSessionBookmarks?$AA@ 000000018000cbe0     service.obj
 0001:0000bbf8       ??_C@_0BD@DOFEEDDC@AddSessionBookmark?$AA@ 000000018000cbf8     service.obj
 0001:0000bc10       ??_C@_08EGJLHNCO@AddColor?$AA@ 000000018000cc10     service.obj
 0001:0000bc20       ??_C@_0L@CPCKAMD@OpenSubkey?$AA@ 000000018000cc20     service.obj
 0001:0000bc30       ??_C@_0N@OELJMCEC@CreateSubkey?$AA@ 000000018000cc30     service.obj
 0001:0000bc40       ??_C@_03CEMDFJG@Set?$AA@   000000018000cc40     service.obj
 0001:0000bc44       ??_C@_03NNDHPFFO@Get?$AA@  000000018000cc44     service.obj
 0001:0000bc48       ??_C@_04HJMOFLDF@Free?$AA@ 000000018000cc48     service.obj
 0001:0000bc50       ??_C@_04PAFOOALK@Enum?$AA@ 000000018000cc50     service.obj
 0001:0000bc58       ??_C@_06JBKGCNBB@Delete?$AA@ 000000018000cc58     service.obj
 0001:0000bc60       ??_C@_04MIIPNNEF@send?$AA@ 000000018000cc60     service.obj
 0001:0000bc68       ??_C@_09LDLEBFOB@rawhandle?$AA@ 000000018000cc68     service.obj
 0001:0000bc78       ??_C@_0P@JDMCHDIM@IsFileInFilter?$AA@ 000000018000cc78     service.obj
 0001:0000bc88       ??_C@_0BB@OPPOFOAK@StartingToFilter?$AA@ 000000018000cc88     service.obj
 0001:0000bca0       ??_C@_0BA@JGEOEAE@OpenFiltersMenu?$AA@ 000000018000cca0     service.obj
 0001:0000bcb0       ??_C@_0P@LKPINHLK@FreeFileFilter?$AA@ 000000018000ccb0     service.obj
 0001:0000bcc0       ??_C@_09MBBEHOCK@OEM_CLEAR?$AA@ 000000018000ccc0     service.obj
 0001:0000bccc       ??_C@_03KCLDMPAE@PA1?$AA@  000000018000cccc     service.obj
 0001:0000bcd0       ??_C@_06LJIOOKLP@NONAME?$AA@ 000000018000ccd0     service.obj
 0001:0000bcd8       ??_C@_04LGBIGMFG@ZOOM?$AA@ 000000018000ccd8     service.obj
 0001:0000bce0       ??_C@_04MKCNCBEG@PLAY?$AA@ 000000018000cce0     service.obj
 0001:0000bce8       ??_C@_05CCFENDFJ@EREOF?$AA@ 000000018000cce8     service.obj
 0001:0000bcf0       ??_C@_05OKOOKOOH@EXSEL?$AA@ 000000018000ccf0     service.obj
 0001:0000bcf8       ??_C@_05HGAHFFFL@CRSEL?$AA@ 000000018000ccf8     service.obj
 0001:0000bd00       ??_C@_04BNGOAFAJ@ATTN?$AA@ 000000018000cd00     service.obj
 0001:0000bd08       ??_C@_0L@OCAIHDP@OEM_WSCTRL?$AA@ 000000018000cd08     service.obj
 0001:0000bd18       ??_C@_07DLOIGGME@OEM_PA3?$AA@ 000000018000cd18     service.obj
 0001:0000bd20       ??_C@_07CCPDFHIF@OEM_PA2?$AA@ 000000018000cd20     service.obj
 0001:0000bd28       ??_C@_07JNOAEEG@OEM_PA1?$AA@ 000000018000cd28     service.obj
 0001:0000bd30       ??_C@_08INMNLJCK@OEM_JUMP?$AA@ 000000018000cd30     service.obj
 0001:0000bd40       ??_C@_09CAKPMKHM@OEM_RESET?$AA@ 000000018000cd40     service.obj
 0001:0000bd4c       ??_C@_06HOICDKCB@PACKET?$AA@ 000000018000cd4c     service.obj
 0001:0000bd58       ??_C@_0L@EFLJCPAM@PROCESSKEY?$AA@ 000000018000cd58     service.obj
 0001:0000bd68       ??_C@_07PEFKMFIE@OEM_102?$AA@ 000000018000cd68     service.obj
 0001:0000bd70       ??_C@_05DJCBGEEK@OEM_8?$AA@ 000000018000cd70     service.obj
 0001:0000bd78       ??_C@_05LOLJHIIF@OEM_7?$AA@ 000000018000cd78     service.obj
 0001:0000bd80       ??_C@_05KHKCEJME@OEM_6?$AA@ 000000018000cd80     service.obj
 0001:0000bd88       ??_C@_05IMIPBKAH@OEM_5?$AA@ 000000018000cd88     service.obj
 0001:0000bd90       ??_C@_05JFJECLEG@OEM_4?$AA@ 000000018000cd90     service.obj
 0001:0000bd98       ??_C@_05NKNFLNIB@OEM_3?$AA@ 000000018000cd98     service.obj
 0001:0000bda0       ??_C@_05MDMOIMMA@OEM_2?$AA@ 000000018000cda0     service.obj
 0001:0000bda8       ??_C@_0L@DNNMNDGM@OEM_PERIOD?$AA@ 000000018000cda8     service.obj
 0001:0000bdb8       ??_C@_09OGMLCNMG@OEM_MINUS?$AA@ 000000018000cdb8     service.obj
 0001:0000bdc8       ??_C@_09CLPFJEOD@OEM_COMMA?$AA@ 000000018000cdc8     service.obj
 0001:0000bdd8       ??_C@_08LDJEIPBH@OEM_PLUS?$AA@ 000000018000cdd8     service.obj
 0001:0000bde4       ??_C@_05OIODNPAD@OEM_1?$AA@ 000000018000cde4     service.obj
 0001:0000bdf0       ??_C@_0M@ONJENAPP@LAUNCH_APP2?$AA@ 000000018000cdf0     service.obj
 0001:0000be00       ??_C@_0M@MGLJIDDM@LAUNCH_APP1?$AA@ 000000018000ce00     service.obj
 0001:0000be10       ??_C@_0BE@FADJJAPM@LAUNCH_MEDIA_SELECT?$AA@ 000000018000ce10     service.obj
 0001:0000be28       ??_C@_0M@GCIKMBID@LAUNCH_MAIL?$AA@ 000000018000ce28     service.obj
 0001:0000be38       ??_C@_0BB@HAEMIJHO@MEDIA_PLAY_PAUSE?$AA@ 000000018000ce38     service.obj
 0001:0000be50       ??_C@_0L@KBJOCDHK@MEDIA_STOP?$AA@ 000000018000ce50     service.obj
 0001:0000be60       ??_C@_0BB@CMOIJKPH@MEDIA_PREV_TRACK?$AA@ 000000018000ce60     service.obj
 0001:0000be78       ??_C@_0BB@KLAENPA@MEDIA_NEXT_TRACK?$AA@ 000000018000ce78     service.obj
 0001:0000be90       ??_C@_09MGPMNMJC@VOLUME_UP?$AA@ 000000018000ce90     service.obj
 0001:0000bea0       ??_C@_0M@JOOBBDNO@VOLUME_DOWN?$AA@ 000000018000cea0     service.obj
 0001:0000beb0       ??_C@_0M@ENOHKBMG@VOLUME_MUTE?$AA@ 000000018000ceb0     service.obj
 0001:0000bec0       ??_C@_0N@NOOKCEKA@BROWSER_HOME?$AA@ 000000018000cec0     service.obj
 0001:0000bed0       ??_C@_0BC@BOMJIH@BROWSER_FAVORITES?$AA@ 000000018000ced0     service.obj
 0001:0000bee8       ??_C@_0P@BEAEBJDD@BROWSER_SEARCH?$AA@ 000000018000cee8     service.obj
 0001:0000bef8       ??_C@_0N@HKPDGANH@BROWSER_STOP?$AA@ 000000018000cef8     service.obj
 0001:0000bf08       ??_C@_0BA@GDNDIDGJ@BROWSER_REFRESH?$AA@ 000000018000cf08     service.obj
 0001:0000bf18       ??_C@_0BA@ENOAJOGH@BROWSER_FORWARD?$AA@ 000000018000cf18     service.obj
 0001:0000bf28       ??_C@_0N@OAJIELLG@BROWSER_BACK?$AA@ 000000018000cf28     service.obj
 0001:0000bf38       ??_C@_05LOBKMKIM@RMENU?$AA@ 000000018000cf38     service.obj
 0001:0000bf40       ??_C@_05IHMGKJGH@LMENU?$AA@ 000000018000cf40     service.obj
 0001:0000bf48       ??_C@_08OOMMENPF@RCONTROL?$AA@ 000000018000cf48     service.obj
 0001:0000bf58       ??_C@_08IKMONEBG@LCONTROL?$AA@ 000000018000cf58     service.obj
 0001:0000bf64       ??_C@_06HIJMMPFL@RSHIFT?$AA@ 000000018000cf64     service.obj
 0001:0000bf6c       ??_C@_06EPHNCIMI@LSHIFT?$AA@ 000000018000cf6c     service.obj
 0001:0000bf78       ??_C@_0M@FOJHECMP@OEM_FJ_ROYA?$AA@ 000000018000cf78     service.obj
 0001:0000bf88       ??_C@_0M@IBEHGLCM@OEM_FJ_LOYA?$AA@ 000000018000cf88     service.obj
 0001:0000bf98       ??_C@_0P@NIEOFNLG@OEM_FJ_TOUROKU?$AA@ 000000018000cf98     service.obj
 0001:0000bfa8       ??_C@_0P@JKGCFGCD@OEM_FJ_MASSHOU?$AA@ 000000018000cfa8     service.obj
 0001:0000bfb8       ??_C@_0O@DBBJDALK@OEM_NEC_EQUAL?$AA@ 000000018000cfb8     service.obj
 0001:0000bfc8       ??_C@_06FNIKALAE@SCROLL?$AA@ 000000018000cfc8     service.obj
 0001:0000bfd0       ??_C@_07FLMEHHJP@NUMLOCK?$AA@ 000000018000cfd0     service.obj
 0001:0000bfd8       ??_C@_03PMABOFAL@F24?$AA@  000000018000cfd8     service.obj
 0001:0000bfdc       ??_C@_03LDEAHDMM@F23?$AA@  000000018000cfdc     service.obj
 0001:0000bfe0       ??_C@_03KKFLECIN@F22?$AA@  000000018000cfe0     service.obj
 0001:0000bfe4       ??_C@_03IBHGBBEO@F21?$AA@  000000018000cfe4     service.obj
 0001:0000bfe8       ??_C@_03JIGNCAAP@F20?$AA@  000000018000cfe8     service.obj
 0001:0000bfec       ??_C@_03ELOJCFBP@F19?$AA@  000000018000cfec     service.obj
 0001:0000bff0       ??_C@_03FCPCBEFO@F18?$AA@  000000018000cff0     service.obj
 0001:0000bff4       ??_C@_03NFGKAIJB@F17?$AA@  000000018000cff4     service.obj
 0001:0000bff8       ??_C@_03MMHBDJNA@F16?$AA@  000000018000cff8     service.obj
 0001:0000bffc       ??_C@_03OHFMGKBD@F15?$AA@  000000018000cffc     service.obj
 0001:0000c000       ??_C@_03POEHFLFC@F14?$AA@  000000018000d000     service.obj
 0001:0000c004       ??_C@_03LBAGMNJF@F13?$AA@  000000018000d004     service.obj
 0001:0000c008       ??_C@_03KIBNPMNE@F12?$AA@  000000018000d008     service.obj
 0001:0000c00c       ??_C@_03IDDAKPBH@F11?$AA@  000000018000d00c     service.obj
 0001:0000c010       ??_C@_03JKCLJOFG@F10?$AA@  000000018000d010     service.obj
 0001:0000c014       ??_C@_02HKCNFKCF@F9?$AA@   000000018000d014     service.obj
 0001:0000c018       ??_C@_02GDDGGLGE@F8?$AA@   000000018000d018     service.obj
 0001:0000c01c       ??_C@_02OEKOHHKL@F7?$AA@   000000018000d01c     service.obj
 0001:0000c020       ??_C@_02PNLFEGOK@F6?$AA@   000000018000d020     service.obj
 0001:0000c024       ??_C@_02NGJIBFCJ@F5?$AA@   000000018000d024     service.obj
 0001:0000c028       ??_C@_02MPIDCEGI@F4?$AA@   000000018000d028     service.obj
 0001:0000c02c       ??_C@_02IAMCLCKP@F3?$AA@   000000018000d02c     service.obj
 0001:0000c030       ??_C@_02JJNJIDOO@F2?$AA@   000000018000d030     service.obj
 0001:0000c034       ??_C@_02LCPENACN@F1?$AA@   000000018000d034     service.obj
 0001:0000c038       ??_C@_06FBFCJJMP@DIVIDE?$AA@ 000000018000d038     service.obj
 0001:0000c040       ??_C@_07LJPMJDLL@DECIMAL?$AA@ 000000018000d040     service.obj
 0001:0000c048       ??_C@_08MGBEENML@SUBTRACT?$AA@ 000000018000d048     service.obj
 0001:0000c058       ??_C@_09POPINEFK@SEPARATOR?$AA@ 000000018000d058     service.obj
 0001:0000c064       ??_C@_03BOJFLAKG@ADD?$AA@  000000018000d064     service.obj
 0001:0000c068       ??_C@_08LDEOAAGM@MULTIPLY?$AA@ 000000018000d068     service.obj
 0001:0000c078       ??_C@_07GENHHNO@NUMPAD9?$AA@ 000000018000d078     service.obj
 0001:0000c080       ??_C@_07BPFGEGJP@NUMPAD8?$AA@ 000000018000d080     service.obj
 0001:0000c088       ??_C@_07JIMOFKFA@NUMPAD7?$AA@ 000000018000d088     service.obj
 0001:0000c090       ??_C@_07IBNFGLBB@NUMPAD6?$AA@ 000000018000d090     service.obj
 0001:0000c098       ??_C@_07KKPIDINC@NUMPAD5?$AA@ 000000018000d098     service.obj
 0001:0000c0a0       ??_C@_07LDODAJJD@NUMPAD4?$AA@ 000000018000d0a0     service.obj
 0001:0000c0a8       ??_C@_07PMKCJPFE@NUMPAD3?$AA@ 000000018000d0a8     service.obj
 0001:0000c0b0       ??_C@_07OFLJKOBF@NUMPAD2?$AA@ 000000018000d0b0     service.obj
 0001:0000c0b8       ??_C@_07MOJEPNNG@NUMPAD1?$AA@ 000000018000d0b8     service.obj
 0001:0000c0c0       ??_C@_07NHIPMMJH@NUMPAD0?$AA@ 000000018000d0c0     service.obj
 0001:0000c0c8       ??_C@_05DJAECLDN@SLEEP?$AA@ 000000018000d0c8     service.obj
 0001:0000c0d0       ??_C@_04GKGJFGJO@APPS?$AA@ 000000018000d0d0     service.obj
 0001:0000c0d8       ??_C@_04DMGFHHJG@RWIN?$AA@ 000000018000d0d8     service.obj
 0001:0000c0e0       ??_C@_04ODLFFOHF@LWIN?$AA@ 000000018000d0e0     service.obj
 0001:0000c0e8       ??_C@_01POHCFINO@Z?$AA@    000000018000d0e8     service.obj
 0001:0000c0ec       ??_C@_01NFFPALBN@Y?$AA@    000000018000d0ec     service.obj
 0001:0000c0f0       ??_C@_01MMEEDKFM@X?$AA@    000000018000d0f0     service.obj
 0001:0000c0f4       ??_C@_01ELNMCGJD@W?$AA@    000000018000d0f4     service.obj
 0001:0000c0f8       ??_C@_01FCMHBHNC@V?$AA@    000000018000d0f8     service.obj
 0001:0000c0fc       ??_C@_01HJOKEEBB@U?$AA@    000000018000d0fc     service.obj
 0001:0000c100       ??_C@_01GAPBHFFA@T?$AA@    000000018000d100     service.obj
 0001:0000c104       ??_C@_01CPLAODJH@S?$AA@    000000018000d104     service.obj
 0001:0000c108       ??_C@_01DGKLNCNG@R?$AA@    000000018000d108     service.obj
 0001:0000c10c       ??_C@_01BNIGIBBF@Q?$AA@    000000018000d10c     service.obj
 0001:0000c110       ??_C@_01EJNLAFE@P?$AA@     000000018000d110     service.obj
 0001:0000c114       ??_C@_01MJMHLOMK@O?$AA@    000000018000d114     service.obj
 0001:0000c118       ??_C@_01NANMIPIL@N?$AA@    000000018000d118     service.obj
 0001:0000c11c       ??_C@_01PLPBNMEI@M?$AA@    000000018000d11c     service.obj
 0001:0000c120       ??_C@_01OCOKONAJ@L?$AA@    000000018000d120     service.obj
 0001:0000c124       ??_C@_01KNKLHLMO@K?$AA@    000000018000d124     service.obj
 0001:0000c128       ??_C@_01LELAEKIP@J?$AA@    000000018000d128     service.obj
 0001:0000c12c       ??_C@_01JPJNBJEM@I?$AA@    000000018000d12c     service.obj
 0001:0000c130       ??_C@_01IGIGCIAN@H?$AA@    000000018000d130     service.obj
 0001:0000c134       ??_C@_01BBODEMC@G?$AA@     000000018000d134     service.obj
 0001:0000c138       ??_C@_01BIAFAFID@F?$AA@    000000018000d138     service.obj
 0001:0000c13c       ??_C@_01DDCIFGEA@E?$AA@    000000018000d13c     service.obj
 0001:0000c140       ??_C@_01CKDDGHAB@D?$AA@    000000018000d140     service.obj
 0001:0000c144       ??_C@_01GFHCPBMG@C?$AA@    000000018000d144     service.obj
 0001:0000c148       ??_C@_01HMGJMAIH@B?$AA@    000000018000d148     service.obj
 0001:0000c14c       ??_C@_01FHEEJDEE@A?$AA@    000000018000d14c     service.obj
 0001:0000c150       ??_C@_01LAKCGALK@9?$AA@    000000018000d150     service.obj
 0001:0000c154       ??_C@_01KJLJFBPL@8?$AA@    000000018000d154     service.obj
 0001:0000c158       ??_C@_01COCBENDE@7?$AA@    000000018000d158     service.obj
 0001:0000c15c       ??_C@_01DHDKHMHF@6?$AA@    000000018000d15c     service.obj
 0001:0000c160       ??_C@_01BMBHCPLG@5?$AA@    000000018000d160     service.obj
 0001:0000c164       ??_C@_01FAMBOPH@4?$AA@     000000018000d164     service.obj
 0001:0000c168       ??_C@_01EKENIIDA@3?$AA@    000000018000d168     service.obj
 0001:0000c16c       ??_C@_01FDFGLJHB@2?$AA@    000000018000d16c     service.obj
 0001:0000c170       ??_C@_01HIHLOKLC@1?$AA@    000000018000d170     service.obj
 0001:0000c174       ??_C@_01GBGANLPD@0?$AA@    000000018000d174     service.obj
 0001:0000c178       ??_C@_04DOKPJKJF@HELP?$AA@ 000000018000d178     service.obj
 0001:0000c180       ??_C@_06FKDAMKFP@DELETE?$AA@ 000000018000d180     service.obj
 0001:0000c188       ??_C@_06OEMEAEKN@INSERT?$AA@ 000000018000d188     service.obj
 0001:0000c190       ??_C@_08EMOKHGD@SNAPSHOT?$AA@ 000000018000d190     service.obj
 0001:0000c1a0       ??_C@_07LBDEDADF@EXECUTE?$AA@ 000000018000d1a0     service.obj
 0001:0000c1a8       ??_C@_05ECKPOFCN@PRINT?$AA@ 000000018000d1a8     service.obj
 0001:0000c1b0       ??_C@_06LCPJPOPK@SELECT?$AA@ 000000018000d1b0     service.obj
 0001:0000c1b8       ??_C@_04FANAOELO@DOWN?$AA@ 000000018000d1b8     service.obj
 0001:0000c1c0       ??_C@_05PMAFOJDE@RIGHT?$AA@ 000000018000d1c0     service.obj
 0001:0000c1c8       ??_C@_02NAHCJHOC@UP?$AA@   000000018000d1c8     service.obj
 0001:0000c1cc       ??_C@_04KCNEHMIH@LEFT?$AA@ 000000018000d1cc     service.obj
 0001:0000c1d4       ??_C@_04GHGFPGNC@HOME?$AA@ 000000018000d1d4     service.obj
 0001:0000c1dc       ??_C@_03JMGAKCCH@END?$AA@  000000018000d1dc     service.obj
 0001:0000c1e0       ??_C@_04MOKMKBJN@NEXT?$AA@ 000000018000d1e0     service.obj
 0001:0000c1e8       ??_C@_05BFDHCIJM@PRIOR?$AA@ 000000018000d1e8     service.obj
 0001:0000c1f0       ??_C@_05CAEOFMEP@SPACE?$AA@ 000000018000d1f0     service.obj
 0001:0000c1f8       ??_C@_0L@HEHNEBED@MODECHANGE?$AA@ 000000018000d1f8     service.obj
 0001:0000c204       ??_C@_06INBBKPI@ACCEPT?$AA@ 000000018000d204     service.obj
 0001:0000c210       ??_C@_0L@ODNCKDCK@NONCONVERT?$AA@ 000000018000d210     service.obj
 0001:0000c21c       ??_C@_06CDPDIIDH@ESCAPE?$AA@ 000000018000d21c     service.obj
 0001:0000c224       ??_C@_05CHABPOPI@HANJA?$AA@ 000000018000d224     service.obj
 0001:0000c22c       ??_C@_05JEIAEFOF@FINAL?$AA@ 000000018000d22c     service.obj
 0001:0000c234       ??_C@_05PPKJGOLB@JUNJA?$AA@ 000000018000d234     service.obj
 0001:0000c23c       ??_C@_04KGDAIAGM@KANA?$AA@ 000000018000d23c     service.obj
 0001:0000c248       ??_C@_07OPCFNGJB@CAPITAL?$AA@ 000000018000d248     service.obj
 0001:0000c250       ??_C@_05DIAHPDGL@PAUSE?$AA@ 000000018000d250     service.obj
 0001:0000c258       ??_C@_04IILMDFMO@MENU?$AA@ 000000018000d258     service.obj
 0001:0000c260       ??_C@_07DBEDOPMC@CONTROL?$AA@ 000000018000d260     service.obj
 0001:0000c268       ??_C@_05OAHIEJBI@SHIFT?$AA@ 000000018000d268     service.obj
 0001:0000c270       ??_C@_06LJMOENAO@RETURN?$AA@ 000000018000d270     service.obj
 0001:0000c278       ??_C@_05PONODPI@CLEAR?$AA@ 000000018000d278     service.obj
 0001:0000c280       ??_C@_03CJMDHCGG@TAB?$AA@  000000018000d280     service.obj
 0001:0000c284       ??_C@_04FJBHJJME@BACK?$AA@ 000000018000d284     service.obj
 0001:0000c290       ??_C@_08MEKGJEIF@XBUTTON2?$AA@ 000000018000d290     service.obj
 0001:0000c2a0       ??_C@_08OPILMHEG@XBUTTON1?$AA@ 000000018000d2a0     service.obj
 0001:0000c2b0       ??_C@_07DLFCFDDG@MBUTTON?$AA@ 000000018000d2b0     service.obj
 0001:0000c2b8       ??_C@_06JHILMIHF@CANCEL?$AA@ 000000018000d2b8     service.obj
 0001:0000c2c0       ??_C@_07JOMJHALB@RBUTTON?$AA@ 000000018000d2c0     service.obj
 0001:0000c2c8       ??_C@_07PHPIFDKI@LBUTTON?$AA@ 000000018000d2c8     service.obj
 0001:0000cb00       FarFileFilterType          000000018000db00     service.obj
 0001:0000cb10       FarTimerType               000000018000db10     service.obj
 0001:0000cb20       FarDialogType              000000018000db20     service.obj
 0001:0000cb30       SettingsType               000000018000db30     service.obj
 0001:0000cb40       SettingsHandles            000000018000db40     service.obj
 0001:0000cb58       PluginHandleType           000000018000db58     service.obj
 0001:0000cb68       AddMacroDataType           000000018000db68     service.obj
 0001:0000cb78       SavedScreenType            000000018000db78     service.obj
 0001:0000cb88       FAR_VIRTUALKEYS            000000018000db88     service.obj
 0001:0000cb98       FAR_FLAGSTABLE             000000018000db98     service.obj
 0001:0000cba8       FAR_DN_STORAGE             000000018000dba8     service.obj
 0001:0000cbf0       timer_methods              000000018000dbf0     service.obj
 0001:0000cc40       filefilter_methods         000000018000dc40     service.obj
 0001:0000ccb0       dialog_methods             000000018000dcb0     service.obj
 0001:0000cd00       Settings_methods           000000018000dd00     service.obj
 0001:0000cda0       editor_funcs               000000018000dda0     service.obj
 0001:0000d030       viewer_funcs               000000018000e030     service.obj
 0001:0000d0d0       panel_funcs                000000018000e0d0     service.obj
 0001:0000d300       far_funcs                  000000018000e300     service.obj
 0001:0000d780       far_Dialog                 000000018000e780     service.obj
 0001:0000da70       api_functions              000000018000ea70     service.obj
 0001:0000db30       ??_C@_0M@DOFFFIEL@luaopen_jit?$AA@ 000000018000eb30     service.obj
 0001:0000db40       ??_C@_0M@IALDMMNC@luaopen_ffi?$AA@ 000000018000eb40     service.obj
 0001:0000db50       ??_C@_0M@PLOBHAKE@luaopen_bit?$AA@ 000000018000eb50     service.obj
 0001:0000db60       ??_C@_09GJGOMOL@lua51?4dll?$AA@ 000000018000eb60     service.obj
 0001:0000db70       ??_C@_0BE@OEPKKAAB@integer?5or?5userdata?$AA@ 000000018000eb70     service.obj
 0001:0000db88       ??_C@_0N@JJLBBDOC@invalid?5flag?$AA@ 000000018000eb88     service.obj
 0001:0000db98       ??_C@_0BJ@MIKGPOKL@invalid?5flag?5combination?$AA@ 000000018000eb98     service.obj
 0001:0000dbb8       ??_C@_0L@EMFBJIPA@EventFlags?$AA@ 000000018000ebb8     service.obj
 0001:0000dbc8       ??_C@_0M@BJAICPIE@ButtonState?$AA@ 000000018000ebc8     service.obj
 0001:0000dbd8       ??_C@_0P@FJMHICKO@MousePositionY?$AA@ 000000018000ebd8     service.obj
 0001:0000dbe8       ??_C@_0P@EANMLDOP@MousePositionX?$AA@ 000000018000ebe8     service.obj
 0001:0000dbf8       ??_C@_08LLJICOLD@Overtype?$AA@ 000000018000ebf8     service.obj
 0001:0000dc08       ??_C@_07GDAKJHLE@LeftPos?$AA@ 000000018000ec08     service.obj
 0001:0000dc10       ??_C@_0O@OKGGHEJK@TopScreenLine?$AA@ 000000018000ec10     service.obj
 0001:0000dc20       ??_C@_09EGONKHKB@CurTabPos?$AA@ 000000018000ec20     service.obj
 0001:0000dc2c       ??_C@_06EDBJMJDC@CurPos?$AA@ 000000018000ec2c     service.obj
 0001:0000dc38       ??_C@_07EEJLMCNH@CurLine?$AA@ 000000018000ec38     service.obj
 0001:0000dc40       __real@43f0000000000000    000000018000ec40     service.obj
 0001:0000dc48       ??_C@_0L@JLHCLFBG@PluginGuid?$AA@ 000000018000ec48     service.obj
 0001:0000dc58       ??_C@_09HOIHBHIM@ModuleDir?$AA@ 000000018000ec58     service.obj
 0001:0000dc68       ??_C@_0L@GEIEADPN@ModuleName?$AA@ 000000018000ec68     service.obj
 0001:0000dc78       ??_C@_08CPAOHJDL@CurState?$AA@ 000000018000ec78     service.obj
 0001:0000dc88       ??_C@_0BF@ODFKBFAK@SessionBookmarkCount?$AA@ 000000018000ec88     service.obj
 0001:0000dca0       ??_C@_0O@EBLDFOPH@BookmarkCount?$AA@ 000000018000eca0     service.obj
 0001:0000dcb0       ??_C@_07FLDNELFM@TabSize?$AA@ 000000018000ecb0     service.obj
 0001:0000dcb8       ??_C@_07KHIHFBFN@Options?$AA@ 000000018000ecb8     service.obj
 0001:0000dcc0       ??_C@_0P@GAEEHNHE@BlockStartLine?$AA@ 000000018000ecc0     service.obj
 0001:0000dcd0       ??_C@_09HKBEFIPN@BlockType?$AA@ 000000018000ecd0     service.obj
 0001:0000dce0       __real@3ff0000000000000    000000018000ece0     service.obj
 0001:0000dce8       ??_C@_0L@PMKENHMA@TotalLines?$AA@ 000000018000ece8     service.obj
 0001:0000dcf8       ??_C@_0M@DGCKFKDM@WindowSizeY?$AA@ 000000018000ecf8     service.obj
 0001:0000dd08       ??_C@_0M@CPDBGLHN@WindowSizeX?$AA@ 000000018000ed08     service.obj
 0001:0000dd18       ??_C@_08GGMFPBHM@EditorID?$AA@ 000000018000ed18     service.obj
 0001:0000dd28       ??_C@_09IBGOAAEM@StringEOL?$AA@ 000000018000ed28     service.obj
 0001:0000dd38       ??_C@_0L@IFNFGDGN@StringText?$AA@ 000000018000ed38     service.obj
 0001:0000dd44       ??_C@_06JLEHDHII@SelEnd?$AA@ 000000018000ed44     service.obj
 0001:0000dd50       ??_C@_08JPMALCFA@SelStart?$AA@ 000000018000ed50     service.obj
 0001:0000dd60       ??_C@_0N@DAJMJAE@StringLength?$AA@ 000000018000ed60     service.obj
 0001:0000dd70       ??_C@_0CG@LAKEGANL@must?5be?5?8redraw?8?0?5?8restore?8?0?5or?5@ 000000018000ed70     service.obj
 0001:0000dd98       ??_C@_07HICINA@restore?$AA@ 000000018000ed98     service.obj
 0001:0000dda0       ??_C@_06MFLCIING@redraw?$AA@ 000000018000eda0     service.obj
 0001:0000dda8       ??_C@_0L@GDDEHGKI@ScreenLine?$AA@ 000000018000eda8     service.obj
 0001:0000ddb4       ??_C@_06OIIFPIKD@Cursor?$AA@ 000000018000edb4     service.obj
 0001:0000ddbc       ??_C@_04LIDDHMOL@Line?$AA@ 000000018000edbc     service.obj
 0001:0000ddc8       ??_C@_0M@NKKGBDGK@BlockHeight?$AA@ 000000018000edc8     service.obj
 0001:0000ddd8       ??_C@_0L@EKLJJHPF@BlockWidth?$AA@ 000000018000edd8     service.obj
 0001:0000dde8       ??_C@_0O@CIAFMMMB@BlockStartPos?$AA@ 000000018000ede8     service.obj
 0001:0000ddf8       ??_C@_06KGHIGMHC@EndPos?$AA@ 000000018000edf8     service.obj
 0001:0000de00       ??_C@_07DCKCOCOC@EndLine?$AA@ 000000018000ee00     service.obj
 0001:0000de08       ??_C@_08JBNOANJG@StartPos?$AA@ 000000018000ee08     service.obj
 0001:0000de18       ??_C@_09JFPCGCOC@StartLine?$AA@ 000000018000ee18     service.obj
 0001:0000de28       ??_C@_0BA@DPMBBMBG@BackgroundColor?$AA@ 000000018000ee28     service.obj
 0001:0000de38       ??_C@_0BA@HNIJJEO@ForegroundColor?$AA@ 000000018000ee38     service.obj
 0001:0000de48       ??_C@_0O@NHKEGDJF@GUID?5required?$AA@ 000000018000ee48     service.obj
 0001:0000de58       __real@41e0000000000000    000000018000ee58     service.obj
 0001:0000de60       ??_C@_0BJ@BMOGHFAN@table?5or?5number?5expected?$AA@ 000000018000ee60     service.obj
 0001:0000de7c       ??_C@_05PDOBBJNA@Color?$AA@ 000000018000ee7c     service.obj
 0001:0000de88       ??_C@_08KGEIBGG@Priority?$AA@ 000000018000ee88     service.obj
 0001:0000de98       ??_C@_0M@PBJKDIHH@UnicodeChar?$AA@ 000000018000ee98     service.obj
 0001:0000dea8       ??_C@_0BA@KCCLHPM@VirtualScanCode?$AA@ 000000018000eea8     service.obj
 0001:0000deb8       ??_C@_0M@FGGHEADP@RepeatCount?$AA@ 000000018000eeb8     service.obj
 0001:0000dec8       ??_C@_07HPHPOAEG@KeyDown?$AA@ 000000018000eec8     service.obj
 0001:0000ded0       ??_C@_05HBOCJOBH@SizeY?$AA@ 000000018000eed0     service.obj
 0001:0000ded8       ??_C@_05GIPJKPFG@SizeX?$AA@ 000000018000eed8     service.obj
 0001:0000dee0       ??_C@_09GEJJJAHL@CommandId?$AA@ 000000018000eee0     service.obj
 0001:0000def0       ??_C@_08GPNNBNIL@SetFocus?$AA@ 000000018000eef0     service.obj
 0001:0000df00       ??_C@_09KDLBEGCN@EventType?$AA@ 000000018000ef00     service.obj
 0001:0000df10       ??_C@_0M@BEDENHPD@invalid?5key?$AA@ 000000018000ef10     service.obj
 0001:0000df20       ??_C@_08PNHLLJE@BreakKey?$AA@ 000000018000ef20     service.obj
 0001:0000df30       ??_C@_08MMCKBNNI@AccelKey?$AA@ 000000018000ef30     service.obj
 0001:0000df3c       ??_C@_06JIKFICKK@hidden?$AA@ 000000018000ef3c     service.obj
 0001:0000df44       ??_C@_06JHIAOIKD@grayed?$AA@ 000000018000ef44     service.obj
 0001:0000df50       ??_C@_07DBNODEFN@disable?$AA@ 000000018000ef50     service.obj
 0001:0000df58       ??_C@_09MOAJOJKN@separator?$AA@ 000000018000ef58     service.obj
 0001:0000df68       ??_C@_07FJOBMBFC@checked?$AA@ 000000018000ef68     service.obj
 0001:0000df70       ??_C@_02HOGEDOAB@Id?$AA@   000000018000ef70     service.obj
 0001:0000df78       ??_C@_0M@GGMLPAIK@SelectIndex?$AA@ 000000018000ef78     service.obj
 0001:0000df88       ??_C@_09CFELDMD@HelpTopic?$AA@ 000000018000ef88     service.obj
 0001:0000df94       ??_C@_06DDHCBBGN@Bottom?$AA@ 000000018000ef94     service.obj
 0001:0000dfa0       ??_C@_09FDAFFNEA@MaxHeight?$AA@ 000000018000efa0     service.obj
 0001:0000dfb0       ??_C@_0BF@OOLFJKGP@must?5be?5table?5or?5nil?$AA@ 000000018000efb0     service.obj
 0001:0000dfc8       ??_C@_19IBCFILMC@?$AAM?$AAe?$AAn?$AAu?$AA?$AA@ 000000018000efc8     service.obj
 0001:0000dfd8       ??_C@_1BI@KMMIHPHF@?$AAR?$AAe?$AAt?$AAr?$AAy?$AAC?$AAa?$AAn?$AAc?$AAe?$AAl?$AA?$AA@ 000000018000efd8     service.obj
 0001:0000dff0       ??_C@_1BI@BNDFIGCI@?$AAY?$AAe?$AAs?$AAN?$AAo?$AAC?$AAa?$AAn?$AAc?$AAe?$AAl?$AA?$AA@ 000000018000eff0     service.obj
 0001:0000e008       ??_C@_1M@GGPOIMAD@?$AAY?$AAe?$AAs?$AAN?$AAo?$AA?$AA@ 000000018000f008     service.obj
 0001:0000e018       ??_C@_1CC@HODOHOHB@?$AAA?$AAb?$AAo?$AAr?$AAt?$AAR?$AAe?$AAt?$AAr?$AAy?$AAI?$AAg?$AAn?$AAo?$AAr?$AAe?$AA?$AA@ 000000018000f018     service.obj
 0001:0000e040       ??_C@_1BC@IBCAPFAE@?$AAO?$AAk?$AAC?$AAa?$AAn?$AAc?$AAe?$AAl?$AA?$AA@ 000000018000f040     service.obj
 0001:0000e054       ??_C@_15FMBEJGOH@?$AAO?$AAk?$AA?$AA@ 000000018000f054     service.obj
 0001:0000e060       ??_C@_1M@ILHOPKA@?$AAE?$AAr?$AAr?$AAo?$AAr?$AA?$AA@ 000000018000f060     service.obj
 0001:0000e06c       ??_C@_15JCKODCLA@?$AA?6?$AA?7?$AA?$AA@ 000000018000f06c     service.obj
 0001:0000e078       ??_C@_19FFLPMPBO@?$AA?6?$AA?5?$AA?5?$AA?5?$AA?$AA@ 000000018000f078     service.obj
 0001:0000e084       ??_C@_15IEGBJKPD@?$AA?3?$AA?6?$AA?$AA@ 000000018000f084     service.obj
 0001:0000e090       ??_C@_1DG@LMKDDADI@?$AA?$DM?$AAn?$AAo?$AAn?$AA?9?$AAs?$AAt?$AAr?$AAi?$AAn?$AAg?$AA?5?$AAe?$AAr?$AAr?$AAo?$AAr?$AA?5?$AAm?$AAe?$AAs?$AAs?$AAa?$AAg?$AAe?$AA?$DO?$AA?$AA@ 000000018000f090     service.obj
 0001:0000e0c8       ??_C@_17PAGBAIDI@?$AA?$DL?$AAO?$AAK?$AA?$AA@ 000000018000f0c8     service.obj
 0001:0000e0d0       ??_C@_1BA@HHOMBECE@?$AAM?$AAe?$AAs?$AAs?$AAa?$AAg?$AAe?$AA?$AA@ 000000018000f0d0     service.obj
 0001:0000e0e0       ??_C@_0BJ@JOELOGM@cannot?5convert?5to?5string?$AA@ 000000018000f0e0     service.obj
 0001:0000e100       ??_C@_08FNIIFOJC@tostring?$AA@ 000000018000f100     service.obj
 0001:0000e110       ??_C@_08CENECNJD@SortMode?$AA@ 000000018000f110     service.obj
 0001:0000e120       ??_C@_08IMMBLBLF@ViewMode?$AA@ 000000018000f120     service.obj
 0001:0000e130       ??_C@_0N@CDHIFJIH@TopPanelItem?$AA@ 000000018000f130     service.obj
 0001:0000e140       ??_C@_0M@JMILNLLF@CurrentItem?$AA@ 000000018000f140     service.obj
 0001:0000e150       ??_C@_0BE@EOBAHHNK@SelectedItemsNumber?$AA@ 000000018000f150     service.obj
 0001:0000e168       ??_C@_0M@DDGFKGKJ@ItemsNumber?$AA@ 000000018000f168     service.obj
 0001:0000e178       ??_C@_09MCEJMINN@PanelRect?$AA@ 000000018000f178     service.obj
 0001:0000e184       ??_C@_06PMMPCIPB@bottom?$AA@ 000000018000f184     service.obj
 0001:0000e18c       ??_C@_05DHJDAOHK@right?$AA@ 000000018000f18c     service.obj
 0001:0000e194       ??_C@_03FGFCOCMD@top?$AA@  000000018000f194     service.obj
 0001:0000e198       ??_C@_04GOOOJOPP@left?$AA@ 000000018000f198     service.obj
 0001:0000e1a0       ??_C@_09BKHPOLGD@PanelType?$AA@ 000000018000f1a0     service.obj
 0001:0000e1b0       ??_C@_0N@CCPLCIHE@PluginHandle?$AA@ 000000018000f1b0     service.obj
 0001:0000e1c0       ??_C@_09ENKGJCEC@OwnerGuid?$AA@ 000000018000f1c0     service.obj
 0001:0000e1d0       ??_C@_08HGEAFCFN@PluginId?$AA@ 000000018000f1d0     service.obj
 0001:0000e1dc       ??_C@_04PBAHLACE@File?$AA@ 000000018000f1dc     service.obj
 0001:0000e1e4       ??_C@_05LOJBNELM@Param?$AA@ 000000018000f1e4     service.obj
 0001:0000e1ec       ??_C@_04FABLJDN@Name?$AA@  000000018000f1ec     service.obj
 0001:0000e1f8       ??_C@_0BA@MLHECKCE@table?5or?5string?$AA@ 000000018000f1f8     service.obj
 0001:0000e208       ??_C@_0BA@GNKNKKDM@number?5or?5table?$AA@ 000000018000f208     service.obj
 0001:0000e218       ??_C@_0BD@CKJHMJBG@non?9positive?5index?$AA@ 000000018000f218     service.obj
 0001:0000e230       ??_C@_0CI@DDAJHJKO@?$CFs?5?9?5unsupported?5type?5in?5dialog?5@ 000000018000f230     service.obj
 0001:0000e258       ??_C@_0CD@JIANOKII@unsupported?5flag?5in?5dialog?5item?5@ 000000018000f258     service.obj
 0001:0000e280       ??_C@_0CB@EOGFCCCC@value?5at?5index?5?$CFd?5is?5not?5a?5table@ 000000018000f280     service.obj
 0001:0000e2a8       ??_C@_0O@FEBHKEHB@closed?5dialog?$AA@ 000000018000f2a8     service.obj
 0001:0000e2b8       ??_C@_0BK@NEMPGLFN@operation?5not?5implemented?$AA@ 000000018000f2b8     service.obj
 0001:0000e2d4       ??_C@_05FNNGFGLF@Index?$AA@ 000000018000f2d4     service.obj
 0001:0000e2e0       ??_C@_09OGCBKCAK@MaxLength?$AA@ 000000018000f2e0     service.obj
 0001:0000e2ec       ??_C@_06DJONBJOP@TopPos?$AA@ 000000018000f2ec     service.obj
 0001:0000e2f8       ??_C@_09IMOCKOO@SelectPos?$AA@ 000000018000f2f8     service.obj
 0001:0000e308       ??_C@_07NOCIGAPP@Pattern?$AA@ 000000018000f308     service.obj
 0001:0000e310       ??_C@_05IJGIMMHE@Count?$AA@ 000000018000f310     service.obj
 0001:0000e318       ??_C@_0L@CECHCPAP@StartIndex?$AA@ 000000018000f318     service.obj
 0001:0000e328       ??_C@_0CK@JHNDGJBB@element?5?$CD?$CFd?5in?5argument?5?$CD4?5is?5no@ 000000018000f328     service.obj
 0001:0000e354       ??_C@_05DADPALEM@Right?$AA@ 000000018000f354     service.obj
 0001:0000e35c       ??_C@_03PGGAENPN@Top?$AA@  000000018000f35c     service.obj
 0001:0000e360       ??_C@_04KPCPLBPL@Left?$AA@ 000000018000f360     service.obj
 0001:0000e368       ??_C@_05LPIJGKJ@Value?$AA@ 000000018000f368     service.obj
 0001:0000e370       ??_C@_07MMLMCDAI@ValType?$AA@ 000000018000f370     service.obj
 0001:0000e378       ??_C@_07GHGHLGFI@GetType?$AA@ 000000018000f378     service.obj
 0001:0000e380       ??_C@_0P@NABDHFON@getvaluestring?$AA@ 000000018000f380     service.obj
 0001:0000e390       ??_C@_0L@LPFMIAHH@helpstring?$AA@ 000000018000f390     service.obj
 0001:0000e3a0       ??_C@_0BJ@IINAPFDG@Items?$FL?$CFd?$FN?5is?5not?5a?5table?$AA@ 000000018000f3a0     service.obj
 0001:0000e3c0       ??_C@_0CC@GBOJFNBI@error?5occured?5in?5dialog?5procedur@ 000000018000f3c0     service.obj
 0001:0000e3e8       ??_C@_0M@EHMONPJO@?$CFs?5?$CIclosed?$CJ?$AA@ 000000018000f3e8     service.obj
 0001:0000e3f8       ??_C@_07FBAHDBGN@CurMode?$AA@ 000000018000f3f8     service.obj
 0001:0000e400       ??_C@_07MJHBHMFM@FilePos?$AA@ 000000018000f400     service.obj
 0001:0000e408       ??_C@_08GDAJJKGC@ViewerID?$AA@ 000000018000f408     service.obj
 0001:0000e414       ??_C@_06IMBBKDFH@iParam?$AA@ 000000018000f414     service.obj
 0001:0000e420       ??_C@_1CA@PCDNIBFH@?$AAE?$AAn?$AAt?$AAe?$AAr?$AA?5?$AAt?$AAh?$AAe?$AA?5?$AAt?$AAe?$AAx?$AAt?$AA?3?$AA?$AA@ 000000018000f420     service.obj
 0001:0000e440       ??_C@_1BE@CGKCNEEP@?$AAI?$AAn?$AAp?$AAu?$AAt?$AA?5?$AAB?$AAo?$AAx?$AA?$AA@ 000000018000f440     service.obj
 0001:0000e458       ??_C@_0BG@GAFLOAPP@command?5not?5supported?$AA@ 000000018000f458     service.obj
 0001:0000e470       ??_C@_08NNKIOIN@TypeName?$AA@ 000000018000f470     service.obj
 0001:0000e47c       ??_C@_03FCCPIJGJ@Pos?$AA@  000000018000f47c     service.obj
 0001:0000e480       ??_C@_0P@DJOANNIK@?$CFd?4?$CFd?4?$CFd?4?$CFd?4?$CFd?$AA@ 000000018000f480     service.obj
 0001:0000e490       ??_C@_05KGEAEGFG@Total?$AA@ 000000018000f490     service.obj
 0001:0000e498       __real@4059000000000000    000000018000f498     service.obj
 0001:0000e4a0       ??_C@_09MIJAKHKB@Completed?$AA@ 000000018000f4a0     service.obj
 0001:0000e4ac       ??_C@_06HBEFEBCM@ErrSrc?$AA@ 000000018000f4ac     service.obj
 0001:0000e4b8       ??_C@_07KACFJJFN@ErrPosY?$AA@ 000000018000f4b8     service.obj
 0001:0000e4c0       ??_C@_07LJDOKIBM@ErrPosX?$AA@ 000000018000f4c0     service.obj
 0001:0000e4c8       ??_C@_07ONPPLIAF@ErrCode?$AA@ 000000018000f4c8     service.obj
 0001:0000e4d0       ??_C@_03CAOIPBNL@arg?$AA@  000000018000f4d0     service.obj
 0001:0000e4d4       ??_C@_04CIMGMMMG@text?$AA@ 000000018000f4d4     service.obj
 0001:0000e4dc       ??_C@_06GBEMGMMA@?$CF?$CKd?$CFs?5?$AA@ 000000018000f4dc     service.obj
 0001:0000e4e8       ??_C@_0CH@OINAPBOJ@tostring?$CI?$CJ?5returned?5a?5non?9string@ 000000018000f4e8     service.obj
 0001:0000e510       ??_C@_0CC@JIGPFMKG@global?5?$GAtostring?8?5is?5not?5functio@ 000000018000f510     service.obj
 0001:0000e534       ??_C@_06LDIMCHFC@?$CF?$CKs?$CFs?5?$AA@ 000000018000f534     service.obj
 0001:0000e540       ??_C@_0ME@JDKAEDFJ@local?5items?0n?$DN?4?4?4?6local?5bottom?$DNn@ 000000018000f540     service.obj
 0001:0000e608       ??_C@_0CG@FGNNCNLL@attempt?5to?5access?5invalid?5file?5f@ 000000018000f608     service.obj
 0001:0000e630       ??_C@_07BJOIOONN@Strings?$AA@ 000000018000f630     service.obj
 0001:0000e638       ??_C@_05HMEFBOHK@GInfo?$AA@ 000000018000f638     service.obj
 0001:0000e640       ??_C@_05GCJGCMFJ@PInfo?$AA@ 000000018000f640     service.obj
 0001:0000e648       ??_C@_0N@IEACHFBM@PluginConfig?$AA@ 000000018000f648     service.obj
 0001:0000e658       ??_C@_0L@NHENMPLN@PluginMenu?$AA@ 000000018000f658     service.obj
 0001:0000e668       ??_C@_08FGAFMHLF@DiskMenu?$AA@ 000000018000f668     service.obj
 0001:0000e678       ??_C@_0N@GAMEMCEE@invalid?5GUID?$AA@ 000000018000f678     service.obj
 0001:0000e688       ??_C@_0BP@NJEEOHDB@attempt?5to?5access?5closed?5timer?$AA@ 000000018000f688     service.obj
 0001:0000e6a8       ??_C@_0CE@LHJCBGGH@attempt?5to?5call?5non?9existent?5met@ 000000018000f6a8     service.obj
 0001:0000e6cc       ??_C@_06EFCDMIMC@Closed?$AA@ 000000018000f6cc     service.obj
 0001:0000e6d8       ??_C@_07CIINKFND@OnTimer?$AA@ 000000018000f6d8     service.obj
 0001:0000e6e0       ??_C@_08KDKDEPAG@Interval?$AA@ 000000018000f6e0     service.obj
 0001:0000e6f0       ??_C@_07DOAOMMKG@Enabled?$AA@ 000000018000f6f0     service.obj
 0001:0000e6f8       ??_C@_05LGELBCGM@Close?$AA@ 000000018000f6f8     service.obj
 0001:0000e700       ??_C@_0BO@PNFLEJKN@attempt?5to?5access?5a?5closed?5?$CFs?$AA@ 000000018000f700     service.obj
 0001:0000e720       ??_C@_04LADJNOK@Lock?$AA@  000000018000f720     service.obj
 0001:0000e728       ??_C@_04OKOFBOPB@Time?$AA@ 000000018000f728     service.obj
 0001:0000e730       ??_C@_1CC@OPOAGCKN@?$AA?2?$AAl?$AAu?$AAa?$AAf?$AAa?$AAr?$AA_?$AAi?$AAn?$AAi?$AAt?$AA?4?$AAl?$AAu?$AAa?$AA?$AA@ 000000018000f730     service.obj
 0001:0000e758       ??_C@_1BG@BDOBMIBP@?$AAF?$AAA?$AAR?$AAP?$AAR?$AAO?$AAF?$AAI?$AAL?$AAE?$AA?$AA@ 000000018000f758     service.obj
 0001:0000e770       ??_C@_08BNNFLGCJ@loadfile?$AA@ 000000018000f770     service.obj
 0001:0000e77c       ??_C@_06ONNDGCDK@dofile?$AA@ 000000018000f77c     service.obj
 0001:0000e784       ??_C@_04LHHHFLPP@utf8?$AA@ 000000018000f784     service.obj
 0001:0000e78c       ??_C@_03OFAPEBGM@?$CFs?6?$AA@ 000000018000f78c     service.obj
 0001:0000e790       ??_C@_06BPGFKLEK@__mode?$AA@ 000000018000f790     service.obj
 0001:0000e798       ??_C@_01DICPFPGM@k?$AA@    000000018000f798     service.obj
 0001:0000e79c       ??_C@_06DGPPOJKF@viewer?$AA@ 000000018000f79c     service.obj
 0001:0000e7a4       ??_C@_06GIFLLBB@editor?$AA@ 000000018000f7a4     service.obj
 0001:0000e7b0       ??_C@_0BC@JJHHFNMP@FarMacroCallToLua?$AA@ 000000018000f7b0     service.obj
 0001:0000e7c8       ??_C@_0N@ECMJOJJG@MacroCallFar?$AA@ 000000018000f7c8     service.obj
 0001:0000e7d8       ??_C@_09GCBMKPBD@utf8valid?$AA@ 000000018000f7d8     slnunico.obj
 0001:0000e7e4       ??_C@_05NECKJAMC@upper?$AA@ 000000018000f7e4     slnunico.obj
 0001:0000e7f0       ??_C@_07KOIEOCCE@reverse?$AA@ 000000018000f7f0     slnunico.obj
 0001:0000e7f8       ??_C@_03HOKODIMJ@rep?$AA@  000000018000f7f8     slnunico.obj
 0001:0000e7fc       ??_C@_05IPJEPLHL@lower?$AA@ 000000018000f7fc     slnunico.obj
 0001:0000e804       ??_C@_03BKCJCHLK@len?$AA@  000000018000f804     slnunico.obj
 0001:0000e808       ??_C@_05EIEIBDFD@gfind?$AA@ 000000018000f808     slnunico.obj
 0001:0000e810       ??_C@_06DLEPGFEF@format?$AA@ 000000018000f810     slnunico.obj
 0001:0000e818       ??_C@_04GGLOKIEE@dump?$AA@ 000000018000f818     slnunico.obj
 0001:0000e820       ??_C@_04ENMBGAPA@char?$AA@ 000000018000f820     slnunico.obj
 0001:0000e828       ??_C@_04IHGKJMLH@byte?$AA@ 000000018000f828     slnunico.obj
 0001:0000e940       ??_C@_04GMGOKAFF@mode?$AA@ 000000018000f940     slnunico.obj
 0001:0000e948       ??_C@_0BG@DFAIEAEC@string?5slice?5too?5long?$AA@ 000000018000f948     slnunico.obj
 0001:0000e960       ??_C@_0O@EAJJMEEM@invalid?5value?$AA@ 000000018000f960     slnunico.obj
 0001:0000e970       ??_C@_0BO@BNLBHKJN@unable?5to?5dump?5given?5function?$AA@ 000000018000f970     slnunico.obj
 0001:0000e990       ??_C@_0BG@LEHNKOGD@invalid?5capture?5index?$AA@ 000000018000f990     slnunico.obj
 0001:0000e9a8       ??_C@_0BI@ECNPHIBF@invalid?5pattern?5capture?$AA@ 000000018000f9a8     slnunico.obj
 0001:0000e9c0       ??_C@_0CD@PLJBIEHA@malformed?5pattern?5?$CIends?5with?5?8?$CF?$CF@ 000000018000f9c0     slnunico.obj
 0001:0000e9e8       ??_C@_0CA@CFGACOGB@malformed?5pattern?5?$CImissing?5?8?$FN?8?$CJ?$AA@ 000000018000f9e8     slnunico.obj
 0001:0000ea08       ??_C@_0BD@NGJIMPLI@unbalanced?5pattern?$AA@ 000000018000fa08     slnunico.obj
 0001:0000ea20       ??_C@_0BC@IMEAEJPD@too?5many?5captures?$AA@ 000000018000fa20     slnunico.obj
 0001:0000ea38       ??_C@_0BD@BFKNEALP@unfinished?5capture?$AA@ 000000018000fa38     slnunico.obj
 0001:0000ea50       ??_C@_0L@NLFJOONJ@?$FO$?$CK?$CL?$DP?4?$CI?$FL?$CF?9?$AA@ 000000018000fa50     slnunico.obj
 0001:0000ea60       ??_C@_0CO@MAGJPEI@?8string?4gfind?8?5was?5renamed?5to?5?8s@ 000000018000fa60     slnunico.obj
 0001:0000ea90       ??_C@_0BP@PPPOBACA@string?1function?1table?5expected?$AA@ 000000018000fa90     slnunico.obj
 0001:0000eab0       ??_C@_0CB@LPDIHGGA@invalid?5replacement?5value?5?$CIa?5?$CFs?$CJ@ 000000018000fab0     slnunico.obj
 0001:0000ead4       ??_C@_04MPDIABOK@?2000?$AA@ 000000018000fad4     slnunico.obj
 0001:0000eadc       ??_C@_02HIBBOKEN@?2r?$AA@  000000018000fadc     slnunico.obj
 0001:0000eae0       ??_C@_0CN@KALFEKPN@invalid?5format?5?$CIwidth?5or?5precisi@ 000000018000fae0     slnunico.obj
 0001:0000eb10       ??_C@_0CA@COOMGCAO@invalid?5format?5?$CIrepeated?5flags?$CJ?$AA@ 000000018000fb10     slnunico.obj
 0001:0000eb30       ??_C@_05GGBDHNF@?9?$CL?5?$CD0?$AA@ 000000018000fb30     slnunico.obj
 0001:0000eb38       ??_C@_0CC@KIPBEOBI@invalid?5option?5?8?$CF?$CF?$CFc?8?5to?5?8format@ 000000018000fb38     slnunico.obj
 0001:0000eb60       ??_C@_0N@DKIDGKBP@unicode?4utf8?$AA@ 000000018000fb60     slnunico.obj
 0001:0000eb70       ??_C@_0BB@EFCDCNG@unicode?4grapheme?$AA@ 000000018000fb70     slnunico.obj
 0001:0000eb88       ??_C@_0P@CMOFLLND@unicode?4latin1?$AA@ 000000018000fb88     slnunico.obj
 0001:0000eb98       ??_C@_0O@EJMKHGFJ@unicode?4ascii?$AA@ 000000018000fb98     slnunico.obj
 0001:0000eba8       ??_C@_07HHBPNGAN@setvbuf?$AA@ 000000018000fba8     uliolib51.obj
 0001:0000ebb0       ??_C@_04EDECCOGL@seek?$AA@ 000000018000fbb0     uliolib51.obj
 0001:0000ebb8       ??_C@_05NGFEDHGN@write?$AA@ 000000018000fbb8     uliolib51.obj
 0001:0000ebc0       ??_C@_07FKJPAINK@tmpfile?$AA@ 000000018000fbc0     uliolib51.obj
 0001:0000ebc8       ??_C@_05IACAFMHP@popen?$AA@ 000000018000fbc8     uliolib51.obj
 0001:0000ebd0       ??_C@_05DENOCHIP@lines?$AA@ 000000018000fbd0     uliolib51.obj
 0001:0000ebd8       ??_C@_05GLCAEPFP@flush?$AA@ 000000018000fbd8     uliolib51.obj
 0001:0000ebe0       ??_C@_05LBOHBHFK@close?$AA@ 000000018000fbe0     uliolib51.obj
 0001:0000ebe8       ??_C@_04HJPCFDOP@line?$AA@ 000000018000fbe8     uliolib51.obj
 0001:0000ebf0       ??_C@_04PLMLMMEO@full?$AA@ 000000018000fbf0     uliolib51.obj
 0001:0000ebf8       ??_C@_02KAJCLHKP@no?$AA@   000000018000fbf8     uliolib51.obj
 0001:0000ebfc       ??_C@_03JBJLGPFL@end?$AA@  000000018000fbfc     uliolib51.obj
 0001:0000ec00       ??_C@_03LIBLMJMB@cur?$AA@  000000018000fc00     uliolib51.obj
 0001:0000ec04       ??_C@_03KCHOJKKI@set?$AA@  000000018000fc04     uliolib51.obj
 0001:0000ec08       ??_C@_06DKIGHACF@output?$AA@ 000000018000fc08     uliolib51.obj
 0001:0000ec10       ??_C@_05DFJCHPDH@input?$AA@ 000000018000fc10     uliolib51.obj
 0001:0000edf0       ??_C@_02DKCKIIND@?$CFs?$AA@ 000000018000fdf0     uliolib51.obj
 0001:0000edf4       ??_C@_06DJHOIPC@?$CFs?3?5?$CFs?$AA@ 000000018000fdf4     uliolib51.obj
 0001:0000edfc       ??_C@_04DAMGJPCA@file?$AA@ 000000018000fdfc     uliolib51.obj
 0001:0000ee08       ??_C@_0M@IBKPHHKH@closed?5file?$AA@ 000000018000fe08     uliolib51.obj
 0001:0000ee14       ??_C@_05KCHOJJD@FILE?$CK?$AA@ 000000018000fe14     uliolib51.obj
 0001:0000ee20       ??_C@_0BN@LPOOHAOM@attempt?5to?5use?5a?5closed?5file?$AA@ 000000018000fe20     uliolib51.obj
 0001:0000ee40       ??_C@_0BL@PEFGCPAG@cannot?5close?5standard?5file?$AA@ 000000018000fe40     uliolib51.obj
 0001:0000ee60       ??_C@_07DMJMBBKE@__close?$AA@ 000000018000fe60     uliolib51.obj
 0001:0000ee68       ??_C@_09BPMAMLLD@file?5?$CI?$CFp?$CJ?$AA@ 000000018000fe68     uliolib51.obj
 0001:0000ee78       ??_C@_0O@PLFAPHPG@file?5?$CIclosed?$CJ?$AA@ 000000018000fe78     uliolib51.obj
 0001:0000ee88       ??_C@_0CP@DHGANCPP@invalid?5mode?5?8?$CFs?8?5?$CIshould?5match?5@ 000000018000fe88     uliolib51.obj
 0001:0000eeb8       ??_C@_17OBBFBLGE@?$AAr?$AAw?$AAa?$AA?$AA@ 000000018000feb8     uliolib51.obj
 0001:0000eec0       ??_C@_0BL@JMNLNGCA@standard?5?$CFs?5file?5is?5closed?$AA@ 000000018000fec0     uliolib51.obj
 0001:0000eedc       ??_C@_13CIFDLIMG@?$AAw?$AA?$AA@ 000000018000fedc     uliolib51.obj
 0001:0000eee0       ??_C@_03DLDNIBIK@?$CFlf?$AA@ 000000018000fee0     uliolib51.obj
 0001:0000eee8       ??_C@_0P@CENJCLHM@invalid?5format?$AA@ 000000018000fee8     uliolib51.obj
 0001:0000eef8       ??_C@_0P@PJFAGLMH@invalid?5option?$AA@ 000000018000fef8     uliolib51.obj
 0001:0000ef08       ??_C@_0BD@IOJAAODF@too?5many?5arguments?$AA@ 000000018000ff08     uliolib51.obj
 0001:0000ef20       ??_C@_0BH@PBGIDLEF@file?5is?5already?5closed?$AA@ 000000018000ff20     uliolib51.obj
 0001:0000ef38       ??_C@_05CGOEHEFE@?$CF?414g?$AA@ 000000018000ff38     uliolib51.obj
 0001:0000ef40       ??_C@_06FJGNEBG@stderr?$AA@ 000000018000ff40     uliolib51.obj
 0001:0000ef48       ??_C@_06DJDOIFHB@stdout?$AA@ 000000018000ff48     uliolib51.obj
 0001:0000ef50       ??_C@_05MHOFLBOO@stdin?$AA@ 000000018000ff50     uliolib51.obj
 0001:0000ef58       ??_C@_07FFLLPPLH@require?$AA@ 000000018000ff58     uloadlib51.obj
 0001:0000ef60       ??_C@_06BIEEJMKO@module?$AA@ 000000018000ff60     uloadlib51.obj
 0001:0000ef68       ??_C@_06LNOHAKGK@seeall?$AA@ 000000018000ff68     uloadlib51.obj
 0001:0000ef70       ??_C@_07KOEABFCN@loadlib?$AA@ 000000018000ff70     uloadlib51.obj
 0001:0000f008       ??_C@_0BN@GMPFCLAN@unable?5to?5get?5ModuleFileName?$AA@ 0000000180010008     uloadlib51.obj
 0001:0000f028       ??_C@_13MGDFOILI@?$AA?$CB?$AA?$AA@ 0000000180010028     uloadlib51.obj
 0001:0000f030       ??_C@_08HNNNOMMJ@_LOADLIB?$AA@ 0000000180010030     uloadlib51.obj
 0001:0000f03c       ??_C@_04HDOCAJNK@?$CFs?$CFs?$AA@ 000000018001003c     uloadlib51.obj
 0001:0000f048       ??_C@_09GMLHALBF@LOADLIB?3?5?$AA@ 0000000180010048     uloadlib51.obj
 0001:0000f054       ??_C@_04HKFDNBLD@init?$AA@ 0000000180010054     uloadlib51.obj
 0001:0000f060       ??_C@_0P@NEBKIMDC@?6?7no?5file?5?8?$CFs?8?$AA@ 0000000180010060     uloadlib51.obj
 0001:0000f070       ??_C@_13HGPDMIBE@?$AA?$DP?$AA?$AA@ 0000000180010070     uloadlib51.obj
 0001:0000f078       ??_C@_0CE@EPEHLLIH@?8package?4?$CFs?8?5contains?5invalid?5UT@ 0000000180010078     uloadlib51.obj
 0001:0000f0a0       ??_C@_0BO@COFCKCAL@?8package?4?$CFs?8?5must?5be?5a?5string?$AA@ 00000001800100a0     uloadlib51.obj
 0001:0000f0c0       ??_C@_13JOFGPIOO@?$AA?4?$AA?$AA@ 00000001800100c0     uloadlib51.obj
 0001:0000f0c4       ??_C@_13FPGAJAPJ@?$AA?2?$AA?$AA@ 00000001800100c4     uloadlib51.obj
 0001:0000f0c8       ??_C@_0CO@KHMIPLKM@error?5loading?5module?5?8?$CFs?8?5from?5f@ 00000001800100c8     uloadlib51.obj
 0001:0000f0f8       ??_C@_04LNEJFJGI@path?$AA@ 00000001800100f8     uloadlib51.obj
 0001:0000f100       ??_C@_0L@KHKMBFOE@luaopen_?$CFs?$AA@ 0000000180010100     uloadlib51.obj
 0001:0000f10c       ??_C@_01LFCBOECM@?4?$AA@   000000018001010c     uloadlib51.obj
 0001:0000f110       ??_C@_01IDAFKMJL@_?$AA@    0000000180010110     uloadlib51.obj
 0001:0000f114       ??_C@_05EEMJHCCC@cpath?$AA@ 0000000180010114     uloadlib51.obj
 0001:0000f120       ??_C@_0BO@KOILFIGK@?6?7no?5module?5?8?$CFs?8?5in?5file?5?8?$CFs?8?$AA@ 0000000180010120     uloadlib51.obj
 0001:0000f140       ??_C@_0CB@NPNABMBF@?6?7no?5field?5package?4preload?$FL?8?$CFs?8?$FN@ 0000000180010140     uloadlib51.obj
 0001:0000f168       ??_C@_0CC@CCJHFBLH@?8package?4preload?8?5must?5be?5a?5tabl@ 0000000180010168     uloadlib51.obj
 0001:0000f190       ??_C@_0BJ@HFHHABH@module?5?8?$CFs?8?5not?5found?3?$CFs?$AA@ 0000000180010190     uloadlib51.obj
 0001:0000f1b0       ??_C@_0CC@IGEJMOFI@?8package?4loaders?8?5must?5be?5a?5tabl@ 00000001800101b0     uloadlib51.obj
 0001:0000f1d8       ??_C@_07JAOCDFCG@loaders?$AA@ 00000001800101d8     uloadlib51.obj
 0001:0000f1e0       ??_C@_0CL@DIEJCPFH@loop?5or?5previous?5error?5loading?5m@ 00000001800101e0     uloadlib51.obj
 0001:0000f210       ??_C@_07PINPBNPB@_LOADED?$AA@ 0000000180010210     uloadlib51.obj
 0001:0000f218       ??_C@_0CI@GKOMOAFD@?8module?8?5not?5called?5from?5a?5Lua?5f@ 0000000180010218     uloadlib51.obj
 0001:0000f240       ??_C@_01INIBCBCB@f?$AA@    0000000180010240     uloadlib51.obj
 0001:0000f248       ??_C@_08HONLOGDK@_PACKAGE?$AA@ 0000000180010248     uloadlib51.obj
 0001:0000f254       ??_C@_05ICMCJINN@_NAME?$AA@ 0000000180010254     uloadlib51.obj
 0001:0000f25c       ??_C@_02CCIJHOCI@_M?$AA@   000000018001025c     uloadlib51.obj
 0001:0000f260       ??_C@_0BO@CBJIAGLF@name?5conflict?5for?5module?5?8?$CFs?8?$AA@ 0000000180010260     uloadlib51.obj
 0001:0000f280       ??_C@_13GGAHEHIG@?$AA?$AB?$AA?$AA@ 0000000180010280     uloadlib51.obj
 0001:0000f284       ??_C@_15HKKNGJC@?$AA?$DL?$AA?$DL?$AA?$AA@ 0000000180010284     uloadlib51.obj
 0001:0000f290       ??_C@_17KOAMMDLI@?$AA?$DL?$AA?$AB?$AA?$DL?$AA?$AA@ 0000000180010290     uloadlib51.obj
 0001:0000f298       ??_C@_06IILMCCFO@loaded?$AA@ 0000000180010298     uloadlib51.obj
 0001:0000f2a0       ??_C@_06HEJKKHEK@config?$AA@ 00000001800102a0     uloadlib51.obj
 0001:0000f2a8       ??_C@_1BE@CKNDCMBB@?$AA?2?$AA?6?$AA?$DL?$AA?6?$AA?$DP?$AA?6?$AA?$CB?$AA?6?$AA?9?$AA?$AA@ 00000001800102a8     uloadlib51.obj
 0001:0000f2c0       ??_C@_1DM@FGPGEDD@?$AA?4?$AA?2?$AA?$DP?$AA?4?$AAd?$AAl?$AAl?$AA?$DL?$AA?$CB?$AA?2?$AA?$DP?$AA?4?$AAd?$AAl?$AAl?$AA?$DL?$AA?$CB?$AA?2?$AAl?$AAo?$AAa?$AAd?$AAa?$AAl?$AAl?$AA?4?$AAd?$AAl?$AAl?$AA?$AA@ 00000001800102c0     uloadlib51.obj
 0001:0000f300       ??_C@_1BE@EFNILHBI@?$AAL?$AAU?$AAA?$AA_?$AAC?$AAP?$AAA?$AAT?$AAH?$AA?$AA@ 0000000180010300     uloadlib51.obj
 0001:0000f320       ??_C@_1HE@JLDBNBHO@?$AA?4?$AA?2?$AA?$DP?$AA?4?$AAl?$AAu?$AAa?$AA?$DL?$AA?$CB?$AA?2?$AAl?$AAu?$AAa?$AA?2?$AA?$DP?$AA?4?$AAl?$AAu?$AAa?$AA?$DL?$AA?$CB?$AA?2?$AAl?$AAu?$AAa?$AA?2?$AA?$DP?$AA?2?$AAi?$AAn?$AAi?$AAt@ 0000000180010320     uloadlib51.obj
 0001:0000f398       ??_C@_1BC@ILFFIBFI@?$AAL?$AAU?$AAA?$AA_?$AAP?$AAA?$AAT?$AAH?$AA?$AA@ 0000000180010398     uloadlib51.obj
 0001:0000f3ac       ??_C@_04NOFELICG@lenW?$AA@ 00000001800103ac     ustring.obj
 0001:0000f3b4       ??_C@_06FHFOAHML@system?$AA@ 00000001800103b4     ustring.obj
 0001:0000f3bc       ??_C@_04GFOHBGIO@subW?$AA@ 00000001800103bc     ustring.obj
 0001:0000f3c8       ??_C@_0BE@LJADKLBD@WideCharToMultiByte?$AA@ 00000001800103c8     ustring.obj
 0001:0000f3dc       ??_C@_04NDFIEGPL@Uuid?$AA@ 00000001800103dc     ustring.obj
 0001:0000f3e8       ??_C@_0M@GJGCILHG@Utf8ToUtf16?$AA@ 00000001800103e8     ustring.obj
 0001:0000f3f8       ??_C@_09LCEKPEGC@Utf8ToOem?$AA@ 00000001800103f8     ustring.obj
 0001:0000f408       ??_C@_0M@KJELMDJD@Utf16ToUtf8?$AA@ 0000000180010408     ustring.obj
 0001:0000f414       ??_C@_05PFDOMJEF@Sleep?$AA@ 0000000180010414     ustring.obj
 0001:0000f420       ??_C@_0M@KINCEKFL@SetFileAttr?$AA@ 0000000180010420     ustring.obj
 0001:0000f430       ??_C@_0O@IHAPJIOC@SetCurrentDir?$AA@ 0000000180010430     ustring.obj
 0001:0000f440       ??_C@_0L@PMCLJMMJ@SearchPath?$AA@ 0000000180010440     ustring.obj
 0001:0000f450       ??_C@_0BA@MNJFBAJH@SHGetFolderPath?$AA@ 0000000180010450     ustring.obj
 0001:0000f460       ??_C@_0BC@NFCPMJFM@OutputDebugString?$AA@ 0000000180010460     ustring.obj
 0001:0000f478       ??_C@_09EPINLGBH@OemToUtf8?$AA@ 0000000180010478     ustring.obj
 0001:0000f488       ??_C@_0BE@HCIKGJGE@MultiByteToWideChar?$AA@ 0000000180010488     ustring.obj
 0001:0000f4a0       ??_C@_0BD@IHIHPGDL@GlobalMemoryStatus?$AA@ 00000001800104a0     ustring.obj
 0001:0000f4b8       ??_C@_08OMCNFONF@GetOEMCP?$AA@ 00000001800104b8     ustring.obj
 0001:0000f4c8       ??_C@_0BH@KKAFOIJJ@GetLogicalDriveStrings?$AA@ 00000001800104c8     ustring.obj
 0001:0000f4e0       ??_C@_0M@KHMMJMNI@GetFileAttr?$AA@ 00000001800104e0     ustring.obj
 0001:0000f4f0       ??_C@_0N@IIBOJKJ@GetDriveType?$AA@ 00000001800104f0     ustring.obj
 0001:0000f500       ??_C@_0O@PIBBCLJF@GetCurrentDir?$AA@ 0000000180010500     ustring.obj
 0001:0000f510       ??_C@_09HLFMNDA@GetCPInfo?$AA@ 0000000180010510     ustring.obj
 0001:0000f51c       ??_C@_06FMJLOCAF@GetACP?$AA@ 000000018001051c     ustring.obj
 0001:0000f528       ??_C@_0BE@DEHGONAH@EnumSystemCodePages?$AA@ 0000000180010528     ustring.obj
 0001:0000f540       ustring_funcs              0000000180010540     ustring.obj
 0001:0000f6e0       ??_C@_0BJ@MEAJDMDL@invalid?5multibyte?5string?$AA@ 00000001800106e0     ustring.obj
 0001:0000f700       ??_C@_0BG@ELIKBHAO@invalid?5UTF?916?5string?$AA@ 0000000180010700     ustring.obj
 0001:0000f718       ??_C@_0N@IFJMFGJK@unknown?5type?$AA@ 0000000180010718     ustring.obj
 0001:0000f728       ??_C@_07BHCBOAMP@ramdisk?$AA@ 0000000180010728     ustring.obj
 0001:0000f730       ??_C@_05POABADMF@cdrom?$AA@ 0000000180010730     ustring.obj
 0001:0000f738       ??_C@_06IMIHEKN@remote?$AA@ 0000000180010738     ustring.obj
 0001:0000f740       ??_C@_05OFLEIIDM@fixed?$AA@ 0000000180010740     ustring.obj
 0001:0000f748       ??_C@_09HPGMKNKO@removable?$AA@ 0000000180010748     ustring.obj
 0001:0000f758       ??_C@_0BC@GPFCFLGN@no?5root?5directory?$AA@ 0000000180010758     ustring.obj
 0001:0000f770       ??_C@_0P@KJDDGAFH@FileAttributes?$AA@ 0000000180010770     ustring.obj
 0001:0000f780       ??_C@_07JOJHCKGP@ustring?$AA@ 0000000180010780     ustring.obj
 0001:0000f788       ??_C@_0BB@BLJKPILH@system?5error?5?$CFd?6?$AA@ 0000000180010788     ustring.obj
 0001:0000f7a0       ??_C@_0N@DJCOCBOB@CodePageName?$AA@ 00000001800107a0     ustring.obj
 0001:0000f7b0       ??_C@_0BD@CBNPFFPH@UnicodeDefaultChar?$AA@ 00000001800107b0     ustring.obj
 0001:0000f7c8       ??_C@_08HIIJAENB@LeadByte?$AA@ 00000001800107c8     ustring.obj
 0001:0000f7d8       ??_C@_0M@IMOFNPBB@DefaultChar?$AA@ 00000001800107d8     ustring.obj
 0001:0000f7e8       ??_C@_0M@KJGJBDLL@MaxCharSize?$AA@ 00000001800107e8     ustring.obj
 0001:0000f7f8       ??_C@_0BF@KKNLCGDE@AvailExtendedVirtual?$AA@ 00000001800107f8     ustring.obj
 0001:0000f810       ??_C@_0N@EGHLANBF@AvailVirtual?$AA@ 0000000180010810     ustring.obj
 0001:0000f820       ??_C@_0N@LCJEOHMM@TotalVirtual?$AA@ 0000000180010820     ustring.obj
 0001:0000f830       ??_C@_0O@LLHOKNF@AvailPageFile?$AA@ 0000000180010830     ustring.obj
 0001:0000f840       ??_C@_0O@PEEMGPEP@TotalPageFile?$AA@ 0000000180010840     ustring.obj
 0001:0000f850       ??_C@_09KFOEOLH@AvailPhys?$AA@ 0000000180010850     ustring.obj
 0001:0000f860       ??_C@_09MMAOIBBJ@TotalPhys?$AA@ 0000000180010860     ustring.obj
 0001:0000f870       ??_C@_0L@PLJFMBIJ@MemoryLoad?$AA@ 0000000180010870     ustring.obj
 0001:000100a0       ??_C@_0DJ@KKHMCMAP@bad?5field?5?$FL?$CFd?$FN?5in?5table?5stackpos@ 00000001800110a0     util.obj
 0001:000100e0       ??_C@_0DJ@PFHHGAMM@bad?5field?5?8?$CFs?8?5in?5table?5stackpos@ 00000001800110e0     util.obj
 0001:0001011c       ??_C@_06EBGNBFIA@number?$AA@ 000000018001111c     util.obj
 0001:00010124       ??_C@_06DNONFAKH@wcscmp?$AA@ 0000000180011124     win.obj
 0001:00010130       ??_C@_0BF@HBHGIPOG@SystemTimeToFileTime?$AA@ 0000000180011130     win.obj
 0001:00010148       ??_C@_0N@BFFIJKHB@ShellExecute?$AA@ 0000000180011148     win.obj
 0001:00010158       ??_C@_09ELCNCICB@SetRegKey?$AA@ 0000000180011158     win.obj
 0001:00010164       ??_C@_06LDCDJLBI@SetEnv?$AA@ 0000000180011164     win.obj
 0001:00010170       ??_C@_0L@HBAGBENL@RenameFile?$AA@ 0000000180011170     win.obj
 0001:00010180       ??_C@_09EDKALOCB@RemoveDir?$AA@ 0000000180011180     win.obj
 0001:00010190       ??_C@_08CALLHOCI@MoveFile?$AA@ 0000000180011190     win.obj
 0001:000101a0       ??_C@_0P@GGGHOPAD@GetVirtualKeys?$AA@ 00000001800111a0     win.obj
 0001:000101b0       ??_C@_0BI@ENMDHCMK@GetSystemTimeAsFileTime?$AA@ 00000001800111b0     win.obj
 0001:000101c8       ??_C@_09GFGIAJLD@GetRegKey?$AA@ 00000001800111c8     win.obj
 0001:000101d8       ??_C@_0M@EINGHLOA@GetFileInfo?$AA@ 00000001800111d8     win.obj
 0001:000101e4       ??_C@_06CALCCDMF@GetEnv?$AA@ 00000001800111e4     win.obj
 0001:000101f0       ??_C@_0BL@NAIJNMLL@GetConsoleScreenBufferInfo?$AA@ 00000001800111f0     win.obj
 0001:00010210       ??_C@_0BF@KPJNHALE@FileTimeToSystemTime?$AA@ 0000000180011210     win.obj
 0001:00010228       ??_C@_0BI@EKFDIGHI@FileTimeToLocalFileTime?$AA@ 0000000180011228     win.obj
 0001:00010240       ??_C@_0L@MGMEFCAE@ExtractKey?$AA@ 0000000180011240     win.obj
 0001:00010250       ??_C@_0N@PFFNCIBD@EnumRegValue?$AA@ 0000000180011250     win.obj
 0001:00010260       ??_C@_0L@DGAGCFOP@EnumRegKey?$AA@ 0000000180011260     win.obj
 0001:00010270       ??_C@_0N@FOJPHHPH@DeleteRegKey?$AA@ 0000000180011270     win.obj
 0001:00010280       ??_C@_0L@GPLPOFDC@DeleteFile?$AA@ 0000000180011280     win.obj
 0001:00010290       ??_C@_09INHPLKKM@CreateDir?$AA@ 0000000180011290     win.obj
 0001:000102a0       ??_C@_08PPLNFCGA@CopyFile?$AA@ 00000001800112a0     win.obj
 0001:000102b0       ??_C@_0O@CFPMOCDP@CompareString?$AA@ 00000001800112b0     win.obj
 0001:00010ae0       win_funcs                  0000000180011ae0     win.obj
 0001:00010c70       ??_C@_0DA@DKALLFDI@must?5be?5?8HKLM?8?0?5?8HKCC?8?0?5?8HKCR?8?0?5@ 0000000180011c70     win.obj
 0001:00010ca0       ??_C@_03DLBIJLAB@HKU?$AA@  0000000180011ca0     win.obj
 0001:00010ca4       ??_C@_04KIFLFONO@HKCU?$AA@ 0000000180011ca4     win.obj
 0001:00010cac       ??_C@_04OHBKMIBJ@HKCR?$AA@ 0000000180011cac     win.obj
 0001:00010cb4       ??_C@_04LEMDOLAJ@HKCC?$AA@ 0000000180011cb4     win.obj
 0001:00010cbc       ??_C@_04CBBMIBLK@HKLM?$AA@ 0000000180011cbc     win.obj
 0001:00010cc8       ??_C@_0BH@NOJOGNJM@unsupported?5value?5type?$AA@ 0000000180011cc8     win.obj
 0001:00010ce0       ??_C@_0M@PEGIPCHN@multistring?$AA@ 0000000180011ce0     win.obj
 0001:00010cf0       ??_C@_0N@CBOMHLPN@expandstring?$AA@ 0000000180011cf0     win.obj
 0001:00010d00       ??_C@_06FNFBAEBE@binary?$AA@ 0000000180011d00     win.obj
 0001:00010d08       ??_C@_05KDALNKAH@dword?$AA@ 0000000180011d08     win.obj
 0001:00010d10       ??_C@_0BI@COLHBIIE@RegQueryValueEx?5failed?4?$AA@ 0000000180011d10     win.obj
 0001:00010d28       ??_C@_0BD@MJODDCFG@OpenRegKey?5failed?4?$AA@ 0000000180011d28     win.obj
 0001:00010d40       ??_C@_0BG@HHFHBIKG@RegOpenKeyExW?5failed?4?$AA@ 0000000180011d40     win.obj
 0001:00010d58       __real@41f0000000000000    0000000180011d58     win.obj
 0001:00010d60       ??_C@_0O@HBAPEOKP@wMilliseconds?$AA@ 0000000180011d60     win.obj
 0001:00010d70       ??_C@_07IIEDHHJN@wSecond?$AA@ 0000000180011d70     win.obj
 0001:00010d78       ??_C@_07HPODENI@wMinute?$AA@ 0000000180011d78     win.obj
 0001:00010d80       ??_C@_05BMOPCGDH@wHour?$AA@ 0000000180011d80     win.obj
 0001:00010d88       ??_C@_04NBLBJIPP@wDay?$AA@ 0000000180011d88     win.obj
 0001:00010d90       ??_C@_0L@OAHPHHP@wDayOfWeek?$AA@ 0000000180011d90     win.obj
 0001:00010d9c       ??_C@_06MGNNJGBJ@wMonth?$AA@ 0000000180011d9c     win.obj
 0001:00010da4       ??_C@_05DFPNHDMN@wYear?$AA@ 0000000180011da4     win.obj
 0001:00010dac       ??_C@_01LKDEMHDF@s?$AA@    0000000180011dac     win.obj
 0001:00010db0       ??_C@_0BD@BKPAAFMJ@MaximumWindowSizeY?$AA@ 0000000180011db0     win.obj
 0001:00010dc8       ??_C@_0BD@DOLDEII@MaximumWindowSizeX?$AA@ 0000000180011dc8     win.obj
 0001:00010de0       ??_C@_0N@JPIJCAOJ@WindowBottom?$AA@ 0000000180011de0     win.obj
 0001:00010df0       ??_C@_0M@HHPHMPGH@WindowRight?$AA@ 0000000180011df0     win.obj
 0001:00010e00       ??_C@_09JHGOALHG@WindowTop?$AA@ 0000000180011e00     win.obj
 0001:00010e10       ??_C@_0L@NFCEOFBF@WindowLeft?$AA@ 0000000180011e10     win.obj
 0001:00010e20       ??_C@_0BA@JJEFAHJN@CursorPositionY?$AA@ 0000000180011e20     win.obj
 0001:00010e30       ??_C@_0BA@IAFODGNM@CursorPositionX?$AA@ 0000000180011e30     win.obj
 0001:00010e40       ??_C@_0BJ@LPJMBJJL@directory?5already?5exists?$AA@ 0000000180011e40     win.obj
 0001:00010e5c       ??_C@_01PFHFFBPC@t?$AA@    0000000180011e5c     win.obj
 0001:00010e60       _FPinit                    0000000180011e60     LIBCMT:_fpinit_.obj
 0001:00010e70       ??_C@_0EA@FCLIIPNN@Visual?5C?$CL?$CL?5CRT?3?5Not?5enough?5memor@ 0000000180011e70     LIBCMT:strerror.obj
 0001:00010eb0       ??_C@_01KICIPPFI@?2?$AA@   0000000180011eb0     LIBCMT:popen.obj
 0001:00010eb8       ??_C@_19IJOJOJIB@?$AAP?$AAA?$AAT?$AAH?$AA?$AA@ 0000000180011eb8     LIBCMT:wpopen.obj
 0001:00010ec8       ??_C@_19FNCMDGGJ@?$AA?5?$AA?1?$AAc?$AA?5?$AA?$AA@ 0000000180011ec8     LIBCMT:wpopen.obj
 0001:00010ed8       ??_C@_1BA@DBKIDAPL@?$AAc?$AAm?$AAd?$AA?4?$AAe?$AAx?$AAe?$AA?$AA@ 0000000180011ed8     LIBCMT:wpopen.obj
 0001:00010ee8       ??_C@_1BA@HMCCKBDK@?$AAC?$AAO?$AAM?$AAS?$AAP?$AAE?$AAC?$AA?$AA@ 0000000180011ee8     LIBCMT:wpopen.obj
 0001:00010ef8       ??_C@_15JBFELBFC@?$AA?1?$AAc?$AA?$AA@ 0000000180011ef8     LIBCMT:wsystem.obj
 0001:00010f00       _pDefaultRawDllMain        0000000180011f00     LIBCMT:dllcrt0.obj
 0001:00010f00       _pRawDllMain               0000000180011f00     LIBCMT:dllcrt0.obj
 0001:00010f08       ??_C@_05KLBDPFGC@e?$CL000?$AA@ 0000000180011f08     LIBCMT:cvt.obj
 0001:00010f10       ??_C@_1O@CEDCILHN@?$AA?$CI?$AAn?$AAu?$AAl?$AAl?$AA?$CJ?$AA?$AA@ 0000000180011f10     LIBCMT:output.obj
 0001:00010f20       ??_C@_06OJHGLDPL@?$CInull?$CJ?$AA@ 0000000180011f20     LIBCMT:output.obj
 0001:00010f30       __lookuptable              0000000180011f30     LIBCMT:output.obj
 0001:00010fa0       ??_C@_0P@MIGLKIOC@CorExitProcess?$AA@ 0000000180011fa0     LIBCMT:crt0dat.obj
 0001:00010fb0       ??_C@_1BI@BGOHAHKC@?$AAm?$AAs?$AAc?$AAo?$AAr?$AAe?$AAe?$AA?4?$AAd?$AAl?$AAl?$AA?$AA@ 0000000180011fb0     LIBCMT:crt0dat.obj
 0001:00010fc8       ??_C@_1BO@BKOMIGKJ@?$AAr?$AAu?$AAn?$AAt?$AAi?$AAm?$AAe?$AA?5?$AAe?$AAr?$AAr?$AAo?$AAr?$AA?5?$AA?$AA@ 0000000180011fc8     LIBCMT:crt0msg.obj
 0001:00010fe8       ??_C@_15JNBOKNOG@?$AA?$AN?$AA?6?$AA?$AA@ 0000000180011fe8     LIBCMT:crt0msg.obj
 0001:00010ff0       ??_C@_1BM@JBBEPPHI@?$AAT?$AAL?$AAO?$AAS?$AAS?$AA?5?$AAe?$AAr?$AAr?$AAo?$AAr?$AA?$AN?$AA?6?$AA?$AA@ 0000000180011ff0     LIBCMT:crt0msg.obj
 0001:00011010       ??_C@_1BK@KMOMNAAI@?$AAS?$AAI?$AAN?$AAG?$AA?5?$AAe?$AAr?$AAr?$AAo?$AAr?$AA?$AN?$AA?6?$AA?$AA@ 0000000180012010     LIBCMT:crt0msg.obj
 0001:00011030       ??_C@_1BO@BFCDCGC@?$AAD?$AAO?$AAM?$AAA?$AAI?$AAN?$AA?5?$AAe?$AAr?$AAr?$AAo?$AAr?$AA?$AN?$AA?6?$AA?$AA@ 0000000180012030     LIBCMT:crt0msg.obj
 0001:00011050       ??_C@_1BOO@KGEDBGAJ@?$AAR?$AA6?$AA0?$AA3?$AA3?$AA?$AN?$AA?6?$AA?9?$AA?5?$AAA?$AAt?$AAt?$AAe?$AAm?$AAp?$AAt?$AA?5?$AAt?$AAo?$AA?5?$AAu?$AAs?$AAe?$AA?5?$AAM?$AAS?$AAI?$AAL?$AA?5?$AAc?$AAo?$AAd@ 0000000180012050     LIBCMT:crt0msg.obj
 0001:00011240       ??_C@_1GG@GOPILAJP@?$AAR?$AA6?$AA0?$AA3?$AA2?$AA?$AN?$AA?6?$AA?9?$AA?5?$AAn?$AAo?$AAt?$AA?5?$AAe?$AAn?$AAo?$AAu?$AAg?$AAh?$AA?5?$AAs?$AAp?$AAa?$AAc?$AAe?$AA?5?$AAf?$AAo?$AAr?$AA?5?$AAl?$AAo@ 0000000180012240     LIBCMT:crt0msg.obj
 0001:000112b0       ??_C@_1MG@ENCOOIDF@?$AAR?$AA6?$AA0?$AA3?$AA1?$AA?$AN?$AA?6?$AA?9?$AA?5?$AAA?$AAt?$AAt?$AAe?$AAm?$AAp?$AAt?$AA?5?$AAt?$AAo?$AA?5?$AAi?$AAn?$AAi?$AAt?$AAi?$AAa?$AAl?$AAi?$AAz?$AAe?$AA?5?$AAt@ 00000001800122b0     LIBCMT:crt0msg.obj
 0001:00011378       ??_C@_1DO@BMFCDCD@?$AAR?$AA6?$AA0?$AA3?$AA0?$AA?$AN?$AA?6?$AA?9?$AA?5?$AAC?$AAR?$AAT?$AA?5?$AAn?$AAo?$AAt?$AA?5?$AAi?$AAn?$AAi?$AAt?$AAi?$AAa?$AAl?$AAi?$AAz?$AAe?$AAd?$AA?$AN?$AA?6?$AA?$AA@ 0000000180012378     LIBCMT:crt0msg.obj
 0001:000113c0       ??_C@_1EK@HHFLMAOL@?$AAR?$AA6?$AA0?$AA2?$AA8?$AA?$AN?$AA?6?$AA?9?$AA?5?$AAu?$AAn?$AAa?$AAb?$AAl?$AAe?$AA?5?$AAt?$AAo?$AA?5?$AAi?$AAn?$AAi?$AAt?$AAi?$AAa?$AAl?$AAi?$AAz?$AAe?$AA?5?$AAh?$AAe@ 00000001800123c0     LIBCMT:crt0msg.obj
 0001:00011410       ??_C@_1GK@MFGOKLAG@?$AAR?$AA6?$AA0?$AA2?$AA7?$AA?$AN?$AA?6?$AA?9?$AA?5?$AAn?$AAo?$AAt?$AA?5?$AAe?$AAn?$AAo?$AAu?$AAg?$AAh?$AA?5?$AAs?$AAp?$AAa?$AAc?$AAe?$AA?5?$AAf?$AAo?$AAr?$AA?5?$AAl?$AAo@ 0000000180012410     LIBCMT:crt0msg.obj
 0001:00011480       ??_C@_1GK@MCAAGJMO@?$AAR?$AA6?$AA0?$AA2?$AA6?$AA?$AN?$AA?6?$AA?9?$AA?5?$AAn?$AAo?$AAt?$AA?5?$AAe?$AAn?$AAo?$AAu?$AAg?$AAh?$AA?5?$AAs?$AAp?$AAa?$AAc?$AAe?$AA?5?$AAf?$AAo?$AAr?$AA?5?$AAs?$AAt@ 0000000180012480     LIBCMT:crt0msg.obj
 0001:000114f0       ??_C@_1EM@MAADIHMB@?$AAR?$AA6?$AA0?$AA2?$AA5?$AA?$AN?$AA?6?$AA?9?$AA?5?$AAp?$AAu?$AAr?$AAe?$AA?5?$AAv?$AAi?$AAr?$AAt?$AAu?$AAa?$AAl?$AA?5?$AAf?$AAu?$AAn?$AAc?$AAt?$AAi?$AAo?$AAn?$AA?5?$AAc@ 00000001800124f0     LIBCMT:crt0msg.obj
 0001:00011540       ??_C@_1GK@FHCKBEFA@?$AAR?$AA6?$AA0?$AA2?$AA4?$AA?$AN?$AA?6?$AA?9?$AA?5?$AAn?$AAo?$AAt?$AA?5?$AAe?$AAn?$AAo?$AAu?$AAg?$AAh?$AA?5?$AAs?$AAp?$AAa?$AAc?$AAe?$AA?5?$AAf?$AAo?$AAr?$AA?5?$AA_?$AAo@ 0000000180012540     LIBCMT:crt0msg.obj
 0001:000115b0       ??_C@_1FC@ECHBIFBC@?$AAR?$AA6?$AA0?$AA1?$AA9?$AA?$AN?$AA?6?$AA?9?$AA?5?$AAu?$AAn?$AAa?$AAb?$AAl?$AAe?$AA?5?$AAt?$AAo?$AA?5?$AAo?$AAp?$AAe?$AAn?$AA?5?$AAc?$AAo?$AAn?$AAs?$AAo?$AAl?$AAe?$AA?5@ 00000001800125b0     LIBCMT:crt0msg.obj
 0001:00011610       ??_C@_1EC@JIBHAOPH@?$AAR?$AA6?$AA0?$AA1?$AA8?$AA?$AN?$AA?6?$AA?9?$AA?5?$AAu?$AAn?$AAe?$AAx?$AAp?$AAe?$AAc?$AAt?$AAe?$AAd?$AA?5?$AAh?$AAe?$AAa?$AAp?$AA?5?$AAe?$AAr?$AAr?$AAo?$AAr?$AA?$AN?$AA?6@ 0000000180012610     LIBCMT:crt0msg.obj
 0001:00011660       ??_C@_1FK@BEOGODMC@?$AAR?$AA6?$AA0?$AA1?$AA7?$AA?$AN?$AA?6?$AA?9?$AA?5?$AAu?$AAn?$AAe?$AAx?$AAp?$AAe?$AAc?$AAt?$AAe?$AAd?$AA?5?$AAm?$AAu?$AAl?$AAt?$AAi?$AAt?$AAh?$AAr?$AAe?$AAa?$AAd?$AA?5@ 0000000180012660     LIBCMT:crt0msg.obj
 0001:000116c0       ??_C@_1FI@LOGNIKDM@?$AAR?$AA6?$AA0?$AA1?$AA6?$AA?$AN?$AA?6?$AA?9?$AA?5?$AAn?$AAo?$AAt?$AA?5?$AAe?$AAn?$AAo?$AAu?$AAg?$AAh?$AA?5?$AAs?$AAp?$AAa?$AAc?$AAe?$AA?5?$AAf?$AAo?$AAr?$AA?5?$AAt?$AAh@ 00000001800126c0     LIBCMT:crt0msg.obj
 0001:00011720       ??_C@_1EG@BEHAGFJD@?$AAR?$AA6?$AA0?$AA1?$AA0?$AA?$AN?$AA?6?$AA?9?$AA?5?$AAa?$AAb?$AAo?$AAr?$AAt?$AA?$CI?$AA?$CJ?$AA?5?$AAh?$AAa?$AAs?$AA?5?$AAb?$AAe?$AAe?$AAn?$AA?5?$AAc?$AAa?$AAl?$AAl?$AAe?$AAd@ 0000000180012720     LIBCMT:crt0msg.obj
 0001:00011770       ??_C@_1FI@HONFMGBI@?$AAR?$AA6?$AA0?$AA0?$AA9?$AA?$AN?$AA?6?$AA?9?$AA?5?$AAn?$AAo?$AAt?$AA?5?$AAe?$AAn?$AAo?$AAu?$AAg?$AAh?$AA?5?$AAs?$AAp?$AAa?$AAc?$AAe?$AA?5?$AAf?$AAo?$AAr?$AA?5?$AAe?$AAn@ 0000000180012770     LIBCMT:crt0msg.obj
 0001:000117d0       ??_C@_1FE@LLNEDJMD@?$AAR?$AA6?$AA0?$AA0?$AA8?$AA?$AN?$AA?6?$AA?9?$AA?5?$AAn?$AAo?$AAt?$AA?5?$AAe?$AAn?$AAo?$AAu?$AAg?$AAh?$AA?5?$AAs?$AAp?$AAa?$AAc?$AAe?$AA?5?$AAf?$AAo?$AAr?$AA?5?$AAa?$AAr@ 00000001800127d0     LIBCMT:crt0msg.obj
 0001:00011830       ??_C@_1FK@PGACCAFB@?$AAR?$AA6?$AA0?$AA0?$AA2?$AA?$AN?$AA?6?$AA?9?$AA?5?$AAf?$AAl?$AAo?$AAa?$AAt?$AAi?$AAn?$AAg?$AA?5?$AAp?$AAo?$AAi?$AAn?$AAt?$AA?5?$AAs?$AAu?$AAp?$AAp?$AAo?$AAr?$AAt?$AA?5@ 0000000180012830     LIBCMT:crt0msg.obj
 0001:000119f0       ??_C@_1EK@MBDPDCGA@?$AAM?$AAi?$AAc?$AAr?$AAo?$AAs?$AAo?$AAf?$AAt?$AA?5?$AAV?$AAi?$AAs?$AAu?$AAa?$AAl?$AA?5?$AAC?$AA?$CL?$AA?$CL?$AA?5?$AAR?$AAu?$AAn?$AAt?$AAi?$AAm?$AAe?$AA?5?$AAL?$AAi?$AAb@ 00000001800129f0     LIBCMT:crt0msg.obj
 0001:00011a3c       ??_C@_15IABLJNFO@?$AA?6?$AA?6?$AA?$AA@ 0000000180012a3c     LIBCMT:crt0msg.obj
 0001:00011a48       ??_C@_17LGKOMLJ@?$AA?4?$AA?4?$AA?4?$AA?$AA@ 0000000180012a48     LIBCMT:crt0msg.obj
 0001:00011a50       ??_C@_1CO@EAEJAADC@?$AA?$DM?$AAp?$AAr?$AAo?$AAg?$AAr?$AAa?$AAm?$AA?5?$AAn?$AAa?$AAm?$AAe?$AA?5?$AAu?$AAn?$AAk?$AAn?$AAo?$AAw?$AAn?$AA?$DO?$AA?$AA@ 0000000180012a50     LIBCMT:crt0msg.obj
 0001:00011a80       ??_C@_1DE@JNGNBFGO@?$AAR?$AAu?$AAn?$AAt?$AAi?$AAm?$AAe?$AA?5?$AAE?$AAr?$AAr?$AAo?$AAr?$AA?$CB?$AA?6?$AA?6?$AAP?$AAr?$AAo?$AAg?$AAr?$AAa?$AAm?$AA?3?$AA?5?$AA?$AA@ 0000000180012a80     LIBCMT:crt0msg.obj
 0001:00011af8       ??_C@_0BG@KLEAJEFJ@Illegal?5byte?5sequence?$AA@ 0000000180012af8     LIBCMT:syserr.obj
 0001:00011b10       ??_C@_0BE@ICMCHPHH@Directory?5not?5empty?$AA@ 0000000180012b10     LIBCMT:syserr.obj
 0001:00011b28       ??_C@_0BJ@IHEHINLI@Function?5not?5implemented?$AA@ 0000000180012b28     LIBCMT:syserr.obj
 0001:00011b48       ??_C@_0BD@CLHBCGPB@No?5locks?5available?$AA@ 0000000180012b48     LIBCMT:syserr.obj
 0001:00011b60       ??_C@_0BC@BEDIHIDK@Filename?5too?5long?$AA@ 0000000180012b60     LIBCMT:syserr.obj
 0001:00011b78       ??_C@_0BK@JAEBMJJM@Resource?5deadlock?5avoided?$AA@ 0000000180012b78     LIBCMT:syserr.obj
 0001:00011b98       ??_C@_0BB@FCBJFCAJ@Result?5too?5large?$AA@ 0000000180012b98     LIBCMT:syserr.obj
 0001:00011bb0       ??_C@_0N@MMJPGLJK@Domain?5error?$AA@ 0000000180012bb0     LIBCMT:syserr.obj
 0001:00011bc0       ??_C@_0M@LHEPIIOM@Broken?5pipe?$AA@ 0000000180012bc0     LIBCMT:syserr.obj
 0001:00011bd0       ??_C@_0P@PKCJJLLM@Too?5many?5links?$AA@ 0000000180012bd0     LIBCMT:syserr.obj
 0001:00011be0       ??_C@_0BG@DDBFNKBH@Read?9only?5file?5system?$AA@ 0000000180012be0     LIBCMT:syserr.obj
 0001:00011bf8       ??_C@_0N@FEHLOILP@Invalid?5seek?$AA@ 0000000180012bf8     LIBCMT:syserr.obj
 0001:00011c08       ??_C@_0BI@FEALHKLD@No?5space?5left?5on?5device?$AA@ 0000000180012c08     LIBCMT:syserr.obj
 0001:00011c20       ??_C@_0P@LFMMIPAE@File?5too?5large?$AA@ 0000000180012c20     LIBCMT:syserr.obj
 0001:00011c30       ??_C@_0CE@ONOKNLPF@Inappropriate?5I?1O?5control?5operat@ 0000000180012c30     LIBCMT:syserr.obj
 0001:00011c58       ??_C@_0BE@INBJMKGG@Too?5many?5open?5files?$AA@ 0000000180012c58     LIBCMT:syserr.obj
 0001:00011c70       ??_C@_0BO@IIFBODJE@Too?5many?5open?5files?5in?5system?$AA@ 0000000180012c70     LIBCMT:syserr.obj
 0001:00011c90       ??_C@_0BB@HMGGCEBG@Invalid?5argument?$AA@ 0000000180012c90     LIBCMT:syserr.obj
 0001:00011ca8       ??_C@_0P@NDHGCGKE@Is?5a?5directory?$AA@ 0000000180012ca8     LIBCMT:syserr.obj
 0001:00011cb8       ??_C@_0BA@CJBACOOL@Not?5a?5directory?$AA@ 0000000180012cb8     LIBCMT:syserr.obj
 0001:00011cc8       ??_C@_0P@NLEIANHE@No?5such?5device?$AA@ 0000000180012cc8     LIBCMT:syserr.obj
 0001:00011cd8       ??_C@_0O@OAMDNOCP@Improper?5link?$AA@ 0000000180012cd8     LIBCMT:syserr.obj
 0001:00011ce8       ??_C@_0M@NAAJNNGH@File?5exists?$AA@ 0000000180012ce8     LIBCMT:syserr.obj
 0001:00011cf8       ??_C@_0BA@BIBLIOEK@Resource?5device?$AA@ 0000000180012cf8     LIBCMT:syserr.obj
 0001:00011d08       ??_C@_0O@NIPGCINC@Unknown?5error?$AA@ 0000000180012d08     LIBCMT:syserr.obj
 0001:00011d18       ??_C@_0M@LOEHLCJD@Bad?5address?$AA@ 0000000180012d18     LIBCMT:syserr.obj
 0001:00011d28       ??_C@_0BC@HFNFNKAI@Permission?5denied?$AA@ 0000000180012d28     LIBCMT:syserr.obj
 0001:00011d40       ??_C@_0BB@IMDKMPFB@Not?5enough?5space?$AA@ 0000000180012d40     LIBCMT:syserr.obj
 0001:00011d58       ??_C@_0CB@EPFKGNAK@Resource?5temporarily?5unavailable@ 0000000180012d58     LIBCMT:syserr.obj
 0001:00011d80       ??_C@_0BD@LOHELEP@No?5child?5processes?$AA@ 0000000180012d80     LIBCMT:syserr.obj
 0001:00011d98       ??_C@_0BE@NFGDDCEF@Bad?5file?5descriptor?$AA@ 0000000180012d98     LIBCMT:syserr.obj
 0001:00011db0       ??_C@_0BC@HKPNECK@Exec?5format?5error?$AA@ 0000000180012db0     LIBCMT:syserr.obj
 0001:00011dc8       ??_C@_0BC@MFFGCDFL@Arg?5list?5too?5long?$AA@ 0000000180012dc8     LIBCMT:syserr.obj
 0001:00011de0       ??_C@_0BK@DPKMCKJ@No?5such?5device?5or?5address?$AA@ 0000000180012de0     LIBCMT:syserr.obj
 0001:00011e00       ??_C@_0BD@KKNFOBBD@Input?1output?5error?$AA@ 0000000180012e00     LIBCMT:syserr.obj
 0001:00011e18       ??_C@_0BK@FJBOAFDK@Interrupted?5function?5call?$AA@ 0000000180012e18     LIBCMT:syserr.obj
 0001:00011e38       ??_C@_0BA@FKIAIBGA@No?5such?5process?$AA@ 0000000180012e38     LIBCMT:syserr.obj
 0001:00011e48       ??_C@_0BK@FMDHKPNF@No?5such?5file?5or?5directory?$AA@ 0000000180012e48     LIBCMT:syserr.obj
 0001:00011e68       ??_C@_0BI@BJFCGOHL@Operation?5not?5permitted?$AA@ 0000000180012e68     LIBCMT:syserr.obj
 0001:00011e80       ??_C@_08INEPGKHH@No?5error?$AA@ 0000000180012e80     LIBCMT:syserr.obj
 0001:00011e90       __newctype                 0000000180012e90     LIBCMT:ctype.obj
 0001:00012190       _wctype                    0000000180013190     LIBCMT:ctype.obj
 0001:000123a0       __newclmap                 00000001800133a0     LIBCMT:ctype.obj
 0001:00012520       __newcumap                 0000000180013520     LIBCMT:ctype.obj
 0001:000126a0       ??_C@_1BC@GDGBMEMK@?$AAH?$AAH?$AA?3?$AAm?$AAm?$AA?3?$AAs?$AAs?$AA?$AA@ 00000001800136a0     LIBCMT:nlsdata2.obj
 0001:000126b8       ??_C@_1CI@KNAKOEBC@?$AAd?$AAd?$AAd?$AAd?$AA?0?$AA?5?$AAM?$AAM?$AAM?$AAM?$AA?5?$AAd?$AAd?$AA?0?$AA?5?$AAy?$AAy?$AAy?$AAy?$AA?$AA@ 00000001800136b8     LIBCMT:nlsdata2.obj
 0001:000126e0       ??_C@_1BC@IEBCMHCM@?$AAM?$AAM?$AA?1?$AAd?$AAd?$AA?1?$AAy?$AAy?$AA?$AA@ 00000001800136e0     LIBCMT:nlsdata2.obj
 0001:000126f4       ??_C@_15CLMNNGEL@?$AAP?$AAM?$AA?$AA@ 00000001800136f4     LIBCMT:nlsdata2.obj
 0001:000126fc       ??_C@_15ODEHAHHF@?$AAA?$AAM?$AA?$AA@ 00000001800136fc     LIBCMT:nlsdata2.obj
 0001:00012708       ??_C@_1BC@FEMKIFH@?$AAD?$AAe?$AAc?$AAe?$AAm?$AAb?$AAe?$AAr?$AA?$AA@ 0000000180013708     LIBCMT:nlsdata2.obj
 0001:00012720       ??_C@_1BC@BGLIFPF@?$AAN?$AAo?$AAv?$AAe?$AAm?$AAb?$AAe?$AAr?$AA?$AA@ 0000000180013720     LIBCMT:nlsdata2.obj
 0001:00012738       ??_C@_1BA@EPANDLNG@?$AAO?$AAc?$AAt?$AAo?$AAb?$AAe?$AAr?$AA?$AA@ 0000000180013738     LIBCMT:nlsdata2.obj
 0001:00012748       ??_C@_1BE@DKAAMBJL@?$AAS?$AAe?$AAp?$AAt?$AAe?$AAm?$AAb?$AAe?$AAr?$AA?$AA@ 0000000180013748     LIBCMT:nlsdata2.obj
 0001:00012760       ??_C@_1O@PAHLKOAC@?$AAA?$AAu?$AAg?$AAu?$AAs?$AAt?$AA?$AA@ 0000000180013760     LIBCMT:nlsdata2.obj
 0001:00012770       ??_C@_19BIFMLPCD@?$AAJ?$AAu?$AAl?$AAy?$AA?$AA@ 0000000180013770     LIBCMT:nlsdata2.obj
 0001:00012780       ??_C@_19EPFLPGAP@?$AAJ?$AAu?$AAn?$AAe?$AA?$AA@ 0000000180013780     LIBCMT:nlsdata2.obj
 0001:00012790       ??_C@_1M@GJNLMHFD@?$AAA?$AAp?$AAr?$AAi?$AAl?$AA?$AA@ 0000000180013790     LIBCMT:nlsdata2.obj
 0001:000127a0       ??_C@_1M@IKEENEDF@?$AAM?$AAa?$AAr?$AAc?$AAh?$AA?$AA@ 00000001800137a0     LIBCMT:nlsdata2.obj
 0001:000127b0       ??_C@_1BC@JGDDFFAM@?$AAF?$AAe?$AAb?$AAr?$AAu?$AAa?$AAr?$AAy?$AA?$AA@ 00000001800137b0     LIBCMT:nlsdata2.obj
 0001:000127c8       ??_C@_1BA@EFMEIEBA@?$AAJ?$AAa?$AAn?$AAu?$AAa?$AAr?$AAy?$AA?$AA@ 00000001800137c8     LIBCMT:nlsdata2.obj
 0001:000127d8       ??_C@_17EGKACKIF@?$AAD?$AAe?$AAc?$AA?$AA@ 00000001800137d8     LIBCMT:nlsdata2.obj
 0001:000127e0       ??_C@_17BBDMLCIG@?$AAN?$AAo?$AAv?$AA?$AA@ 00000001800137e0     LIBCMT:nlsdata2.obj
 0001:000127e8       ??_C@_17FNLKOI@?$AAO?$AAc?$AAt?$AA?$AA@ 00000001800137e8     LIBCMT:nlsdata2.obj
 0001:000127f0       ??_C@_17HCHCOKMG@?$AAS?$AAe?$AAp?$AA?$AA@ 00000001800137f0     LIBCMT:nlsdata2.obj
 0001:000127f8       ??_C@_17ICPELBCN@?$AAA?$AAu?$AAg?$AA?$AA@ 00000001800137f8     LIBCMT:nlsdata2.obj
 0001:00012800       ??_C@_17IJPCKHK@?$AAJ?$AAu?$AAl?$AA?$AA@ 0000000180013800     LIBCMT:nlsdata2.obj
 0001:00012808       ??_C@_17KCJGOCPB@?$AAJ?$AAu?$AAn?$AA?$AA@ 0000000180013808     LIBCMT:nlsdata2.obj
 0001:00012810       ??_C@_17PNNKMEED@?$AAM?$AAa?$AAy?$AA?$AA@ 0000000180013810     LIBCMT:nlsdata2.obj
 0001:00012818       ??_C@_17LFPOIHDD@?$AAA?$AAp?$AAr?$AA?$AA@ 0000000180013818     LIBCMT:nlsdata2.obj
 0001:00012820       ??_C@_17CKNLEDEC@?$AAM?$AAa?$AAr?$AA?$AA@ 0000000180013820     LIBCMT:nlsdata2.obj
 0001:00012828       ??_C@_17LMDJEKJN@?$AAF?$AAe?$AAb?$AA?$AA@ 0000000180013828     LIBCMT:nlsdata2.obj
 0001:00012830       ??_C@_17DKNBKCHM@?$AAJ?$AAa?$AAn?$AA?$AA@ 0000000180013830     LIBCMT:nlsdata2.obj
 0001:00012838       ??_C@_1BC@ENMNNPAJ@?$AAS?$AAa?$AAt?$AAu?$AAr?$AAd?$AAa?$AAy?$AA?$AA@ 0000000180013838     LIBCMT:nlsdata2.obj
 0001:00012850       ??_C@_1O@PDICJHAG@?$AAF?$AAr?$AAi?$AAd?$AAa?$AAy?$AA?$AA@ 0000000180013850     LIBCMT:nlsdata2.obj
 0001:00012860       ??_C@_1BC@HHMNLIHE@?$AAT?$AAh?$AAu?$AAr?$AAs?$AAd?$AAa?$AAy?$AA?$AA@ 0000000180013860     LIBCMT:nlsdata2.obj
 0001:00012878       ??_C@_1BE@EBOGMDOH@?$AAW?$AAe?$AAd?$AAn?$AAe?$AAs?$AAd?$AAa?$AAy?$AA?$AA@ 0000000180013878     LIBCMT:nlsdata2.obj
 0001:00012890       ??_C@_1BA@ENFBFFEK@?$AAT?$AAu?$AAe?$AAs?$AAd?$AAa?$AAy?$AA?$AA@ 0000000180013890     LIBCMT:nlsdata2.obj
 0001:000128a0       ??_C@_1O@MMNBFLIA@?$AAM?$AAo?$AAn?$AAd?$AAa?$AAy?$AA?$AA@ 00000001800138a0     LIBCMT:nlsdata2.obj
 0001:000128b0       ??_C@_1O@IHNHDHPB@?$AAS?$AAu?$AAn?$AAd?$AAa?$AAy?$AA?$AA@ 00000001800138b0     LIBCMT:nlsdata2.obj
 0001:000128c0       ??_C@_17GGIBDPIH@?$AAS?$AAa?$AAt?$AA?$AA@ 00000001800138c0     LIBCMT:nlsdata2.obj
 0001:000128c8       ??_C@_17HFOLPPLP@?$AAF?$AAr?$AAi?$AA?$AA@ 00000001800138c8     LIBCMT:nlsdata2.obj
 0001:000128d0       ??_C@_17PDPHAADD@?$AAT?$AAh?$AAu?$AA?$AA@ 00000001800138d0     LIBCMT:nlsdata2.obj
 0001:000128d8       ??_C@_17CJEDCEPE@?$AAW?$AAe?$AAd?$AA?$AA@ 00000001800138d8     LIBCMT:nlsdata2.obj
 0001:000128e0       ??_C@_17BMKGEGOJ@?$AAT?$AAu?$AAe?$AA?$AA@ 00000001800138e0     LIBCMT:nlsdata2.obj
 0001:000128e8       ??_C@_17KBOMKBF@?$AAM?$AAo?$AAn?$AA?$AA@ 00000001800138e8     LIBCMT:nlsdata2.obj
 0001:000128f0       ??_C@_17MBGCMIPB@?$AAS?$AAu?$AAn?$AA?$AA@ 00000001800138f0     LIBCMT:nlsdata2.obj
 0001:000128f8       ??_C@_08JCCMCCIL@HH?3mm?3ss?$AA@ 00000001800138f8     LIBCMT:nlsdata2.obj
 0001:00012908       ??_C@_0BE@CKGJFCPC@dddd?0?5MMMM?5dd?0?5yyyy?$AA@ 0000000180013908     LIBCMT:nlsdata2.obj
 0001:00012920       ??_C@_08BPBNCDIB@MM?1dd?1yy?$AA@ 0000000180013920     LIBCMT:nlsdata2.obj
 0001:0001292c       ??_C@_02CJNFDJBF@PM?$AA@   000000018001392c     LIBCMT:nlsdata2.obj
 0001:00012930       ??_C@_02DEDBPAFC@AM?$AA@   0000000180013930     LIBCMT:nlsdata2.obj
 0001:00012938       ??_C@_08EDHMEBNP@December?$AA@ 0000000180013938     LIBCMT:nlsdata2.obj
 0001:00012948       ??_C@_08HCHEGEOA@November?$AA@ 0000000180013948     LIBCMT:nlsdata2.obj
 0001:00012958       ??_C@_07JJNFCEND@October?$AA@ 0000000180013958     LIBCMT:nlsdata2.obj
 0001:00012960       ??_C@_09BHHEALKD@September?$AA@ 0000000180013960     LIBCMT:nlsdata2.obj
 0001:0001296c       ??_C@_06LBBHFDDG@August?$AA@ 000000018001396c     LIBCMT:nlsdata2.obj
 0001:00012974       ??_C@_04MIEPOIFP@July?$AA@ 0000000180013974     LIBCMT:nlsdata2.obj
 0001:0001297c       ??_C@_04CNLMGBGM@June?$AA@ 000000018001397c     LIBCMT:nlsdata2.obj
 0001:00012984       ??_C@_05DMJDNLEJ@April?$AA@ 0000000180013984     LIBCMT:nlsdata2.obj
 0001:0001298c       ??_C@_05HPCKOFNC@March?$AA@ 000000018001398c     LIBCMT:nlsdata2.obj
 0001:00012998       ??_C@_08GNJGEPFN@February?$AA@ 0000000180013998     LIBCMT:nlsdata2.obj
 0001:000129a8       ??_C@_07CGJPFGJA@January?$AA@ 00000001800139a8     LIBCMT:nlsdata2.obj
 0001:000129b0       ??_C@_03MKABNOCG@Dec?$AA@  00000001800139b0     LIBCMT:nlsdata2.obj
 0001:000129b4       ??_C@_03JPJOFNIA@Nov?$AA@  00000001800139b4     LIBCMT:nlsdata2.obj
 0001:000129b8       ??_C@_03BMAOKBAD@Oct?$AA@  00000001800139b8     LIBCMT:nlsdata2.obj
 0001:000129bc       ??_C@_03GGCAPAJC@Sep?$AA@  00000001800139bc     LIBCMT:nlsdata2.obj
 0001:000129c0       ??_C@_03IFJFEIGA@Aug?$AA@  00000001800139c0     LIBCMT:nlsdata2.obj
 0001:000129c4       ??_C@_03LBGABGKK@Jul?$AA@  00000001800139c4     LIBCMT:nlsdata2.obj
 0001:000129c8       ??_C@_03IDFGHECI@Jun?$AA@  00000001800139c8     LIBCMT:nlsdata2.obj
 0001:000129cc       ??_C@_03CNMDKL@May?$AA@    00000001800139cc     LIBCMT:nlsdata2.obj
 0001:000129d0       ??_C@_03LEOLGMJP@Apr?$AA@  00000001800139d0     LIBCMT:nlsdata2.obj
 0001:000129d4       ??_C@_03ODNJBKGA@Mar?$AA@  00000001800139d4     LIBCMT:nlsdata2.obj
 0001:000129d8       ??_C@_03HJBDCHOM@Feb?$AA@  00000001800139d8     LIBCMT:nlsdata2.obj
 0001:000129dc       ??_C@_03JIHJHPIE@Jan?$AA@  00000001800139dc     LIBCMT:nlsdata2.obj
 0001:000129e0       ??_C@_08INBOOONO@Saturday?$AA@ 00000001800139e0     LIBCMT:nlsdata2.obj
 0001:000129ec       ??_C@_06JECMNKMI@Friday?$AA@ 00000001800139ec     LIBCMT:nlsdata2.obj
 0001:000129f8       ??_C@_08HACCIKIA@Thursday?$AA@ 00000001800139f8     LIBCMT:nlsdata2.obj
 0001:00012a08       ??_C@_09DLIGFAKA@Wednesday?$AA@ 0000000180013a08     LIBCMT:nlsdata2.obj
 0001:00012a18       ??_C@_07BAAGCFCM@Tuesday?$AA@ 0000000180013a18     LIBCMT:nlsdata2.obj
 0001:00012a20       ??_C@_06JLEDEDGH@Monday?$AA@ 0000000180013a20     LIBCMT:nlsdata2.obj
 0001:00012a28       ??_C@_06OOPIFAJ@Sunday?$AA@ 0000000180013a28     LIBCMT:nlsdata2.obj
 0001:00012a30       ??_C@_03FEFJNEK@Sat?$AA@   0000000180013a30     LIBCMT:nlsdata2.obj
 0001:00012a34       ??_C@_03IDIOELNC@Fri?$AA@  0000000180013a34     LIBCMT:nlsdata2.obj
 0001:00012a38       ??_C@_03IOFIKPDN@Thu?$AA@  0000000180013a38     LIBCMT:nlsdata2.obj
 0001:00012a3c       ??_C@_03MHOMLAJA@Wed?$AA@  0000000180013a3c     LIBCMT:nlsdata2.obj
 0001:00012a40       ??_C@_03NAGEINEP@Tue?$AA@  0000000180013a40     LIBCMT:nlsdata2.obj
 0001:00012a44       ??_C@_03PDAGKDH@Mon?$AA@   0000000180013a44     LIBCMT:nlsdata2.obj
 0001:00012a48       ??_C@_03KOEHGMDN@Sun?$AA@  0000000180013a48     LIBCMT:nlsdata2.obj
 0001:00012ad0       ??_C@_19CDGLJBOD@?$AA?4?$AAc?$AAo?$AAm?$AA?$AA@ 0000000180013ad0     LIBCMT:wspawnve.obj
 0001:00012ae0       ??_C@_19DOGDICKI@?$AA?4?$AAe?$AAx?$AAe?$AA?$AA@ 0000000180013ae0     LIBCMT:wspawnve.obj
 0001:00012af0       ??_C@_19PINKOIBI@?$AA?4?$AAb?$AAa?$AAt?$AA?$AA@ 0000000180013af0     LIBCMT:wspawnve.obj
 0001:00012b00       ??_C@_19BDKLHPGC@?$AA?4?$AAc?$AAm?$AAd?$AA?$AA@ 0000000180013b00     LIBCMT:wspawnve.obj
 0001:00012b0c       ??_C@_15PCEAIKAA@?$AA?4?$AA?2?$AA?$AA@ 0000000180013b0c     LIBCMT:wspawnve.obj
 0001:00012b20       _XcptActTab                0000000180013b20     LIBCMT:winxfltr.obj
 0001:00012be0       _First_FPE_Indx            0000000180013be0     LIBCMT:winxfltr.obj
 0001:00012be4       _Num_FPE                   0000000180013be4     LIBCMT:winxfltr.obj
 0001:00012be8       _XcptActTabSize            0000000180013be8     LIBCMT:winxfltr.obj
 0001:00012bec       _XcptActTabCount           0000000180013bec     LIBCMT:winxfltr.obj
 0001:00012bf0       __lookuptable_s            0000000180013bf0     LIBCMT:outputs.obj
 0001:00012c50       ??_C@_0BI@DFKBFLJE@GetProcessWindowStation?$AA@ 0000000180013c50     LIBCMT:crtmboxw.obj
 0001:00012c68       ??_C@_0BK@DEKFELLI@GetUserObjectInformationW?$AA@ 0000000180013c68     LIBCMT:crtmboxw.obj
 0001:00012c88       ??_C@_0BD@HHGDFDBJ@GetLastActivePopup?$AA@ 0000000180013c88     LIBCMT:crtmboxw.obj
 0001:00012ca0       ??_C@_0BA@HNOPNCHB@GetActiveWindow?$AA@ 0000000180013ca0     LIBCMT:crtmboxw.obj
 0001:00012cb0       ??_C@_0M@DLDCCGNP@MessageBoxW?$AA@ 0000000180013cb0     LIBCMT:crtmboxw.obj
 0001:00012cc0       ??_C@_1BG@GOEBHBDC@?$AAU?$AAS?$AAE?$AAR?$AA3?$AA2?$AA?4?$AAD?$AAL?$AAL?$AA?$AA@ 0000000180013cc0     LIBCMT:crtmboxw.obj
 0001:00012ce8       ??_C@_13NMPKAAJP@?$AA?$DN?$AA?$AA@ 0000000180013ce8     LIBCMT:wcenvarg.obj
 0001:00012cf0       ??_C@_1BG@FIGGICF@?$AAS?$AAy?$AAs?$AAt?$AAe?$AAm?$AAR?$AAo?$AAo?$AAt?$AA?$AA@ 0000000180013cf0     LIBCMT:wcenvarg.obj
 0001:00012d08       ??_C@_06IMKFLFPG@1?$CDQNAN?$AA@ 0000000180013d08     LIBCMT:_x10fout_.obj
 0001:00012d10       ??_C@_05DNEBIAHO@1?$CDINF?$AA@ 0000000180013d10     LIBCMT:_x10fout_.obj
 0001:00012d18       ??_C@_05PHHOCPM@1?$CDIND?$AA@ 0000000180013d18     LIBCMT:_x10fout_.obj
 0001:00012d20       ??_C@_06PGGFOGJG@1?$CDSNAN?$AA@ 0000000180013d20     LIBCMT:_x10fout_.obj
 0001:00012d28       ??_C@_1BA@BALFACEM@?$AAC?$AAO?$AAN?$AAO?$AAU?$AAT?$AA$?$AA?$AA@ 0000000180013d28     LIBCMT:initcon.obj
 0001:00012d38       __rtc_iaa                  0000000180013d38     LIBCMT:_initsect_.obj
 0001:00012d40       __rtc_izz                  0000000180013d40     LIBCMT:_initsect_.obj
 0001:00012d48       __rtc_taa                  0000000180013d48     LIBCMT:_initsect_.obj
 0001:00012d50       __rtc_tzz                  0000000180013d50     LIBCMT:_initsect_.obj
 0001:00012d70       __chkstk                   0000000180013d70 f   chkstk.obj
 0001:00012d70       _alloca_probe              0000000180013d70     chkstk.obj
 0001:00012dc0       bit64_pushuserdata         0000000180013dc0 f   bit64.obj
 0001:00012e10       bit64_push                 0000000180013e10 f   bit64.obj
 0001:00012ea0       bit64_getvalue             0000000180013ea0 f   bit64.obj
 0001:00015110       luaopen_bit64              0000000180016110 f   bit64.obj
 0001:00015160       traceback                  0000000180016160 f   exported.obj
 0001:00015210       docall                     0000000180016210 f   exported.obj
 0001:000152a0       GetExportFunction          00000001800162a0 f   exported.obj
 0001:00015350       pcall_msg                  0000000180016350 f   exported.obj
 0001:000153f0       ReplacePluginInfoCollector 00000001800163f0 f   exported.obj
 0001:00015430       _AddStringToCollector      0000000180016430 f   exported.obj
 0001:000154b0       AddBufToCollector          00000001800164b0 f   exported.obj
 0001:00015520       CreateStringsArray         0000000180016520 f   exported.obj
 0001:00015650       FarPanelItemFreeCallback   0000000180016650 f   exported.obj
 0001:00015680       FillPluginPanelItem        0000000180016680 f   exported.obj
 0001:00015930       FillFindData               0000000180016930 f   exported.obj
 0001:00015d30       LF_GetFindData             0000000180016d30 f   exported.obj
 0001:00015e40       LF_FreeFindData            0000000180016e40 f   exported.obj
 0001:00015ea0       UpdateFileSelection        0000000180016ea0 f   exported.obj
 0001:00015f90       LF_GetFiles                0000000180016f90 f   exported.obj
 0001:00016350       LF_RunDefaultScript        0000000180017350 f   exported.obj
 0001:000164f0       LF_Analyse                 00000001800174f0 f   exported.obj
 0001:000165b0       LF_CloseAnalyse            00000001800175b0 f   exported.obj
 0001:000165c0       LF_GetOpenPanelInfo        00000001800175c0 f   exported.obj
 0001:00016e70       PushFarMacroValue          0000000180017e70 f   exported.obj
 0001:00016fa0       PackMacroValues            0000000180017fa0 f   exported.obj
 0001:000173c0       LF_Open                    00000001800183c0 f   exported.obj
 0001:00017780       LF_ClosePanel              0000000180018780 f   exported.obj
 0001:00017860       LF_Compare                 0000000180018860 f   exported.obj
 0001:00017960       LF_Configure               0000000180018960 f   exported.obj
 0001:000179f0       LF_DeleteFiles             00000001800189f0 f   exported.obj
 0001:00017ae0       LF_MakeDirectory           0000000180018ae0 f   exported.obj
 0001:00017c20       LF_ProcessPanelEvent       0000000180018c20 f   exported.obj
 0001:00017d30       LF_ProcessHostFile         0000000180018d30 f   exported.obj
 0001:00017e50       LF_ProcessPanelInput       0000000180018e50 f   exported.obj
 0001:00017f20       LF_PutFiles                0000000180018f20 f   exported.obj
 0001:00018060       LF_SetDirectory            0000000180019060 f   exported.obj
 0001:00018140       LF_SetFindList             0000000180019140 f   exported.obj
 0001:00018210       LF_ExitFAR                 0000000180019210 f   exported.obj
 0001:00018240       getPluginMenuItems         0000000180019240 f   exported.obj
 0001:00018310       LF_GetPluginInfo           0000000180019310 f   exported.obj
 0001:00018470       LF_ProcessEditorInput      0000000180019470 f   exported.obj
 0001:000184f0       LF_ProcessEditorEvent      00000001800194f0 f   exported.obj
 0001:00018640       LF_ProcessViewerEvent      0000000180019640 f   exported.obj
 0001:000186e0       LF_ProcessDialogEvent      00000001800196e0 f   exported.obj
 0001:00018910       LF_ProcessSynchroEvent     0000000180019910 f   exported.obj
 0001:00018ae0       LF_GetContentFields        0000000180019ae0 f   exported.obj
 0001:00018bc0       LF_GetContentData          0000000180019bc0 f   exported.obj
 0001:00018d20       LF_FreeContentData         0000000180019d20 f   exported.obj
 0001:00018d60       LF_GetGlobalInfo           0000000180019d60 f   exported.obj
 0001:000191a0       LF_ProcessConsoleInput     000000018001a1a0 f   exported.obj
 0001:00019290       push_flags_table           000000018001a290 f   flags.obj
 0001:00019310       SetFarColors               000000018001a310 f   keysandcolors.obj
 0001:00019490       LF_LoadFile                000000018001a490 f   lflua.obj
 0001:00019710       luaB_loadfileW             000000018001a710 f   lflua.obj
 0001:00019760       luaB_dofileW               000000018001a760 f   lflua.obj
 0001:000197d0       LF_Gsub                    000000018001a7d0 f   lflua.obj
 0001:00019910       method_gc                  000000018001a910 f   lregex.obj
 0001:00019990       method_tostring            000000018001a990 f   lregex.obj
 0001:00019a00       check_regex_pattern        000000018001aa00 f   lregex.obj
 0001:00019ae0       push_far_regex             000000018001aae0 f   lregex.obj
 0001:00019b90       _regex_gmatch_closure      000000018001ab90 f   lregex.obj
 0001:00019cf0       regex_gmatch_closure       000000018001acf0 f   lregex.obj
 0001:00019d00       regex_gmatch_closureW      000000018001ad00 f   lregex.obj
 0001:00019d10       _Gmatch                    000000018001ad10 f   lregex.obj
 0001:00019e30       func_Gmatch                000000018001ae30 f   lregex.obj
 0001:00019e40       func_GmatchW               000000018001ae40 f   lregex.obj
 0001:00019e50       rx_find_match              000000018001ae50 f   lregex.obj
 0001:0001a0e0       method_bracketscount       000000018001b0e0 f   lregex.obj
 0001:0001a160       rx_gsub                    000000018001b160 f   lregex.obj
 0001:0001a920       func_New                   000000018001b920 f   lregex.obj
 0001:0001a970       method_find                000000018001b970 f   lregex.obj
 0001:0001a980       func_find                  000000018001b980 f   lregex.obj
 0001:0001a990       method_findW               000000018001b990 f   lregex.obj
 0001:0001a9b0       func_findW                 000000018001b9b0 f   lregex.obj
 0001:0001a9c0       method_match               000000018001b9c0 f   lregex.obj
 0001:0001a9d0       func_match                 000000018001b9d0 f   lregex.obj
 0001:0001a9e0       method_matchW              000000018001b9e0 f   lregex.obj
 0001:0001a9f0       func_matchW                000000018001b9f0 f   lregex.obj
 0001:0001aa00       method_gsub                000000018001ba00 f   lregex.obj
 0001:0001aa10       func_gsub                  000000018001ba10 f   lregex.obj
 0001:0001aa20       method_gsubW               000000018001ba20 f   lregex.obj
 0001:0001aa30       func_gsubW                 000000018001ba30 f   lregex.obj
 0001:0001aa40       luaopen_regex              000000018001ba40 f   lregex.obj
 0001:0001abd0       Open_Luamacro              000000018001bbd0 f   luamacro.obj
 0001:0001afe0       far_MacroCallFar           000000018001bfe0 f   luamacro.obj
 0001:0001b1e0       far_FarMacroCallToLua      000000018001c1e0 f   luamacro.obj
 0001:0001b280       CheckFarUserControl        000000018001c280 f   lusercontrol.obj
 0001:0001b2d0       uc_len                     000000018001c2d0 f   lusercontrol.obj
 0001:0001b600       luaopen_usercontrol        000000018001c600 f   lusercontrol.obj
 0001:0001b650       CreateRegKey               000000018001c650 f   reg.obj
 0001:0001b6a0       OpenRegKey                 000000018001c6a0 f   reg.obj
 0001:0001b6e0       SetRegKeyStr               000000018001c6e0 f   reg.obj
 0001:0001b780       SetRegKeyDword             000000018001c780 f   reg.obj
 0001:0001b810       SetRegKeyArr               000000018001c810 f   reg.obj
 0001:0001b8a0       IsLuaJIT                   000000018001c8a0 f   service.obj
 0001:0001b8b0       DllMain                    000000018001c8b0 f   service.obj
 0001:0001b940       OptHandle                  000000018001c940 f   service.obj
 0001:0001bb60       GetFlagCombination         000000018001cb60 f   service.obj
 0001:0001be20       GetFlagsFromTable          000000018001ce20 f   service.obj
 0001:0001bef0       PutFlagsToTable            000000018001cef0 f   service.obj
 0001:0001bf30       GetPluginData              000000018001cf30 f   service.obj
 0001:0001bfb0       ConvertLuaValue            000000018001cfb0 f   service.obj
 0001:0001c290       PutMouseEvent              000000018001d290 f   service.obj
 0001:0001c410       PushPanelItem              000000018001d410 f   service.obj
 0001:0001c670       PushPanelItems             000000018001d670 f   service.obj
 0001:0001ebc0       GetFarColor                000000018001fbc0 f   service.obj
 0001:0001ecf0       PushFarColor               000000018001fcf0 f   service.obj
 0001:0001f350       PushInputRecord            0000000180020350 f   service.obj
 0001:0001f580       FillInputRecord            0000000180020580 f   service.obj
 0001:00020260       LF_Message                 0000000180021260 f   service.obj
 0001:00020720       LF_Error                   0000000180021720 f   service.obj
 0001:00022690       CreateList                 0000000180023690 f   service.obj
 0001:00022f10       NewDialogData              0000000180023f10 f   service.obj
 0001:00022fc0       DialogHandleEqual          0000000180023fc0 f   service.obj
 0001:00023020       PushDMParams               0000000180024020 f   service.obj
 0001:00024470       PushDNParams               0000000180025470 f   service.obj
 0001:00024730       ProcessDNResult            0000000180025730 f   service.obj
 0001:00024a00       LF_DlgProc                 0000000180025a00 f   service.obj
 0001:00027f70       MacroAddCallback           0000000180028f70 f   service.obj
 0001:00028550       pushFileTime               0000000180029550 f   service.obj
 0001:000289e0       NewVirtualKeyTable         00000001800299e0 f   service.obj
 0001:000299c0       TimerThreadFunc            000000018002a9c0 f   service.obj
 0001:00029fc0       dir_exist                  000000018002afc0 f   service.obj
 0001:0002ae30       LF_RunLuafarInit           000000018002be30 f   service.obj
 0001:0002af40       LF_ProcessEnvVars          000000018002bf40 f   service.obj
 0001:0002af50       LF_InitLuaState1           000000018002bf50 f   service.obj
 0001:0002b130       LF_MacroCallback           000000018002c130 f   service.obj
 0001:0002b140       LF_DoFile                  000000018002c140 f   service.obj
 0001:0002b210       LF_GetLuafarAPI            000000018002c210 f   service.obj
 0001:0002b5e0       LF_InitLuaState2           000000018002c5e0 f   service.obj
 0001:0002e7e0       luaopen_unicode            000000018002f7e0 f   slnunico.obj
 0001:0002fdc0       luaopen_uio                0000000180030dc0 f   uliolib51.obj
 0001:00031000       luaopen_upackage           0000000180032000 f   uloadlib51.obj
 0001:000312f0       PutIntToArray              00000001800322f0 f   ustring.obj
 0001:00031330       PutIntToTable              0000000180032330 f   ustring.obj
 0001:00031370       PutNumToTable              0000000180032370 f   ustring.obj
 0001:000313b0       PutBoolToTable             00000001800323b0 f   ustring.obj
 0001:000313f0       PutStrToTable              00000001800323f0 f   ustring.obj
 0001:00031430       PutStrToArray              0000000180032430 f   ustring.obj
 0001:00031470       PutLStrToTable             0000000180032470 f   ustring.obj
 0001:000314b0       GetOptNumFromTable         00000001800324b0 f   ustring.obj
 0001:00031510       GetOptIntFromTable         0000000180032510 f   ustring.obj
 0001:00031570       GetOptIntFromArray         0000000180032570 f   ustring.obj
 0001:000315d0       GetBoolFromTable           00000001800325d0 f   ustring.obj
 0001:00031610       GetOptBoolFromTable        0000000180032610 f   ustring.obj
 0001:00031670       convert_multibyte_string   0000000180032670 f   ustring.obj
 0001:000317b0       check_utf8_string          00000001800327b0 f   ustring.obj
 0001:000317e0       utf8_to_utf16              00000001800327e0 f   ustring.obj
 0001:000318f0       opt_utf8_string            00000001800328f0 f   ustring.obj
 0001:00031a00       oem_to_utf16               0000000180032a00 f   ustring.obj
 0001:00031b10       push_multibyte_string      0000000180032b10 f   ustring.obj
 0001:00031c20       push_utf8_string           0000000180032c20 f   ustring.obj
 0001:00031c50       ustring_WideCharToMultiByte 0000000180032c50 f   ustring.obj
 0001:00031de0       ustring_OemToUtf8          0000000180032de0 f   ustring.obj
 0001:00031e40       ustring_Utf8ToOem          0000000180032e40 f   ustring.obj
 0001:00031f30       ustring_Utf16ToUtf8        0000000180032f30 f   ustring.obj
 0001:00031f80       ustring_Utf8ToUtf16        0000000180032f80 f   ustring.obj
 0001:00032060       ustring_GetACP             0000000180033060 f   ustring.obj
 0001:00032090       ustring_GetOEMCP           0000000180033090 f   ustring.obj
 0001:000320c0       ustring_GetDriveType       00000001800330c0 f   ustring.obj
 0001:000321d0       ustring_Uuid               00000001800331d0 f   ustring.obj
 0001:000322a0       ustring_SearchPath         00000001800332a0 f   ustring.obj
 0001:000324b0       ustring_Sleep              00000001800334b0 f   ustring.obj
 0001:000324d0       PushAttrString             00000001800334d0 f   ustring.obj
 0001:00032570       PutAttrToTable             0000000180033570 f   ustring.obj
 0001:000325a0       DecodeAttributes           00000001800335a0 f   ustring.obj
 0001:00032650       ustring_SHGetFolderPath    0000000180033650 f   ustring.obj
 0001:00032790       push_utf16_string          0000000180033790 f   ustring.obj
 0001:000327d0       ustring_sub                00000001800337d0 f   ustring.obj
 0001:00032890       ustring_len                0000000180033890 f   ustring.obj
 0001:000328d0       check_utf16_string         00000001800338d0 f   ustring.obj
 0001:00032900       opt_utf16_string           0000000180033900 f   ustring.obj
 0001:00032b80       luaopen_ustring            0000000180033b80 f   ustring.obj
 0001:00032be0       pusherrorcode              0000000180033be0 f   ustring.obj
 0001:00032c80       pusherror                  0000000180033c80 f   ustring.obj
 0001:00032ca0       SysErrorReturn             0000000180033ca0 f   ustring.obj
 0001:00032ce0       PutWStrToTable             0000000180033ce0 f   ustring.obj
 0001:00032d20       PutWStrToArray             0000000180033d20 f   ustring.obj
 0001:00032d80       ustring_MultiByteToWideChar 0000000180033d80 f   ustring.obj
 0001:00032f10       EnumCodePagesProc          0000000180033f10 f   ustring.obj
 0001:00032f80       ustring_EnumSystemCodePages 0000000180033f80 f   ustring.obj
 0001:00033010       ustring_GetCPInfo          0000000180034010 f   ustring.obj
 0001:000332b0       ustring_GetLogicalDriveStrings 00000001800342b0 f   ustring.obj
 0001:000333c0       ustring_GlobalMemoryStatus 00000001800343c0 f   ustring.obj
 0001:000335d0       ustring_SetFileAttr        00000001800345d0 f   ustring.obj
 0001:00033710       ustring_GetFileAttr        0000000180034710 f   ustring.obj
 0001:00033830       ustring_GetCurrentDir      0000000180034830 f   ustring.obj
 0001:000339c0       ustring_SetCurrentDir      00000001800349c0 f   ustring.obj
 0001:00033ae0       luaLF_SlotError            0000000180034ae0 f   util.obj
 0001:00033b50       luaLF_FieldError           0000000180034b50 f   util.obj
 0001:00033bc0       GetIntFromArray            0000000180034bc0 f   util.obj
 0001:00033c80       GetFileSizeFromTable       0000000180034c80 f   util.obj
 0001:00033d00       GetFileTimeFromTable       0000000180034d00 f   util.obj
 0001:00033d80       PutFileTimeToTable         0000000180034d80 f   util.obj
 0001:00033dd0       GetAttrFromTable           0000000180034dd0 f   util.obj
 0001:00035570       luaopen_win                0000000180036570 f   win.obj
 0001:000355f4       lua_setmetatable           00000001800365f4 f   lua51:lua51.dll
 0001:000355fa       lua_getfield               00000001800365fa f   lua51:lua51.dll
 0001:00035600       lua_newuserdata            0000000180036600 f   lua51:lua51.dll
 0001:00035606       lua_pushnumber             0000000180036606 f   lua51:lua51.dll
 0001:0003560c       lua_touserdata             000000018003660c f   lua51:lua51.dll
 0001:00035612       lua_settop                 0000000180036612 f   lua51:lua51.dll
 0001:00035618       lua_rawequal               0000000180036618 f   lua51:lua51.dll
 0001:0003561e       lua_getmetatable           000000018003661e f   lua51:lua51.dll
 0001:00035624       lua_type                   0000000180036624 f   lua51:lua51.dll
 0001:0003562a       luaL_argerror              000000018003662a f   lua51:lua51.dll
 0001:00035630       lua_tonumber               0000000180036630 f   lua51:lua51.dll
 0001:00035636       lua_gettop                 0000000180036636 f   lua51:lua51.dll
 0001:0003563c       luaL_checkinteger          000000018003663c f   lua51:lua51.dll
 0001:00035642       lua_pushnil                0000000180036642 f   lua51:lua51.dll
 0001:00035648       lua_tolstring              0000000180036648 f   lua51:lua51.dll
 0001:0003564e       lua_pushstring             000000018003664e f   lua51:lua51.dll
 0001:00035654       lua_pushboolean            0000000180036654 f   lua51:lua51.dll
 0001:0003565a       luaL_register              000000018003665a f   lua51:lua51.dll
 0001:00035660       luaL_newmetatable          0000000180036660 f   lua51:lua51.dll
 0001:00035666       lua_call                   0000000180036666 f   lua51:lua51.dll
 0001:0003566c       lua_pushinteger            000000018003666c f   lua51:lua51.dll
 0001:00035672       lua_pushvalue              0000000180036672 f   lua51:lua51.dll
 0001:00035678       lua_gc                     0000000180036678 f   lua51:lua51.dll
 0001:0003567e       lua_remove                 000000018003667e f   lua51:lua51.dll
 0001:00035684       lua_pcall                  0000000180036684 f   lua51:lua51.dll
 0001:0003568a       lua_insert                 000000018003668a f   lua51:lua51.dll
 0001:00035690       lua_pushcclosure           0000000180036690 f   lua51:lua51.dll
 0001:00035696       lua_rawgeti                0000000180036696 f   lua51:lua51.dll
 0001:0003569c       lua_setfield               000000018003669c f   lua51:lua51.dll
 0001:000356a2       lua_createtable            00000001800366a2 f   lua51:lua51.dll
 0001:000356a8       lua_rawseti                00000001800366a8 f   lua51:lua51.dll
 0001:000356ae       lua_objlen                 00000001800366ae f   lua51:lua51.dll
 0001:000356b4       lua_isstring               00000001800366b4 f   lua51:lua51.dll
 0001:000356ba       lua_gettable               00000001800366ba f   lua51:lua51.dll
 0001:000356c0       luaL_unref                 00000001800366c0 f   lua51:lua51.dll
 0001:000356c6       luaL_ref                   00000001800366c6 f   lua51:lua51.dll
 0001:000356cc       lua_toboolean              00000001800366cc f   lua51:lua51.dll
 0001:000356d2       lua_tointeger              00000001800366d2 f   lua51:lua51.dll
 0001:000356d8       lua_isnumber               00000001800366d8 f   lua51:lua51.dll
 0001:000356de       lua_pushlightuserdata      00000001800366de f   lua51:lua51.dll
 0001:000356e4       lua_pushlstring            00000001800366e4 f   lua51:lua51.dll
 0001:000356ea       luaL_loadstring            00000001800366ea f   lua51:lua51.dll
 0001:000356f0       lua_pushfstring            00000001800366f0 f   lua51:lua51.dll
 0001:000356f6       lua_load                   00000001800366f6 f   lua51:lua51.dll
 0001:000356fc       lua_concat                 00000001800366fc f   lua51:lua51.dll
 0001:00035702       lua_error                  0000000180036702 f   lua51:lua51.dll
 0001:00035708       luaL_pushresult            0000000180036708 f   lua51:lua51.dll
 0001:0003570e       luaL_addlstring            000000018003670e f   lua51:lua51.dll
 0001:00035714       luaL_buffinit              0000000180036714 f   lua51:lua51.dll
 0001:0003571a       luaL_checkudata            000000018003671a f   lua51:lua51.dll
 0001:00035720       lua_replace                0000000180036720 f   lua51:lua51.dll
 0001:00035726       luaL_optlstring            0000000180036726 f   lua51:lua51.dll
 0001:0003572c       luaL_checklstring          000000018003672c f   lua51:lua51.dll
 0001:00035732       luaL_error                 0000000180036732 f   lua51:lua51.dll
 0001:00035738       lua_checkstack             0000000180036738 f   lua51:lua51.dll
 0001:0003573e       luaL_optinteger            000000018003673e f   lua51:lua51.dll
 0001:00035744       luaL_addvalue              0000000180036744 f   lua51:lua51.dll
 0001:0003574a       lua_getinfo                000000018003674a f   lua51:lua51.dll
 0001:00035750       lua_getstack               0000000180036750 f   lua51:lua51.dll
 0001:00035756       luaL_checktype             0000000180036756 f   lua51:lua51.dll
 0001:0003575c       luaopen_debug              000000018003675c f   lua51:lua51.dll
 0001:00035762       luaopen_math               0000000180036762 f   lua51:lua51.dll
 0001:00035768       luaopen_string             0000000180036768 f   lua51:lua51.dll
 0001:0003576e       luaopen_os                 000000018003676e f   lua51:lua51.dll
 0001:00035774       luaopen_table              0000000180036774 f   lua51:lua51.dll
 0001:0003577a       luaopen_base               000000018003677a f   lua51:lua51.dll
 0001:00035780       luaL_typerror              0000000180036780 f   lua51:lua51.dll
 0001:00035786       lua_next                   0000000180036786 f   lua51:lua51.dll
 0001:0003578c       lua_getallocf              000000018003678c f   lua51:lua51.dll
 0001:00035792       lua_rawset                 0000000180036792 f   lua51:lua51.dll
 0001:00035798       luaL_optnumber             0000000180036798 f   lua51:lua51.dll
 0001:0003579e       lua_rawget                 000000018003679e f   lua51:lua51.dll
 0001:000357a4       luaL_checkany              00000001800367a4 f   lua51:lua51.dll
 0001:000357aa       lua_settable               00000001800367aa f   lua51:lua51.dll
 0001:000357b0       lua_setfenv                00000001800367b0 f   lua51:lua51.dll
 0001:000357b6       lua_getfenv                00000001800367b6 f   lua51:lua51.dll
 0001:000357bc       luaL_checknumber           00000001800367bc f   lua51:lua51.dll
 0001:000357c2       lua_setallocf              00000001800367c2 f   lua51:lua51.dll
 0001:000357c8       luaL_prepbuffer            00000001800367c8 f   lua51:lua51.dll
 0001:000357ce       luaL_checkstack            00000001800367ce f   lua51:lua51.dll
 0001:000357d4       lua_dump                   00000001800367d4 f   lua51:lua51.dll
 0001:000357da       lua_typename               00000001800367da f   lua51:lua51.dll
 0001:000357e0       lua_tocfunction            00000001800367e0 f   lua51:lua51.dll
 0001:000357e6       luaL_checkoption           00000001800367e6 f   lua51:lua51.dll
 0001:000357ec       luaL_gsub                  00000001800367ec f   lua51:lua51.dll
 0001:000357f2       lua_iscfunction            00000001800367f2 f   lua51:lua51.dll
 0001:000357f8       luaL_findtable             00000001800367f8 f   lua51:lua51.dll
 0001:000357fe       lua_isuserdata             00000001800367fe f   lua51:lua51.dll
 0001:00035804       _cfltcvt_init              0000000180036804 f   LIBCMT:_fpinit_.obj
 0001:0003588c       _fpmath                    000000018003688c f   LIBCMT:_fpinit_.obj
 0001:00035894       sprintf                    0000000180036894 f   LIBCMT:sprintf.obj
 0001:00035934       _control87                 0000000180036934 f i LIBCMT:_ieee_.obj
 0001:00035be0       memset                     0000000180036be0 f   LIBCMT:memset.obj
 0001:00035ccc       free                       0000000180036ccc f   LIBCMT:free.obj
 0001:00035d0c       malloc                     0000000180036d0c f   LIBCMT:malloc.obj
 0001:00035dc4       _fclose_nolock             0000000180036dc4 f   LIBCMT:fclose.obj
 0001:00035e40       fclose                     0000000180036e40 f   LIBCMT:fclose.obj
 0001:00035ea8       _wfsopen                   0000000180036ea8 f   LIBCMT:wfopen.obj
 0001:00035f88       _wfopen                    0000000180036f88 f   LIBCMT:wfopen.obj
 0001:00035f94       wcsrchr                    0000000180036f94 f   LIBCMT:wcsrchr.obj
 0001:00035fd0       memmove                    0000000180036fd0     LIBCMT:memcpy.obj
 0001:00035fd0       memcpy                     0000000180036fd0 f   LIBCMT:memcpy.obj
 0001:00036304       _wcsdup                    0000000180037304 f   LIBCMT:wcsdup.obj
 0001:00036304       wcsdup                     0000000180037304 f   LIBCMT:wcsdup.obj
 0001:0003637c       _fread_nolock_s            000000018003737c f   LIBCMT:fread.obj
 0001:000365b4       fread_s                    00000001800375b4 f   LIBCMT:fread.obj
 0001:0003665c       fread                      000000018003765c f   LIBCMT:fread.obj
 0001:0003667c       feof                       000000018003767c f   LIBCMT:feoferr.obj
 0001:000366a4       ferror                     00000001800376a4 f   LIBCMT:feoferr.obj
 0001:000366cc       strerror                   00000001800376cc f   LIBCMT:strerror.obj
 0001:00036768       _get_errno_from_oserr      0000000180037768 f   LIBCMT:dosmap.obj
 0001:000367b0       _errno                     00000001800377b0 f   LIBCMT:dosmap.obj
 0001:000367d0       __doserrno                 00000001800377d0 f   LIBCMT:dosmap.obj
 0001:000367f0       _dosmaperr                 00000001800377f0 f   LIBCMT:dosmap.obj
 0001:00036838       rewind                     0000000180037838 f   LIBCMT:rewind.obj
 0001:000368f8       getc                       00000001800378f8 f   LIBCMT:fgetc.obj
 0001:000369fc       _ungetc_nolock             00000001800379fc f   LIBCMT:ungetc.obj
 0001:00036b08       ungetc                     0000000180037b08 f   LIBCMT:ungetc.obj
 0001:00036b68       _wfreopen_helper           0000000180037b68 f   LIBCMT:wfreopen.obj
 0001:00036c58       _wfreopen                  0000000180037c58 f   LIBCMT:wfreopen.obj
 0001:00036c88       __iob_func                 0000000180037c88 f   LIBCMT:_file.obj
 0001:00036c90       __initstdio                0000000180037c90 f   LIBCMT:_file.obj
 0001:00036d70       __endstdio                 0000000180037d70 f   LIBCMT:_file.obj
 0001:00036d98       _lock_file                 0000000180037d98 f   LIBCMT:_file.obj
 0001:00036dfc       _lock_file2                0000000180037dfc f   LIBCMT:_file.obj
 0001:00036e30       _unlock_file               0000000180037e30 f   LIBCMT:_file.obj
 0001:00036e7c       _unlock_file2              0000000180037e7c f   LIBCMT:_file.obj
 0001:00036e9c       wcsstr                     0000000180037e9c f   LIBCMT:wcsstr.obj
 0001:00036f00       strchr                     0000000180037f00 f   LIBCMT:strchr.obj
 0001:00036f1c       wcsncpy                    0000000180037f1c f   LIBCMT:wcsncpy.obj
 0001:00036f64       iswctype                   0000000180037f64 f   LIBCMT:iswctype.obj
 0001:00036fcc       wcschr                     0000000180037fcc f   LIBCMT:wcschr.obj
 0001:00036fec       ??0_LocaleUpdate@@QEAA@PEAUlocaleinfo_struct@@@Z 0000000180037fec f i LIBCMT:wcsicmp.obj
 0001:00037090       _wcsicmp_l                 0000000180038090 f   LIBCMT:wcsicmp.obj
 0001:00037194       _wcsicmp                   0000000180038194 f   LIBCMT:wcsicmp.obj
 0001:00037230       strncmp                    0000000180038230 f   LIBCMT:strncmp.obj
 0001:000372e8       fprintf                    00000001800382e8 f   LIBCMT:fprintf.obj
 0001:00037430       memcmp                     0000000180038430 f   LIBCMT:memcmp.obj
 0001:000374f8       isdigit                    00000001800384f8 f i LIBCMT:_ctype.obj
 0001:00037578       isxdigit                   0000000180038578 f i LIBCMT:_ctype.obj
 0001:000375fc       isspace                    00000001800385fc f i LIBCMT:_ctype.obj
 0001:0003767c       memchr                     000000018003867c f   LIBCMT:memchr.obj
 0001:00037698       strpbrk                    0000000180038698 f   LIBCMT:strpbrk.obj
 0001:00037750       strncpy                    0000000180038750 f   LIBCMT:strncpy.obj
 0001:000378b4       _snwprintf                 00000001800388b4 f   LIBCMT:snwprint.obj
 0001:00037a30       _pclose                    0000000180038a30 f   LIBCMT:popen.obj
 0001:00037b0c       _wpopen                    0000000180038b0c f   LIBCMT:wpopen.obj
 0001:000382f0       _tmpfile_helper            00000001800392f0 f   LIBCMT:tmpfile.obj
 0001:0003857c       tmpfile                    000000018003957c f   LIBCMT:tmpfile.obj
 0001:000385a0       vfscanf                    00000001800395a0 f   LIBCMT:fscanf.obj
 0001:000386c4       fscanf                     00000001800396c4 f   LIBCMT:fscanf.obj
 0001:000386fc       fgets                      00000001800396fc f   LIBCMT:fgets.obj
 0001:00038864       clearerr_s                 0000000180039864 f   LIBCMT:clearerr.obj
 0001:0003891c       clearerr                   000000018003991c f   LIBCMT:clearerr.obj
 0001:00038924       _fwrite_nolock             0000000180039924 f   LIBCMT:fwrite.obj
 0001:00038ab0       fwrite                     0000000180039ab0 f   LIBCMT:fwrite.obj
 0001:00038b40       _ftell_nolock              0000000180039b40 f   LIBCMT:ftell.obj
 0001:00038cf8       ftell                      0000000180039cf8 f   LIBCMT:ftell.obj
 0001:00038d50       _fseek_nolock              0000000180039d50 f   LIBCMT:fseek.obj
 0001:00038e04       fseek                      0000000180039e04 f   LIBCMT:fseek.obj
 0001:00038e80       setvbuf                    0000000180039e80 f   LIBCMT:setvbuf.obj
 0001:00038f90       _flush                     0000000180039f90 f   LIBCMT:fflush.obj
 0001:0003900c       _fflush_nolock             000000018003a00c f   LIBCMT:fflush.obj
 0001:00039144       fflush                     000000018003a144 f   LIBCMT:fflush.obj
 0001:00039188       _flushall                  000000018003a188 f   LIBCMT:fflush.obj
 0001:00039194       strrchr                    000000018003a194 f   LIBCMT:strrchr.obj
 0001:000391bc       _wgetenv_helper_nolock     000000018003a1bc f   LIBCMT:wgetenv.obj
 0001:00039278       _wgetenv                   000000018003a278 f   LIBCMT:wgetenv.obj
 0001:000392e4       _wdupenv_s                 000000018003a2e4 f   LIBCMT:wgetenv.obj
 0001:000393e8       _wsystem                   000000018003a3e8 f   LIBCMT:wsystem.obj
 0001:000394f0       wcscmp                     000000018003a4f0 f   LIBCMT:wcscmp.obj
 0001:0003952c       _CRT_INIT                  000000018003a52c f   LIBCMT:dllcrt0.obj
 0001:0003979c       _DllMainCRTStartup         000000018003a79c f   LIBCMT:dllcrt0.obj
 0001:000397dc       _forcdecpt_l               000000018003a7dc f   LIBCMT:cvt.obj
 0001:0003985c       _cropzeros_l               000000018003a85c f   LIBCMT:cvt.obj
 0001:000398fc       _positive                  000000018003a8fc f   LIBCMT:cvt.obj
 0001:00039914       _fassign_l                 000000018003a914 f   LIBCMT:cvt.obj
 0001:00039958       _fassign                   000000018003a958 f   LIBCMT:cvt.obj
 0001:00039960       _forcdecpt                 000000018003a960 f   LIBCMT:cvt.obj
 0001:00039968       _cropzeros                 000000018003a968 f   LIBCMT:cvt.obj
 0001:00039ba4       _cftoe_l                   000000018003aba4 f   LIBCMT:cvt.obj
 0001:00039c9c       _cftoa_l                   000000018003ac9c f   LIBCMT:cvt.obj
 0001:0003a218       _cftof_l                   000000018003b218 f   LIBCMT:cvt.obj
 0001:0003a2ec       _cftog_l                   000000018003b2ec f   LIBCMT:cvt.obj
 0001:0003a420       _cfltcvt_l                 000000018003b420 f   LIBCMT:cvt.obj
 0001:0003a4b8       _cfltcvt                   000000018003b4b8 f   LIBCMT:cvt.obj
 0001:0003a4dc       _initp_misc_cfltcvt_tab    000000018003b4dc f   LIBCMT:cmiscdat.obj
 0001:0003a514       _flsbuf                    000000018003b514 f   LIBCMT:_flsbuf.obj
 0001:0003a7e8       _output_l                  000000018003b7e8 f   LIBCMT:output.obj
 0001:0003b24c       _initp_misc_invarg         000000018003c24c f   LIBCMT:invarg.obj
 0001:0003b254       _call_reportfault          000000018003c254 f   LIBCMT:invarg.obj
 0001:0003b3a0       _invoke_watson             000000018003c3a0 f   LIBCMT:invarg.obj
 0001:0003b3d4       _invalid_parameter         000000018003c3d4 f   LIBCMT:invarg.obj
 0001:0003b444       _invalid_parameter_noinfo  000000018003c444 f   LIBCMT:invarg.obj
 0001:0003b480       _get_fpsr                  000000018003c480 f   LIBCMT:_fpsr_.obj
 0001:0003b490       _set_fpsr                  000000018003c490 f   LIBCMT:_fpsr_.obj
 0001:0003b49a       _fclrf                     000000018003c49a f   LIBCMT:_fpsr_.obj
 0001:0003b4ae       _frnd                      000000018003c4ae f   LIBCMT:_fpsr_.obj
 0001:0003b4d0       __C_specific_handler       000000018003c4d0 f   LIBCMT:chandler.obj
 0001:0003b6d0       _heap_init                 000000018003c6d0 f   LIBCMT:heapinit.obj
 0001:0003b728       _heap_term                 000000018003c728 f   LIBCMT:heapinit.obj
 0001:0003b748       __crtCorExitProcess        000000018003c748 f   LIBCMT:crt0dat.obj
 0001:0003b784       __crtExitProcess           000000018003c784 f   LIBCMT:crt0dat.obj
 0001:0003b79c       _lockexit                  000000018003c79c f   LIBCMT:crt0dat.obj
 0001:0003b7a8       _unlockexit                000000018003c7a8 f   LIBCMT:crt0dat.obj
 0001:0003b7b4       _init_pointers             000000018003c7b4 f   LIBCMT:crt0dat.obj
 0001:0003b82c       _initterm_e                000000018003c82c f   LIBCMT:crt0dat.obj
 0001:0003b868       _cinit                     000000018003c868 f   LIBCMT:crt0dat.obj
 0001:0003baa8       _exit                      000000018003caa8 f   LIBCMT:crt0dat.obj
 0001:0003bab4       _cexit                     000000018003cab4 f   LIBCMT:crt0dat.obj
 0001:0003bac4       _amsg_exit                 000000018003cac4 f   LIBCMT:crt0dat.obj
 0001:0003baec       _GET_RTERRMSG              000000018003caec f   LIBCMT:crt0msg.obj
 0001:0003bb18       _NMSG_WRITE                000000018003cb18 f   LIBCMT:crt0msg.obj
 0001:0003bd78       _FF_MSGBANNER              000000018003cd78 f   LIBCMT:crt0msg.obj
 0001:0003bdbc       _initp_heap_handler        000000018003cdbc f   LIBCMT:handler.obj
 0001:0003bdc4       _callnewh                  000000018003cdc4 f   LIBCMT:handler.obj
 0001:0003bdf8       _close_nolock              000000018003cdf8 f   LIBCMT:close.obj
 0001:0003beb4       _close                     000000018003ceb4 f   LIBCMT:close.obj
 0001:0003bf78       _fileno                    000000018003cf78 f   LIBCMT:fileno.obj
 0001:0003bfa0       _freebuf                   000000018003cfa0 f   LIBCMT:_freebuf.obj
 0001:0003bfd8       _wopenfile                 000000018003cfd8 f   LIBCMT:_wopen.obj
 0001:0003c2b8       _getstream                 000000018003d2b8 f   LIBCMT:stream.obj
 0001:0003c420       _local_unwind              000000018003d420 f   LIBCMT:jmpuwind.obj
 0001:0003c450       _NLG_Notify                000000018003d450 f   LIBCMT:jmpuwind.obj
 0001:0003c470       __NLG_Dispatch2            000000018003d470 f   LIBCMT:jmpuwind.obj
 0001:0003c480       __NLG_Return2              000000018003d480 f   LIBCMT:jmpuwind.obj
 0001:0003c484       wcscpy_s                   000000018003d484 f   LIBCMT:wcscpy_s.obj
 0001:0003c4f0       calloc                     000000018003d4f0 f   LIBCMT:calloc.obj
 0001:0003c534       wcslen                     000000018003d534 f   LIBCMT:wcslen.obj
 0001:0003c550       _filbuf                    000000018003d550 f   LIBCMT:_filbuf.obj
 0001:0003c6a4       _read_nolock               000000018003d6a4 f   LIBCMT:read.obj
 0001:0003cdc8       _read                      000000018003ddc8 f   LIBCMT:read.obj
 0001:0003cee4       memcpy_s                   000000018003dee4 f   LIBCMT:memcpy_s.obj
 0001:0003cf6c       __sys_nerr                 000000018003df6c f   LIBCMT:syserr.obj
 0001:0003cf74       __sys_errlist              000000018003df74 f   LIBCMT:syserr.obj
 0001:0003cf7c       strcpy_s                   000000018003df7c f   LIBCMT:strcpy_s.obj
 0001:0003cfe0       _malloc_crt                000000018003dfe0 f   LIBCMT:crtheap.obj
 0001:0003d060       _calloc_crt                000000018003e060 f   LIBCMT:crtheap.obj
 0001:0003d0e4       _realloc_crt               000000018003e0e4 f   LIBCMT:crtheap.obj
 0001:0003d16c       _recalloc_crt              000000018003e16c f   LIBCMT:crtheap.obj
 0001:0003d1f4       _encoded_null              000000018003e1f4 f   LIBCMT:tidtable.obj
 0001:0003d200       __set_flsgetvalue          000000018003e200 f   LIBCMT:tidtable.obj
 0001:0003d204       _mtterm                    000000018003e204 f   LIBCMT:tidtable.obj
 0001:0003d22c       _initptd                   000000018003e22c f   LIBCMT:tidtable.obj
 0001:0003d2e4       _getptd_noexit             000000018003e2e4 f   LIBCMT:tidtable.obj
 0001:0003d368       _getptd                    000000018003e368 f   LIBCMT:tidtable.obj
 0001:0003d38c       _freefls                   000000018003e38c f   LIBCMT:tidtable.obj
 0001:0003d4c0       _freeptd                   000000018003e4c0 f   LIBCMT:tidtable.obj
 0001:0003d500       _mtinit                    000000018003e500 f   LIBCMT:tidtable.obj
 0001:0003d584       _lseek_nolock              000000018003e584 f   LIBCMT:lseek.obj
 0001:0003d61c       _lseek                     000000018003e61c f   LIBCMT:lseek.obj
 0001:0003d6fc       _ioinit                    000000018003e6fc f   LIBCMT:ioinit.obj
 0001:0003d9d0       _ioterm                    000000018003e9d0 f   LIBCMT:ioinit.obj
 0001:0003da44       _getbuf                    000000018003ea44 f   LIBCMT:_getbuf.obj
 0001:0003da98       _fcloseall                 000000018003ea98 f   LIBCMT:closeall.obj
 0001:0003db44       _mtinitlocks               000000018003eb44 f   LIBCMT:mlock.obj
 0001:0003dbc8       _mtdeletelocks             000000018003ebc8 f   LIBCMT:mlock.obj
 0001:0003dc50       _unlock                    000000018003ec50 f   LIBCMT:mlock.obj
 0001:0003dc68       _mtinitlocknum             000000018003ec68 f   LIBCMT:mlock.obj
 0001:0003dd50       _lock                      000000018003ed50 f   LIBCMT:mlock.obj
 0001:0003e010       __updatetmbcinfo           000000018003f010 f   LIBCMT:mbctype.obj
 0001:0003e15c       _setmbcp_nolock            000000018003f15c f   LIBCMT:mbctype.obj
 0001:0003e3d4       _setmbcp                   000000018003f3d4 f   LIBCMT:mbctype.obj
 0001:0003e5b4       __initmbctable             000000018003f5b4 f   LIBCMT:mbctype.obj
 0001:0003e5dc       __addlocaleref             000000018003f5dc f   LIBCMT:localref.obj
 0001:0003e668       __removelocaleref          000000018003f668 f   LIBCMT:localref.obj
 0001:0003e70c       __freetlocinfo             000000018003f70c f   LIBCMT:localref.obj
 0001:0003e888       _updatetlocinfoEx_nolock   000000018003f888 f   LIBCMT:localref.obj
 0001:0003e8e0       __updatetlocinfo           000000018003f8e0 f   LIBCMT:localref.obj
 0001:0003e958       _towlower_l                000000018003f958 f   LIBCMT:towlower.obj
 0001:0003ea30       _stbuf                     000000018003fa30 f   LIBCMT:_sftbuf.obj
 0001:0003eb04       _ftbuf                     000000018003fb04 f   LIBCMT:_sftbuf.obj
 0001:0003eb3c       _isctype_l                 000000018003fb3c f   LIBCMT:isctype.obj
 0001:0003ec24       __GSHandlerCheckCommon     000000018003fc24 f   LIBCMT:gshandler.obj
 0001:0003ec88       __GSHandlerCheck           000000018003fc88 f   LIBCMT:gshandler.obj
 0001:0003ecc0       __security_check_cookie    000000018003fcc0 f   LIBCMT:amdsecgs.obj
 0001:0003ee18       _woutput_l                 000000018003fe18 f   LIBCMT:woutput.obj
 0001:0003f8f8       _mbsrchr_l                 00000001800408f8 f   LIBCMT:mbsrchr.obj
 0001:0003f9d8       _mbsrchr                   00000001800409d8 f   LIBCMT:mbsrchr.obj
 0001:0003f9e0       strcat_s                   00000001800409e0 f   LIBCMT:strcat_s.obj
 0001:0003fa70       strlen                     0000000180040a70 f   LIBCMT:strlen.obj
 0001:0003fb18       _pipe                      0000000180040b18 f   LIBCMT:pipe.obj
 0001:0003fdfc       _cwait                     0000000180040dfc f   LIBCMT:wait.obj
 0001:0003feb0       __GSHandlerCheck_SEH       0000000180040eb0 f   LIBCMT:gshandlerseh.obj
 0001:0003ff44       _wgetpath                  0000000180040f44 f   LIBCMT:wgetpath.obj
 0001:00040028       _waccess_s                 0000000180041028 f   LIBCMT:waccess.obj
 0001:000400a8       wcscat_s                   00000001800410a8 f   LIBCMT:wcscat_s.obj
 0001:00040130       _wfdopen                   0000000180041130 f   LIBCMT:wfdopen.obj
 0001:000403e0       _ultoa_s                   00000001800413e0 f   LIBCMT:xtoas.obj
 0001:000403f4       _getpid                    00000001800413f4 f   LIBCMT:getpid.obj
 0001:00040668       strtoul                    0000000180041668 f   LIBCMT:strtol.obj
 0001:0004069c       _rmtmp                     000000018004169c f   LIBCMT:rmtmp.obj
 0001:0004073c       _strdup                    000000018004173c f   LIBCMT:strdup.obj
 0001:00040f54       _sopen_helper              0000000180041f54 f   LIBCMT:open.obj
 0001:00041028       _sopen_s                   0000000180042028 f   LIBCMT:open.obj
 0001:0004111c       _input_l                   000000018004211c f   LIBCMT:input.obj
 0001:00042190       _write_nolock              0000000180043190 f   LIBCMT:write.obj
 0001:000428f0       _write                     00000001800438f0 f   LIBCMT:write.obj
 0001:000429d0       _commit                    00000001800439d0 f   LIBCMT:commit.obj
 0001:00042aa8       _wcsnicoll_l               0000000180043aa8 f   LIBCMT:wcsnicol.obj
 0001:00042bd0       _wcsnicoll                 0000000180043bd0 f   LIBCMT:wcsnicol.obj
 0001:00042c64       __mbtow_environ            0000000180043c64 f   LIBCMT:mbtowenv.obj
 0001:00042d2c       _wsetenvp                  0000000180043d2c f   LIBCMT:wstdenvp.obj
 0001:00042e64       __crtGetEnvironmentStringsW 0000000180043e64 f   LIBCMT:w_env.obj
 0001:00042eec       wcsnlen                    0000000180043eec f   LIBCMT:wcslen_s.obj
 0001:00042f0c       _wspawnvpe                 0000000180043f0c f   LIBCMT:wspwnvpe.obj
 0001:00043224       _wspawnve                  0000000180044224 f   LIBCMT:wspawnve.obj
 0001:000434b4       _setenvp                   00000001800444b4 f   LIBCMT:stdenvp.obj
 0001:000437b4       _setargv                   00000001800447b4 f   LIBCMT:stdargv.obj
 0001:000438ac       __crtGetEnvironmentStringsA 00000001800448ac f   LIBCMT:a_env.obj
 0001:000439a0       _RTC_Initialize            00000001800449a0 f   LIBCMT:_initsect_.obj
 0001:000439d8       _RTC_Terminate             00000001800449d8 f   LIBCMT:_initsect_.obj
 0001:00043a10       _XcptFilter                0000000180044a10 f   LIBCMT:winxfltr.obj
 0001:00043be0       __CppXcptFilter            0000000180044be0 f   LIBCMT:winxfltr.obj
 0001:00043bf4       __security_init_cookie     0000000180044bf4 f   LIBCMT:gs_support.obj
 0001:00043ca8       _tolower_l                 0000000180044ca8 f   LIBCMT:tolower.obj
 0001:00043df8       tolower                    0000000180044df8 f   LIBCMT:tolower.obj
 0001:00043e18       _atodbl_l                  0000000180044e18 f   LIBCMT:atodbl.obj
 0001:00043f18       _atoflt_l                  0000000180044f18 f   LIBCMT:atodbl.obj
 0001:00044018       _fptostr                   0000000180045018 f   LIBCMT:_fptostr.obj
 0001:000440e4       __dtold                    00000001800450e4 f   LIBCMT:_cfout_.obj
 0001:000441ac       _fltout2                   00000001800451ac f   LIBCMT:_cfout_.obj
 0001:00044264       _fptrap                    0000000180045264 f   LIBCMT:crt0fp.obj
 0001:00044270       _lseeki64_nolock           0000000180045270 f   LIBCMT:lseeki64.obj
 0001:00044308       _lseeki64                  0000000180045308 f   LIBCMT:lseeki64.obj
 0001:000443ec       _isatty                    00000001800453ec f   LIBCMT:isatty.obj
 0001:0004444c       _isleadbyte_l              000000018004544c f i LIBCMT:_wctype.obj
 0001:00044494       isleadbyte                 0000000180045494 f i LIBCMT:_wctype.obj
 0001:000444dc       _get_printf_count_output   00000001800454dc f   LIBCMT:printf.obj
 0001:000444f4       _wctomb_s_l                00000001800454f4 f   LIBCMT:wctomb.obj
 0001:000446b8       wctomb_s                   00000001800456b8 f   LIBCMT:wctomb.obj
 0001:000446cc       __crt_debugger_hook        00000001800456cc f   LIBCMT:dbghook.obj
 0001:000446e0       _ValidateImageBase         00000001800456e0 f   LIBCMT:pesect.obj
 0001:00044710       _FindPESection             0000000180045710 f   LIBCMT:pesect.obj
 0001:00044760       _IsNonwritableInCurrentImage 0000000180045760 f   LIBCMT:pesect.obj
 0001:000447a4       ?terminate@@YAXXZ          00000001800457a4 f   LIBCMT:hooks.obj
 0001:000447c8       _initp_eh_hooks            00000001800457c8 f   LIBCMT:hooks.obj
 0001:000447e8       _initp_misc_winsig         00000001800457e8 f   LIBCMT:winsig.obj
 0001:00044808       __get_sigabrt              0000000180045808 f   LIBCMT:winsig.obj
 0001:00044818       raise                      0000000180045818 f   LIBCMT:winsig.obj
 0001:00044a4c       _initp_misc_rand_s         0000000180045a4c f   LIBCMT:rand_s.obj
 0001:00044a54       _initp_misc_purevirt       0000000180045a54 f   LIBCMT:inithelp.obj
 0001:00044a5c       __onexitinit               0000000180045a5c f   LIBCMT:onexit.obj
 0001:00044aa0       _onexit                    0000000180045aa0 f   LIBCMT:onexit.obj
 0001:00044bac       atexit                     0000000180045bac f   LIBCMT:onexit.obj
 0001:00044bc4       __crtMessageBoxW           0000000180045bc4 f   LIBCMT:crtmboxw.obj
 0001:00044dcc       wcsncpy_s                  0000000180045dcc f   LIBCMT:wcsncpy_s.obj
 0001:00044e9c       _set_error_mode            0000000180045e9c f   LIBCMT:errmode.obj
 0001:00044edc       _set_osfhnd                0000000180045edc f   LIBCMT:osfinfo.obj
 0001:00044f8c       _free_osfhnd               0000000180045f8c f   LIBCMT:osfinfo.obj
 0001:00045038       _get_osfhandle             0000000180046038 f   LIBCMT:osfinfo.obj
 0001:000450ac       __lock_fhandle             00000001800460ac f   LIBCMT:osfinfo.obj
 0001:00045154       _unlock_fhandle            0000000180046154 f   LIBCMT:osfinfo.obj
 0001:0004517c       _alloc_osfhnd              000000018004617c f   LIBCMT:osfinfo.obj
 0001:00045b2c       _wsopen_helper             0000000180046b2c f   LIBCMT:wopen.obj
 0001:00045c00       _wsopen_s                  0000000180046c00 f   LIBCMT:wopen.obj
 0001:00045c34       _wcsnicmp_l                0000000180046c34 f   LIBCMT:wcsnicmp.obj
 0001:00045d4c       _wcsnicmp                  0000000180046d4c f   LIBCMT:wcsnicmp.obj
 0001:00045de4       wcsncmp                    0000000180046de4 f   LIBCMT:wcsncmp.obj
 0001:00045e10       _calloc_impl               0000000180046e10 f   LIBCMT:calloc_impl.obj
 0001:00045eac       realloc                    0000000180046eac f   LIBCMT:realloc.obj
 0001:00045f80       _recalloc                  0000000180046f80 f   LIBCMT:recalloc.obj
 0001:000462d4       __crtLCMapStringA          00000001800472d4 f   LIBCMT:a_map.obj
 0001:000464cc       __crtGetStringTypeA        00000001800474cc f   LIBCMT:a_str.obj
 0001:0004654c       __free_lc_time             000000018004754c f   LIBCMT:inittime.obj
 0001:0004693c       __free_lconv_num           000000018004793c f   LIBCMT:initnum.obj
 0001:000469a8       __free_lconv_mon           00000001800479a8 f   LIBCMT:initmon.obj
 0001:00046ab4       __crtLCMapStringW          0000000180047ab4 f   LIBCMT:w_map.obj
 0001:00046b30       strcmp                     0000000180047b30 f   LIBCMT:strcmp.obj
 0001:00046be0       __report_gsfailure         0000000180047be0 f   LIBCMT:gs_report.obj
 0001:00046d2c       _fputwc_nolock             0000000180047d2c f   LIBCMT:fputwc.obj
 0001:00046f2c       _mbtowc_l                  0000000180047f2c f   LIBCMT:mbtowc.obj
 0001:000470a4       mbtowc                     00000001800480a4 f   LIBCMT:mbtowc.obj
 0001:000470ac       strnlen                    00000001800480ac f   LIBCMT:strlen_s.obj
 0001:000470c8       _setmode_nolock            00000001800480c8 f   LIBCMT:setmode.obj
 0001:00047198       _get_fmode                 0000000180048198 f   LIBCMT:setmode.obj
 0001:000471c8       _chsize_nolock             00000001800481c8 f   LIBCMT:chsize.obj
 0001:00047360       _putwch_nolock             0000000180048360 f   LIBCMT:putwch.obj
 0001:000473bc       __crtCompareStringW        00000001800483bc f   LIBCMT:w_cmp.obj
 0001:00047464       __crtwsetenv               0000000180048464 f   LIBCMT:wsetenv.obj
 0001:00047820       _wdospawn                  0000000180048820 f   LIBCMT:wdospawn.obj
 0001:00047ac8       _wcenvarg                  0000000180048ac8 f   LIBCMT:wcenvarg.obj
 0001:00048038       _ismbblead                 0000000180049038 f   LIBCMT:ismbbyte.obj
 0001:0004804c       _ld12tod                   000000018004904c f   LIBCMT:_intrncvt_.obj
 0001:00048618       _ld12tof                   0000000180049618 f   LIBCMT:_intrncvt_.obj
 0001:00048be4       __strgtold12_l             0000000180049be4 f   LIBCMT:_strgtold_.obj
 0001:00049448       $I10_OUTPUT                000000018004a448 f   LIBCMT:_x10fout_.obj
 0001:00049efc       abort                      000000018004aefc f   LIBCMT:abort.obj
 0001:00049f3c       _msize                     000000018004af3c f   LIBCMT:msize.obj
 0001:00049f78       _flswbuf                   000000018004af78 f   LIBCMT:_flswbuf.obj
 0001:0004a108       __initconout               000000018004b108 f   LIBCMT:initcon.obj
 0001:0004a144       __termconout               000000018004b144 f   LIBCMT:initcon.obj
 0001:0004a168       __mtold12                  000000018004b168 f   LIBCMT:_mantold_.obj
 0001:0004a382       RtlVirtualUnwind           000000018004b382 f   kernel32:KERNEL32.dll
 0001:0004a388       RtlLookupFunctionEntry     000000018004b388 f   kernel32:KERNEL32.dll
 0001:0004a38e       RtlUnwindEx                000000018004b38e f   kernel32:KERNEL32.dll
 0001:0004a590       _strupr_s_l                000000018004b590 f   LIBCMT:strupr.obj
 0001:0004a5dc       _strupr                    000000018004b5dc f   LIBCMT:strupr.obj
 0001:0004a5dc       strupr                     000000018004b5dc f   LIBCMT:strupr.obj
 0001:0004dc20       __IMPORT_DESCRIPTOR_KERNEL32 000000018004ec20     kernel32:KERNEL32.dll
 0001:0004dc34       __IMPORT_DESCRIPTOR_ADVAPI32 000000018004ec34     advapi32:ADVAPI32.dll
 0001:0004dc48       __IMPORT_DESCRIPTOR_SHELL32 000000018004ec48     shell32:SHELL32.dll
 0001:0004dc5c       __IMPORT_DESCRIPTOR_lua51  000000018004ec5c     lua51:lua51.dll
 0001:0004dc70       __IMPORT_DESCRIPTOR_RPCRT4 000000018004ec70     rpcrt4:RPCRT4.dll
 0001:0004dc84       __NULL_IMPORT_DESCRIPTOR   000000018004ec84     kernel32:KERNEL32.dll
 0002:00000000       Keys                       0000000180051000     flags.obj
 0002:00001590       VirtualKeyStrings          0000000180052590     service.obj
 0002:00008b0c       _fltused                   0000000180059b0c     LIBCMT:_fpinit_.obj
 0002:00008b10       _ldused                    0000000180059b10     LIBCMT:_fpinit_.obj
 0002:00008b14       ?dazSupported@?1??_control87@@9@9 0000000180059b14     LIBCMT:_ieee_.obj
 0002:00008c90       _iob                       0000000180059c90     LIBCMT:_file.obj
 0002:00009050       _cfltcvt_tab               000000018005a050     LIBCMT:cmiscdat.obj
 0002:000090a0       __nullstring               000000018005a0a0     LIBCMT:output.obj
 0002:000090a8       __wnullstring              000000018005a0a8     LIBCMT:output.obj
 0002:000090b0       _lookuptrailbytes          000000018005a0b0     LIBCMT:read.obj
 0002:000091b0       _sys_errlist               000000018005a1b0     LIBCMT:syserr.obj
 0002:00009310       _sys_nerr                  000000018005a310     LIBCMT:syserr.obj
 0002:00009314       __flsindex                 000000018005a314     LIBCMT:tidtable.obj
 0002:00009320       __badioinfo                000000018005a320     LIBCMT:ioinit.obj
 0002:000095c0       _pctype                    000000018005a5c0     LIBCMT:ctype.obj
 0002:000095c8       _pwctype                   000000018005a5c8     LIBCMT:ctype.obj
 0002:000095d0       __initialmbcinfo           000000018005a5d0     LIBCMT:mbctype.obj
 0002:000097f0       _mbctype                   000000018005a7f0     LIBCMT:mbctype.obj
 0002:00009900       _mbcasemap                 000000018005a900     LIBCMT:mbctype.obj
 0002:00009a00       __ptmbcinfo                000000018005aa00     LIBCMT:mbctype.obj
 0002:00009b00       __globallocalestatus       000000018005ab00     LIBCMT:glstatus.obj
 0002:00009b04       __clocalestr               000000018005ab04     LIBCMT:nlsdata2.obj
 0002:00009b10       __lc_time_c                000000018005ab10     LIBCMT:nlsdata2.obj
 0002:00009dd0       __initiallocinfo           000000018005add0     LIBCMT:nlsdata2.obj
 0002:00009f30       __ptlocinfo                000000018005af30     LIBCMT:nlsdata2.obj
 0002:00009f38       __initiallocalestructinfo  000000018005af38     LIBCMT:nlsdata2.obj
 0002:00009f50       __security_cookie          000000018005af50     LIBCMT:gs_cookie.obj
 0002:00009f58       __security_cookie_complement 000000018005af58     LIBCMT:gs_cookie.obj
 0002:00009f60       _tmpoff                    000000018005af60     LIBCMT:rmtmp.obj
 0002:00009f64       _tempoff                   000000018005af64     LIBCMT:rmtmp.obj
 0002:00009f90       __lconv_static_decimal     000000018005af90     LIBCMT:lconv.obj
 0002:00009f94       __lconv_static_W_decimal   000000018005af94     LIBCMT:lconv.obj
 0002:00009f98       __lconv                    000000018005af98     LIBCMT:lconv.obj
 0002:00009fa0       __lconv_c                  000000018005afa0     LIBCMT:lconv.obj
 0002:0000a038       __mb_cur_max               000000018005b038     LIBCMT:nlsdata1.obj
 0002:0000a03c       __decimal_point            000000018005b03c     LIBCMT:nlsdata1.obj
 0002:0000a040       __decimal_point_length     000000018005b040     LIBCMT:nlsdata1.obj
 0002:0000a080       __abort_behavior           000000018005b080     LIBCMT:abort.obj
 0002:0000a088       _confh                     000000018005b088     LIBCMT:initcon.obj
 0002:0000a090       _pow10pos                  000000018005b090     LIBCMT:_constpow_.obj
 0002:0000a1f0       _pow10neg                  000000018005b1f0     LIBCMT:_constpow_.obj
 0002:0000a378       __fastflag                 000000018005b378     LIBCMT:_fpinit_.obj
 0002:0000a37c       _cflush                    000000018005b37c     LIBCMT:_file.obj
 0002:0000a380       __idtabsiz                 000000018005b380     LIBCMT:popen.obj
 0002:0000a388       __idpairs                  000000018005b388     LIBCMT:popen.obj
 0002:0000a3d4       __error_mode               000000018005b3d4     LIBCMT:dllcrt0.obj
 0002:0000a3d8       _aenvptr                   000000018005b3d8     LIBCMT:dllcrt0.obj
 0002:0000a3e0       _wenvptr                   000000018005b3e0     LIBCMT:dllcrt0.obj
 0002:0000a3e8       __app_type                 000000018005b3e8     LIBCMT:dllcrt0.obj
 0002:0000a3f0       __pInvalidArgHandler       000000018005b3f0     LIBCMT:invarg.obj
 0002:0000a3f8       _crtheap                   000000018005b3f8     LIBCMT:heapinit.obj
 0002:0000a400       _umaskval                  000000018005b400     LIBCMT:crt0dat.obj
 0002:0000a404       __argc                     000000018005b404     LIBCMT:crt0dat.obj
 0002:0000a408       __argv                     000000018005b408     LIBCMT:crt0dat.obj
 0002:0000a410       __wargv                    000000018005b410     LIBCMT:crt0dat.obj
 0002:0000a418       _environ                   000000018005b418     LIBCMT:crt0dat.obj
 0002:0000a420       __initenv                  000000018005b420     LIBCMT:crt0dat.obj
 0002:0000a428       _wenviron                  000000018005b428     LIBCMT:crt0dat.obj
 0002:0000a430       __winitenv                 000000018005b430     LIBCMT:crt0dat.obj
 0002:0000a438       _pgmptr                    000000018005b438     LIBCMT:crt0dat.obj
 0002:0000a440       _wpgmptr                   000000018005b440     LIBCMT:crt0dat.obj
 0002:0000a448       _exitflag                  000000018005b448     LIBCMT:crt0dat.obj
 0002:0000a44c       _C_Termination_Done        000000018005b44c     LIBCMT:crt0dat.obj
 0002:0000a450       _C_Exit_Done               000000018005b450     LIBCMT:crt0dat.obj
 0002:0000aa88       ?_pnhHeap@@3P6AH_K@ZEA     000000018005ba88     LIBCMT:handler.obj
 0002:0000aa90       _newmode                   000000018005ba90     LIBCMT:_newmode.obj
 0002:0000aa94       _maxwait                   000000018005ba94     LIBCMT:crtheap.obj
 0002:0000acd8       __mbulinfo                 000000018005bcd8     LIBCMT:mbctype.obj
 0002:0000ace4       __mbcodepage               000000018005bce4     LIBCMT:mbctype.obj
 0002:0000ace8       __ismbcodepage             000000018005bce8     LIBCMT:mbctype.obj
 0002:0000acec       __mblcid                   000000018005bcec     LIBCMT:mbctype.obj
 0002:0000acf0       __locale_changed           000000018005bcf0     LIBCMT:setlocal.obj
 0002:0000acf8       _stdbuf                    000000018005bcf8     LIBCMT:_sftbuf.obj
 0002:0000ad08       _old_pfxlen                000000018005bd08     LIBCMT:rmtmp.obj
 0002:0000ad0c       _commode                   000000018005bd0c     LIBCMT:ncommode.obj
 0002:0000ae18       _outputformat              000000018005be18     LIBCMT:outputformat.obj
 0002:0000ae28       ?__pInconsistency@@3P6AXXZEA 000000018005be28     LIBCMT:hooks.obj
 0002:0000ae60       __pPurecall                000000018005be60     LIBCMT:inithelp.obj
 0002:0000ae90       __lconv_static_null        000000018005be90     LIBCMT:lconv.obj
 0002:0000ae94       __lconv_static_W_null      000000018005be94     LIBCMT:lconv.obj
 0002:0000b410       _fmode                     000000018005c410     LIBCMT:txtmode.obj
 0002:0000b420       EnumCP                     000000018005c420     <common>
 0002:0000b430       _debugger_hook_dummy       000000018005c430     <common>
 0002:0000b434       _nhandle                   000000018005c434     <common>
 0002:0000b440       __pioinfo                  000000018005c440     <common>
 0002:0000b640       __env_initialized          000000018005c640     <common>
 0002:0000b648       __onexitend                000000018005c648     <common>
 0002:0000b650       __onexitbegin              000000018005c650     <common>
 0002:0000b658       __mbctype_initialized      000000018005c658     <common>
 0002:0000b660       __dyn_tls_init_callback    000000018005c660     <common>
 0002:0000b668       _pDestructExceptionObject  000000018005c668     <common>
 0002:0000b670       _acmdln                    000000018005c670     <common>
 0002:0000b678       __piob                     000000018005c678     <common>
 0002:0000b680       _bufin                     000000018005c680     <common>
 0002:0000c680       _nstream                   000000018005d680     <common>

 entry point at        0001:0003979c

 Static symbols

 0001:00012f50       band                       0000000180013f50 f   bit64.obj
 0001:000131d0       bor                        00000001800141d0 f   bit64.obj
 0001:00013450       bxor                       0000000180014450 f   bit64.obj
 0001:000136d0       bnot                       00000001800146d0 f   bit64.obj
 0001:000137f0       lshift                     00000001800147f0 f   bit64.obj
 0001:00013900       rshift                     0000000180014900 f   bit64.obj
 0001:00013a10       arshift                    0000000180014a10 f   bit64.obj
 0001:00013b20       f_new                      0000000180014b20 f   bit64.obj
 0001:00013d30       f_tostring                 0000000180014d30 f   bit64.obj
 0001:00013e40       f_type                     0000000180014e40 f   bit64.obj
 0001:00013ee0       f_add                      0000000180014ee0 f   bit64.obj
 0001:00014160       f_sub                      0000000180015160 f   bit64.obj
 0001:00014350       f_mul                      0000000180015350 f   bit64.obj
 0001:000145d0       f_div                      00000001800155d0 f   bit64.obj
 0001:00014830       f_mod                      0000000180015830 f   bit64.obj
 0001:00014a20       f_unm                      0000000180015a20 f   bit64.obj
 0001:00014b40       f_eq                       0000000180015b40 f   bit64.obj
 0001:00014d30       f_lt                       0000000180015d30 f   bit64.obj
 0001:00014f20       f_le                       0000000180015f20 f   bit64.obj
 0001:00016120       RunDefaultScript           0000000180017120 f   exported.obj
 0001:00016360       CheckReloadDefaultScript   0000000180017360 f   exported.obj
 0001:00016400       RegisterObject             0000000180017400 f   exported.obj
 0001:00016470       PushAnalyseInfo            0000000180017470 f   exported.obj
 0001:00017120       FillFarMacroCall_Callback  0000000180018120 f   exported.obj
 0001:00017190       FillFarMacroCall           0000000180018190 f   exported.obj
 0001:00019380       getF                       000000018001a380 f   lflua.obj
 0001:00019410       errfile                    000000018001a410 f   lflua.obj
 0001:0001aad0       FL_PushParams              000000018001bad0 f   luamacro.obj
 0001:0001ab60       InitMPR                    000000018001bb60 f   luamacro.obj
 0001:0001afc0       MacroCallFarCallback       000000018001bfc0 f   luamacro.obj
 0001:0001b290       uc_tostring                000000018001c290 f   lusercontrol.obj
 0001:0001b310       uc_index                   000000018001c310 f   lusercontrol.obj
 0001:0001b3d0       uc_newindex                000000018001c3d0 f   lusercontrol.obj
 0001:0001b4e0       push_far_usercontrol       000000018001c4e0 f   lusercontrol.obj
 0001:0001b570       uc_New                     000000018001c570 f   lusercontrol.obj
 0001:0001b9d0       get_env_flag               000000018001c9d0 f   service.obj
 0001:0001bb00       check_env_flag             000000018001cb00 f   service.obj
 0001:0001bd70       CheckFlags                 000000018001cd70 f   service.obj
 0001:0001bdc0       CheckFlagsFromTable        000000018001cdc0 f   service.obj
 0001:0001bf50       PushPluginHandle           000000018001cf50 f   service.obj
 0001:0001c0f0       far_GetFileOwner           000000018001d0f0 f   service.obj
 0001:0001c1a0       far_GetNumberOfLinks       000000018001d1a0 f   service.obj
 0001:0001c200       GetMouseEvent              000000018001d200 f   service.obj
 0001:0001c350       FillEditorSetPosition      000000018001d350 f   service.obj
 0001:0001c930       far_PluginStartupInfo      000000018001d930 f   service.obj
 0001:0001ca00       far_GetCurrentDirectory    000000018001da00 f   service.obj
 0001:0001ca80       editor_GetFileName         000000018001da80 f   service.obj
 0001:0001cb50       editor_GetInfo             000000018001db50 f   service.obj
 0001:0001ced0       FastGetString              000000018001ded0 f   service.obj
 0001:0001cf70       _EditorGetString           000000018001df70 f   service.obj
 0001:0001d1e0       editor_GetString           000000018001e1e0 f   service.obj
 0001:0001d1f0       editor_GetStringW          000000018001e1f0 f   service.obj
 0001:0001d200       _EditorSetString           000000018001e200 f   service.obj
 0001:0001d340       editor_SetString           000000018001e340 f   service.obj
 0001:0001d350       editor_SetStringW          000000018001e350 f   service.obj
 0001:0001d360       editor_InsertString        000000018001e360 f   service.obj
 0001:0001d3e0       editor_DeleteString        000000018001e3e0 f   service.obj
 0001:0001d440       _EditorInsertText          000000018001e440 f   service.obj
 0001:0001d550       editor_InsertText          000000018001e550 f   service.obj
 0001:0001d5d0       editor_InsertTextW         000000018001e5d0 f   service.obj
 0001:0001d5e0       editor_DeleteChar          000000018001e5e0 f   service.obj
 0001:0001d650       editor_DeleteBlock         000000018001e650 f   service.obj
 0001:0001d6c0       editor_UndoRedo            000000018001e6c0 f   service.obj
 0001:0001d790       FillKeyBarTitles           000000018001e790 f   service.obj
 0001:0001d970       SetKeyBar                  000000018001e970 f   service.obj
 0001:0001dab0       editor_SetKeyBar           000000018001eab0 f   service.obj
 0001:0001dac0       viewer_SetKeyBar           000000018001eac0 f   service.obj
 0001:0001dad0       editor_SetParam            000000018001ead0 f   service.obj
 0001:0001dce0       editor_SetPosition         000000018001ece0 f   service.obj
 0001:0001de10       editor_Redraw              000000018001ee10 f   service.obj
 0001:0001de70       editor_ExpandTabs          000000018001ee70 f   service.obj
 0001:0001def0       PushBookmarks              000000018001eef0 f   service.obj
 0001:0001e0b0       editor_GetBookmarks        000000018001f0b0 f   service.obj
 0001:0001e0c0       editor_GetSessionBookmarks 000000018001f0c0 f   service.obj
 0001:0001e0d0       editor_AddSessionBookmark  000000018001f0d0 f   service.obj
 0001:0001e140       editor_ClearSessionBookmarks 000000018001f140 f   service.obj
 0001:0001e1b0       editor_DeleteSessionBookmark 000000018001f1b0 f   service.obj
 0001:0001e230       editor_NextSessionBookmark 000000018001f230 f   service.obj
 0001:0001e2a0       editor_PrevSessionBookmark 000000018001f2a0 f   service.obj
 0001:0001e310       editor_SetTitle            000000018001f310 f   service.obj
 0001:0001e390       editor_GetTitle            000000018001f390 f   service.obj
 0001:0001e440       editor_Quit                000000018001f440 f   service.obj
 0001:0001e4a0       FillEditorSelect           000000018001f4a0 f   service.obj
 0001:0001e5a0       editor_Select              000000018001f5a0 f   service.obj
 0001:0001e6d0       editor_GetSelection        000000018001f6d0 f   service.obj
 0001:0001eae0       _EditorTabConvert          000000018001fae0 f   service.obj
 0001:0001eba0       editor_TabToReal           000000018001fba0 f   service.obj
 0001:0001ebb0       editor_RealToTab           000000018001fbb0 f   service.obj
 0001:0001ed70       editor_AddColor            000000018001fd70 f   service.obj
 0001:0001ef50       editor_DelColor            000000018001ff50 f   service.obj
 0001:0001f0a0       editor_GetColor            00000001800200a0 f   service.obj
 0001:0001f2a0       editor_SaveFile            00000001800202a0 f   service.obj
 0001:0001f500       editor_ReadInput           0000000180020500 f   service.obj
 0001:0001f7a0       OptInputRecord             00000001800207a0 f   service.obj
 0001:0001f850       editor_ProcessInput        0000000180020850 f   service.obj
 0001:0001f8e0       editor_SubscribeChangeEvent 00000001800208e0 f   service.obj
 0001:0001f980       far_Menu                   0000000180020980 f   service.obj
 0001:00020820       far_Message                0000000180021820 f   service.obj
 0001:000209e0       panel_CheckPanelsExist     00000001800219e0 f   service.obj
 0001:00020a40       panel_ClosePanel           0000000180021a40 f   service.obj
 0001:00020ab0       panel_GetPanelInfo         0000000180021ab0 f   service.obj
 0001:00020d00       get_panel_item             0000000180021d00 f   service.obj
 0001:00020e10       panel_GetPanelItem         0000000180021e10 f   service.obj
 0001:00020f10       panel_GetSelectedPanelItem 0000000180021f10 f   service.obj
 0001:00021010       panel_GetCurrentPanelItem  0000000180022010 f   service.obj
 0001:00021020       get_string_info            0000000180022020 f   service.obj
 0001:00021110       panel_GetPanelFormat       0000000180022110 f   service.obj
 0001:00021120       panel_GetPanelHostFile     0000000180022120 f   service.obj
 0001:00021130       panel_GetColumnTypes       0000000180022130 f   service.obj
 0001:00021140       panel_GetColumnWidths      0000000180022140 f   service.obj
 0001:00021150       panel_GetPanelPrefix       0000000180022150 f   service.obj
 0001:00021160       panel_RedrawPanel          0000000180022160 f   service.obj
 0001:00021270       SetPanelBooleanProperty    0000000180022270 f   service.obj
 0001:00021320       SetPanelIntegerProperty    0000000180022320 f   service.obj
 0001:000213f0       panel_SetCaseSensitiveSort 00000001800223f0 f   service.obj
 0001:00021400       panel_SetNumericSort       0000000180022400 f   service.obj
 0001:00021410       panel_SetSortOrder         0000000180022410 f   service.obj
 0001:00021420       panel_SetDirectoriesFirst  0000000180022420 f   service.obj
 0001:00021430       panel_UpdatePanel          0000000180022430 f   service.obj
 0001:00021440       panel_SetSortMode          0000000180022440 f   service.obj
 0001:00021450       panel_SetViewMode          0000000180022450 f   service.obj
 0001:00021460       panel_GetPanelDirectory    0000000180022460 f   service.obj
 0001:000215c0       panel_SetPanelDirectory    00000001800225c0 f   service.obj
 0001:000217c0       panel_GetCmdLine           00000001800227c0 f   service.obj
 0001:00021860       panel_SetCmdLine           0000000180022860 f   service.obj
 0001:000218e0       panel_GetCmdLinePos        00000001800228e0 f   service.obj
 0001:00021960       panel_SetCmdLinePos        0000000180022960 f   service.obj
 0001:000219e0       panel_InsertCmdLine        00000001800229e0 f   service.obj
 0001:00021a60       panel_GetCmdLineSelection  0000000180022a60 f   service.obj
 0001:00021b10       panel_SetCmdLineSelection  0000000180022b10 f   service.obj
 0001:00021bd0       ChangePanelSelection       0000000180022bd0 f   service.obj
 0001:00021e20       panel_SetSelection         0000000180022e20 f   service.obj
 0001:00021e30       panel_ClearSelection       0000000180022e30 f   service.obj
 0001:00021e40       panel_SetUserScreen        0000000180022e40 f   service.obj
 0001:00021ea0       panel_GetUserScreen        0000000180022ea0 f   service.obj
 0001:00021f00       panel_IsActivePanel        0000000180022f00 f   service.obj
 0001:00021f60       panel_SetActivePanel       0000000180022f60 f   service.obj
 0001:00022000       far_GetDirList             0000000180023000 f   service.obj
 0001:00022350       far_GetPluginDirList       0000000180023350 f   service.obj
 0001:000223f0       far_RestoreScreen          00000001800233f0 f   service.obj
 0001:00022480       far_SaveScreen             0000000180023480 f   service.obj
 0001:00022560       GetDialogItemType          0000000180023560 f   service.obj
 0001:00022600       GetItemFlags               0000000180023600 f   service.obj
 0001:00022860       PushList                   0000000180023860 f   service.obj
 0001:00022950       SetFarDialogItem           0000000180023950 f   service.obj
 0001:00022c30       PushDlgItem                0000000180023c30 f   service.obj
 0001:00022d70       PushDlgItemNum             0000000180023d70 f   service.obj
 0001:00022e50       SetDlgItem                 0000000180023e50 f   service.obj
 0001:00023110       far_SendDlgMessage         0000000180024110 f   service.obj
 0001:00024b90       far_DialogInit             0000000180025b90 f   service.obj
 0001:00024f40       free_dialog                0000000180025f40 f   service.obj
 0001:00024fa0       far_DialogRun              0000000180025fa0 f   service.obj
 0001:00025040       far_DialogFree             0000000180026040 f   service.obj
 0001:000250b0       dialog_tostring            00000001800260b0 f   service.obj
 0001:00025110       dialog_rawhandle           0000000180026110 f   service.obj
 0001:00025160       far_GetDlgItem             0000000180026160 f   service.obj
 0001:00025200       far_SetDlgItem             0000000180026200 f   service.obj
 0001:000252a0       far_SubscribeDialogDrawEvents 00000001800262a0 f   service.obj
 0001:000252c0       editor_Editor              00000001800262c0 f   service.obj
 0001:00025440       viewer_Viewer              0000000180026440 f   service.obj
 0001:00025590       viewer_GetFileName         0000000180026590 f   service.obj
 0001:00025660       viewer_GetInfo             0000000180026660 f   service.obj
 0001:00025930       viewer_Quit                0000000180026930 f   service.obj
 0001:00025990       viewer_Redraw              0000000180026990 f   service.obj
 0001:000259f0       viewer_Select              00000001800269f0 f   service.obj
 0001:00025aa0       viewer_SetPosition         0000000180026aa0 f   service.obj
 0001:00025c60       viewer_SetMode             0000000180026c60 f   service.obj
 0001:00025d90       far_ShowHelp               0000000180026d90 f   service.obj
 0001:00025e50       far_InputBox               0000000180026e50 f   service.obj
 0001:00026030       far_GetMsg                 0000000180027030 f   service.obj
 0001:000260b0       far_Text                   00000001800270b0 f   service.obj
 0001:00026160       far_CopyToClipboard        0000000180027160 f   service.obj
 0001:00026250       far_PasteFromClipboard     0000000180027250 f   service.obj
 0001:00026330       far_InputRecordToName      0000000180027330 f   service.obj
 0001:00026530       far_NameToInputRecord      0000000180027530 f   service.obj
 0001:000265b0       far_LStricmp               00000001800275b0 f   service.obj
 0001:00026630       far_LStrnicmp              0000000180027630 f   service.obj
 0001:000266d0       far_ProcessName            00000001800276d0 f   service.obj
 0001:000268e0       far_GetReparsePointInfo    00000001800278e0 f   service.obj
 0001:00026980       far_LIsAlpha               0000000180027980 f   service.obj
 0001:000269e0       far_LIsAlphanum            00000001800279e0 f   service.obj
 0001:00026a40       far_LIsLower               0000000180027a40 f   service.obj
 0001:00026aa0       far_LIsUpper               0000000180027aa0 f   service.obj
 0001:00026b00       far_LLowerBuf              0000000180027b00 f   service.obj
 0001:00026b70       far_LUpperBuf              0000000180027b70 f   service.obj
 0001:00026be0       far_MkTemp                 0000000180027be0 f   service.obj
 0001:00026c70       far_MkLink                 0000000180027c70 f   service.obj
 0001:00026d50       far_GetPathRoot            0000000180027d50 f   service.obj
 0001:00026df0       truncstring                0000000180027df0 f   service.obj
 0001:00026ee0       far_TruncPathStr           0000000180027ee0 f   service.obj
 0001:00026ef0       far_TruncStr               0000000180027ef0 f   service.obj
 0001:00026f00       FrsUserFunc                0000000180027f00 f   service.obj
 0001:00026ff0       far_RecursiveSearch        0000000180027ff0 f   service.obj
 0001:00027140       far_ConvertPath            0000000180028140 f   service.obj
 0001:00027220       far_AdvControl             0000000180028220 f   service.obj
 0001:00027b20       far_MacroLoadAll           0000000180028b20 f   service.obj
 0001:00027bf0       far_MacroSaveAll           0000000180028bf0 f   service.obj
 0001:00027c40       far_MacroGetState          0000000180028c40 f   service.obj
 0001:00027c90       far_MacroGetArea           0000000180028c90 f   service.obj
 0001:00027ce0       MacroSendString            0000000180028ce0 f   service.obj
 0001:00027e50       far_MacroPost              0000000180028e50 f   service.obj
 0001:00027e60       far_MacroCheck             0000000180028e60 f   service.obj
 0001:00027e70       far_MacroGetLastError      0000000180028e70 f   service.obj
 0001:00028030       far_MacroAdd               0000000180029030 f   service.obj
 0001:000282d0       far_MacroDelete            00000001800292d0 f   service.obj
 0001:00028390       AddMacroData_gc            0000000180029390 f   service.obj
 0001:000283a0       far_MacroExecute           00000001800293a0 f   service.obj
 0001:00028520       far_CPluginStartupInfo     0000000180029520 f   service.obj
 0001:00028590       far_MakeMenuItems          0000000180029590 f   service.obj
 0001:00028930       far_Show                   0000000180029930 f   service.obj
 0001:00028aa0       far_CreateFileFilter       0000000180029aa0 f   service.obj
 0001:00028b80       filefilter_Free            0000000180029b80 f   service.obj
 0001:00028c10       filefilter_gc              0000000180029c10 f   service.obj
 0001:00028c20       filefilter_tostring        0000000180029c20 f   service.obj
 0001:00028c80       filefilter_OpenMenu        0000000180029c80 f   service.obj
 0001:00028d10       filefilter_Starting        0000000180029d10 f   service.obj
 0001:00028da0       filefilter_IsFileInFilter  0000000180029da0 f   service.obj
 0001:00028e70       plugin_load                0000000180029e70 f   service.obj
 0001:00028f40       far_LoadPlugin             0000000180029f40 f   service.obj
 0001:00028f50       far_ForcedLoadPlugin       0000000180029f50 f   service.obj
 0001:00028f60       far_UnloadPlugin           0000000180029f60 f   service.obj
 0001:00028fd0       far_FindPlugin             0000000180029fd0 f   service.obj
 0001:000290b0       PutPluginMenuItemToTable   000000018002a0b0 f   service.obj
 0001:000291d0       PutVersionInfoToTable      000000018002a1d0 f   service.obj
 0001:00029270       far_GetPluginInformation   000000018002a270 f   service.obj
 0001:00029500       far_GetPlugins             000000018002a500 f   service.obj
 0001:00029620       far_IsPluginLoaded         000000018002a620 f   service.obj
 0001:00029740       far_XLat                   000000018002a740 f   service.obj
 0001:00029840       far_FormatFileSize         000000018002a840 f   service.obj
 0001:00029970       far_FarClock               000000018002a970 f   service.obj
 0001:00029ad0       far_Timer                  000000018002aad0 f   service.obj
 0001:00029ca0       timer_Close                000000018002aca0 f   service.obj
 0001:00029cd0       timer_tostring             000000018002acd0 f   service.obj
 0001:00029d30       timer_index                000000018002ad30 f   service.obj
 0001:00029e70       timer_newindex             000000018002ae70 f   service.obj
 0001:00029ff0       far_CreateSettings         000000018002aff0 f   service.obj
 0001:0002a1e0       Settings_set               000000018002b1e0 f   service.obj
 0001:0002a3d0       Settings_get               000000018002b3d0 f   service.obj
 0001:0002a530       Settings_delete            000000018002b530 f   service.obj
 0001:0002a600       Settings_createsubkey      000000018002b600 f   service.obj
 0001:0002a740       Settings_opensubkey        000000018002b740 f   service.obj
 0001:0002a820       Settings_enum              000000018002b820 f   service.obj
 0001:0002ab40       Settings_free              000000018002bb40 f   service.obj
 0001:0002abe0       far_FreeSettings           000000018002bbe0 f   service.obj
 0001:0002ac80       Settings_tostring          000000018002bc80 f   service.obj
 0001:0002ace0       far_ColorDialog            000000018002bce0 f   service.obj
 0001:0002b120       CustomAllocator            000000018002c120 f   service.obj
 0001:0002b250       luaopen_far                000000018002c250 f   service.obj
 0001:0002b6b0       grab_one_utf8              000000018002c6b0 f   slnunico.obj
 0001:0002b760       utf8_enco                  000000018002c760 f   slnunico.obj
 0001:0002b870       utf8_deco                  000000018002c870 f   slnunico.obj
 0001:0002b950       utf8_graphext              000000018002c950 f   slnunico.obj
 0001:0002baa0       utf8_count                 000000018002caa0 f   slnunico.obj
 0001:0002bb80       unic_len                   000000018002cb80 f   slnunico.obj
 0001:0002bc20       unic_sub                   000000018002cc20 f   slnunico.obj
 0001:0002bda0       str_reverse                000000018002cda0 f   slnunico.obj
 0001:0002c0c0       unic_lower                 000000018002d0c0 f   slnunico.obj
 0001:0002c250       unic_upper                 000000018002d250 f   slnunico.obj
 0001:0002c3e0       str_rep                    000000018002d3e0 f   slnunico.obj
 0001:0002c470       unic_byte                  000000018002d470 f   slnunico.obj
 0001:0002c630       unic_char                  000000018002d630 f   slnunico.obj
 0001:0002c740       writer                     000000018002d740 f   slnunico.obj
 0001:0002c760       str_dump                   000000018002d760 f   slnunico.obj
 0001:0002c7e0       classend                   000000018002d7e0 f   slnunico.obj
 0001:0002c8c0       match_class                000000018002d8c0 f   slnunico.obj
 0001:0002caa0       singlematch                000000018002daa0 f   slnunico.obj
 0001:0002cd50       matchbalance               000000018002dd50 f   slnunico.obj
 0001:0002cdf0       max_expand                 000000018002ddf0 f   slnunico.obj
 0001:0002d090       min_expand                 000000018002e090 f   slnunico.obj
 0001:0002d110       start_capture              000000018002e110 f   slnunico.obj
 0001:0002d1a0       end_capture                000000018002e1a0 f   slnunico.obj
 0001:0002d250       match_capture              000000018002e250 f   slnunico.obj
 0001:0002d2f0       match                      000000018002e2f0 f   slnunico.obj
 0001:0002d4d0       lmemfind                   000000018002e4d0 f   slnunico.obj
 0001:0002d580       push_onecapture            000000018002e580 f   slnunico.obj
 0001:0002d640       push_captures              000000018002e640 f   slnunico.obj
 0001:0002d750       unic_find_aux              000000018002e750 f   slnunico.obj
 0001:0002da30       unic_find                  000000018002ea30 f   slnunico.obj
 0001:0002da40       unic_match                 000000018002ea40 f   slnunico.obj
 0001:0002da50       gmatch_aux                 000000018002ea50 f   slnunico.obj
 0001:0002db60       gmatch                     000000018002eb60 f   slnunico.obj
 0001:0002dc40       gfind_nodef                000000018002ec40 f   slnunico.obj
 0001:0002dc50       add_s                      000000018002ec50 f   slnunico.obj
 0001:0002dd50       add_value                  000000018002ed50 f   slnunico.obj
 0001:0002deb0       unic_gsub                  000000018002eeb0 f   slnunico.obj
 0001:0002e110       addquoted                  000000018002f110 f   slnunico.obj
 0001:0002e230       scanformat                 000000018002f230 f   slnunico.obj
 0001:0002e360       str_format                 000000018002f360 f   slnunico.obj
 0001:0002e6d0       utf8_valid                 000000018002f6d0 f   slnunico.obj
 0001:0002e980       pushresult                 000000018002f980 f   uliolib51.obj
 0001:0002ea50       fileerror                  000000018002fa50 f   uliolib51.obj
 0001:0002ead0       io_type                    000000018002fad0 f   uliolib51.obj
 0001:0002eba0       tofile                     000000018002fba0 f   uliolib51.obj
 0001:0002ec00       newfile                    000000018002fc00 f   uliolib51.obj
 0001:0002ec50       io_noclose                 000000018002fc50 f   uliolib51.obj
 0001:0002ec80       io_pclose                  000000018002fc80 f   uliolib51.obj
 0001:0002ed30       io_fclose                  000000018002fd30 f   uliolib51.obj
 0001:0002ede0       io_close                   000000018002fde0 f   uliolib51.obj
 0001:0002ee70       io_gc                      000000018002fe70 f   uliolib51.obj
 0001:0002eed0       io_tostring                000000018002fed0 f   uliolib51.obj
 0001:0002ef30       io_open                    000000018002ff30 f   uliolib51.obj
 0001:0002f060       io_popen                   0000000180030060 f   uliolib51.obj
 0001:0002f120       io_tmpfile                 0000000180030120 f   uliolib51.obj
 0001:0002f1d0       g_iofile                   00000001800301d0 f   uliolib51.obj
 0001:0002f2c0       io_input                   00000001800302c0 f   uliolib51.obj
 0001:0002f2e0       io_output                  00000001800302e0 f   uliolib51.obj
 0001:0002f300       read_line                  0000000180030300 f   uliolib51.obj
 0001:0002f3f0       read_chars                 00000001800303f0 f   uliolib51.obj
 0001:0002f490       g_read                     0000000180030490 f   uliolib51.obj
 0001:0002f690       io_read                    0000000180030690 f   uliolib51.obj
 0001:0002f700       f_read                     0000000180030700 f   uliolib51.obj
 0001:0002f760       io_readline                0000000180030760 f   uliolib51.obj
 0001:0002f860       g_write                    0000000180030860 f   uliolib51.obj
 0001:0002f970       io_write                   0000000180030970 f   uliolib51.obj
 0001:0002f9e0       f_write                    00000001800309e0 f   uliolib51.obj
 0001:0002fa40       f_seek                     0000000180030a40 f   uliolib51.obj
 0001:0002fb40       f_setvbuf                  0000000180030b40 f   uliolib51.obj
 0001:0002fc30       io_flush                   0000000180030c30 f   uliolib51.obj
 0001:0002fd00       f_flush                    0000000180030d00 f   uliolib51.obj
 0001:000300b0       f_lines                    00000001800310b0 f   uliolib51.obj
 0001:00030120       io_lines                   0000000180031120 f   uliolib51.obj
 0001:00030220       setprogdir                 0000000180031220 f   uloadlib51.obj
 0001:000302c0       ll_register                00000001800312c0 f   uloadlib51.obj
 0001:000303b0       gctm                       00000001800313b0 f   uloadlib51.obj
 0001:00030400       ll_loadfunc                0000000180031400 f   uloadlib51.obj
 0001:000304a0       ll_loadlib                 00000001800314a0 f   uloadlib51.obj
 0001:00030530       pushnexttemplate           0000000180031530 f   uloadlib51.obj
 0001:000305e0       findfile                   00000001800315e0 f   uloadlib51.obj
 0001:00030790       loaderror                  0000000180031790 f   uloadlib51.obj
 0001:00030800       loader_Lua                 0000000180031800 f   uloadlib51.obj
 0001:00030860       mkfuncname                 0000000180031860 f   uloadlib51.obj
 0001:000308d0       loader_C                   00000001800318d0 f   uloadlib51.obj
 0001:00030950       loader_Croot               0000000180031950 f   uloadlib51.obj
 0001:00030a20       loader_preload             0000000180031a20 f   uloadlib51.obj
 0001:00030ab0       ll_require                 0000000180031ab0 f   uloadlib51.obj
 0001:00030cf0       setfenv                    0000000180031cf0 f   uloadlib51.obj
 0001:00030d80       modinit                    0000000180031d80 f   uloadlib51.obj
 0001:00030e20       ll_module                  0000000180031e20 f   uloadlib51.obj
 0001:00030f80       ll_seeall                  0000000180031f80 f   uloadlib51.obj
 0001:00032910       ustring_OutputDebugString  0000000180033910 f   ustring.obj
 0001:00032b40       ustring_system             0000000180033b40 f   ustring.obj
 0001:00033e30       win_GetEnv                 0000000180034e30 f   win.obj
 0001:00033ef0       win_SetEnv                 0000000180034ef0 f   win.obj
 0001:00033f50       CheckHKey                  0000000180034f50 f   win.obj
 0001:00034030       win_SetRegKey              0000000180035030 f   win.obj
 0001:00034220       win_GetRegKey              0000000180035220 f   win.obj
 0001:000343d0       win_DeleteRegKey           00000001800353d0 f   win.obj
 0001:00034430       win_EnumRegKey             0000000180035430 f   win.obj
 0001:00034550       win_EnumRegValue           0000000180035550 f   win.obj
 0001:00034670       ExtractKey                 0000000180035670 f   win.obj
 0001:00034710       win_ExtractKey             0000000180035710 f   win.obj
 0001:00034770       PushWinFindData            0000000180035770 f   win.obj
 0001:00034840       win_GetFileInfo            0000000180035840 f   win.obj
 0001:000348b0       pushSystemTime             00000001800358b0 f   win.obj
 0001:00034980       win_GetSystemTimeAsFileTime 0000000180035980 f   win.obj
 0001:000349b0       win_FileTimeToSystemTime   00000001800359b0 f   win.obj
 0001:00034a20       win_SystemTimeToFileTime   0000000180035a20 f   win.obj
 0001:00034b40       win_FileTimeToLocalFileTime 0000000180035b40 f   win.obj
 0001:00034bb0       win_CompareString          0000000180035bb0 f   win.obj
 0001:00034d40       win_wcscmp                 0000000180035d40 f   win.obj
 0001:00034dc0       win_GetVirtualKeys         0000000180035dc0 f   win.obj
 0001:00034de0       win_GetConsoleScreenBufferInfo 0000000180035de0 f   win.obj
 0001:00034f20       win_CopyFile               0000000180035f20 f   win.obj
 0001:00034fc0       win_MoveFile               0000000180035fc0 f   win.obj
 0001:000350d0       win_DeleteFile             00000001800360d0 f   win.obj
 0001:00035120       mkdir                      0000000180036120 f   win.obj
 0001:00035320       win_CreateDir              0000000180036320 f   win.obj
 0001:00035440       win_RemoveDir              0000000180036440 f   win.obj
 0001:00035490       win_ShellExecute           0000000180036490 f   win.obj
 0001:00037998       idtab                      0000000180038998 f   LIBCMT:popen.obj
 0001:00038218       genfname                   0000000180039218 f   LIBCMT:tmpfile.obj
 0001:00039058       flsall                     000000018003a058 f   LIBCMT:fflush.obj
 0001:00039680       __DllMainCRTStartup        000000018003a680 f   LIBCMT:dllcrt0.obj
 0001:00039970       _cftoe2_l                  000000018003a970 f   LIBCMT:cvt.obj
 0001:0003a07c       _cftof2_l                  000000018003b07c f   LIBCMT:cvt.obj
 0001:0003a6a4       write_char                 000000018003b6a4 f   LIBCMT:output.obj
 0001:0003a6ec       write_multi_char           000000018003b6ec f   LIBCMT:output.obj
 0001:0003a740       write_string               000000018003b740 f   LIBCMT:output.obj
 0001:0003b7f8       _initterm                  000000018003c7f8 f   LIBCMT:crt0dat.obj
 0001:0003b918       doexit                     000000018003c918 f   LIBCMT:crt0dat.obj
 0001:0003dd94       ?setSBCS@@YAXPEAUthreadmbcinfostruct@@@Z 000000018003ed94 f   LIBCMT:mbctype.obj
 0001:0003de20       ?setSBUpLow@@YAXPEAUthreadmbcinfostruct@@@Z 000000018003ee20 f   LIBCMT:mbctype.obj
 0001:0003e0cc       ?getSystemCP@@YAHH@Z       000000018003f0cc f   LIBCMT:mbctype.obj
 0001:0003ece0       write_char                 000000018003fce0 f   LIBCMT:woutput.obj
 0001:0003ed18       write_multi_char           000000018003fd18 f   LIBCMT:woutput.obj
 0001:0003ed6c       write_string               000000018003fd6c f   LIBCMT:woutput.obj
 0001:000402ec       xtoa_s                     00000001800412ec f   LIBCMT:xtoas.obj
 0001:000403fc       ?strtoxl@@YAKPEAUlocaleinfo_struct@@PEBDPEAPEBDHH@Z 00000001800413fc f   LIBCMT:strtol.obj
 0001:000407ac       _tsopen_nolock             00000001800417ac f   LIBCMT:open.obj
 0001:0004105c       __check_float_string       000000018004205c f   LIBCMT:input.obj
 0001:000410f4       _inc                       00000001800420f4 f   LIBCMT:input.obj
 0001:00043194       wcomexecmd                 0000000180044194 f   LIBCMT:wspawnve.obj
 0001:000435e4       parse_cmdline              00000001800445e4 f   LIBCMT:stdargv.obj
 0001:00045384       _tsopen_nolock             0000000180046384 f   LIBCMT:wopen.obj
 0001:00046008       ?__crtLCMapStringA_stat@@YAHPEAUlocaleinfo_struct@@KKPEBDHPEADHHH@Z 0000000180047008 f   LIBCMT:a_map.obj
 0001:0004636c       ?__crtGetStringTypeA_stat@@YAHPEAUlocaleinfo_struct@@KPEBDHPEAGHHH@Z 000000018004736c f   LIBCMT:a_str.obj
 0001:00047fbc       ?x_ismbbtype_l@@YAHPEAUlocaleinfo_struct@@IHH@Z 0000000180048fbc f   LIBCMT:ismbbyte.obj
 0001:0004a394       ?_strupr_s_l_stat@@YAHPEAD_KPEAUlocaleinfo_struct@@@Z 000000018004b394 f   LIBCMT:strupr.obj
 0001:0004a640       _control87$filt$0          000000018004b640 f   LIBCMT:_ieee_.obj
 0001:0004a66c       fread_s$fin$0              000000018004b66c f   LIBCMT:fread.obj
 0001:0004a686       ungetc$fin$0               000000018004b686 f   LIBCMT:ungetc.obj
 0001:0004a6a0       _wfreopen_helper$fin$0     000000018004b6a0 f   LIBCMT:wfreopen.obj
 0001:0004a6ba       fprintf$fin$0              000000018004b6ba f   LIBCMT:fprintf.obj
 0001:0004a6ba       _wfsopen$fin$0             000000018004b6ba f   LIBCMT:fprintf.obj
 0001:0004a6d4       _pclose$fin$0              000000018004b6d4 f   LIBCMT:popen.obj
 0001:0004a6ef       _wpopen$fin$0              000000018004b6ef f   LIBCMT:wpopen.obj
 0001:0004a70a       _tmpfile_helper$fin$0      000000018004b70a f   LIBCMT:tmpfile.obj
 0001:0004a735       vfscanf$fin$0              000000018004b735 f   LIBCMT:fscanf.obj
 0001:0004a735       _wfdopen$fin$0             000000018004b735 f   LIBCMT:fscanf.obj
 0001:0004a735       fwrite$fin$0               000000018004b735 f   LIBCMT:fscanf.obj
 0001:0004a74f       fgets$fin$0                000000018004b74f f   LIBCMT:fgets.obj
 0001:0004a769       fclose$fin$0               000000018004b769 f   LIBCMT:fseek.obj
 0001:0004a769       fseek$fin$0                000000018004b769 f   LIBCMT:fseek.obj
 0001:0004a769       clearerr_s$fin$0           000000018004b769 f   LIBCMT:fseek.obj
 0001:0004a769       getc$fin$0                 000000018004b769 f   LIBCMT:fseek.obj
 0001:0004a769       rewind$fin$0               000000018004b769 f   LIBCMT:fseek.obj
 0001:0004a769       ftell$fin$0                000000018004b769 f   LIBCMT:fseek.obj
 0001:0004a769       fflush$fin$0               000000018004b769 f   LIBCMT:fseek.obj
 0001:0004a783       setvbuf$fin$0              000000018004b783 f   LIBCMT:setvbuf.obj
 0001:0004a79d       flsall$fin$0               000000018004b79d f   LIBCMT:fflush.obj
 0001:0004a79d       _rmtmp$fin$0               000000018004b79d f   LIBCMT:fflush.obj
 0001:0004a7cd       _rmtmp$fin$1               000000018004b7cd f   LIBCMT:fflush.obj
 0001:0004a7cd       flsall$fin$1               000000018004b7cd f   LIBCMT:fflush.obj
 0001:0004a7e8       _wgetenv$fin$0             000000018004b7e8 f   LIBCMT:wgetenv.obj
 0001:0004a803       _wdupenv_s$fin$0           000000018004b803 f   LIBCMT:wgetenv.obj
 0001:0004a81e       _CRT_INIT$fin$0            000000018004b81e f   LIBCMT:dllcrt0.obj
 0001:0004a844       __DllMainCRTStartup$filt$0 000000018004b844 f   LIBCMT:dllcrt0.obj
 0001:0004a862       doexit$fin$0               000000018004b862 f   LIBCMT:crt0dat.obj
 0001:0004a886       _getstream$fin$0           000000018004b886 f   LIBCMT:stream.obj
 0001:0004a886       _fcloseall$fin$0           000000018004b886 f   LIBCMT:stream.obj
 0001:0004a8a1       _lseek$fin$0               000000018004b8a1 f   LIBCMT:read.obj
 0001:0004a8a1       _read$fin$0                000000018004b8a1 f   LIBCMT:read.obj
 0001:0004a8a1       _write$fin$0               000000018004b8a1 f   LIBCMT:read.obj
 0001:0004a8a1       _lseeki64$fin$0            000000018004b8a1 f   LIBCMT:read.obj
 0001:0004a8ba       _freefls$fin$1             000000018004b8ba f   LIBCMT:tidtable.obj
 0001:0004a8ba       _initptd$fin$1             000000018004b8ba f   LIBCMT:tidtable.obj
 0001:0004a8da       _initptd$fin$0             000000018004b8da f   LIBCMT:tidtable.obj
 0001:0004a8da       _freefls$fin$0             000000018004b8da f   LIBCMT:tidtable.obj
 0001:0004a8f5       _mtinitlocknum$fin$0       000000018004b8f5 f   LIBCMT:mlock.obj
 0001:0004a913       __updatetmbcinfo$fin$0     000000018004b913 f   LIBCMT:mbctype.obj
 0001:0004a913       _setmbcp$fin$0             000000018004b913 f   LIBCMT:mbctype.obj
 0001:0004a92e       __updatetlocinfo$fin$0     000000018004b92e f   LIBCMT:localref.obj
 0001:0004a949       _pipe$fin$1                000000018004b949 f   LIBCMT:pipe.obj
 0001:0004a969       _pipe$fin$0                000000018004b969 f   LIBCMT:pipe.obj
 0001:0004a985       _commit$fin$0              000000018004b985 f   LIBCMT:commit.obj
 0001:0004a985       _close$fin$0               000000018004b985 f   LIBCMT:commit.obj
 0001:0004a9a0       _IsNonwritableInCurrentImage$filt$0 000000018004b9a0 f   LIBCMT:pesect.obj
 0001:0004a9c2       raise$fin$0                000000018004b9c2 f   LIBCMT:winsig.obj
 0001:0004a9e0       _onexit$fin$0              000000018004b9e0 f   LIBCMT:onexit.obj
 0001:0004a9f6       __lock_fhandle$fin$0       000000018004b9f6 f   LIBCMT:osfinfo.obj
 0001:0004aa11       _alloc_osfhnd$fin$0        000000018004ba11 f   LIBCMT:osfinfo.obj
 0001:0004aa31       _alloc_osfhnd$fin$1        000000018004ba31 f   LIBCMT:osfinfo.obj
 0001:0004aa4c       _wsopen_helper$fin$0       000000018004ba4c f   LIBCMT:wopen.obj
 0001:0004aa4c       _sopen_helper$fin$0        000000018004ba4c f   LIBCMT:wopen.obj
