 ConEmu.x64

 Timestamp is 56940a95 (Mon Jan 11 23:03:33 2016)

 Preferred load address is 0000000180000000

 Start         Length     Name                   Class
 0001:00000000 00049a1aH .text                   CODE
 0001:00049a20 0000005eH .text$00                CODE
 0001:00049a80 0000034cH .text$x                 CODE
 0001:00049dd0 00000015H .text$yc                CODE
 0002:00000000 000007f8H .idata$5                DATA
 0002:000007f8 00000008H .CRT$XCA                DATA
 0002:00000800 00000008H .CRT$XCU                DATA
 0002:00000808 00000008H .CRT$XCZ                DATA
 0002:00000810 00000008H .CRT$XIA                DATA
 0002:00000818 00000010H .CRT$XIC                DATA
 0002:00000828 00000008H .CRT$XIZ                DATA
 0002:00000830 00000008H .CRT$XPA                DATA
 0002:00000838 00000008H .CRT$XPZ                DATA
 0002:00000840 00000008H .CRT$XTA                DATA
 0002:00000848 00000008H .CRT$XTZ                DATA
 0002:00000850 00006973H .rdata                  DATA
 0002:000071c4 00000073H .rdata$debug            DATA
 0002:00007238 00000008H .rtc$IAA                DATA
 0002:00007240 00000008H .rtc$IZZ                DATA
 0002:00007248 00000008H .rtc$TAA                DATA
 0002:00007250 00000008H .rtc$TZZ                DATA
 0002:00007258 000029ecH .xdata                  DATA
 0002:00009c44 00000078H .idata$2                DATA
 0002:00009cbc 00000014H .idata$3                DATA
 0002:00009cd0 000007f8H .idata$4                DATA
 0002:0000a4c8 0000124eH .idata$6                DATA
 0002:0000b720 000002e1H .edata                  DATA
 0003:00000000 000012acH .data                   DATA
 0003:000012c0 0000bac8H .bss                    DATA
 0004:00000000 00002e80H .pdata                  DATA
 0005:00000000 00000058H .rsrc$01                DATA
 0005:00000060 000002d8H .rsrc$02                DATA

  Address         Publics by Value              Rva+Base               Lib:Object

 0000:00000000       ___safe_se_handler_table   0000000000000000     <absolute>
 0000:00000000       ___safe_se_handler_count   0000000000000000     <absolute>
 0000:00000000       __ImageBase                0000000180000000     <linker-defined>
 0001:00000000       ??0CEStr@@QEAA@XZ          0000000180001000 f   CEStr.obj
 0001:00000050       ??0CEStr@@QEAA@PEA_W@Z     0000000180001050 f   CEStr.obj
 0001:000000c0       ??BCEStr@@QEBAPEB_WXZ      00000001800010c0 f   CEStr.obj
 0001:000000d0       ?Right@CEStr@@QEBAPEB_W_J@Z 00000001800010d0 f   CEStr.obj
 0001:00000160       ??4CEStr@@QEAAAEAU0@PEA_W@Z 0000000180001160 f   CEStr.obj
 0001:00000190       ??4CEStr@@QEAAAEAU0@PEB_W@Z 0000000180001190 f   CEStr.obj
 0001:000001c0       ??1CEStr@@QEAA@XZ          00000001800011c0 f   CEStr.obj
 0001:00000240       ?GetLen@CEStr@@QEAA_JXZ    0000000180001240 f   CEStr.obj
 0001:00000290       ?GetMaxCount@CEStr@@QEAA_JXZ 0000000180001290 f   CEStr.obj
 0001:000002e0       ?GetBuffer@CEStr@@QEAAPEA_W_J@Z 00000001800012e0 f   CEStr.obj
 0001:00000440       ?Detach@CEStr@@QEAAPEA_WXZ 0000000180001440 f   CEStr.obj
 0001:00000480       ?Attach@CEStr@@QEAAPEB_WPEA_W@Z 0000000180001480 f   CEStr.obj
 0001:000004b0       ?AttachInt@CEStr@@AEAAPEB_WAEAPEA_W@Z 00000001800014b0 f   CEStr.obj
 0001:00000550       ?Empty@CEStr@@QEAAXXZ      0000000180001550 f   CEStr.obj
 0001:000005b0       ?IsEmpty@CEStr@@QEAA_NXZ   00000001800015b0 f   CEStr.obj
 0001:000005f0       ?Set@CEStr@@QEAAPEB_WPEB_W_J@Z 00000001800015f0 f   CEStr.obj
 0001:000006c0       ?StringCchCopyNW@@YAJPEA_W_KPEB_W1@Z 00000001800016c0 f i CEStr.obj
 0001:00000880       ?SavePathVar@CEStr@@QEAAXPEB_W@Z 0000000180001880 f   CEStr.obj
 0001:000008e0       ?SaveEnvVar@CEStr@@QEAAXPEB_W0@Z 00000001800018e0 f   CEStr.obj
 0001:00000990       ?SetAt@CEStr@@QEAAX_J_W@Z  0000000180001990 f   CEStr.obj
 0001:000009e0       ?GetPosFrom@CEStr@@QEAAXAEBU1@@Z 00000001800019e0 f   CEStr.obj
 0001:00000a20       ?IsNeedDequote@@YA_NPEB_W_NPEAPEB_W@Z 0000000180001a20 f   CmdLine.obj
 0001:00000cd0       ?NextArg@@YAHPEAPEB_WAEAUCEStr@@0@Z 0000000180001cd0 f   CmdLine.obj
 0001:00001240       ?NextLine@@YAHPEAPEB_WAEAUCEStr@@K@Z 0000000180002240 f   CmdLine.obj
 0001:00001430       ?AddEndSlash@@YAHPEA_WH@Z  0000000180002430 f   CmdLine.obj
 0001:000014c0       ?SkipNonPrintable@@YAPEB_WPEB_W@Z 00000001800024c0 f   CmdLine.obj
 0001:00001530       ?CompareFileMask@@YA_NPEB_W0@Z 0000000180002530 f   CmdLine.obj
 0001:00001750       ?wcschr@@YAPEA_WPEA_W_W@Z  0000000180002750 f i CmdLine.obj
 0001:00001780       ?GetDrive@@YAPEB_WPEB_WPEA_WH@Z 0000000180002780 f   CmdLine.obj
 0001:00001a30       ?GetDirectory@@YAHAEAUCEStr@@@Z 0000000180002a30 f   CmdLine.obj
 0001:00001ad0       ?IsNeedCmd@@YA_NHPEB_WAEAUCEStr@@PEAPEB_WPEAH333@Z 0000000180002ad0 f   CmdLine.obj
 0001:00002580       ?Disable@MWow64Disable@@QEAAXXZ 0000000180003580 f i CmdLine.obj
 0001:000025c0       ??0MWow64Disable@@QEAA@XZ  00000001800035c0 f i CmdLine.obj
 0001:00002660       ??1MWow64Disable@@QEAA@XZ  0000000180003660 f i CmdLine.obj
 0001:00002680       ?Restore@MWow64Disable@@QEAAXXZ 0000000180003680 f i CmdLine.obj
 0001:000026d0       ?IsExecutable@@YA_NPEB_WPEAPEA_W@Z 00000001800036d0 f   CmdLine.obj
 0001:000027f0       ?CompareProcessNames@@YA_NPEB_W0@Z 00000001800037f0 f   CmdLine.obj
 0001:000029f0       ?CheckProcessName@@YA_NPEB_WPEAPEB_W@Z 00000001800039f0 f   CmdLine.obj
 0001:00002b70       ?IsConsoleService@@YA_NPEB_W@Z 0000000180003b70 f   CmdLine.obj
 0001:00002bb0       ?IsConEmuGui@@YA_NPEB_W@Z  0000000180003bb0 f   CmdLine.obj
 0001:00002bf0       ?IsConsoleServer@@YA_NPEB_W@Z 0000000180003bf0 f   CmdLine.obj
 0001:00002c30       ?IsTerminalServer@@YA_NPEB_W@Z 0000000180003c30 f   CmdLine.obj
 0001:00002ca0       ?IsGitBashHelper@@YA_NPEB_W@Z 0000000180003ca0 f   CmdLine.obj
 0001:00002ce0       ?IsFarExe@@YA_NPEB_W@Z     0000000180003ce0 f   CmdLine.obj
 0001:00002d20       ?IsCmdProcessor@@YA_NPEB_W@Z 0000000180003d20 f   CmdLine.obj
 0001:00002d60       ?IsQuotationNeeded@@YA_NPEB_W@Z 0000000180003d60 f   CmdLine.obj
 0001:00002db0       ?MergeCmdLine@@YAPEA_WPEB_W0@Z 0000000180003db0 f   CmdLine.obj
 0001:00002e90       ?JoinPath@@YAPEA_WPEB_W00@Z 0000000180003e90 f   CmdLine.obj
 0001:000030e0       ?IsFilePath@@YA_NPEB_W_N@Z 00000001800040e0 f   CmdLine.obj
 0001:000032e0       ?PointToName@@YAPEB_WPEB_W@Z 00000001800042e0 f   CmdLine.obj
 0001:00003390       ?PointToName@@YAPEBDPEBD@Z 0000000180004390 f   CmdLine.obj
 0001:00003440       ?PointToExt@@YAPEB_WPEB_W@Z 0000000180004440 f   CmdLine.obj
 0001:00003490       ?Unquote@@YAPEB_WPEA_W_N@Z 0000000180004490 f   CmdLine.obj
 0001:00003540       ?wcsrchr@@YAPEA_WPEA_W_W@Z 0000000180004540 f i CmdLine.obj
 0001:00003570       ?IsNewConsoleArg@@YA_NPEB_W0@Z 0000000180004570 f   CmdLine.obj
 0001:00003690       ?PackInputRecord@@YAHPEBU_INPUT_RECORD@@PEAUMsgStr@MSG64@@@Z 0000000180004690 f   Common.obj
 0001:00003940       ?UnpackInputRecord@@YAHPEBUMsgStr@MSG64@@PEAU_INPUT_RECORD@@@Z 0000000180004940 f   Common.obj
 0001:00003c30       ?TranslateKeyPress@@YAXGK_WHPEAU_INPUT_RECORD@@1@Z 0000000180004c30 f   Common.obj
 0001:00003e80       ?GetCommand@CESERVER_REQ_NEWCMD@@QEAAPEA_WXZ 0000000180004e80 f   Common.obj
 0001:00003ed0       ?GetEnvStrings@CESERVER_REQ_NEWCMD@@QEAAPEA_WXZ 0000000180004ed0 f   Common.obj
 0001:00003f20       ?SetCommand@CESERVER_REQ_NEWCMD@@QEAAXPEB_W@Z 0000000180004f20 f   Common.obj
 0001:00003fc0       ?SetEnvStrings@CESERVER_REQ_NEWCMD@@QEAAXPEB_WK@Z 0000000180004fc0 f   Common.obj
 0001:00004160       ?IsEnvBlockVariableValid@@YA_NPEB_WAEAPEB_W@Z 0000000180005160 f   Common.obj
 0001:000041d0       ?IsEnvBlockVariableValid@@YA_NPEB_W@Z 00000001800051d0 f   Common.obj
 0001:00004220       ?CommonShutdown@@YAXXZ     0000000180005220 f   Common.obj
 0001:00004250       ?ModuleName@@YAPEB_WPEB_W@Z 0000000180005250 f   ConEmuCheck.obj
 0001:00004340       ?ExecuteOpenPipe@@YAPEAXPEB_WAEAY0CAI@_W0KKHPEAXH@Z 0000000180005340 f   ConEmuCheck.obj
 0001:00004640       ?ExecutePrepareCmd@@YAXPEAUCESERVER_REQ@@K_K@Z 0000000180005640 f   ConEmuCheck.obj
 0001:000046a0       ?ExecutePrepareCmd@@YAXPEAUCESERVER_REQ_HDR@@K_K@Z 00000001800056a0 f   ConEmuCheck.obj
 0001:00004770       ?ExecuteNewCmd@@YAPEAUCESERVER_REQ@@K_K@Z 0000000180005770 f   ConEmuCheck.obj
 0001:000047e0       ?ExecuteNewCmd@@YA_NAEAPEAUCESERVER_REQ@@AEAKK_K@Z 00000001800057e0 f   ConEmuCheck.obj
 0001:000048b0       ?LoadSrvMapping@@YAHPEAUHWND__@@AEAUCESERVER_CONSOLE_MAPPING_HDR@@@Z 00000001800058b0 f   ConEmuCheck.obj
 0001:00004a20       ?LoadGuiMapping@@YAHKAEAUConEmuGuiMapping@@@Z 0000000180005a20 f   ConEmuCheck.obj
 0001:00004b80       ?ExecuteNewCmdOnCreate@@YAPEAUCESERVER_REQ@@PEAUCESERVER_CONSOLE_MAPPING_HDR@@PEAUHWND__@@W4CmdOnCreateType@@PEB_W33PEAK444HHPEAX55@Z 0000000180005b80 f   ConEmuCheck.obj
 0001:00005070       ?StringCchCopyW@@YAJPEA_W_KPEB_W@Z 0000000180006070 f i ConEmuCheck.obj
 0001:00005200       ?ExecuteGuiCmd@@YAPEAUCESERVER_REQ@@PEAUHWND__@@PEAU1@0H@Z 0000000180006200 f   ConEmuCheck.obj
 0001:000052c0       ?ExecuteSrvCmd@@YAPEAUCESERVER_REQ@@KPEAU1@PEAUHWND__@@HKH@Z 00000001800062c0 f   ConEmuCheck.obj
 0001:00005390       ?ExecuteHkCmd@@YAPEAUCESERVER_REQ@@KPEAU1@PEAUHWND__@@HH@Z 0000000180006390 f   ConEmuCheck.obj
 0001:00005460       ?ExecuteCmd@@YAPEAUCESERVER_REQ@@PEB_WPEAU1@KPEAUHWND__@@HKH@Z 0000000180006460 f   ConEmuCheck.obj
 0001:00005860       ?ExecuteFreeResult@@YAXAEAPEAUCESERVER_REQ@@@Z 0000000180006860 f   ConEmuCheck.obj
 0001:000058a0       ?AllocateSendCurrentDirectory@@YA_NAEAPEAUCESERVER_REQ@@AEAKPEB_W2@Z 00000001800068a0 f   ConEmuCheck.obj
 0001:000059f0       ?SendCurrentDirectory@@YAXPEAUHWND__@@PEB_W1@Z 00000001800069f0 f   ConEmuCheck.obj
 0001:00005a70       ?isConsoleClass@@YA_NPEB_W@Z 0000000180006a70 f   ConEmuCheck.obj
 0001:00005ad0       ?isConsoleWindow@@YA_NPEAUHWND__@@@Z 0000000180006ad0 f   ConEmuCheck.obj
 0001:00005be0       ?myGetConsoleWindow@@YAPEAUHWND__@@XZ 0000000180006be0 f   ConEmuCheck.obj
 0001:00005cd0       ?GetConEmuHWND@@YAPEAUHWND__@@H@Z 0000000180006cd0 f   ConEmuCheck.obj
 0001:00005ef0       ??BHWND2@@QEBAPEAUHWND__@@XZ 0000000180006ef0 f i ConEmuCheck.obj
 0001:00005f00       ??BHWND2@@QEBAKXZ          0000000180006f00 f i ConEmuCheck.obj
 0001:00005f10       ?ConEmuCheck@@YAHPEAPEAUHWND__@@@Z 0000000180006f10 f   ConEmuCheck.obj
 0001:00005f60       ?GuiMessageBox@@YAHPEAUHWND__@@PEB_W1H@Z 0000000180006f60 f   ConEmuCheck.obj
 0001:00006190       ?InitName@?$MFileMapping@UCESERVER_CONSOLE_MAPPING_HDR@@@@QEAAPEB_WPEB_WKK@Z 0000000180007190 f i ConEmuCheck.obj
 0001:000061f0       ?CloseMap@?$MFileMapping@UCESERVER_CONSOLE_MAPPING_HDR@@@@QEAAXXZ 00000001800071f0 f i ConEmuCheck.obj
 0001:00006280       ?Open@?$MFileMapping@UCESERVER_CONSOLE_MAPPING_HDR@@@@QEAAPEAUCESERVER_CONSOLE_MAPPING_HDR@@HH@Z 0000000180007280 f i ConEmuCheck.obj
 0001:000062b0       ??0?$MFileMapping@UCESERVER_CONSOLE_MAPPING_HDR@@@@QEAA@XZ 00000001800072b0 f i ConEmuCheck.obj
 0001:00006320       ??1?$MFileMapping@UCESERVER_CONSOLE_MAPPING_HDR@@@@QEAA@XZ 0000000180007320 f i ConEmuCheck.obj
 0001:00006350       ?InitName@?$MFileMapping@UConEmuGuiMapping@@@@QEAAPEB_WPEB_WKK@Z 0000000180007350 f i ConEmuCheck.obj
 0001:000063b0       ?CloseMap@?$MFileMapping@UConEmuGuiMapping@@@@QEAAXXZ 00000001800073b0 f i ConEmuCheck.obj
 0001:00006440       ?Open@?$MFileMapping@UConEmuGuiMapping@@@@QEAAPEAUConEmuGuiMapping@@HH@Z 0000000180007440 f i ConEmuCheck.obj
 0001:00006470       ??0?$MFileMapping@UConEmuGuiMapping@@@@QEAA@XZ 0000000180007470 f i ConEmuCheck.obj
 0001:000064e0       ??1?$MFileMapping@UConEmuGuiMapping@@@@QEAA@XZ 00000001800074e0 f i ConEmuCheck.obj
 0001:00006510       ?ClosePtr@?$MFileMapping@UCESERVER_CONSOLE_MAPPING_HDR@@@@QEAAXXZ 0000000180007510 f i ConEmuCheck.obj
 0001:00006550       ?InternalOpenCreate@?$MFileMapping@UCESERVER_CONSOLE_MAPPING_HDR@@@@IEAAPEAUCESERVER_CONSOLE_MAPPING_HDR@@HHH@Z 0000000180007550 f i ConEmuCheck.obj
 0001:00006800       ?ClosePtr@?$MFileMapping@UConEmuGuiMapping@@@@QEAAXXZ 0000000180007800 f i ConEmuCheck.obj
 0001:00006840       ?InternalOpenCreate@?$MFileMapping@UConEmuGuiMapping@@@@IEAAPEAUConEmuGuiMapping@@HHH@Z 0000000180007840 f i ConEmuCheck.obj
 0001:00006af0       ??$wcscpy_c@$0CA@@@YAHAEAY0CA@_WPEB_W@Z 0000000180007af0 f i ConEmuCheck.obj
 0001:00006b20       ??$wcscpy_c@$0CAI@@@YAHAEAY0CAI@_WPEB_W@Z 0000000180007b20 f i ConEmuCheck.obj
 0001:00006b50       ?LoadGuiMapping@@YAHPEAUHWND__@@AEAUConEmuGuiMapping@@@Z 0000000180007b50 f   ConEmuCheckEx.obj
 0001:00006ba0       ?IsConEmuExeExist@@YAHPEB_WAEAY0BAF@_W@Z 0000000180007ba0 f   ConEmuCheckEx.obj
 0001:00006c80       ?FindConEmuBaseDir@@YAHAEAY0BAF@_W0PEAUHINSTANCE__@@@Z 0000000180007c80 f   ConEmuCheckEx.obj
 0001:000072f0       ??$wcscpy_c@$0BAF@@@YAHAEAY0BAF@_WPEB_W@Z 00000001800082f0 f i ConEmuCheckEx.obj
 0001:00007450       ??$wcscpy_add@$0BAF@@@YAHPEA_WAEAY0BAF@_WPEB_W@Z 0000000180008450 f i ConEmuCheckEx.obj
 0001:000074c0       ??$wcscat_c@$0BAF@@@YAHAEAY0BAF@_WPEB_W@Z 00000001800084c0 f i ConEmuCheckEx.obj
 0001:000074f0       ?StringCchCatW@@YAJPEA_W_KPEB_W@Z 00000001800084f0 f i ConEmuCheckEx.obj
 0001:00007680       ?StartupHooks@@YA_NPEAUHINSTANCE__@@@Z 0000000180008680 f   ConEmuInjects.obj
 0001:00007b80       ?ShutdownHooks@@YAXXZ      0000000180008b80 f   ConEmuInjects.obj
 0001:00007e10       ??$wcscpy_c@$0EA@@@YAHAEAY0EA@_WPEB_W@Z 0000000180008e10 f i ConEmuInjects.obj
 0001:00007f70       DllMain                    0000000180008f70 f   ConEmuPlugin.obj
 0001:00007fc0       ?GetPluginInfo@@YAXPEAX@Z  0000000180008fc0 f   ConEmuPlugin.obj
 0001:00008030       ?GetPluginInfoW@@YAXPEAX@Z 0000000180009030 f   ConEmuPlugin.obj
 0001:00008060       ?IsConsoleActive@@YAHXZ    0000000180009060 f   ConEmuPlugin.obj
 0001:000080e0       ?GetFarHWND2@@YAPEAUHWND__@@H@Z 00000001800090e0 f   ConEmuPlugin.obj
 0001:00008170       ?GetFarHWND@@YAPEAUHWND__@@XZ 0000000180009170 f   ConEmuPlugin.obj
 0001:00008180       ?IsTerminalMode@@YAHXZ     0000000180009180 f   ConEmuPlugin.obj
 0001:00008190       ?GetFarVersion@@YAXPEAUFarVersion@@@Z 0000000180009190 f   ConEmuPlugin.obj
 0001:000081c0       ?RegisterPanelView@@YAHPEAUPanelViewInit@@@Z 00000001800091c0 f   ConEmuPlugin.obj
 0001:00008490       ?RegisterBackground@@YAHPEAURegisterBackgroundArg@@@Z 0000000180009490 f   ConEmuPlugin.obj
 0001:00008530       ?SyncExecute@@YAHPEAUHINSTANCE__@@P6AX_J@Z1@Z 0000000180009530 f   ConEmuPlugin.obj
 0001:000085b0       ?ActivateConsole@@YAHXZ    00000001800095b0 f   ConEmuPlugin.obj
 0001:00008670       ??4HWND2@@QEAAAEAU0@PEAUHWND__@@@Z 0000000180009670 f i ConEmuPlugin.obj
 0001:00008690       ?SetStartupInfo@@YAXPEAX@Z 0000000180009690 f   ConEmuPlugin.obj
 0001:00008710       SetStartupInfoW            0000000180009710 f   ConEmuPlugin.obj
 0001:00008750       ?GetMinFarVersion@@YAHXZ   0000000180009750 f   ConEmuPlugin.obj
 0001:000087c0       GetMinFarVersionW          00000001800097c0 f   ConEmuPlugin.obj
 0001:000087d0       ProcessSynchroEventW       00000001800097d0 f   ConEmuPlugin.obj
 0001:00008800       ?ProcessSynchroEventW3@@YA_JPEAX@Z 0000000180009800 f   ConEmuPlugin.obj
 0001:00008840       ?ProcessEditorEvent@@YAHHPEAX@Z 0000000180009840 f   ConEmuPlugin.obj
 0001:00008870       ProcessEditorEventW        0000000180009870 f   ConEmuPlugin.obj
 0001:000088a0       ?ProcessEditorEventW3@@YA_JPEAX@Z 00000001800098a0 f   ConEmuPlugin.obj
 0001:000088e0       ?ProcessViewerEvent@@YAHHPEAX@Z 00000001800098e0 f   ConEmuPlugin.obj
 0001:00008910       ProcessViewerEventW        0000000180009910 f   ConEmuPlugin.obj
 0001:00008940       ?ProcessViewerEventW3@@YA_JPEAX@Z 0000000180009940 f   ConEmuPlugin.obj
 0001:00008980       ?ProcessEditorInput@@YAHPEBU_INPUT_RECORD@@@Z 0000000180009980 f   ConEmuPlugin.obj
 0001:000089b0       ProcessEditorInputW        00000001800099b0 f   ConEmuPlugin.obj
 0001:000089e0       ?OpenPlugin@@YAPEAXH_J@Z   00000001800099e0 f   ConEmuPlugin.obj
 0001:00008a10       OpenPluginW                0000000180009a10 f   ConEmuPlugin.obj
 0001:00008a70       ?OpenW@@YAPEAXPEBX@Z       0000000180009a70 f   ConEmuPlugin.obj
 0001:00008aa0       ?ExitFAR@@YAXXZ            0000000180009aa0 f   ConEmuPlugin.obj
 0001:00008b10       ExitFARW                   0000000180009b10 f   ConEmuPlugin.obj
 0001:00008b80       ?ExitFARW3@@YAXPEAX@Z      0000000180009b80 f   ConEmuPlugin.obj
 0001:00008bf0       ?SetupExportsFar3@@YAXXZ   0000000180009bf0 f   ConEmuPlugin.obj
 0001:00008ef0       ?_calloc@@YAPEAX_K0@Z      0000000180009ef0 f   ConEmuPlugin.obj
 0001:00008f20       ?_malloc@@YAPEAX_K@Z       0000000180009f20 f   ConEmuPlugin.obj
 0001:00008f40       ?_free@@YAXPEAX@Z          0000000180009f40 f   ConEmuPlugin.obj
 0001:00008f60       ??0CPluginW1900@@QEAA@XZ   0000000180009f60 f   ConEmuPlugin1900.obj
 0001:00009260       ??_GCPluginW1900@@UEAAPEAXI@Z 000000018000a260 f i ConEmuPlugin1900.obj
 0001:00009260       ??_ECPluginW1900@@UEAAPEAXI@Z 000000018000a260 f i ConEmuPlugin1900.obj
 0001:000092a0       ??1CPluginW1900@@UEAA@XZ   000000018000a2a0 f i ConEmuPlugin1900.obj
 0001:000092d0       ?ProcessEditorEventPtr@CPluginW1900@@UEAAHPEAX@Z 000000018000a2d0 f   ConEmuPlugin1900.obj
 0001:00009310       ?ProcessViewerEventPtr@CPluginW1900@@UEAAHPEAX@Z 000000018000a310 f   ConEmuPlugin1900.obj
 0001:00009350       ?ProcessSynchroEventPtr@CPluginW1900@@UEAAHPEAX@Z 000000018000a350 f   ConEmuPlugin1900.obj
 0001:00009390       ?GetPanelDir@CPluginW1900@@UEAAPEA_WKPEA_WH@Z 000000018000a390 f   ConEmuPlugin1900.obj
 0001:000095c0       ?GetPanelInfo@CPluginW1900@@UEAA_NKPEAUCEPanelInfo@@@Z 000000018000a5c0 f   ConEmuPlugin1900.obj
 0001:00009b70       ?GetPanelItemInfo@CPluginW1900@@UEAA_NAEBUCEPanelInfo@@_N_JAEAU_WIN32_FIND_DATAW@@PEAPEA_W@Z 000000018000ab70 f   ConEmuPlugin1900.obj
 0001:00009ea0       ?PanelControlApi@CPluginW1900@@UEAA_JPEAXH_J0@Z 000000018000aea0 f   ConEmuPlugin1900.obj
 0001:00009f10       ?GetPluginInfoPtr@CPluginW1900@@UEAAXPEAX@Z 000000018000af10 f   ConEmuPlugin1900.obj
 0001:00009fb0       ?SetStartupInfoPtr@CPluginW1900@@UEAAXPEAX@Z 000000018000afb0 f   ConEmuPlugin1900.obj
 0001:0000a180       ?GetEditorModifiedState@CPluginW1900@@UEAAKXZ 000000018000b180 f   ConEmuPlugin1900.obj
 0001:0000a1f0       ?ProcessEditorInputPtr@CPluginW1900@@UEAAHPEBX@Z 000000018000b1f0 f   ConEmuPlugin1900.obj
 0001:0000a230       ?GetWindowCount@CPluginW1900@@UEAAHXZ 000000018000b230 f   ConEmuPlugin1900.obj
 0001:0000a290       ?UpdateConEmuTabsApi@CPluginW1900@@UEAA_NH@Z 000000018000b290 f   ConEmuPlugin1900.obj
 0001:0000a930       ?ExitFar@CPluginW1900@@UEAAXXZ 000000018000b930 f   ConEmuPlugin1900.obj
 0001:0000a9e0       ?ShowMessage@CPluginW1900@@UEAAHPEB_WH_N@Z 000000018000b9e0 f   ConEmuPlugin1900.obj
 0001:0000aaa0       ?GetMsg@CPluginW1900@@UEAAPEB_WHPEA_W_K@Z 000000018000baa0 f   ConEmuPlugin1900.obj
 0001:0000ab40       ?SetWindow@CPluginW1900@@UEAAXH@Z 000000018000bb40 f   ConEmuPlugin1900.obj
 0001:0000abc0       ?PostMacroApi@CPluginW1900@@UEAAXPEB_WPEAU_INPUT_RECORD@@_N@Z 000000018000bbc0 f   ConEmuPlugin1900.obj
 0001:0000b810       ?wcsstr@@YAPEA_WPEA_WPEB_W@Z 000000018000c810 f i ConEmuPlugin1900.obj
 0001:0000b840       ?ShowPluginMenu@CPluginW1900@@UEAAHPEAUConEmuPluginMenuItem@@HH@Z 000000018000c840 f   ConEmuPlugin1900.obj
 0001:0000bb20       ?OpenEditor@CPluginW1900@@UEAA_NPEB_W_N11HH@Z 000000018000cb20 f   ConEmuPlugin1900.obj
 0001:0000bd50       ?ExecuteSynchroApi@CPluginW1900@@UEAA_NXZ 000000018000cd50 f   ConEmuPlugin1900.obj
 0001:0000bda0       ?WaitEndSynchro@CPluginW1900@@UEAAXXZ 000000018000cda0 f   ConEmuPlugin1900.obj
 0001:0000bdb0       ?StopWaitEndSynchro@CPluginW1900@@UEAAXXZ 000000018000cdb0 f   ConEmuPlugin1900.obj
 0001:0000bdc0       ?IsMacroActive@CPluginW1900@@UEAA_NXZ 000000018000cdc0 f   ConEmuPlugin1900.obj
 0001:0000be20       ?GetMacroArea@CPluginW1900@@UEAAHXZ 000000018000ce20 f   ConEmuPlugin1900.obj
 0001:0000be60       ?RedrawAll@CPluginW1900@@UEAAXXZ 000000018000ce60 f   ConEmuPlugin1900.obj
 0001:0000beb0       ?InputBox@CPluginW1900@@UEAA_NPEB_W000AEAPEA_W@Z 000000018000ceb0 f   ConEmuPlugin1900.obj
 0001:0000bf80       ?ShowUserScreen@CPluginW1900@@UEAAX_N@Z 000000018000cf80 f   ConEmuPlugin1900.obj
 0001:0000bff0       ?LoadFarColors@CPluginW1900@@UEAAXAEAY0BAA@E@Z 000000018000cff0 f   ConEmuPlugin1900.obj
 0001:0000c260       ?FarColor_3_2@@YAEAEBUFarColor@@@Z 000000018000d260 f i ConEmuPlugin1900.obj
 0001:0000c390       ?Color2FgIndex@Far3Color@@SAXKAEAGPEBK@Z 000000018000d390 f i ConEmuPlugin1900.obj
 0001:0000c520       ?Max@Far3Color@@SAHHH@Z    000000018000d520 f i ConEmuPlugin1900.obj
 0001:0000c550       ?GetStdIndex@Far3Color@@SAHKPEBK@Z 000000018000d550 f i ConEmuPlugin1900.obj
 0001:0000c5d0       ?GetStdPalette@Far3Color@@SAPEBKXZ 000000018000d5d0 f i ConEmuPlugin1900.obj
 0001:0000c5e0       ?Color2BgIndex@Far3Color@@SAXKHAEAGPEBK@Z 000000018000d5e0 f i ConEmuPlugin1900.obj
 0001:0000c7c0       ?LoadFarSettings@CPluginW1900@@UEAAXPEAUCEFarInterfaceSettings@@PEAUCEFarPanelSettings@@@Z 000000018000d7c0 f   ConEmuPlugin1900.obj
 0001:0000ca60       ?GetFarRect@CPluginW1900@@UEAA_NAEAU_SMALL_RECT@@@Z 000000018000da60 f   ConEmuPlugin1900.obj
 0001:0000caf0       ?CheckPanelExist@CPluginW1900@@UEAA_NXZ 000000018000daf0 f   ConEmuPlugin1900.obj
 0001:0000cb60       ?GetActiveWindowType@CPluginW1900@@UEAAHXZ 000000018000db60 f   ConEmuPlugin1900.obj
 0001:0000cc60       ?GetWindowTypeName@CPluginW1900@@UEAAPEB_WH@Z 000000018000dc60 f   ConEmuPlugin1900.obj
 0001:0000cd20       ?GuiMacroDlg@CPluginW1900@@UEAAXXZ 000000018000dd20 f   ConEmuPlugin1900.obj
 0001:0000d470       ?Open@CPluginW1900@@UEAAPEAXPEBX@Z 000000018000e470 f   ConEmuPlugin1900.obj
 0001:0000d6d0       GetGlobalInfoW             000000018000e6d0 f   ConEmuPlugin2800.obj
 0001:0000d8f0       ??0CPluginW2800@@QEAA@XZ   000000018000e8f0 f   ConEmuPlugin2800.obj
 0001:0000dbf0       ??_GCPluginW2800@@UEAAPEAXI@Z 000000018000ebf0 f i ConEmuPlugin2800.obj
 0001:0000dbf0       ??_ECPluginW2800@@UEAAPEAXI@Z 000000018000ebf0 f i ConEmuPlugin2800.obj
 0001:0000dc30       ??1CPluginW2800@@UEAA@XZ   000000018000ec30 f i ConEmuPlugin2800.obj
 0001:0000dc60       ?GetPanelDir@CPluginW2800@@UEAAPEA_WKPEA_WH@Z 000000018000ec60 f   ConEmuPlugin2800.obj
 0001:0000de90       ?GetPanelInfo@CPluginW2800@@UEAA_NKPEAUCEPanelInfo@@@Z 000000018000ee90 f   ConEmuPlugin2800.obj
 0001:0000e440       ?GetPanelItemInfo@CPluginW2800@@UEAA_NAEBUCEPanelInfo@@_N_JAEAU_WIN32_FIND_DATAW@@PEAPEA_W@Z 000000018000f440 f   ConEmuPlugin2800.obj
 0001:0000e770       ?PanelControlApi@CPluginW2800@@UEAA_JPEAXH_J0@Z 000000018000f770 f   ConEmuPlugin2800.obj
 0001:0000e7e0       ?GetPluginInfoPtr@CPluginW2800@@UEAAXPEAX@Z 000000018000f7e0 f   ConEmuPlugin2800.obj
 0001:0000e880       ?SetStartupInfoPtr@CPluginW2800@@UEAAXPEAX@Z 000000018000f880 f   ConEmuPlugin2800.obj
 0001:0000ea50       ?GetEditorModifiedState@CPluginW2800@@UEAAKXZ 000000018000fa50 f   ConEmuPlugin2800.obj
 0001:0000eac0       ?ProcessEditorEventPtr@CPluginW2800@@UEAAHPEAX@Z 000000018000fac0 f   ConEmuPlugin2800.obj
 0001:0000eb00       ?ProcessViewerEventPtr@CPluginW2800@@UEAAHPEAX@Z 000000018000fb00 f   ConEmuPlugin2800.obj
 0001:0000eb40       ?ProcessSynchroEventPtr@CPluginW2800@@UEAAHPEAX@Z 000000018000fb40 f   ConEmuPlugin2800.obj
 0001:0000eb80       ?ProcessEditorInputPtr@CPluginW2800@@UEAAHPEBX@Z 000000018000fb80 f   ConEmuPlugin2800.obj
 0001:0000ebc0       ?GetWindowCount@CPluginW2800@@UEAAHXZ 000000018000fbc0 f   ConEmuPlugin2800.obj
 0001:0000ec20       ?UpdateConEmuTabsApi@CPluginW2800@@UEAA_NH@Z 000000018000fc20 f   ConEmuPlugin2800.obj
 0001:0000f670       ?ExitFar@CPluginW2800@@UEAAXXZ 0000000180010670 f   ConEmuPlugin2800.obj
 0001:0000f720       ?ShowMessage@CPluginW2800@@UEAAHPEB_WH_N@Z 0000000180010720 f   ConEmuPlugin2800.obj
 0001:0000f7e0       ?GetMsg@CPluginW2800@@UEAAPEB_WHPEA_W_K@Z 00000001800107e0 f   ConEmuPlugin2800.obj
 0001:0000f880       ?SetWindow@CPluginW2800@@UEAAXH@Z 0000000180010880 f   ConEmuPlugin2800.obj
 0001:0000f900       ?PostMacroApi@CPluginW2800@@UEAAXPEB_WPEAU_INPUT_RECORD@@_N@Z 0000000180010900 f   ConEmuPlugin2800.obj
 0001:0000ff20       ?ShowPluginMenu@CPluginW2800@@UEAAHPEAUConEmuPluginMenuItem@@HH@Z 0000000180010f20 f   ConEmuPlugin2800.obj
 0001:00010200       ?OpenEditor@CPluginW2800@@UEAA_NPEB_W_N11HH@Z 0000000180011200 f   ConEmuPlugin2800.obj
 0001:00010440       ?ExecuteSynchroApi@CPluginW2800@@UEAA_NXZ 0000000180011440 f   ConEmuPlugin2800.obj
 0001:00010490       ?WaitEndSynchro@CPluginW2800@@UEAAXXZ 0000000180011490 f   ConEmuPlugin2800.obj
 0001:000104a0       ?StopWaitEndSynchro@CPluginW2800@@UEAAXXZ 00000001800114a0 f   ConEmuPlugin2800.obj
 0001:000104b0       ?IsMacroActive@CPluginW2800@@UEAA_NXZ 00000001800114b0 f   ConEmuPlugin2800.obj
 0001:00010510       ?GetMacroArea@CPluginW2800@@UEAAHXZ 0000000180011510 f   ConEmuPlugin2800.obj
 0001:00010550       ?RedrawAll@CPluginW2800@@UEAAXXZ 0000000180011550 f   ConEmuPlugin2800.obj
 0001:000105a0       ?InputBox@CPluginW2800@@UEAA_NPEB_W000AEAPEA_W@Z 00000001800115a0 f   ConEmuPlugin2800.obj
 0001:00010670       ?ShowUserScreen@CPluginW2800@@UEAAX_N@Z 0000000180011670 f   ConEmuPlugin2800.obj
 0001:000106e0       ?LoadFarColors@CPluginW2800@@UEAAXAEAY0BAA@E@Z 00000001800116e0 f   ConEmuPlugin2800.obj
 0001:00010950       ?LoadFarSettings@CPluginW2800@@UEAAXPEAUCEFarInterfaceSettings@@PEAUCEFarPanelSettings@@@Z 0000000180011950 f   ConEmuPlugin2800.obj
 0001:00010c00       ?GetFarRect@CPluginW2800@@UEAA_NAEAU_SMALL_RECT@@@Z 0000000180011c00 f   ConEmuPlugin2800.obj
 0001:00010c90       ?CheckPanelExist@CPluginW2800@@UEAA_NXZ 0000000180011c90 f   ConEmuPlugin2800.obj
 0001:00010d00       ?GetActiveWindowType@CPluginW2800@@UEAAHXZ 0000000180011d00 f   ConEmuPlugin2800.obj
 0001:00010e10       ?GetWindowTypeName@CPluginW2800@@UEAAPEB_WH@Z 0000000180011e10 f   ConEmuPlugin2800.obj
 0001:00010ed0       ?GuiMacroDlg@CPluginW2800@@UEAAXXZ 0000000180011ed0 f   ConEmuPlugin2800.obj
 0001:00011630       ?Open@CPluginW2800@@UEAAPEAXPEBX@Z 0000000180012630 f   ConEmuPlugin2800.obj
 0001:00011930       ??0FarMacroValue@@QEAA@XZ  0000000180012930 f i ConEmuPlugin2800.obj
 0001:00011980       ??0?$MArray@UWindowInfo@@@@QEAA@XZ 0000000180012980 f i ConEmuPlugin2800.obj
 0001:000119e0       ??1?$MArray@UWindowInfo@@@@QEAA@XZ 00000001800129e0 f i ConEmuPlugin2800.obj
 0001:00011a00       ??A?$MArray@UWindowInfo@@@@QEBAAEBUWindowInfo@@_J@Z 0000000180012a00 f i ConEmuPlugin2800.obj
 0001:00011a20       ??A?$MArray@UWindowInfo@@@@QEAAAEAUWindowInfo@@_J@Z 0000000180012a20 f i ConEmuPlugin2800.obj
 0001:00011a40       ?push_back@?$MArray@UWindowInfo@@@@QEAA_JAEBUWindowInfo@@@Z 0000000180012a40 f i ConEmuPlugin2800.obj
 0001:00011b10       ?insert@?$MArray@UWindowInfo@@@@QEAAX_JAEBUWindowInfo@@@Z 0000000180012b10 f i ConEmuPlugin2800.obj
 0001:00011c20       ?erase@?$MArray@UWindowInfo@@@@QEAAX_J@Z 0000000180012c20 f i ConEmuPlugin2800.obj
 0001:00011ce0       ?size@?$MArray@UWindowInfo@@@@QEBA_JXZ 0000000180012ce0 f i ConEmuPlugin2800.obj
 0001:00011cf0       ?clear@?$MArray@UWindowInfo@@@@QEAAXXZ 0000000180012cf0 f i ConEmuPlugin2800.obj
 0001:00011d40       ?addsize@?$MArray@UWindowInfo@@@@QEAAX_J@Z 0000000180012d40 f i ConEmuPlugin2800.obj
 0001:00011e80       ??0CPluginW995@@QEAA@XZ    0000000180012e80 f   ConEmuPlugin995.obj
 0001:00012190       ?Open@CPluginW995@@UEAAPEAXPEBX@Z 0000000180013190 f i ConEmuPlugin995.obj
 0001:000121b0       ?ProcessEditorEventPtr@CPluginW995@@UEAAHPEAX@Z 00000001800131b0 f i ConEmuPlugin995.obj
 0001:000121c0       ?ProcessSynchroEventPtr@CPluginW995@@UEAAHPEAX@Z 00000001800131c0 f i ConEmuPlugin995.obj
 0001:000121d0       ?ProcessViewerEventPtr@CPluginW995@@UEAAHPEAX@Z 00000001800131d0 f i ConEmuPlugin995.obj
 0001:000121e0       ??_ECPluginW995@@UEAAPEAXI@Z 00000001800131e0 f i ConEmuPlugin995.obj
 0001:000121e0       ??_GCPluginW995@@UEAAPEAXI@Z 00000001800131e0 f i ConEmuPlugin995.obj
 0001:00012220       ??1CPluginW995@@UEAA@XZ    0000000180013220 f i ConEmuPlugin995.obj
 0001:00012250       ?GetPanelDir@CPluginW995@@UEAAPEA_WKPEA_WH@Z 0000000180013250 f   ConEmuPlugin995.obj
 0001:00012440       ?GetPanelInfo@CPluginW995@@UEAA_NKPEAUCEPanelInfo@@@Z 0000000180013440 f   ConEmuPlugin995.obj
 0001:00012900       ?GetPanelItemInfo@CPluginW995@@UEAA_NAEBUCEPanelInfo@@_N_JAEAU_WIN32_FIND_DATAW@@PEAPEA_W@Z 0000000180013900 f   ConEmuPlugin995.obj
 0001:00012c10       ?PanelControlApi@CPluginW995@@UEAA_JPEAXH_J0@Z 0000000180013c10 f   ConEmuPlugin995.obj
 0001:00012c80       ?GetPluginInfoPtr@CPluginW995@@UEAAXPEAX@Z 0000000180013c80 f   ConEmuPlugin995.obj
 0001:00012d40       ?SetStartupInfoPtr@CPluginW995@@UEAAXPEAX@Z 0000000180013d40 f   ConEmuPlugin995.obj
 0001:00012f40       ?GetEditorModifiedState@CPluginW995@@UEAAKXZ 0000000180013f40 f   ConEmuPlugin995.obj
 0001:00012fa0       ?ProcessEditorInputPtr@CPluginW995@@UEAAHPEBX@Z 0000000180013fa0 f   ConEmuPlugin995.obj
 0001:00012fe0       ?GetWindowCount@CPluginW995@@UEAAHXZ 0000000180013fe0 f   ConEmuPlugin995.obj
 0001:00013040       ?UpdateConEmuTabsApi@CPluginW995@@UEAA_NH@Z 0000000180014040 f   ConEmuPlugin995.obj
 0001:000133c0       ?ExitFar@CPluginW995@@UEAAXXZ 00000001800143c0 f   ConEmuPlugin995.obj
 0001:00013470       ?ShowMessage@CPluginW995@@UEAAHPEB_WH_N@Z 0000000180014470 f   ConEmuPlugin995.obj
 0001:00013530       ?GetMsg@CPluginW995@@UEAAPEB_WHPEA_W_K@Z 0000000180014530 f   ConEmuPlugin995.obj
 0001:000135d0       ?SetWindow@CPluginW995@@UEAAXH@Z 00000001800145d0 f   ConEmuPlugin995.obj
 0001:00013650       ?PostMacroApi@CPluginW995@@UEAAXPEB_WPEAU_INPUT_RECORD@@_N@Z 0000000180014650 f   ConEmuPlugin995.obj
 0001:00013750       ?ShowPluginMenu@CPluginW995@@UEAAHPEAUConEmuPluginMenuItem@@HH@Z 0000000180014750 f   ConEmuPlugin995.obj
 0001:000139d0       ?OpenEditor@CPluginW995@@UEAA_NPEB_W_N11HH@Z 00000001800149d0 f   ConEmuPlugin995.obj
 0001:00013be0       ?ExecuteSynchroApi@CPluginW995@@UEAA_NXZ 0000000180014be0 f   ConEmuPlugin995.obj
 0001:00013c30       ?WaitEndSynchro@CPluginW995@@UEAAXXZ 0000000180014c30 f   ConEmuPlugin995.obj
 0001:00013ea0       ?StopWaitEndSynchro@CPluginW995@@UEAAXXZ 0000000180014ea0 f   ConEmuPlugin995.obj
 0001:00013ee0       ?IsMacroActive@CPluginW995@@UEAA_NXZ 0000000180014ee0 f   ConEmuPlugin995.obj
 0001:00013f60       ?GetMacroArea@CPluginW995@@UEAAHXZ 0000000180014f60 f   ConEmuPlugin995.obj
 0001:00013fb0       ?RedrawAll@CPluginW995@@UEAAXXZ 0000000180014fb0 f   ConEmuPlugin995.obj
 0001:00014000       ?InputBox@CPluginW995@@UEAA_NPEB_W000AEAPEA_W@Z 0000000180015000 f   ConEmuPlugin995.obj
 0001:000140b0       ?ShowUserScreen@CPluginW995@@UEAAX_N@Z 00000001800150b0 f   ConEmuPlugin995.obj
 0001:00014120       ?LoadFarColors@CPluginW995@@UEAAXAEAY0BAA@E@Z 0000000180015120 f   ConEmuPlugin995.obj
 0001:00014250       ?LoadFarSettings@CPluginW995@@UEAAXPEAUCEFarInterfaceSettings@@PEAUCEFarPanelSettings@@@Z 0000000180015250 f   ConEmuPlugin995.obj
 0001:000142e0       ?GetFarRect@CPluginW995@@UEAA_NAEAU_SMALL_RECT@@@Z 00000001800152e0 f   ConEmuPlugin995.obj
 0001:00014370       ?CheckPanelExist@CPluginW995@@UEAA_NXZ 0000000180015370 f   ConEmuPlugin995.obj
 0001:000143e0       ?GetActiveWindowType@CPluginW995@@UEAAHXZ 00000001800153e0 f   ConEmuPlugin995.obj
 0001:00014500       ?GetWindowTypeName@CPluginW995@@UEAAPEB_WH@Z 0000000180015500 f   ConEmuPlugin995.obj
 0001:000145c0       ?GuiMacroDlg@CPluginW995@@UEAAXXZ 00000001800155c0 f   ConEmuPlugin995.obj
 0001:00014ca0       ??0CPluginAnsi@@QEAA@XZ    0000000180015ca0 f   ConEmuPluginA.obj
 0001:00014f90       ?ExecuteSynchroApi@CPluginAnsi@@UEAA_NXZ 0000000180015f90 f i ConEmuPluginA.obj
 0001:00014fa0       ?GetFarRect@CPluginAnsi@@UEAA_NAEAU_SMALL_RECT@@@Z 0000000180015fa0 f i ConEmuPluginA.obj
 0001:00014fb0       ?Open@CPluginAnsi@@UEAAPEAXPEBX@Z 0000000180015fb0 f i ConEmuPluginA.obj
 0001:00014fd0       ?ProcessEditorEventPtr@CPluginAnsi@@UEAAHPEAX@Z 0000000180015fd0 f i ConEmuPluginA.obj
 0001:00014fe0       ?ProcessEditorInputPtr@CPluginAnsi@@UEAAHPEBX@Z 0000000180015fe0 f i ConEmuPluginA.obj
 0001:00014ff0       ?ProcessSynchroEventPtr@CPluginAnsi@@UEAAHPEAX@Z 0000000180015ff0 f i ConEmuPluginA.obj
 0001:00015000       ?ProcessViewerEventPtr@CPluginAnsi@@UEAAHPEAX@Z 0000000180016000 f i ConEmuPluginA.obj
 0001:00015010       ?StopWaitEndSynchro@CPluginAnsi@@UEAAXXZ 0000000180016010 f i ConEmuPluginA.obj
 0001:00015020       ?WaitEndSynchro@CPluginAnsi@@UEAAXXZ 0000000180016020 f i ConEmuPluginA.obj
 0001:00015030       ??_GCPluginAnsi@@UEAAPEAXI@Z 0000000180016030 f i ConEmuPluginA.obj
 0001:00015030       ??_ECPluginAnsi@@UEAAPEAXI@Z 0000000180016030 f i ConEmuPluginA.obj
 0001:00015070       ??1CPluginAnsi@@UEAA@XZ    0000000180016070 f i ConEmuPluginA.obj
 0001:000150a0       ?GetPanelDir@CPluginAnsi@@UEAAPEA_WKPEA_WH@Z 00000001800160a0 f   ConEmuPluginA.obj
 0001:00015210       ?GetPanelInfo@CPluginAnsi@@UEAA_NKPEAUCEPanelInfo@@@Z 0000000180016210 f   ConEmuPluginA.obj
 0001:00015640       ?GetPanelItemInfo@CPluginAnsi@@UEAA_NAEBUCEPanelInfo@@_N_JAEAU_WIN32_FIND_DATAW@@PEAPEA_W@Z 0000000180016640 f   ConEmuPluginA.obj
 0001:00015870       ?PanelControlApi@CPluginAnsi@@UEAA_JPEAXH_J0@Z 0000000180016870 f   ConEmuPluginA.obj
 0001:000158e0       ?SetStartupInfoPtr@CPluginAnsi@@UEAAXPEAX@Z 00000001800168e0 f   ConEmuPluginA.obj
 0001:00015ae0       ?GetPluginInfoPtr@CPluginAnsi@@UEAAXPEAX@Z 0000000180016ae0 f   ConEmuPluginA.obj
 0001:00015bd0       ?GetEditorModifiedState@CPluginAnsi@@UEAAKXZ 0000000180016bd0 f   ConEmuPluginA.obj
 0001:00015c40       ?GetWindowCount@CPluginAnsi@@UEAAHXZ 0000000180016c40 f   ConEmuPluginA.obj
 0001:00015ca0       ?UpdateConEmuTabsApi@CPluginAnsi@@UEAA_NH@Z 0000000180016ca0 f   ConEmuPluginA.obj
 0001:00016040       ?ExitFar@CPluginAnsi@@UEAAXXZ 0000000180017040 f   ConEmuPluginA.obj
 0001:000160a0       ?SetWindow@CPluginAnsi@@UEAAXH@Z 00000001800170a0 f   ConEmuPluginA.obj
 0001:00016120       ?PostMacroApi@CPluginAnsi@@UEAAXPEB_WPEAU_INPUT_RECORD@@_N@Z 0000000180017120 f   ConEmuPluginA.obj
 0001:00016250       ?ShowPluginMenu@CPluginAnsi@@UEAAHPEAUConEmuPluginMenuItem@@HH@Z 0000000180017250 f   ConEmuPluginA.obj
 0001:00016550       ?OpenEditor@CPluginAnsi@@UEAA_NPEB_W_N11HH@Z 0000000180017550 f   ConEmuPluginA.obj
 0001:00016780       ?ShowMessage@CPluginAnsi@@UEAAHPEB_WH_N@Z 0000000180017780 f   ConEmuPluginA.obj
 0001:000168a0       ?GetMsg@CPluginAnsi@@UEAAPEB_WHPEA_W_K@Z 00000001800178a0 f   ConEmuPluginA.obj
 0001:000169a0       ?IsMacroActive@CPluginAnsi@@UEAA_NXZ 00000001800179a0 f   ConEmuPluginA.obj
 0001:00016a20       ?GetMacroArea@CPluginAnsi@@UEAAHXZ 0000000180017a20 f   ConEmuPluginA.obj
 0001:00016a30       ?RedrawAll@CPluginAnsi@@UEAAXXZ 0000000180017a30 f   ConEmuPluginA.obj
 0001:00016a80       ?InputBox@CPluginAnsi@@UEAA_NPEB_W000AEAPEA_W@Z 0000000180017a80 f   ConEmuPluginA.obj
 0001:00016c10       ?ShowUserScreen@CPluginAnsi@@UEAAX_N@Z 0000000180017c10 f   ConEmuPluginA.obj
 0001:00016c80       ?LoadFarColors@CPluginAnsi@@UEAAXAEAY0BAA@E@Z 0000000180017c80 f   ConEmuPluginA.obj
 0001:00016db0       ?LoadFarSettings@CPluginAnsi@@UEAAXPEAUCEFarInterfaceSettings@@PEAUCEFarPanelSettings@@@Z 0000000180017db0 f   ConEmuPluginA.obj
 0001:00016e40       ?CheckPanelExist@CPluginAnsi@@UEAA_NXZ 0000000180017e40 f   ConEmuPluginA.obj
 0001:00016eb0       ?GetActiveWindowType@CPluginAnsi@@UEAAHXZ 0000000180017eb0 f   ConEmuPluginA.obj
 0001:00016f30       ?GetWindowTypeName@CPluginAnsi@@UEAAPEB_WH@Z 0000000180017f30 f   ConEmuPluginA.obj
 0001:00016ff0       ?GuiMacroDlg@CPluginAnsi@@UEAAXXZ 0000000180017ff0 f   ConEmuPluginA.obj
 0001:000177f0       ?Plugin@@YAPEAVCPluginBase@@XZ 00000001800187f0 f   ConEmuPluginBase.obj
 0001:00017950       ??0CPluginBase@@QEAA@XZ    0000000180018950 f   ConEmuPluginBase.obj
 0001:00017ca0       ??_ECPluginBase@@UEAAPEAXI@Z 0000000180018ca0 f i ConEmuPluginBase.obj
 0001:00017ca0       ??_GCPluginBase@@UEAAPEAXI@Z 0000000180018ca0 f i ConEmuPluginBase.obj
 0001:00017ce0       ??1CPluginBase@@UEAA@XZ    0000000180018ce0 f   ConEmuPluginBase.obj
 0001:00017d00       ?DllMain_ProcessAttach@CPluginBase@@KAXPEAUHINSTANCE__@@@Z 0000000180018d00 f   ConEmuPluginBase.obj
 0001:00017e40       ?DllMain_ProcessDetach@CPluginBase@@KAXXZ 0000000180018e40 f   ConEmuPluginBase.obj
 0001:00018010       ??_GMSection@@QEAAPEAXI@Z  0000000180019010 f i ConEmuPluginBase.obj
 0001:00018050       ??_GCPluginBackground@@QEAAPEAXI@Z 0000000180019050 f i ConEmuPluginBase.obj
 0001:00018090       ?DllCheckUnique@CPluginBase@@KA_N_N@Z 0000000180019090 f   ConEmuPluginBase.obj
 0001:00018320       ?LoadFarVersion@CPluginBase@@SA_NXZ 0000000180019320 f   ConEmuPluginBase.obj
 0001:00018af0       ?ShowMessageBox@CPluginBase@@KAHPEB_WI@Z 0000000180019af0 f   ConEmuPluginBase.obj
 0001:00018bf0       ?ShowMessageGui@CPluginBase@@QEAAHHH@Z 0000000180019bf0 f   ConEmuPluginBase.obj
 0001:00018ca0       ?BackgroundMacroError@CPluginBase@@SAKPEAX@Z 0000000180019ca0 f   ConEmuPluginBase.obj
 0001:00018cf0       ?PostMacro@CPluginBase@@QEAAXPEB_WPEAU_INPUT_RECORD@@_N@Z 0000000180019cf0 f   ConEmuPluginBase.obj
 0001:00018db0       ?isMacroActive@CPluginBase@@QEAA_NAEAH@Z 0000000180019db0 f   ConEmuPluginBase.obj
 0001:00018e40       ?CheckBufferEnabled@CPluginBase@@QEAA_NXZ 0000000180019e40 f   ConEmuPluginBase.obj
 0001:00018ef0       ?PanelControl@CPluginBase@@QEAA_JPEAXH_J0@Z 0000000180019ef0 f   ConEmuPluginBase.obj
 0001:00018fe0       ?GetPanelInfo@CPluginBase@@QEAA_NKPEAUBkPanelInfo@@@Z 0000000180019fe0 f   ConEmuPluginBase.obj
 0001:000190d0       ?FillUpdateBackground@CPluginBase@@QEAAXPEAUPaintBackgroundArg@@@Z 000000018001a0d0 f   ConEmuPluginBase.obj
 0001:00019300       ?StorePanelDirs@CPluginBase@@QEAA_NPEB_W0@Z 000000018001a300 f   ConEmuPluginBase.obj
 0001:00019530       wmemmove                   000000018001a530 f i ConEmuPluginBase.obj
 0001:00019560       ?UpdatePanelDirs@CPluginBase@@QEAAXXZ 000000018001a560 f   ConEmuPluginBase.obj
 0001:00019770       ?IsFarLua@FarVersion@@QEBA_NXZ 000000018001a770 f i ConEmuPluginBase.obj
 0001:000197d0       ?RunExternalProgram@CPluginBase@@QEAA_NPEA_W@Z 000000018001a7d0 f   ConEmuPluginBase.obj
 0001:00019a70       ?ProcessCommandLine@CPluginBase@@QEAA_NPEA_W@Z 000000018001aa70 f   ConEmuPluginBase.obj
 0001:00019ad0       ?ShowPluginMenu@CPluginBase@@QEAAXW4PluginCallCommands@@@Z 000000018001aad0 f   ConEmuPluginBase.obj
 0001:00019e20       ?ShowTabsList@CPluginBase@@QEAAXXZ 000000018001ae20 f   ConEmuPluginBase.obj
 0001:0001a350       ?ShowPanelsList@CPluginBase@@QEAAXXZ 000000018001b350 f   ConEmuPluginBase.obj
 0001:0001a560       ?DataSize@CESERVER_REQ@@QEAAKXZ 000000018001b560 f i ConEmuPluginBase.obj
 0001:0001a5a0       ?EditViewConsoleOutput@CPluginBase@@QEAAX_N@Z 000000018001b5a0 f   ConEmuPluginBase.obj
 0001:0001a6b0       ?SwitchTabCommand@CPluginBase@@QEAAXW4PluginMenuCommands@@@Z 000000018001b6b0 f   ConEmuPluginBase.obj
 0001:0001a780       ?ProcessSynchroEvent@CPluginBase@@QEAAHHPEAX@Z 000000018001b780 f   ConEmuPluginBase.obj
 0001:0001a840       ?ProcessEditorInputInternal@CPluginBase@@QEAAXAEBU_INPUT_RECORD@@@Z 000000018001b840 f   ConEmuPluginBase.obj
 0001:0001a8a0       ?ProcessEditorViewerEvent@CPluginBase@@QEAAHHH@Z 000000018001b8a0 f   ConEmuPluginBase.obj
 0001:0001a9f0       ?isEditorViewer@CPluginBase@@QEAA_NXZ 000000018001b9f0 f   ConEmuPluginBase.obj
 0001:0001aa40       ?isModalEditorViewer@CPluginBase@@QEAA_NXZ 000000018001ba40 f   ConEmuPluginBase.obj
 0001:0001aa90       ?GetMainThreadId@CPluginBase@@SAKXZ 000000018001ba90 f   ConEmuPluginBase.obj
 0001:0001ab40       ?ShowConsoleInfo@CPluginBase@@QEAAXXZ 000000018001bb40 f   ConEmuPluginBase.obj
 0001:0001ade0       ?RunExternalProgramW@CPluginBase@@SA_NPEA_W0_N@Z 000000018001bde0 f   ConEmuPluginBase.obj
 0001:0001b110       ?StartDebugger@CPluginBase@@QEAA_NXZ 000000018001c110 f   ConEmuPluginBase.obj
 0001:0001b4e0       ?Attach2Gui@CPluginBase@@QEAA_NXZ 000000018001c4e0 f   ConEmuPluginBase.obj
 0001:0001baa0       ?FindServerCmd@CPluginBase@@QEAA_NKAEAK_N@Z 000000018001caa0 f   ConEmuPluginBase.obj
 0001:0001bbc0       ?ShowMessage@CPluginBase@@QEAAHHH@Z 000000018001cbc0 f   ConEmuPluginBase.obj
 0001:0001bc50       ?OutDataAlloc@CPluginBase@@SA_NK@Z 000000018001cc50 f   ConEmuPluginBase.obj
 0001:0001bcd0       ?OutDataRealloc@CPluginBase@@SA_NK@Z 000000018001ccd0 f   ConEmuPluginBase.obj
 0001:0001bdd0       ?OutDataWrite@CPluginBase@@SA_NPEAXK@Z 000000018001cdd0 f   ConEmuPluginBase.obj
 0001:0001bec0       ?CreateTabs@CPluginBase@@SA_NH@Z 000000018001cec0 f   ConEmuPluginBase.obj
 0001:0001bfc0       ?AddTab@CPluginBase@@QEAA_NAEAHH_N1HPEB_W2HHHH@Z 000000018001cfc0 f   ConEmuPluginBase.obj
 0001:0001c600       wmemcmp                    000000018001d600 f i ConEmuPluginBase.obj
 0001:0001c690       ?AddTabFinish@CPluginBase@@QEAAXH@Z 000000018001d690 f   ConEmuPluginBase.obj
 0001:0001c6b0       ?SendTabs@CPluginBase@@SAXH_N@Z 000000018001d6b0 f   ConEmuPluginBase.obj
 0001:0001c900       ?CloseTabs@CPluginBase@@SAXXZ 000000018001d900 f   ConEmuPluginBase.obj
 0001:0001c9a0       ?UpdateConEmuTabs@CPluginBase@@QEAA_N_N@Z 000000018001d9a0 f   ConEmuPluginBase.obj
 0001:0001cdb0       ?ShowProtocolWarning@CPluginBase@@KAXXZ 000000018001ddb0 f   ConEmuPluginBase.obj
 0001:0001cf40       ?CheckResources@CPluginBase@@QEAAX_N@Z 000000018001df40 f   ConEmuPluginBase.obj
 0001:0001d120       ?InitResources@CPluginBase@@QEAAXXZ 000000018001e120 f   ConEmuPluginBase.obj
 0001:0001d4b0       ?CloseMapHeader@CPluginBase@@SAXXZ 000000018001e4b0 f   ConEmuPluginBase.obj
 0001:0001d4e0       ?OpenMapHeader@CPluginBase@@SAHXZ 000000018001e4e0 f   ConEmuPluginBase.obj
 0001:0001d630       ?InitRootRegKey@CPluginBase@@IEAAXXZ 000000018001e630 f   ConEmuPluginBase.obj
 0001:0001d790       ?SetRootRegKey@CPluginBase@@IEAAXPEA_W@Z 000000018001e790 f   ConEmuPluginBase.obj
 0001:0001d8c0       ?LoadPanelTabsFromRegistry@CPluginBase@@IEAAXXZ 000000018001e8c0 f   ConEmuPluginBase.obj
 0001:0001da30       ?InitHWND@CPluginBase@@SAXXZ 000000018001ea30 f   ConEmuPluginBase.obj
 0001:0001dd70       ?CheckConEmuDetached@CPluginBase@@SAXXZ 000000018001ed70 f   ConEmuPluginBase.obj
 0001:0001de20       ?EmergencyShow@CPluginBase@@KAXXZ 000000018001ee20 f   ConEmuPluginBase.obj
 0001:0001de90       ?MonitorThreadProcW@CPluginBase@@SAKPEAX@Z 000000018001ee90 f   ConEmuPluginBase.obj
 0001:0001e3c0       ?OpenPluginCommon@CPluginBase@@QEAAPEAXH_J_N@Z 000000018001f3c0 f   ConEmuPluginBase.obj
 0001:0001e890       ?ExitFarCommon@CPluginBase@@QEAAX_N@Z 000000018001f890 f   ConEmuPluginBase.obj
 0001:0001e900       ?OnMainThreadActivated@CPluginBase@@QEAAXXZ 000000018001f900 f   ConEmuPluginBase.obj
 0001:0001eb00       ?ProcessSetWindowCommand@CPluginBase@@QEAAXXZ 000000018001fb00 f   ConEmuPluginBase.obj
 0001:0001ec70       ?CommonPluginStartup@CPluginBase@@QEAAXXZ 000000018001fc70 f   ConEmuPluginBase.obj
 0001:0001eda0       ?StopThread@CPluginBase@@QEAAX_N@Z 000000018001fda0 f   ConEmuPluginBase.obj
 0001:0001f1d0       ??_G?$MFileMapping@UCESERVER_CONSOLE_MAPPING_HDR@@@@QEAAPEAXI@Z 00000001800201d0 f i ConEmuPluginBase.obj
 0001:0001f210       ?ShutdownPluginStep@CPluginBase@@SAXPEB_WHHHH@Z 0000000180020210 f   ConEmuPluginBase.obj
 0001:0001f230       ?ExecuteSynchro@CPluginBase@@QEAAXXZ 0000000180020230 f   ConEmuPluginBase.obj
 0001:0001f310       ?WaitPluginActivation@CPluginBase@@SAKKPEAPEAXHK@Z 0000000180020310 f   ConEmuPluginBase.obj
 0001:0001f4a0       ?ActivatePlugin@CPluginBase@@QEAA_NKPEAXK@Z 00000001800204a0 f   ConEmuPluginBase.obj
 0001:0001f7d0       ?cmd_OpenEditorLine@CPluginBase@@QEAA_NPEAUCESERVER_REQ_FAREDITOR@@@Z 00000001800207d0 f   ConEmuPluginBase.obj
 0001:0001f900       ?cmd_RedrawFarCall@CPluginBase@@QEAA_NAEAPEAUCESERVER_REQ@@PEAPEAU2@@Z 0000000180020900 f   ConEmuPluginBase.obj
 0001:0001f9f0       ?cmd_SetWindow@CPluginBase@@QEAA_NPEAX_N@Z 00000001800209f0 f   ConEmuPluginBase.obj
 0001:0001fad0       ?cmd_LeftClickSync@CPluginBase@@QEAAXPEAX@Z 0000000180020ad0 f   ConEmuPluginBase.obj
 0001:0001fc60       ?cmd_CloseQSearch@CPluginBase@@QEAAXXZ 0000000180020c60 f   ConEmuPluginBase.obj
 0001:0001fcc0       ?cmd_EMenu@CPluginBase@@QEAAXPEAX@Z 0000000180020cc0 f   ConEmuPluginBase.obj
 0001:0001fdd0       ?cmd_ExternalCallback@CPluginBase@@QEAA_NPEAX@Z 0000000180020dd0 f   ConEmuPluginBase.obj
 0001:0001fe70       ?cmd_ConSetFont@CPluginBase@@QEAAXPEAX@Z 0000000180020e70 f   ConEmuPluginBase.obj
 0001:0001fef0       ?cmd_GuiChanged@CPluginBase@@QEAAXPEAX@Z 0000000180020ef0 f   ConEmuPluginBase.obj
 0001:00020000       ?ProcessCommand@CPluginBase@@QEAA_NKHPEAXPEAPEAUCESERVER_REQ@@_N@Z 0000000180021000 f   ConEmuPluginBase.obj
 0001:00020720       ?FarSetConsoleSize@CPluginBase@@SA_NFF@Z 0000000180021720 f   ConEmuPluginBase.obj
 0001:00020890       ?ReloadFarInfoApi@CPluginBase@@IEAA_NXZ 0000000180021890 f   ConEmuPluginBase.obj
 0001:00020b40       ?ReloadFarInfo@CPluginBase@@QEAA_N_N@Z 0000000180021b40 f   ConEmuPluginBase.obj
 0001:00020e60       ?pcc_Selected@CPluginBase@@SA_NW4PluginMenuCommands@@@Z 0000000180021e60 f   ConEmuPluginBase.obj
 0001:00020ee0       ?pcc_Disabled@CPluginBase@@SA_NW4PluginMenuCommands@@@Z 0000000180021ee0 f   ConEmuPluginBase.obj
 0001:00020fc0       ?TouchReadPeekConsoleInputs@CPluginBase@@SAXH@Z 0000000180021fc0 f   ConEmuPluginBase.obj
 0001:00021020       ?OnConsolePeekReadInput@CPluginBase@@SAX_N@Z 0000000180022020 f   ConEmuPluginBase.obj
 0001:00021290       ?ActiveServerPID@CESERVER_CONSOLE_MAPPING_HDR@@QEBAKXZ 0000000180022290 f i ConEmuPluginBase.obj
 0001:000212d0       ?UngetDummyMouseEvent@CPluginBase@@SA_N_NPEAUHookCallbackArg@@@Z 00000001800222d0 f   ConEmuPluginBase.obj
 0001:00021540       ??4HANDLE2@@QEAAAEAU0@PEAX@Z 0000000180022540 f i ConEmuPluginBase.obj
 0001:00021560       ?FillLoadedParm@CPluginBase@@SAXPEAUConEmuLoadedArg@@PEAUHINSTANCE__@@H@Z 0000000180022560 f   ConEmuPluginBase.obj
 0001:000216a0       ?NotifyConEmuUnloaded@CPluginBase@@SAXXZ 00000001800226a0 f   ConEmuPluginBase.obj
 0001:000217f0       ?OnPanelViewCallbacks@CPluginBase@@SA_NPEAUHookCallbackArg@@P6AHPEAXPEAU_INPUT_RECORD@@KPEAKPEAH@Z5@Z 00000001800227f0 f   ConEmuPluginBase.obj
 0001:00021940       ?OnShellExecuteExW_Except@CPluginBase@@SAXPEAUHookCallbackArg@@@Z 0000000180022940 f   ConEmuPluginBase.obj
 0001:00021990       ?OnGetNumberOfConsoleInputEventsPost@CPluginBase@@SAXPEAUHookCallbackArg@@@Z 0000000180022990 f   ConEmuPluginBase.obj
 0001:000219d0       ?OnConsolePeekInput@CPluginBase@@SAHPEAUHookCallbackArg@@@Z 00000001800229d0 f   ConEmuPluginBase.obj
 0001:00021a60       ?OnConsolePeekInputPost@CPluginBase@@SAXPEAUHookCallbackArg@@@Z 0000000180022a60 f   ConEmuPluginBase.obj
 0001:00021ab0       ?OnConsoleReadInputWork@CPluginBase@@SAHPEAUHookCallbackArg@@@Z 0000000180022ab0 f   ConEmuPluginBase.obj
 0001:00021b60       ?OnConsoleReadInput@CPluginBase@@SAHPEAUHookCallbackArg@@@Z 0000000180022b60 f   ConEmuPluginBase.obj
 0001:00021b80       ?OnConsoleReadInputPost@CPluginBase@@SAXPEAUHookCallbackArg@@@Z 0000000180022b80 f   ConEmuPluginBase.obj
 0001:00021e30       ?OnWriteConsoleOutput@CPluginBase@@SAHPEAUHookCallbackArg@@@Z 0000000180022e30 f   ConEmuPluginBase.obj
 0001:00021f50       ?OnConsoleDetaching@CPluginBase@@SAHPEAUHookCallbackArg@@@Z 0000000180022f50 f   ConEmuPluginBase.obj
 0001:000220b0       ?OnConsoleWasAttached@CPluginBase@@SAXPEAUHookCallbackArg@@@Z 00000001800230b0 f   ConEmuPluginBase.obj
 0001:00022130       ?OnCurDirChanged@CPluginBase@@SAXXZ 0000000180023130 f   ConEmuPluginBase.obj
 0001:000221c0       ?OnLibraryLoaded@CPluginBase@@SAXPEAUHINSTANCE__@@@Z 00000001800231c0 f   ConEmuPluginBase.obj
 0001:00022270       ?ToUnicode@CPluginBase@@SAPEA_WPEBD@Z 0000000180023270 f   ConEmuPluginBase.obj
 0001:00022310       ?ToOem@CPluginBase@@SAXPEB_WPEAD_J@Z 0000000180023310 f   ConEmuPluginBase.obj
 0001:00022390       ?ToOem@CPluginBase@@SAPEADPEB_W@Z 0000000180023390 f   ConEmuPluginBase.obj
 0001:00022400       ?ProcessDragFrom@CPluginBase@@QEAAXXZ 0000000180023400 f   ConEmuPluginBase.obj
 0001:00022cc0       ?ProcessDragTo@CPluginBase@@QEAAXXZ 0000000180023cc0 f   ConEmuPluginBase.obj
 0001:00023180       ?IsCurrentTabModal@CPluginBase@@QEAA_NXZ 0000000180024180 f   ConEmuPluginBase.obj
 0001:00023280       ?PrintText@CPluginBase@@QEAA_NPEB_W@Z 0000000180024280 f   ConEmuPluginBase.obj
 0001:00023420       ?Ptr@?$MFileMapping@UCESERVER_CONSOLE_MAPPING_HDR@@@@QEAAPEAUCESERVER_CONSOLE_MAPPING_HDR@@XZ 0000000180024420 f i ConEmuPluginBase.obj
 0001:00023430       ??$wcscpy_c@$0BBE@@@YAHAEAY0BBE@_WPEB_W@Z 0000000180024430 f i ConEmuPluginBase.obj
 0001:00023460       ??$wcscat_c@$0BBE@@@YAHAEAY0BBE@_WPEB_W@Z 0000000180024460 f i ConEmuPluginBase.obj
 0001:00023490       ??$wcscat_c@$0CAE@@@YAHAEAY0CAE@_WPEB_W@Z 0000000180024490 f i ConEmuPluginBase.obj
 0001:000234c0       ?EvaluateDefaultFontWidth@@YAHHPEB_W@Z 00000001800244c0 f   EmergencyShow.obj
 0001:00023640       ?SetUserFriendlyFont@@YAXPEAUHWND__@@HH@Z 0000000180024640 f   EmergencyShow.obj
 0001:00023c00       ?CorrectConsolePos@@YAXPEAUHWND__@@@Z 0000000180024c00 f   EmergencyShow.obj
 0001:00023de0       ?EmergencyShow@@YAXPEAUHWND__@@HH@Z 0000000180024de0 f   EmergencyShow.obj
 0001:00023f60       ?IsFileBatch@@YA_NPEB_W@Z  0000000180024f60 f   Execute.obj
 0001:00024000       ?GetImageSubsystem@@YA_NPEB_WAEAK11@Z 0000000180025000 f   Execute.obj
 0001:00024410       ?GetImageSubsystem@@YA_NAEAK0@Z 0000000180025410 f   Execute.obj
 0001:000244f0       ?GetImageSubsystem@@YA_NU_PROCESS_INFORMATION@@AEAK1@Z 00000001800254f0 f   Execute.obj
 0001:000247f0       ?GetEnclosingSectionHeader@@YAPEAU_IMAGE_SECTION_HEADER@@KPEAUIMAGE_MAPPING@@@Z 00000001800257f0 f   Execute.obj
 0001:000248a0       ?GetPtrFromRVA@@YAPEAXKPEAUIMAGE_MAPPING@@@Z 00000001800258a0 f   Execute.obj
 0001:00024930       ?FindImageSubsystem@@YA_NPEB_WAEAK1PEAK@Z 0000000180025930 f   Execute.obj
 0001:000257a0       ?OnHooksUnloaded@@YAXXZ    00000001800267a0 f   HkFunc.obj
 0001:000257b0       ??0HkFunc@@QEAA@XZ         00000001800267b0 f   HkFunc.obj
 0001:000257d0       ?Init@HkFunc@@QEAA_NPEB_WPEAUHINSTANCE__@@@Z 00000001800267d0 f   HkFunc.obj
 0001:000258e0       ?SetInternalMode@HkFunc@@QEAAXXZ 00000001800268e0 f   HkFunc.obj
 0001:00025900       ?isConEmuHk@HkFunc@@QEAA_NXZ 0000000180026900 f   HkFunc.obj
 0001:00025930       ?HeapInitialize@@YA_NXZ    0000000180026930 f   Memory.obj
 0001:00025980       ?HeapDeinitialize@@YAXXZ   0000000180026980 f   Memory.obj
 0001:000259b0       ?xf_malloc@@YAPEAX_K@Z     00000001800269b0 f   Memory.obj
 0001:000259e0       ?xf_calloc@@YAPEAX_K0@Z    00000001800269e0 f   Memory.obj
 0001:00025a20       ?xf_realloc@@YAPEAXPEAX_K@Z 0000000180026a20 f   Memory.obj
 0001:00025a70       ?xf_free@@YAXPEAX@Z        0000000180026a70 f   Memory.obj
 0001:00025ab0       ?xf_validate@@YA_NPEAX@Z   0000000180026ab0 f   Memory.obj
 0001:00025b00       ??2@YAPEAX_K@Z             0000000180026b00 f   Memory.obj
 0001:00025b30       ??_U@YAPEAX_K@Z            0000000180026b30 f   Memory.obj
 0001:00025b60       ??3@YAXPEAX@Z              0000000180026b60 f   Memory.obj
 0001:00025b80       ??_V@YAXPEAX@Z             0000000180026b80 f   Memory.obj
 0001:00025ba0       ?lstrdup@@YAPEADPEBD@Z     0000000180026ba0 f   Memory.obj
 0001:00025c20       ?StringCchCopyA@@YAJPEAD_KPEBD@Z 0000000180026c20 f i Memory.obj
 0001:00025db0       ?lstrdup@@YAPEA_WPEB_W_K@Z 0000000180026db0 f   Memory.obj
 0001:00025f70       ?lstrdupW@@YAPEA_WPEBDI@Z  0000000180026f70 f   Memory.obj
 0001:00026010       ?lstrdupA@@YAPEADPEB_WIPEAH@Z 0000000180027010 f   Memory.obj
 0001:00026160       ?lstrmerge@@YAPEA_WPEB_W0000@Z 0000000180027160 f   Memory.obj
 0001:00026360       ?lstrmerge@@YA_NPEAPEA_WPEB_W111@Z 0000000180027360 f   Memory.obj
 0001:000263e0       ?GetStartupMonitor@@YAPEAUHMONITOR__@@XZ 00000001800273e0 f   Monitors.obj
 0001:000264f0       ?MonitorFromParam@@YAPEAUHMONITOR__@@PEB_W@Z 00000001800274f0 f   Monitors.obj
 0001:00026740       ?FindMonitorsWorkspace@@YAHPEAUHMONITOR__@@PEAUHDC__@@PEAUtagRECT@@_J@Z 0000000180027740 f   Monitors.obj
 0001:000267f0       ?GetAllMonitorsWorkspace@@YA?AUtagRECT@@XZ 00000001800277f0 f   Monitors.obj
 0001:00026880       ?FindPrimaryMonitor@@YAHPEAUHMONITOR__@@PEAUHDC__@@PEAUtagRECT@@_J@Z 0000000180027880 f   Monitors.obj
 0001:00026910       ?GetMonitorInfoSafe@@YA_NPEAUHMONITOR__@@AEAUtagMONITORINFO@@@Z 0000000180027910 f   Monitors.obj
 0001:00026980       ?GetPrimaryMonitorInfo@@YAPEAUHMONITOR__@@PEAUtagMONITORINFO@@@Z 0000000180027980 f   Monitors.obj
 0001:00026a40       ?GetNearestMonitorInfo@@YAPEAUHMONITOR__@@PEAUtagMONITORINFO@@PEAU1@PEBUtagRECT@@PEAUHWND__@@@Z 0000000180027a40 f   Monitors.obj
 0001:00026b70       ?EnumAllMonitors@@YAHPEAUHMONITOR__@@PEAUHDC__@@PEAUtagRECT@@_J@Z 0000000180027b70 f   Monitors.obj
 0001:00026c20       ?MonitorSortCallback@@YAHAEAU_FindAllMonitorsItem@@0@Z 0000000180027c20 f   Monitors.obj
 0001:00026ca0       ?GetNextMonitorInfo@@YAPEAUHMONITOR__@@PEAUtagMONITORINFO@@PEBUtagRECT@@_N@Z 0000000180027ca0 f   Monitors.obj
 0001:00026f30       ??0_FindAllMonitors@@QEAA@XZ 0000000180027f30 f i Monitors.obj
 0001:00026f50       ??1_FindAllMonitors@@QEAA@XZ 0000000180027f50 f i Monitors.obj
 0001:00026f70       ?FindTaskbarWindow@@YAPEAUHWND__@@PEAUtagRECT@@@Z 0000000180027f70 f   Monitors.obj
 0001:00026ff0       ?IsTaskbarAutoHidden@@YA_NPEAUtagRECT@@PEAI@Z 0000000180027ff0 f   Monitors.obj
 0001:000270e0       ??0?$MArray@U_FindAllMonitorsItem@@@@QEAA@XZ 00000001800280e0 f i Monitors.obj
 0001:00027140       ??1?$MArray@U_FindAllMonitorsItem@@@@QEAA@XZ 0000000180028140 f i Monitors.obj
 0001:00027160       ??A?$MArray@U_FindAllMonitorsItem@@@@QEAAAEAU_FindAllMonitorsItem@@_J@Z 0000000180028160 f i Monitors.obj
 0001:00027180       ?push_back@?$MArray@U_FindAllMonitorsItem@@@@QEAA_JAEBU_FindAllMonitorsItem@@@Z 0000000180028180 f i Monitors.obj
 0001:00027250       ?size@?$MArray@U_FindAllMonitorsItem@@@@QEBA_JXZ 0000000180028250 f i Monitors.obj
 0001:00027260       ?sort@?$MArray@U_FindAllMonitorsItem@@@@QEAAXP6AHAEAU_FindAllMonitorsItem@@0@Z@Z 0000000180028260 f i Monitors.obj
 0001:000273b0       ?clear@?$MArray@U_FindAllMonitorsItem@@@@QEAAXXZ 00000001800283b0 f i Monitors.obj
 0001:00027400       ?addsize@?$MArray@U_FindAllMonitorsItem@@@@QEAAX_J@Z 0000000180028400 f i Monitors.obj
 0001:00027540       ??0MSection@@QEAA@XZ       0000000180028540 f   MSection.obj
 0001:00027630       ??1MSection@@QEAA@XZ       0000000180028630 f   MSection.obj
 0001:00027700       ?Process_Lock@MSection@@IEAAXXZ 0000000180028700 f   MSection.obj
 0001:00027720       ?Process_Unlock@MSection@@IEAAXXZ 0000000180028720 f   MSection.obj
 0001:00027740       ?ThreadTerminated@MSection@@QEAAXK@Z 0000000180028740 f   MSection.obj
 0001:000277b0       ?AddRef@MSection@@IEAAXK@Z 00000001800287b0 f   MSection.obj
 0001:00027900       ?ReleaseRef@MSection@@IEAAHK@Z 0000000180028900 f   MSection.obj
 0001:00027a20       ?WaitUnlocked@MSection@@IEAAXKK@Z 0000000180028a20 f   MSection.obj
 0001:00027af0       ?MyEnterCriticalSection@MSection@@IEAA_NK@Z 0000000180028af0 f   MSection.obj
 0001:00027cc0       ?Lock@MSection@@IEAAHHK@Z  0000000180028cc0 f   MSection.obj
 0001:00027e70       ?Unlock@MSection@@IEAAXH@Z 0000000180028e70 f   MSection.obj
 0001:00027f00       ?isLockedExclusive@MSection@@QEAA_NXZ 0000000180028f00 f   MSection.obj
 0001:00027f70       ??0MSectionThread@@QEAA@PEAVMSection@@@Z 0000000180028f70 f   MSection.obj
 0001:00027fb0       ??1MSectionThread@@QEAA@XZ 0000000180028fb0 f   MSection.obj
 0001:00027ff0       ??0MSectionLock@@QEAA@XZ   0000000180028ff0 f   MSection.obj
 0001:00028020       ??1MSectionLock@@QEAA@XZ   0000000180029020 f   MSection.obj
 0001:00028050       ?Lock@MSectionLock@@QEAAHPEAVMSection@@HK@Z 0000000180029050 f   MSection.obj
 0001:00028120       ?RelockExclusive@MSectionLock@@QEAAHK@Z 0000000180029120 f   MSection.obj
 0001:000281b0       ?Unlock@MSectionLock@@QEAAXXZ 00000001800291b0 f   MSection.obj
 0001:00028200       ?isLocked@MSectionLock@@QEAAHH@Z 0000000180029200 f   MSection.obj
 0001:00028250       ??0MSectionSimple@@QEAA@_N@Z 0000000180029250 f   MSectionSimple.obj
 0001:000282b0       ??1MSectionSimple@@QEAA@XZ 00000001800292b0 f   MSectionSimple.obj
 0001:000282d0       ?IsInitialized@MSectionSimple@@QEAA_NXZ 00000001800292d0 f   MSectionSimple.obj
 0001:00028310       ?Init@MSectionSimple@@QEAAXXZ 0000000180029310 f   MSectionSimple.obj
 0001:00028340       ?Close@MSectionSimple@@QEAAXXZ 0000000180029340 f   MSectionSimple.obj
 0001:00028370       ?Enter@MSectionSimple@@QEAAXXZ 0000000180029370 f   MSectionSimple.obj
 0001:00028390       ?Leave@MSectionSimple@@QEAAXXZ 0000000180029390 f   MSectionSimple.obj
 0001:000283b0       ?TryEnter@MSectionSimple@@QEAA_NXZ 00000001800293b0 f   MSectionSimple.obj
 0001:000283f0       ?RecreateAndLock@MSectionSimple@@QEAA_NXZ 00000001800293f0 f   MSectionSimple.obj
 0001:00028490       ??0MSectionLockSimple@@QEAA@XZ 0000000180029490 f   MSectionSimple.obj
 0001:000284b0       ??1MSectionLockSimple@@QEAA@XZ 00000001800294b0 f   MSectionSimple.obj
 0001:000284e0       ?Lock@MSectionLockSimple@@QEAAHPEAUMSectionSimple@@K@Z 00000001800294e0 f   MSectionSimple.obj
 0001:000285b0       ?Unlock@MSectionLockSimple@@QEAAXXZ 00000001800295b0 f   MSectionSimple.obj
 0001:000285f0       ?isLocked@MSectionLockSimple@@QEAAHXZ 00000001800295f0 f   MSectionSimple.obj
 0001:00028600       ?NullSecurity@@YAPEAU_SECURITY_ATTRIBUTES@@XZ 0000000180029600 f   MSecurity.obj
 0001:00028660       ??0MNullDesc@@QEAA@XZ      0000000180029660 f i MSecurity.obj
 0001:000286e0       ?NullSecurity@MNullDesc@@QEAAPEAU_SECURITY_ATTRIBUTES@@XZ 00000001800296e0 f i MSecurity.obj
 0001:00028820       ?LoadAdvApi@MNullDesc@@IEAAHXZ 0000000180029820 f i MSecurity.obj
 0001:00028ae0       ?UnloadAdvApi@MNullDesc@@IEAAXXZ 0000000180029ae0 f i MSecurity.obj
 0001:00028b20       ?LocalSecurity@@YAPEAU_SECURITY_ATTRIBUTES@@XZ 0000000180029b20 f   MSecurity.obj
 0001:00028b80       ?LocalSecurity@MNullDesc@@QEAAPEAU_SECURITY_ATTRIBUTES@@XZ 0000000180029b80 f i MSecurity.obj
 0001:00028e30       ?ShutdownSecurity@@YAXXZ   0000000180029e30 f   MSecurity.obj
 0001:00028e90       ??_GMNullDesc@@QEAAPEAXI@Z 0000000180029e90 f i MSecurity.obj
 0001:00028ed0       ??1MNullDesc@@QEAA@XZ      0000000180029ed0 f i MSecurity.obj
 0001:00028f60       ??0MSetter@@QEAA@PEAJ@Z    0000000180029f60 f   MSetter.obj
 0001:00028fb0       ??0MSetter@@QEAA@PEA_N@Z   0000000180029fb0 f   MSetter.obj
 0001:00029000       ??0MSetter@@QEAA@PEAKK@Z   000000018002a000 f   MSetter.obj
 0001:00029050       ??1MSetter@@QEAA@XZ        000000018002a050 f   MSetter.obj
 0001:00029070       ?Unlock@MSetter@@QEAAXXZ   000000018002a070 f   MSetter.obj
 0001:00029110       ?msprintf@@YAPEB_WPEA_W_KPEB_WZZ 000000018002a110 f   MStrSafe.obj
 0001:00029ad0       ?msprintf@@YAPEBDPEAD_KPEBDZZ 000000018002aad0 f   MStrSafe.obj
 0001:0002a210       ?lstrcmpni@@YAHPEBD0H@Z    000000018002b210 f   MStrSafe.obj
 0001:0002a380       ?lstrcmpni@@YAHPEB_W0H@Z   000000018002b380 f   MStrSafe.obj
 0001:0002a530       ?startswith@@YAHPEB_W0_N@Z 000000018002b530 f   MStrSafe.obj
 0001:0002a5e0       ??0CPluginBackground@@QEAA@XZ 000000018002b5e0 f   PluginBackground.obj
 0001:0002a890       ??1CPluginBackground@@QEAA@XZ 000000018002b890 f   PluginBackground.obj
 0001:0002ab40       ?RegisterSubplugin@CPluginBackground@@QEAAHPEAURegisterBackgroundArg@@@Z 000000018002bb40 f   PluginBackground.obj
 0001:0002b0b0       ?ReallocItems@CPluginBackground@@IEAAXH@Z 000000018002c0b0 f   PluginBackground.obj
 0001:0002b150       ?OnMainThreadActivated@CPluginBackground@@QEAAXHH@Z 000000018002c150 f   PluginBackground.obj
 0001:0002b2c0       ?SetForceCheck@CPluginBackground@@QEAAXXZ 000000018002c2c0 f   PluginBackground.obj
 0001:0002b2f0       ?SetForceUpdate@CPluginBackground@@QEAAX_N@Z 000000018002c2f0 f   PluginBackground.obj
 0001:0002b330       ?SetForceThLoad@CPluginBackground@@QEAAXXZ 000000018002c330 f   PluginBackground.obj
 0001:0002b370       ?IsParmChanged@CPluginBackground@@IEAA_NPEAUPaintBackgroundArg@@0@Z 000000018002c370 f   PluginBackground.obj
 0001:0002b6c0       ?CheckPanelFolders@CPluginBackground@@IEAAXH@Z 000000018002c6c0 f   PluginBackground.obj
 0001:0002b7f0       ?SetDcPanelRect@CPluginBackground@@IEAAXPEAUtagRECT@@PEAUBkPanelInfo@@PEAUPaintBackgroundArg@@@Z 000000018002c7f0 f   PluginBackground.obj
 0001:0002b990       ?UpdateBackground_Exec@CPluginBackground@@KAXPEAURegisterBackgroundArg@@PEAUPaintBackgroundArg@@@Z 000000018002c990 f   PluginBackground.obj
 0001:0002b9f0       ?UpdateBackground@CPluginBackground@@IEAAXXZ 000000018002c9f0 f   PluginBackground.obj
 0001:0002cac0       ?LoadThSet@CPluginBackground@@IEAAHH@Z 000000018002dac0 f   PluginBackground.obj
 0001:0002cd30       ?MonitorBackground@CPluginBackground@@QEAAXXZ 000000018002dd30 f   PluginBackground.obj
 0001:0002ce10       ?GetTo@?$MFileMapping@UPanelViewSetMapping@@@@QEAA_NPEAUPanelViewSetMapping@@H@Z 000000018002de10 f i PluginBackground.obj
 0001:0002ce70       ?InitName@?$MFileMapping@UPanelViewSetMapping@@@@QEAAPEB_WPEB_WKK@Z 000000018002de70 f i PluginBackground.obj
 0001:0002ced0       ?CloseMap@?$MFileMapping@UPanelViewSetMapping@@@@QEAAXXZ 000000018002ded0 f i PluginBackground.obj
 0001:0002cf60       ?Open@?$MFileMapping@UPanelViewSetMapping@@@@QEAAPEAUPanelViewSetMapping@@HH@Z 000000018002df60 f i PluginBackground.obj
 0001:0002cf90       ??0?$MFileMapping@UPanelViewSetMapping@@@@QEAA@XZ 000000018002df90 f i PluginBackground.obj
 0001:0002d000       ??1?$MFileMapping@UPanelViewSetMapping@@@@QEAA@XZ 000000018002e000 f i PluginBackground.obj
 0001:0002d030       ?IsValid@?$MFileMapping@UPanelViewSetMapping@@@@QEAA_NXZ 000000018002e030 f i PluginBackground.obj
 0001:0002d060       ?ClosePtr@?$MFileMapping@UPanelViewSetMapping@@@@QEAAXXZ 000000018002e060 f i PluginBackground.obj
 0001:0002d0a0       ?InternalOpenCreate@?$MFileMapping@UPanelViewSetMapping@@@@IEAAPEAUPanelViewSetMapping@@HHH@Z 000000018002e0a0 f i PluginBackground.obj
 0001:0002d480       ?PlugServerInit@@YAXXZ     000000018002e480 f   PluginSrv.obj
 0001:0002d490       ?PlugServerStart@@YA_NXZ   000000018002e490 f   PluginSrv.obj
 0001:0002d5d0       ?PlugServerStop@@YAX_N@Z   000000018002e5d0 f   PluginSrv.obj
 0001:0002d630       ?cmd_FarSetChanged@@YAXPEAUFAR_REQ_FARSETCHANGED@@@Z 000000018002e630 f   PluginSrv.obj
 0001:0002d6b0       ?PlugServerCommand@@YAHPEAXPEAUCESERVER_REQ@@AEAPEAU1@AEAK3_J@Z 000000018002e6b0 f   PluginSrv.obj
 0001:0002e0e0       ?PlugServerFree@@YAXPEAUCESERVER_REQ@@_J@Z 000000018002f0e0 f   PluginSrv.obj
 0001:0002e100       ?SetOverlapped@?$PipeServer@UCESERVER_REQ@@@@QEAAX_N@Z 000000018002f100 f i PluginSrv.obj
 0001:0002e120       ?SetLoopCommands@?$PipeServer@UCESERVER_REQ@@@@QEAAX_N@Z 000000018002f120 f i PluginSrv.obj
 0001:0002e140       ?SetDummyAnswerSize@?$PipeServer@UCESERVER_REQ@@@@QEAAXH@Z 000000018002f140 f i PluginSrv.obj
 0001:0002e160       ?SetMaxCount@?$PipeServer@UCESERVER_REQ@@@@QEAAXH@Z 000000018002f160 f i PluginSrv.obj
 0001:0002e1b0       ?StartPipeServer@?$PipeServer@UCESERVER_REQ@@@@QEAA_N_NPEB_W_JPEAU_SECURITY_ATTRIBUTES@@P6AHPEAXPEAUCESERVER_REQ@@AEAPEAU3@AEAK72@ZP6AX52@ZP6AH42@ZP6AH42@ZP6AH42@Z@Z 000000018002f1b0 f i PluginSrv.obj
 0001:0002e420       ?StopPipeServer@?$PipeServer@UCESERVER_REQ@@@@QEAAX_NAEA_N@Z 000000018002f420 f i PluginSrv.obj
 0001:0002ed50       ?BreakConnection@?$PipeServer@UCESERVER_REQ@@@@QEAAXPEAX@Z 000000018002fd50 f i PluginSrv.obj
 0001:0002ed80       ?DumpError@?$PipeServer@UCESERVER_REQ@@@@IEAAXPEAUPipeInst@1@PEB_WH@Z 000000018002fd80 f i PluginSrv.obj
 0001:0002eec0       ?_Disconnect@?$PipeServer@UCESERVER_REQ@@@@IEAAXPEAUPipeInst@1@_N11@Z 000000018002fec0 f i PluginSrv.obj
 0001:0002ef70       ?StartPipeInstance@?$PipeServer@UCESERVER_REQ@@@@IEAA_NPEAUPipeInst@1@@Z 000000018002ff70 f i PluginSrv.obj
 0001:0002f1e0       ?TerminatePipeThread@?$PipeServer@UCESERVER_REQ@@@@KAXAEAPEAXAEBUPipeInst@1@AEA_N@Z 00000001800301e0 f i PluginSrv.obj
 0001:0002f2a0       ?_PipeServerThread@?$PipeServer@UCESERVER_REQ@@@@KAKPEAX@Z 00000001800302a0 f i PluginSrv.obj
 0001:0002f340       ?PipeServerThread@?$PipeServer@UCESERVER_REQ@@@@IEAAKPEAUPipeInst@1@@Z 0000000180030340 f i PluginSrv.obj
 0001:0002f890       ?PipeServerRead@?$PipeServer@UCESERVER_REQ@@@@IEAAHPEAUPipeInst@1@@Z 0000000180030890 f i PluginSrv.obj
 0001:0002fd00       ?PipeServerWrite@?$PipeServer@UCESERVER_REQ@@@@IEAAHPEAUPipeInst@1@PEBXKPEAKH@Z 0000000180030d00 f i PluginSrv.obj
 0001:0002ff40       ?WaitForClient@?$PipeServer@UCESERVER_REQ@@@@IEAA_NPEAUPipeInst@1@AEAH1@Z 0000000180030f40 f i PluginSrv.obj
 0001:00030550       ?WriteDummyAnswer@?$PipeServer@UCESERVER_REQ@@@@IEAAHPEAUPipeInst@1@@Z 0000000180031550 f i PluginSrv.obj
 0001:000305f0       ?WaitOverlapped@?$PipeServer@UCESERVER_REQ@@@@IEAAHPEAUPipeInst@1@PEAK@Z 00000001800315f0 f i PluginSrv.obj
 0001:000308e0       ?AllocRequestBuf@PipeInst@?$PipeServer@UCESERVER_REQ@@@@QEAAPEAUCESERVER_REQ@@K@Z 00000001800318e0 f i PluginSrv.obj
 0001:00030980       ??$wcscpy_c@$0BAE@@@YAHAEAY0BAE@_WPEB_W@Z 0000000180031980 f i PluginSrv.obj
 0001:00030ae0       ?SetConEmuEnvHWND@@YAXPEB_WPEAUHWND__@@@Z 0000000180031ae0 f   SetEnvVar.obj
 0001:00030b40       ?SetConEmuEnvVar@@YAXPEAUHWND__@@@Z 0000000180031b40 f   SetEnvVar.obj
 0001:00030bc0       ?SetConEmuEnvVarChild@@YAXPEAUHWND__@@0@Z 0000000180031bc0 f   SetEnvVar.obj
 0001:00030c00       ?SetConEmuWorkEnvVar@@YAXPEAUHINSTANCE__@@@Z 0000000180031c00 f   SetEnvVar.obj
 0001:00030dd0       ??0CEnvStrings@@QEAA@PEA_W@Z 0000000180031dd0 f   SetEnvVar.obj
 0001:00030e90       ??1CEnvStrings@@QEAA@XZ    0000000180031e90 f   SetEnvVar.obj
 0001:00030ed0       ?ShutdownConsole@@YAXXZ    0000000180031ed0 f   WConsole.obj
 0001:00030f20       ?SetConsoleInfo@@YAHPEAUHWND__@@PEAU_CONSOLE_INFO@@@Z 0000000180031f20 f   WConsole.obj
 0001:00031250       ?GetConsoleSizeInfo@@YAXPEAU_CONSOLE_INFO@@@Z 0000000180032250 f   WConsole.obj
 0001:00031320       ?apiGetConsoleScreenBufferInfoEx@@YAHPEAXPEAUMY_CONSOLE_SCREEN_BUFFER_INFOEX@@@Z 0000000180032320 f   WConsole.obj
 0001:000313a0       ?apiSetConsoleScreenBufferInfoEx@@YAHPEAXPEAUMY_CONSOLE_SCREEN_BUFFER_INFOEX@@@Z 00000001800323a0 f   WConsole.obj
 0001:00031440       ?apiGetCurrentConsoleFontEx@@YAHPEAXHPEAUMY_CONSOLE_FONT_INFOEX@@@Z 0000000180032440 f   WConsole.obj
 0001:000314d0       ?apiSetCurrentConsoleFontEx@@YAHPEAXHPEAUMY_CONSOLE_FONT_INFOEX@@@Z 00000001800324d0 f   WConsole.obj
 0001:00031560       ?apiInitConsoleFontSize@@YAHPEAX@Z 0000000180032560 f   WConsole.obj
 0001:00031600       ?apiGetConsoleFontSize@@YAHPEAXAEAH1AEAY0CA@_W@Z 0000000180032600 f   WConsole.obj
 0001:000316d0       ?apiSetConsoleFontSize@@YAHPEAXHHPEB_W@Z 00000001800326d0 f   WConsole.obj
 0001:00031840       ?apiFixFontSizeForBufferSize@@YAHPEAXU_COORD@@PEADH@Z 0000000180032840 f   WConsole.obj
 0001:00031f20       ?SetConsoleFontSizeTo@@YAXPEAUHWND__@@HHPEB_WGG@Z 0000000180032f20 f   WConsole.obj
 0001:00032520       ?apiPauseConsoleOutput@@YAHPEAUHWND__@@_N@Z 0000000180033520 f   WConsole.obj
 0001:00032680       ?apiGetConsoleSelectionInfo@@YAHPEAU_CONSOLE_SELECTION_INFO@@@Z 0000000180033680 f   WConsole.obj
 0001:000327a0       ?MyGetLargestConsoleWindowSize@@YA?AU_COORD@@PEAX@Z 00000001800337a0 f   WConsole.obj
 0001:00032830       ?SearchAppPaths@@YA_NPEB_WAEAUCEStr@@_NPEAU1@@Z 0000000180033830 f   WFiles.obj
 0001:00032ed0       ?GetFullPathNameEx@@YAPEA_WPEB_W@Z 0000000180033ed0 f   WFiles.obj
 0001:00032fe0       ?FindFileName@@YA_NPEB_WAEAUCEStr@@@Z 0000000180033fe0 f   WFiles.obj
 0001:00033230       ?MakePathProperCase@@YA_NAEAUCEStr@@@Z 0000000180034230 f   WFiles.obj
 0001:00033560       ?ReadTextFile@@YAHPEB_WKAEAPEA_WAEAK2K@Z 0000000180034560 f   WFiles.obj
 0001:00033b90       ?WriteTextFile@@YAHPEB_W0HK_NPEAK@Z 0000000180034b90 f   WFiles.obj
 0001:00033f50       ?FilesExists@@YA_NPEB_W0_NH@Z 0000000180034f50 f   WFiles.obj
 0001:000340f0       ?IsDotsName@@YA_NPEB_W@Z   00000001800350f0 f   WFiles.obj
 0001:00034150       ?FileExistSubDir@@YA_NPEB_W0HAEAUCEStr@@@Z 0000000180035150 f   WFiles.obj
 0001:00034390       ?DirectoryExists@@YA_NPEB_W@Z 0000000180035390 f   WFiles.obj
 0001:00034530       ?MyCreateDirectory@@YA_NPEA_W@Z 0000000180035530 f   WFiles.obj
 0001:00034680       ?FileCompare@@YA_NPEB_W0@Z 0000000180035680 f   WFiles.obj
 0001:00034970       ?apiCancelSynchronousIo@@YAHPEAX@Z 0000000180035970 f   WFiles.obj
 0001:00034a30       ?HasZoneIdentifier@@YA_NPEB_WAEAH@Z 0000000180035a30 f   WFiles.obj
 0001:00034b60       ?DropZoneIdentifier@@YA_NPEB_WAEAK@Z 0000000180035b60 f   WFiles.obj
 0001:00034c70       ?IsModuleValid@@YA_NPEAUHINSTANCE__@@H@Z 0000000180035c70 f   WModuleCheck.obj
 0001:00034e10       ?CheckCallbackPtr@@YA_NPEAUHINSTANCE__@@_KPEAP6A_JXZHHH@Z 0000000180035e10 f   WModuleCheck.obj
 0001:00035000       ?getWindowInfo@@YAXPEAUHWND__@@AEAY0EAA@_W_NPEAK@Z 0000000180036000 f   WObjects.obj
 0001:00035210       ?FileExists@@YA_NPEB_WPEAK@Z 0000000180036210 f   WObjects.obj
 0001:00035430       ?apiSearchPath@@YAHPEB_W00AEAUCEStr@@@Z 0000000180036430 f   WObjects.obj
 0001:000355f0       ?apiGetFullPathName@@YAHPEB_WAEAUCEStr@@@Z 00000001800365f0 f   WObjects.obj
 0001:00035770       ?FileSearchInDir@@YA_NPEB_WAEAUCEStr@@@Z 0000000180036770 f   WObjects.obj
 0001:00035990       ?FileExistsSearch@@YA_NPEB_WAEAUCEStr@@_N2@Z 0000000180036990 f   WObjects.obj
 0001:00035ad0       ?GetShortFileName@@YA_NPEB_WHPEA_WH@Z 0000000180036ad0 f   WObjects.obj
 0001:00035d50       ?GetShortFileNameEx@@YAPEA_WPEB_WH@Z 0000000180036d50 f   WObjects.obj
 0001:00036290       ?GetModulePathName@@YAKPEAUHINSTANCE__@@AEAUCEStr@@@Z 0000000180037290 f   WObjects.obj
 0001:00036360       ?IsWine@@YA_NXZ            0000000180037360 f   WObjects.obj
 0001:000364f0       ?IsWinPE@@YA_NXZ           00000001800374f0 f   WObjects.obj
 0001:000365a0       ?GetOsVersionInformational@@YA_NPEAU_OSVERSIONINFOW@@@Z 00000001800375a0 f   WObjects.obj
 0001:000365e0       ?IsWinVerOrHigher@@YA_NG@Z 00000001800375e0 f   WObjects.obj
 0001:000366b0       ?IsWinVerEqual@@YA_NG@Z    00000001800376b0 f   WObjects.obj
 0001:00036780       ?IsWin2kEql@@YA_NXZ        0000000180037780 f   WObjects.obj
 0001:000367e0       ?IsWin5family@@YA_NXZ      00000001800377e0 f   WObjects.obj
 0001:000368a0       ?IsWinXPSP1@@YA_NXZ        00000001800378a0 f   WObjects.obj
 0001:00036990       ?IsWin6@@YA_NXZ            0000000180037990 f   WObjects.obj
 0001:000369f0       ?IsWin7@@YA_NXZ            00000001800379f0 f   WObjects.obj
 0001:00036a50       ?IsWin8@@YA_NXZ            0000000180037a50 f   WObjects.obj
 0001:00036ab0       ?IsWin8_1@@YA_NXZ          0000000180037ab0 f   WObjects.obj
 0001:00036b10       ?IsWin10@@YA_NXZ           0000000180037b10 f   WObjects.obj
 0001:00036bf0       ?IsDbcs@@YA_NXZ            0000000180037bf0 f   WObjects.obj
 0001:00036c30       ?IsWindows64@@YA_NXZ       0000000180037c30 f   WObjects.obj
 0001:00036c60       ?IsHwFullScreenAvailable@@YA_NXZ 0000000180037c60 f   WObjects.obj
 0001:00036cf0       ?IsVsNetHostExe@@YA_NPEB_W@Z 0000000180037cf0 f   WObjects.obj
 0001:00036d90       ?IsGDB@@YA_NPEB_W@Z        0000000180037d90 f   WObjects.obj
 0001:00036e00       ?GetProcessBits@@YAHKPEAX@Z 0000000180037e00 f   WObjects.obj
 0001:00036f50       ?GetProcessInfo@@YA_NKPEAUtagPROCESSENTRY32W@@@Z 0000000180037f50 f   WObjects.obj
 0001:00037040       ?isTerminalMode@@YA_NXZ    0000000180038040 f   WObjects.obj
 0001:00037390       ?ExpandMacroValues@@YAPEA_WPEB_WPEAPEB_W_K@Z 0000000180038390 f   WObjects.obj
 0001:000375e0       ?ExpandEnvStr@@YAPEA_WPEB_W@Z 00000001800385e0 f   WObjects.obj
 0001:000376f0       ?GetEnvVar@@YAPEA_WPEB_W@Z 00000001800386f0 f   WObjects.obj
 0001:000377e0       ?GetComspecFromEnvVar@@YAPEB_WPEA_WKW4ComSpecBits@@@Z 00000001800387e0 f   WObjects.obj
 0001:00037b40       ?GetComspec@@YAPEA_WPEBUConEmuComspec@@@Z 0000000180038b40 f   WObjects.obj
 0001:00037e00       ?IsExportEnvVarAllowed@@YA_NPEB_W@Z 0000000180038e00 f   WObjects.obj
 0001:00037e80       ?ApplyExportEnvVar@@YAXPEB_W@Z 0000000180038e80 f   WObjects.obj
 0001:00037f40       ?CoordInSmallRect@@YA_NAEBU_COORD@@AEBU_SMALL_RECT@@@Z 0000000180038f40 f   WObjects.obj
 0001:00037fc0       ?GetCpFromString@@YAIPEB_WPEAPEB_W@Z 0000000180038fc0 f   WObjects.obj
 0001:00038220       ??$wcscpy_c@$0EAA@@@YAHAEAY0EAA@_WPEB_W@Z 0000000180039220 f i WObjects.obj
 0001:00038250       ??$wcscpy_c@$0BAA@@@YAHAEAY0BAA@_WPEB_W@Z 0000000180039250 f i WObjects.obj
 0001:00038280       ?apiThreadHelper@@YAKPEAX@Z 0000000180039280 f   WThreads.obj
 0001:00038470       ?apiCreateThread@@YAPEAXP6AKPEAX@Z0PEAKPEBDH@Z 0000000180039470 f   WThreads.obj
 0001:00038670       ??0ConEmuThreadStartArg@@QEAA@P6AKPEAX@Z0K@Z 0000000180039670 f i WThreads.obj
 0001:000386d0       ?apiTerminateThreadEx@@YAHPEAXKPEBDH@Z 00000001800396d0 f   WThreads.obj
 0001:00038860       ?SetThreadName@@YAXKPEAD@Z 0000000180039860 f   WThreads.obj
 0001:000388c0       ?apiSetForegroundWindow@@YA_NPEAUHWND__@@@Z 00000001800398c0 f   WUser.obj
 0001:00038900       ?apiShowWindow@@YA_NPEAUHWND__@@H@Z 0000000180039900 f   WUser.obj
 0001:00038940       ?apiShowWindowAsync@@YA_NPEAUHWND__@@H@Z 0000000180039940 f   WUser.obj
 0001:00038980       ?IsUserAdmin@@YA_NXZ       0000000180039980 f   WUser.obj
 0001:00038ae0       ?GetLogonSID@@YA_NPEAXPEAPEA_W@Z 0000000180039ae0 f   WUser.obj
 0001:00038c40       ?DuplicateProcessHandle@@YAPEAXK@Z 0000000180039c40 f   WUser.obj
 0001:00038cd0       ?FindComspec@@YAXPEAUConEmuComspec@@_N@Z 0000000180039cd0 f   WUser.obj
 0001:000398c0       ?UpdateComspec@@YAXPEAUConEmuComspec@@_N@Z 000000018003a8c0 f   WUser.obj
 0001:00039d00       ?SetEnvVarExpanded@@YAXPEB_W0@Z 000000018003ad00 f   WUser.obj
 0001:00039f4c       lstrlenW                   000000018003af4c f   kernel32:KERNEL32.dll
 0001:00039f52       SetEnvironmentVariableW    000000018003af52 f   kernel32:KERNEL32.dll
 0001:00039f58       lstrcpynW                  000000018003af58 f   kernel32:KERNEL32.dll
 0001:00039f5e       lstrcmpiW                  000000018003af5e f   kernel32:KERNEL32.dll
 0001:00039f64       lstrcmpW                   000000018003af64 f   kernel32:KERNEL32.dll
 0001:00039f6a       GetCurrentDirectoryW       000000018003af6a f   kernel32:KERNEL32.dll
 0001:00039f70       GetProcAddress             000000018003af70 f   kernel32:KERNEL32.dll
 0001:00039f76       GetModuleHandleW           000000018003af76 f   kernel32:KERNEL32.dll
 0001:00039f7c       GetModuleFileNameW         000000018003af7c f   kernel32:KERNEL32.dll
 0001:00039f82       SetNamedPipeHandleState    000000018003af82 f   kernel32:KERNEL32.dll
 0001:00039f88       GetCurrentProcessId        000000018003af88 f   kernel32:KERNEL32.dll
 0001:00039f8e       Sleep                      000000018003af8e f   kernel32:KERNEL32.dll
 0001:00039f94       SetLastError               000000018003af94 f   kernel32:KERNEL32.dll
 0001:00039f9a       WaitNamedPipeW             000000018003af9a f   kernel32:KERNEL32.dll
 0001:00039fa0       WaitForSingleObject        000000018003afa0 f   kernel32:KERNEL32.dll
 0001:00039fa6       GetLastError               000000018003afa6 f   kernel32:KERNEL32.dll
 0001:00039fac       CreateFileW                000000018003afac f   kernel32:KERNEL32.dll
 0001:00039fb2       GetTickCount               000000018003afb2 f   kernel32:KERNEL32.dll
 0001:00039fb8       IsDebuggerPresent          000000018003afb8 f   kernel32:KERNEL32.dll
 0001:00039fbe       GetCurrentThreadId         000000018003afbe f   kernel32:KERNEL32.dll
 0001:00039fc4       ReadFile                   000000018003afc4 f   kernel32:KERNEL32.dll
 0001:00039fca       CloseHandle                000000018003afca f   kernel32:KERNEL32.dll
 0001:00039fd0       TransactNamedPipe          000000018003afd0 f   kernel32:KERNEL32.dll
 0001:00039fd6       WriteFile                  000000018003afd6 f   kernel32:KERNEL32.dll
 0001:00039fdc       GetConsoleWindow           000000018003afdc f   kernel32:KERNEL32.dll
 0001:00039fe2       UnmapViewOfFile            000000018003afe2 f   kernel32:KERNEL32.dll
 0001:00039fe8       MapViewOfFile              000000018003afe8 f   kernel32:KERNEL32.dll
 0001:00039fee       OpenFileMappingW           000000018003afee f   kernel32:KERNEL32.dll
 0001:00039ff4       LoadLibraryW               000000018003aff4 f   kernel32:KERNEL32.dll
 0001:00039ffa       CreateFileMappingW         000000018003affa f   kernel32:KERNEL32.dll
 0001:0003a000       VirtualProtect             000000018003b000 f   kernel32:KERNEL32.dll
 0001:0003a006       lstrcpyW                   000000018003b006 f   kernel32:KERNEL32.dll
 0001:0003a00c       MultiByteToWideChar        000000018003b00c f   kernel32:KERNEL32.dll
 0001:0003a012       lstrcpynA                  000000018003b012 f   kernel32:KERNEL32.dll
 0001:0003a018       lstrlenA                   000000018003b018 f   kernel32:KERNEL32.dll
 0001:0003a01e       WideCharToMultiByte        000000018003b01e f   kernel32:KERNEL32.dll
 0001:0003a024       lstrcpyA                   000000018003b024 f   kernel32:KERNEL32.dll
 0001:0003a02a       Module32NextW              000000018003b02a f   kernel32:KERNEL32.dll
 0001:0003a030       Module32FirstW             000000018003b030 f   kernel32:KERNEL32.dll
 0001:0003a036       CreateToolhelp32Snapshot   000000018003b036 f   kernel32:KERNEL32.dll
 0001:0003a03c       GetConsoleCursorInfo       000000018003b03c f   kernel32:KERNEL32.dll
 0001:0003a042       GetConsoleScreenBufferInfo 000000018003b042 f   kernel32:KERNEL32.dll
 0001:0003a048       GetStdHandle               000000018003b048 f   kernel32:KERNEL32.dll
 0001:0003a04e       GetConsoleTitleW           000000018003b04e f   kernel32:KERNEL32.dll
 0001:0003a054       DeleteFileW                000000018003b054 f   kernel32:KERNEL32.dll
 0001:0003a05a       Thread32Next               000000018003b05a f   kernel32:KERNEL32.dll
 0001:0003a060       Thread32First              000000018003b060 f   kernel32:KERNEL32.dll
 0001:0003a066       GetConsoleMode             000000018003b066 f   kernel32:KERNEL32.dll
 0001:0003a06c       GetExitCodeProcess         000000018003b06c f   kernel32:KERNEL32.dll
 0001:0003a072       CreateProcessW             000000018003b072 f   kernel32:KERNEL32.dll
 0001:0003a078       SetConsoleMode             000000018003b078 f   kernel32:KERNEL32.dll
 0001:0003a07e       GetEnvironmentStringsW     000000018003b07e f   kernel32:KERNEL32.dll
 0001:0003a084       lstrcatW                   000000018003b084 f   kernel32:KERNEL32.dll
 0001:0003a08a       GetEnvironmentVariableW    000000018003b08a f   kernel32:KERNEL32.dll
 0001:0003a090       WaitForMultipleObjects     000000018003b090 f   kernel32:KERNEL32.dll
 0001:0003a096       CreateEventW               000000018003b096 f   kernel32:KERNEL32.dll
 0001:0003a09c       SetConsoleTitleW           000000018003b09c f   kernel32:KERNEL32.dll
 0001:0003a0a2       CreateSemaphoreW           000000018003b0a2 f   kernel32:KERNEL32.dll
 0001:0003a0a8       ResetEvent                 000000018003b0a8 f   kernel32:KERNEL32.dll
 0001:0003a0ae       TerminateProcess           000000018003b0ae f   kernel32:KERNEL32.dll
 0001:0003a0b4       GetCurrentProcess          000000018003b0b4 f   kernel32:KERNEL32.dll
 0001:0003a0ba       SetEvent                   000000018003b0ba f   kernel32:KERNEL32.dll
 0001:0003a0c0       IsBadStringPtrW            000000018003b0c0 f   kernel32:KERNEL32.dll
 0001:0003a0c6       ReleaseSemaphore           000000018003b0c6 f   kernel32:KERNEL32.dll
 0001:0003a0cc       WriteConsoleInputW         000000018003b0cc f   kernel32:KERNEL32.dll
 0001:0003a0d2       GetNumberOfConsoleInputEvents 000000018003b0d2 f   kernel32:KERNEL32.dll
 0001:0003a0d8       ReadConsoleInputW          000000018003b0d8 f   kernel32:KERNEL32.dll
 0001:0003a0de       PeekConsoleInputW          000000018003b0de f   kernel32:KERNEL32.dll
 0001:0003a0e4       SuspendThread              000000018003b0e4 f   kernel32:KERNEL32.dll
 0001:0003a0ea       ResumeThread               000000018003b0ea f   kernel32:KERNEL32.dll
 0001:0003a0f0       VerifyVersionInfoW         000000018003b0f0 f   kernel32:KERNEL32.dll
 0001:0003a0f6       VerSetConditionMask        000000018003b0f6 f   kernel32:KERNEL32.dll
 0001:0003a0fc       ReleaseMutex               000000018003b0fc f   kernel32:KERNEL32.dll
 0001:0003a102       CreateMutexW               000000018003b102 f   kernel32:KERNEL32.dll
 0001:0003a108       SetFilePointer             000000018003b108 f   kernel32:KERNEL32.dll
 0001:0003a10e       GetFileInformationByHandle 000000018003b10e f   kernel32:KERNEL32.dll
 0001:0003a114       ReadProcessMemory          000000018003b114 f   kernel32:KERNEL32.dll
 0001:0003a11a       FreeLibrary                000000018003b11a f   kernel32:KERNEL32.dll
 0001:0003a120       ExpandEnvironmentStringsW  000000018003b120 f   kernel32:KERNEL32.dll
 0001:0003a126       SearchPathW                000000018003b126 f   kernel32:KERNEL32.dll
 0001:0003a12c       DebugBreak                 000000018003b12c f   kernel32:KERNEL32.dll
 0001:0003a132       HeapCreate                 000000018003b132 f   kernel32:KERNEL32.dll
 0001:0003a138       HeapDestroy                000000018003b138 f   kernel32:KERNEL32.dll
 0001:0003a13e       HeapAlloc                  000000018003b13e f   kernel32:KERNEL32.dll
 0001:0003a144       HeapReAlloc                000000018003b144 f   kernel32:KERNEL32.dll
 0001:0003a14a       HeapFree                   000000018003b14a f   kernel32:KERNEL32.dll
 0001:0003a150       HeapValidate               000000018003b150 f   kernel32:KERNEL32.dll
 0001:0003a156       GetStartupInfoW            000000018003b156 f   kernel32:KERNEL32.dll
 0001:0003a15c       OpenThread                 000000018003b15c f   kernel32:KERNEL32.dll
 0001:0003a162       InitializeCriticalSection  000000018003b162 f   kernel32:KERNEL32.dll
 0001:0003a168       DeleteCriticalSection      000000018003b168 f   kernel32:KERNEL32.dll
 0001:0003a16e       EnterCriticalSection       000000018003b16e f   kernel32:KERNEL32.dll
 0001:0003a174       LeaveCriticalSection       000000018003b174 f   kernel32:KERNEL32.dll
 0001:0003a17a       TryEnterCriticalSection    000000018003b17a f   kernel32:KERNEL32.dll
 0001:0003a180       LocalFree                  000000018003b180 f   kernel32:KERNEL32.dll
 0001:0003a186       LocalAlloc                 000000018003b186 f   kernel32:KERNEL32.dll
 0001:0003a18c       lstrcmpiA                  000000018003b18c f   kernel32:KERNEL32.dll
 0001:0003a192       GetExitCodeThread          000000018003b192 f   kernel32:KERNEL32.dll
 0001:0003a198       DisconnectNamedPipe        000000018003b198 f   kernel32:KERNEL32.dll
 0001:0003a19e       SetThreadPriority          000000018003b19e f   kernel32:KERNEL32.dll
 0001:0003a1a4       FlushFileBuffers           000000018003b1a4 f   kernel32:KERNEL32.dll
 0001:0003a1aa       GetOverlappedResult        000000018003b1aa f   kernel32:KERNEL32.dll
 0001:0003a1b0       ConnectNamedPipe           000000018003b1b0 f   kernel32:KERNEL32.dll
 0001:0003a1b6       CreateNamedPipeW           000000018003b1b6 f   kernel32:KERNEL32.dll
 0001:0003a1bc       FreeEnvironmentStringsW    000000018003b1bc f   kernel32:KERNEL32.dll
 0001:0003a1c2       SetConsoleWindowInfo       000000018003b1c2 f   kernel32:KERNEL32.dll
 0001:0003a1c8       GetConsoleOutputCP         000000018003b1c8 f   kernel32:KERNEL32.dll
 0001:0003a1ce       GetLargestConsoleWindowSize 000000018003b1ce f   kernel32:KERNEL32.dll
 0001:0003a1d4       FindClose                  000000018003b1d4 f   kernel32:KERNEL32.dll
 0001:0003a1da       FindFirstFileW             000000018003b1da f   kernel32:KERNEL32.dll
 0001:0003a1e0       GetFileSize                000000018003b1e0 f   kernel32:KERNEL32.dll
 0001:0003a1e6       FindNextFileW              000000018003b1e6 f   kernel32:KERNEL32.dll
 0001:0003a1ec       CreateDirectoryW           000000018003b1ec f   kernel32:KERNEL32.dll
 0001:0003a1f2       GetFileSizeEx              000000018003b1f2 f   kernel32:KERNEL32.dll
 0001:0003a1f8       GetPrivateProfileIntW      000000018003b1f8 f   kernel32:KERNEL32.dll
 0001:0003a1fe       WritePrivateProfileStringW 000000018003b1fe f   kernel32:KERNEL32.dll
 0001:0003a204       IsBadReadPtr               000000018003b204 f   kernel32:KERNEL32.dll
 0001:0003a20a       VirtualFree                000000018003b20a f   kernel32:KERNEL32.dll
 0001:0003a210       VirtualAlloc               000000018003b210 f   kernel32:KERNEL32.dll
 0001:0003a216       GetSystemInfo              000000018003b216 f   kernel32:KERNEL32.dll
 0001:0003a21c       GetFullPathNameW           000000018003b21c f   kernel32:KERNEL32.dll
 0001:0003a222       GetVersionExW              000000018003b222 f   kernel32:KERNEL32.dll
 0001:0003a228       OpenProcess                000000018003b228 f   kernel32:KERNEL32.dll
 0001:0003a22e       Process32NextW             000000018003b22e f   kernel32:KERNEL32.dll
 0001:0003a234       Process32FirstW            000000018003b234 f   kernel32:KERNEL32.dll
 0001:0003a23a       GetWindowsDirectoryW       000000018003b23a f   kernel32:KERNEL32.dll
 0001:0003a240       CreateThread               000000018003b240 f   kernel32:KERNEL32.dll
 0001:0003a246       TerminateThread            000000018003b246 f   kernel32:KERNEL32.dll
 0001:0003a24c       RaiseException             000000018003b24c f   kernel32:KERNEL32.dll
 0001:0003a252       DuplicateHandle            000000018003b252 f   kernel32:KERNEL32.dll
 0001:0003a258       CharUpperBuffW             000000018003b258 f   user32:USER32.dll
 0001:0003a25e       MapVirtualKeyW             000000018003b25e f   user32:USER32.dll
 0001:0003a264       VkKeyScanW                 000000018003b264 f   user32:USER32.dll
 0001:0003a26a       IsWindow                   000000018003b26a f   user32:USER32.dll
 0001:0003a270       GetWindowLongPtrW          000000018003b270 f   user32:USER32.dll
 0001:0003a276       GetClassNameW              000000018003b276 f   user32:USER32.dll
 0001:0003a27c       GetWindowThreadProcessId   000000018003b27c f   user32:USER32.dll
 0001:0003a282       FindWindowW                000000018003b282 f   user32:USER32.dll
 0001:0003a288       MessageBoxW                000000018003b288 f   user32:USER32.dll
 0001:0003a28e       wsprintfW                  000000018003b28e f   user32:USER32.dll
 0001:0003a294       GetParent                  000000018003b294 f   user32:USER32.dll
 0001:0003a29a       RegisterWindowMessageW     000000018003b29a f   user32:USER32.dll
 0001:0003a2a0       IsWindowVisible            000000018003b2a0 f   user32:USER32.dll
 0001:0003a2a6       PostMessageW               000000018003b2a6 f   user32:USER32.dll
 0001:0003a2ac       GetSystemMetrics           000000018003b2ac f   user32:USER32.dll
 0001:0003a2b2       GetMonitorInfoW            000000018003b2b2 f   user32:USER32.dll
 0001:0003a2b8       MonitorFromWindow          000000018003b2b8 f   user32:USER32.dll
 0001:0003a2be       SetWindowPos               000000018003b2be f   user32:USER32.dll
 0001:0003a2c4       GetWindowRect              000000018003b2c4 f   user32:USER32.dll
 0001:0003a2ca       EnableWindow               000000018003b2ca f   user32:USER32.dll
 0001:0003a2d0       IsWindowEnabled            000000018003b2d0 f   user32:USER32.dll
 0001:0003a2d6       MonitorFromPoint           000000018003b2d6 f   user32:USER32.dll
 0001:0003a2dc       GetCursorPos               000000018003b2dc f   user32:USER32.dll
 0001:0003a2e2       EnumDisplayMonitors        000000018003b2e2 f   user32:USER32.dll
 0001:0003a2e8       IsRectEmpty                000000018003b2e8 f   user32:USER32.dll
 0001:0003a2ee       SystemParametersInfoW      000000018003b2ee f   user32:USER32.dll
 0001:0003a2f4       MonitorFromRect            000000018003b2f4 f   user32:USER32.dll
 0001:0003a2fa       IntersectRect              000000018003b2fa f   user32:USER32.dll
 0001:0003a300       FindWindowExW              000000018003b300 f   user32:USER32.dll
 0001:0003a306       FillRect                   000000018003b306 f   user32:USER32.dll
 0001:0003a30c       ReleaseDC                  000000018003b30c f   user32:USER32.dll
 0001:0003a312       GetDC                      000000018003b312 f   user32:USER32.dll
 0001:0003a318       ActivateKeyboardLayout     000000018003b318 f   user32:USER32.dll
 0001:0003a31e       LoadKeyboardLayoutW        000000018003b31e f   user32:USER32.dll
 0001:0003a324       SendMessageW               000000018003b324 f   user32:USER32.dll
 0001:0003a32a       SendMessageTimeoutW        000000018003b32a f   user32:USER32.dll
 0001:0003a330       GetWindowTextW             000000018003b330 f   user32:USER32.dll
 0001:0003a336       wsprintfA                  000000018003b336 f   user32:USER32.dll
 0001:0003a33c       SetForegroundWindow        000000018003b33c f   user32:USER32.dll
 0001:0003a342       ShowWindow                 000000018003b342 f   user32:USER32.dll
 0001:0003a348       ShowWindowAsync            000000018003b348 f   user32:USER32.dll
 0001:0003a34e       DeleteObject               000000018003b34e f   gdi32:GDI32.dll
 0001:0003a354       DeleteDC                   000000018003b354 f   gdi32:GDI32.dll
 0001:0003a35a       GetTextMetricsW            000000018003b35a f   gdi32:GDI32.dll
 0001:0003a360       SelectObject               000000018003b360 f   gdi32:GDI32.dll
 0001:0003a366       CreateCompatibleDC         000000018003b366 f   gdi32:GDI32.dll
 0001:0003a36c       CreateFontIndirectW        000000018003b36c f   gdi32:GDI32.dll
 0001:0003a372       DeleteEnhMetaFile          000000018003b372 f   gdi32:GDI32.dll
 0001:0003a378       GetEnhMetaFileBits         000000018003b378 f   gdi32:GDI32.dll
 0001:0003a37e       CloseEnhMetaFile           000000018003b37e f   gdi32:GDI32.dll
 0001:0003a384       GdiFlush                   000000018003b384 f   gdi32:GDI32.dll
 0001:0003a38a       CreateSolidBrush           000000018003b38a f   gdi32:GDI32.dll
 0001:0003a390       CreateDIBSection           000000018003b390 f   gdi32:GDI32.dll
 0001:0003a396       CreateEnhMetaFileW         000000018003b396 f   gdi32:GDI32.dll
 0001:0003a39c       GetDeviceCaps              000000018003b39c f   gdi32:GDI32.dll
 0001:0003a3a2       RegCloseKey                000000018003b3a2 f   advapi32:ADVAPI32.dll
 0001:0003a3a8       RegQueryValueExW           000000018003b3a8 f   advapi32:ADVAPI32.dll
 0001:0003a3ae       RegOpenKeyExW              000000018003b3ae f   advapi32:ADVAPI32.dll
 0001:0003a3b4       RegCreateKeyExW            000000018003b3b4 f   advapi32:ADVAPI32.dll
 0001:0003a3ba       FreeSid                    000000018003b3ba f   advapi32:ADVAPI32.dll
 0001:0003a3c0       CheckTokenMembership       000000018003b3c0 f   advapi32:ADVAPI32.dll
 0001:0003a3c6       AllocateAndInitializeSid   000000018003b3c6 f   advapi32:ADVAPI32.dll
 0001:0003a3cc       ConvertSidToStringSidW     000000018003b3cc f   advapi32:ADVAPI32.dll
 0001:0003a3d2       GetTokenInformation        000000018003b3d2 f   advapi32:ADVAPI32.dll
 0001:0003a3d8       OpenProcessToken           000000018003b3d8 f   advapi32:ADVAPI32.dll
 0001:0003a3de       RegEnumKeyExW              000000018003b3de f   advapi32:ADVAPI32.dll
 0001:0003a3e4       SHAppBarMessage            000000018003b3e4 f   shell32:SHELL32.dll
 0001:0003a3ea       VerQueryValueW             000000018003b3ea f   version:VERSION.dll
 0001:0003a3f0       GetFileVersionInfoW        000000018003b3f0 f   version:VERSION.dll
 0001:0003a3f6       GetFileVersionInfoSizeW    000000018003b3f6 f   version:VERSION.dll
 0001:0003a3fc       wcsrchr                    000000018003b3fc f   LIBCMT:wcsrchr.obj
 0001:0003a428       wcschr                     000000018003b428 f   LIBCMT:wcschr.obj
 0001:0003a448       wcspbrk                    000000018003b448 f   LIBCMT:wcspbrk.obj
 0001:0003a480       wcsncmp                    000000018003b480 f   LIBCMT:wcsncmp.obj
 0001:0003a4b0       strrchr                    000000018003b4b0 f   LIBCMT:strrchr.obj
 0001:0003a4d8       wcsstr                     000000018003b4d8 f   LIBCMT:wcsstr.obj
 0001:0003a550       memset                     000000018003b550 f   LIBCMT:memset.obj
 0001:0003a650       memmove                    000000018003b650     LIBCMT:memcpy.obj
 0001:0003a650       memcpy                     000000018003b650 f   LIBCMT:memcpy.obj
 0001:0003a990       _purecall                  000000018003b990 f   LIBCMT:purevirt.obj
 0001:0003a9c8       _set_purecall_handler      000000018003b9c8 f   LIBCMT:purevirt.obj
 0001:0003aa04       _get_purecall_handler      000000018003ba04 f   LIBCMT:purevirt.obj
 0001:0003aa20       memcmp                     000000018003ba20 f   LIBCMT:memcmp.obj
 0001:0003aae8       ??0_LocaleUpdate@@QEAA@PEAUlocaleinfo_struct@@@Z 000000018003bae8 f i LIBCMT:wcstol.obj
 0001:0003ab94       ??1_LocaleUpdate@@QEAA@XZ  000000018003bb94 f i LIBCMT:wcstol.obj
 0001:0003aba8       ?GetLocaleT@_LocaleUpdate@@QEAAPEAUlocaleinfo_struct@@XZ 000000018003bba8 f i LIBCMT:wcstol.obj
 0001:0003adf4       wcstol                     000000018003bdf4 f   LIBCMT:wcstol.obj
 0001:0003ae24       _wcstol_l                  000000018003be24 f   LIBCMT:wcstol.obj
 0001:0003ae48       wcstoul                    000000018003be48 f   LIBCMT:wcstol.obj
 0001:0003ae7c       _wcstoul_l                 000000018003be7c f   LIBCMT:wcstol.obj
 0001:0003aec0       strlen                     000000018003bec0 f   LIBCMT:strlen.obj
 0001:0003af68       strchr                     000000018003bf68 f   LIBCMT:strchr.obj
 0001:0003af84       __C_specific_handler       000000018003bf84 f   LIBCMT:chandler.obj
 0001:0003b128       _CRT_INIT                  000000018003c128 f   LIBCMT:dllcrt0.obj
 0001:0003b37c       _DllMainCRTStartup         000000018003c37c f   LIBCMT:dllcrt0.obj
 0001:0003b3bc       abort                      000000018003c3bc f   LIBCMT:abort.obj
 0001:0003b460       _set_abort_behavior        000000018003c460 f   LIBCMT:abort.obj
 0001:0003b47c       _invoke_watson_if_error    000000018003c47c f i LIBCMT:crt0msg.obj
 0001:0003b4b4       _NMSG_WRITE                000000018003c4b4 f   LIBCMT:crt0msg.obj
 0001:0003b6dc       _GET_RTERRMSG              000000018003c6dc f   LIBCMT:crt0msg.obj
 0001:0003b708       _FF_MSGBANNER              000000018003c708 f   LIBCMT:crt0msg.obj
 0001:0003b74c       _encode_pointer            000000018003c74c f   LIBCMT:tidtable.obj
 0001:0003b754       _encoded_null              000000018003c754 f   LIBCMT:tidtable.obj
 0001:0003b760       _decode_pointer            000000018003c760 f   LIBCMT:tidtable.obj
 0001:0003b768       __crtTlsAlloc              000000018003c768 f   LIBCMT:tidtable.obj
 0001:0003b770       __fls_getvalue             000000018003c770 f   LIBCMT:tidtable.obj
 0001:0003b778       __get_flsindex             000000018003c778 f   LIBCMT:tidtable.obj
 0001:0003b780       __set_flsgetvalue          000000018003c780 f   LIBCMT:tidtable.obj
 0001:0003b784       __fls_setvalue             000000018003c784 f   LIBCMT:tidtable.obj
 0001:0003b78c       _mtterm                    000000018003c78c f   LIBCMT:tidtable.obj
 0001:0003b7b4       _initptd                   000000018003c7b4 f   LIBCMT:tidtable.obj
 0001:0003b868       _getptd_noexit             000000018003c868 f   LIBCMT:tidtable.obj
 0001:0003b8ec       _getptd                    000000018003c8ec f   LIBCMT:tidtable.obj
 0001:0003b910       _freefls                   000000018003c910 f   LIBCMT:tidtable.obj
 0001:0003ba48       _freeptd                   000000018003ca48 f   LIBCMT:tidtable.obj
 0001:0003ba88       __threadid                 000000018003ca88 f   LIBCMT:tidtable.obj
 0001:0003ba90       __threadhandle             000000018003ca90 f   LIBCMT:tidtable.obj
 0001:0003ba98       _mtinit                    000000018003ca98 f   LIBCMT:tidtable.obj
 0001:0003bb1c       __getlocaleinfo            000000018003cb1c f   LIBCMT:inithelp.obj
 0001:0003bce0       _initp_misc_purevirt       000000018003cce0 f   LIBCMT:inithelp.obj
 0001:0003bf94       __updatetmbcinfo           000000018003cf94 f   LIBCMT:mbctype.obj
 0001:0003c0e0       _setmbcp_nolock            000000018003d0e0 f   LIBCMT:mbctype.obj
 0001:0003c358       _getmbcp                   000000018003d358 f   LIBCMT:mbctype.obj
 0001:0003c3a8       _setmbcp                   000000018003d3a8 f   LIBCMT:mbctype.obj
 0001:0003c5a0       __initmbctable             000000018003d5a0 f   LIBCMT:mbctype.obj
 0001:0003c5c8       ___setlc_active_func       000000018003d5c8 f   LIBCMT:setlocal.obj
 0001:0003c5d0       ___unguarded_readlc_active_add_func 000000018003d5d0 f   LIBCMT:setlocal.obj
 0001:0003c5d8       __freetlocinfo             000000018003d5d8 f   LIBCMT:setlocal.obj
 0001:0003c754       __addlocaleref             000000018003d754 f   LIBCMT:setlocal.obj
 0001:0003c7ec       __removelocaleref          000000018003d7ec f   LIBCMT:setlocal.obj
 0001:0003c920       __updatetlocinfo           000000018003d920 f   LIBCMT:setlocal.obj
 0001:0003c998       _configthreadlocale        000000018003d998 f   LIBCMT:setlocal.obj
 0001:0003ca70       _free_locale               000000018003da70 f   LIBCMT:setlocal.obj
 0001:0003cb18       __free_locale              000000018003db18 f   LIBCMT:setlocal.obj
 0001:0003cb20       _get_current_locale        000000018003db20 f   LIBCMT:setlocal.obj
 0001:0003cbc0       __get_current_locale       000000018003dbc0 f   LIBCMT:setlocal.obj
 0001:0003cbc8       __init_dummy               000000018003dbc8 f   LIBCMT:setlocal.obj
 0001:0003cbcc       _strcats                   000000018003dbcc f   LIBCMT:setlocal.obj
 0001:0003cc30       __lc_strtolc               000000018003dc30 f   LIBCMT:setlocal.obj
 0001:0003cd98       __lc_lctostr               000000018003dd98 f   LIBCMT:setlocal.obj
 0001:0003d018       _expandlocale              000000018003e018 f   LIBCMT:setlocal.obj
 0001:0003d784       _create_locale             000000018003e784 f   LIBCMT:setlocal.obj
 0001:0003d8bc       __create_locale            000000018003e8bc f   LIBCMT:setlocal.obj
 0001:0003d8c4       setlocale                  000000018003e8c4 f   LIBCMT:setlocal.obj
 0001:0003dae4       _wchartodigit              000000018003eae4 f   LIBCMT:wchtodig.obj
 0001:0003dc7c       _iswctype_l                000000018003ec7c f   LIBCMT:iswctype.obj
 0001:0003dd38       iswctype                   000000018003ed38 f   LIBCMT:iswctype.obj
 0001:0003ddc8       is_wctype                  000000018003edc8 f   LIBCMT:iswctype.obj
 0001:0003ddd0       _initp_misc_invarg         000000018003edd0 f   LIBCMT:invarg.obj
 0001:0003ddd8       _invoke_watson             000000018003edd8 f   LIBCMT:invarg.obj
 0001:0003df00       _set_invalid_parameter_handler 000000018003ef00 f   LIBCMT:invarg.obj
 0001:0003df3c       _get_invalid_parameter_handler 000000018003ef3c f   LIBCMT:invarg.obj
 0001:0003df48       ?_invoke_watson@@YAXPEBG00I_K@Z 000000018003ef48 f   LIBCMT:invarg.obj
 0001:0003df60       _invalid_parameter         000000018003ef60 f   LIBCMT:invarg.obj
 0001:0003dfe8       _invalid_parameter_noinfo  000000018003efe8 f   LIBCMT:invarg.obj
 0001:0003e008       ?_invalid_parameter@@YAXPEBG00I_K@Z 000000018003f008 f   LIBCMT:invarg.obj
 0001:0003e020       _get_errno_from_oserr      000000018003f020 f   LIBCMT:dosmap.obj
 0001:0003e068       _errno                     000000018003f068 f   LIBCMT:dosmap.obj
 0001:0003e088       __doserrno                 000000018003f088 f   LIBCMT:dosmap.obj
 0001:0003e0a8       _dosmaperr                 000000018003f0a8 f   LIBCMT:dosmap.obj
 0001:0003e0f0       _set_errno                 000000018003f0f0 f   LIBCMT:dosmap.obj
 0001:0003e12c       _get_errno                 000000018003f12c f   LIBCMT:dosmap.obj
 0001:0003e174       _set_doserrno              000000018003f174 f   LIBCMT:dosmap.obj
 0001:0003e1b0       _get_doserrno              000000018003f1b0 f   LIBCMT:dosmap.obj
 0001:0003e210       _local_unwind              000000018003f210 f   LIBCMT:jmpuwind.obj
 0001:0003e240       _NLG_Notify                000000018003f240 f   LIBCMT:jmpuwind.obj
 0001:0003e260       __NLG_Dispatch2            000000018003f260 f   LIBCMT:jmpuwind.obj
 0001:0003e270       __NLG_Return2              000000018003f270 f   LIBCMT:jmpuwind.obj
 0001:0003e280       _ValidateImageBase         000000018003f280 f   LIBCMT:pesect.obj
 0001:0003e2b0       _FindPESection             000000018003f2b0 f   LIBCMT:pesect.obj
 0001:0003e300       _IsNonwritableInCurrentImage 000000018003f300 f   LIBCMT:pesect.obj
 0001:0003e344       free                       000000018003f344 f   LIBCMT:free.obj
 0001:0003e384       wait_a_bit                 000000018003f384 f i LIBCMT:crtheap.obj
 0001:0003e3ac       _set_malloc_crt_max_wait   000000018003f3ac f   LIBCMT:crtheap.obj
 0001:0003e3bc       _malloc_crt                000000018003f3bc f   LIBCMT:crtheap.obj
 0001:0003e428       _calloc_crt                000000018003f428 f   LIBCMT:crtheap.obj
 0001:0003e4ac       _realloc_crt               000000018003f4ac f   LIBCMT:crtheap.obj
 0001:0003e534       _recalloc_crt              000000018003f534 f   LIBCMT:crtheap.obj
 0001:0003e5bc       _crt_waiting_on_module_handle 000000018003f5bc f   LIBCMT:crt0dat.obj
 0001:0003e600       _amsg_exit                 000000018003f600 f   LIBCMT:crt0dat.obj
 0001:0003e630       __crtCorExitProcess        000000018003f630 f   LIBCMT:crt0dat.obj
 0001:0003e66c       __crtExitProcess           000000018003f66c f   LIBCMT:crt0dat.obj
 0001:0003e684       _lockexit                  000000018003f684 f   LIBCMT:crt0dat.obj
 0001:0003e690       _unlockexit                000000018003f690 f   LIBCMT:crt0dat.obj
 0001:0003e6d0       _initterm_e                000000018003f6d0 f   LIBCMT:crt0dat.obj
 0001:0003e70c       _get_wpgmptr               000000018003f70c f   LIBCMT:crt0dat.obj
 0001:0003e754       _get_pgmptr                000000018003f754 f   LIBCMT:crt0dat.obj
 0001:0003e79c       _cinit                     000000018003f79c f   LIBCMT:crt0dat.obj
 0001:0003e9d8       exit                       000000018003f9d8 f   LIBCMT:crt0dat.obj
 0001:0003e9e4       _exit                      000000018003f9e4 f   LIBCMT:crt0dat.obj
 0001:0003e9f0       _cexit                     000000018003f9f0 f   LIBCMT:crt0dat.obj
 0001:0003ea00       _c_exit                    000000018003fa00 f   LIBCMT:crt0dat.obj
 0001:0003ea10       _init_pointers             000000018003fa10 f   LIBCMT:crt0dat.obj
 0001:0003ea78       _ioinit                    000000018003fa78 f   LIBCMT:ioinit.obj
 0001:0003ed68       _ioterm                    000000018003fd68 f   LIBCMT:ioinit.obj
 0001:0003edd4       _setenvp                   000000018003fdd4 f   LIBCMT:stdenvp.obj
 0001:0003ef04       _set_pgmptr                000000018003ff04 f i LIBCMT:stdargv.obj
 0001:0003f0dc       _setargv                   00000001800400dc f   LIBCMT:stdargv.obj
 0001:0003f1d4       __crtGetEnvironmentStringsA 00000001800401d4 f   LIBCMT:a_env.obj
 0001:0003f388       _RTC_Initialize            0000000180040388 f   LIBCMT:_initsect_.obj
 0001:0003f3c0       _RTC_Terminate             00000001800403c0 f   LIBCMT:_initsect_.obj
 0001:0003f3f8       _heap_init                 00000001800403f8 f   LIBCMT:heapinit.obj
 0001:0003f444       _heap_term                 0000000180040444 f   LIBCMT:heapinit.obj
 0001:0003f464       _get_heap_handle           0000000180040464 f   LIBCMT:heapinit.obj
 0001:0003f46c       _initp_misc_winxfltr       000000018004046c f   LIBCMT:winxfltr.obj
 0001:0003f4ac       _XcptFilter                00000001800404ac f   LIBCMT:winxfltr.obj
 0001:0003f67c       __CppXcptFilter            000000018004067c f   LIBCMT:winxfltr.obj
 0001:0003f69c       __security_init_cookie     000000018004069c f   LIBCMT:gs_support.obj
 0001:0003f750       _initp_misc_winsig         0000000180040750 f   LIBCMT:winsig.obj
 0001:0003f844       __get_sigabrt              0000000180040844 f   LIBCMT:winsig.obj
 0001:0003f850       __fpecode                  0000000180040850 f   LIBCMT:winsig.obj
 0001:0003f864       __pxcptinfoptrs            0000000180040864 f   LIBCMT:winsig.obj
 0001:0003f878       signal                     0000000180040878 f   LIBCMT:winsig.obj
 0001:0003fb44       raise                      0000000180040b44 f   LIBCMT:winsig.obj
 0001:0003fdb8       __crtMessageBoxA           0000000180040db8 f   LIBCMT:crtmbox.obj
 0001:0003ffac       strcat_s                   0000000180040fac f   LIBCMT:strcat_s.obj
 0001:00040038       strncpy_s                  0000000180041038 f   LIBCMT:strncpy_s.obj
 0001:00040110       strcpy_s                   0000000180041110 f   LIBCMT:strcpy_s.obj
 0001:00040184       _set_error_mode            0000000180041184 f   LIBCMT:errmode.obj
 0001:000401d4       __set_app_type             00000001800411d4 f   LIBCMT:errmode.obj
 0001:000401dc       __get_app_type             00000001800411dc f   LIBCMT:errmode.obj
 0001:000401e4       _mtinitlocks               00000001800411e4 f   LIBCMT:mlock.obj
 0001:00040270       _mtdeletelocks             0000000180041270 f   LIBCMT:mlock.obj
 0001:000402f4       _unlock                    00000001800412f4 f   LIBCMT:mlock.obj
 0001:0004030c       _lockerr_exit              000000018004130c f   LIBCMT:mlock.obj
 0001:0004032c       _mtinitlocknum             000000018004132c f   LIBCMT:mlock.obj
 0001:00040414       _lock                      0000000180041414 f   LIBCMT:mlock.obj
 0001:00040458       __GSHandlerCheckCommon     0000000180041458 f   LIBCMT:gshandler.obj
 0001:000404bc       __GSHandlerCheck           00000001800414bc f   LIBCMT:gshandler.obj
 0001:000404dc       _isalpha_l                 00000001800414dc f i LIBCMT:_ctype.obj
 0001:00040544       isalpha                    0000000180041544 f i LIBCMT:_ctype.obj
 0001:000405c8       _isupper_l                 00000001800415c8 f i LIBCMT:_ctype.obj
 0001:0004062c       isupper                    000000018004162c f i LIBCMT:_ctype.obj
 0001:000406ac       _islower_l                 00000001800416ac f i LIBCMT:_ctype.obj
 0001:00040710       islower                    0000000180041710 f i LIBCMT:_ctype.obj
 0001:00040790       _isdigit_l                 0000000180041790 f i LIBCMT:_ctype.obj
 0001:000407f4       isdigit                    00000001800417f4 f i LIBCMT:_ctype.obj
 0001:00040874       _isxdigit_l                0000000180041874 f i LIBCMT:_ctype.obj
 0001:000408dc       isxdigit                   00000001800418dc f i LIBCMT:_ctype.obj
 0001:00040960       _isspace_l                 0000000180041960 f i LIBCMT:_ctype.obj
 0001:000409c4       isspace                    00000001800419c4 f i LIBCMT:_ctype.obj
 0001:00040a44       _ispunct_l                 0000000180041a44 f i LIBCMT:_ctype.obj
 0001:00040aa8       ispunct                    0000000180041aa8 f i LIBCMT:_ctype.obj
 0001:00040b28       _isalnum_l                 0000000180041b28 f i LIBCMT:_ctype.obj
 0001:00040b90       isalnum                    0000000180041b90 f i LIBCMT:_ctype.obj
 0001:00040c14       _isprint_l                 0000000180041c14 f i LIBCMT:_ctype.obj
 0001:00040c7c       isprint                    0000000180041c7c f i LIBCMT:_ctype.obj
 0001:00040d00       _isgraph_l                 0000000180041d00 f i LIBCMT:_ctype.obj
 0001:00040d68       isgraph                    0000000180041d68 f i LIBCMT:_ctype.obj
 0001:00040dec       _iscntrl_l                 0000000180041dec f i LIBCMT:_ctype.obj
 0001:00040e50       iscntrl                    0000000180041e50 f i LIBCMT:_ctype.obj
 0001:00040ed0       __isascii                  0000000180041ed0 f i LIBCMT:_ctype.obj
 0001:00040edc       __toascii                  0000000180041edc f i LIBCMT:_ctype.obj
 0001:00040ee4       _iscsymf_l                 0000000180041ee4 f i LIBCMT:_ctype.obj
 0001:00040f5c       __iscsymf                  0000000180041f5c f i LIBCMT:_ctype.obj
 0001:00040f84       _iscsym_l                  0000000180041f84 f i LIBCMT:_ctype.obj
 0001:00040ffc       __iscsym                   0000000180041ffc f i LIBCMT:_ctype.obj
 0001:00041040       __crtGetLocaleInfoW        0000000180042040 f   LIBCMT:w_loc.obj
 0001:0004109c       _MarkAllocaS               000000018004209c f i LIBCMT:a_loc.obj
 0001:000410ac       _freea                     00000001800420ac f i LIBCMT:a_loc.obj
 0001:000412a8       __crtGetLocaleInfoA        00000001800422a8 f   LIBCMT:a_loc.obj
 0001:00041330       __security_check_cookie    0000000180042330 f   LIBCMT:amdsecgs.obj
 0001:000418ac       __crtLCMapStringA          00000001800428ac f   LIBCMT:a_map.obj
 0001:00041bb0       __crtGetStringTypeA        0000000180042bb0 f   LIBCMT:a_str.obj
 0001:00041c3c       __pwctype_func             0000000180042c3c f   LIBCMT:ctype.obj
 0001:00041c44       __pctype_func              0000000180042c44 f   LIBCMT:ctype.obj
 0001:000422b4       __free_lc_time             00000001800432b4 f   LIBCMT:inittime.obj
 0001:000424a0       __init_time                00000001800434a0 f   LIBCMT:inittime.obj
 0001:00042578       __free_lconv_num           0000000180043578 f   LIBCMT:initnum.obj
 0001:000425c0       __init_numeric             00000001800435c0 f   LIBCMT:initnum.obj
 0001:00042808       __free_lconv_mon           0000000180043808 f   LIBCMT:initmon.obj
 0001:000428a0       __init_monetary            00000001800438a0 f   LIBCMT:initmon.obj
 0001:00042c60       __init_ctype               0000000180043c60 f   LIBCMT:initctyp.obj
 0001:00043084       ___mb_cur_max_func         0000000180044084 f   LIBCMT:initctyp.obj
 0001:000430c0       ___mb_cur_max_l_func       00000001800440c0 f   LIBCMT:initctyp.obj
 0001:000430e0       ___lc_codepage_func        00000001800440e0 f   LIBCMT:initctyp.obj
 0001:00043118       ___lc_collate_cp_func      0000000180044118 f   LIBCMT:initctyp.obj
 0001:00043150       ___lc_handle_func          0000000180044150 f   LIBCMT:initctyp.obj
 0001:00043188       __init_collate             0000000180044188 f   LIBCMT:initcoll.obj
 0001:0004318c       _Getdays_l                 000000018004418c f   LIBCMT:strftime.obj
 0001:000432c8       _Getdays                   00000001800442c8 f   LIBCMT:strftime.obj
 0001:000432d0       _Getmonths_l               00000001800442d0 f   LIBCMT:strftime.obj
 0001:00043414       _Getmonths                 0000000180044414 f   LIBCMT:strftime.obj
 0001:0004341c       _Gettnames_l               000000018004441c f   LIBCMT:strftime.obj
 0001:00043814       _Gettnames                 0000000180044814 f   LIBCMT:strftime.obj
 0001:00044560       _Strftime_l                0000000180045560 f   LIBCMT:strftime.obj
 0001:00044770       _strftime_l                0000000180045770 f   LIBCMT:strftime.obj
 0001:00044790       strftime                   0000000180045790 f   LIBCMT:strftime.obj
 0001:000447ac       _Strftime                  00000001800457ac f   LIBCMT:strftime.obj
 0001:000447cc       localeconv                 00000001800457cc f   LIBCMT:lconv.obj
 0001:00044804       strcspn                    0000000180045804 f   LIBCMT:strcspn.obj
 0001:000448b0       strcmp                     00000001800458b0 f   LIBCMT:strcmp.obj
 0001:000451e4       __get_qualified_locale     00000001800461e4 f   LIBCMT:getqloc.obj
 0001:00045460       strncmp                    0000000180046460 f   LIBCMT:strncmp.obj
 0001:00045518       strpbrk                    0000000180046518 f   LIBCMT:strpbrk.obj
 0001:000455e4       __crtGetStringTypeW        00000001800465e4 f   LIBCMT:w_str.obj
 0001:00045648       __crt_debugger_hook        0000000180046648 f   LIBCMT:dbghook.obj
 0001:00045650       _heap_alloc                0000000180046650 f i LIBCMT:malloc.obj
 0001:000456a0       malloc                     00000001800466a0 f   LIBCMT:malloc.obj
 0001:00045758       _calloc_impl               0000000180046758 f   LIBCMT:calloc_impl.obj
 0001:00045808       realloc                    0000000180046808 f   LIBCMT:realloc.obj
 0001:000458dc       _recalloc                  00000001800468dc f   LIBCMT:recalloc.obj
 0001:00045a64       __onexitinit               0000000180046a64 f   LIBCMT:onexit.obj
 0001:00045aa8       _onexit                    0000000180046aa8 f   LIBCMT:onexit.obj
 0001:00045bb0       atexit                     0000000180046bb0 f   LIBCMT:onexit.obj
 0001:00045bc8       _initp_misc_cfltcvt_tab    0000000180046bc8 f   LIBCMT:cmiscdat.obj
 0001:00045c00       ?terminate@@YAXXZ          0000000180046c00 f   LIBCMT:hooks.obj
 0001:00045c24       ?unexpected@@YAXXZ         0000000180046c24 f   LIBCMT:hooks.obj
 0001:00045c44       ?_inconsistency@@YAXXZ     0000000180046c44 f   LIBCMT:hooks.obj
 0001:00045c68       _initp_eh_hooks            0000000180046c68 f   LIBCMT:hooks.obj
 0001:00045c84       _initp_misc_rand_s         0000000180046c84 f   LIBCMT:rand_s.obj
 0001:00045c8c       rand_s                     0000000180046c8c f   LIBCMT:rand_s.obj
 0001:00045db4       _initp_misc_initcrit       0000000180046db4 f   LIBCMT:initcrit.obj
 0001:00045dbc       __crtInitCritSecAndSpinCount 0000000180046dbc f   LIBCMT:initcrit.obj
 0001:00045df4       _initp_heap_handler        0000000180046df4 f   LIBCMT:handler.obj
 0001:00045dfc       ?_set_new_handler@@YAP6AH_K@ZP6AH0@Z@Z 0000000180046dfc f   LIBCMT:handler.obj
 0001:00045e4c       ?_set_new_handler@@YAP6AH_K@ZH@Z 0000000180046e4c f   LIBCMT:handler.obj
 0001:00045e54       ?_query_new_handler@@YAP6AH_K@ZXZ 0000000180046e54 f   LIBCMT:handler.obj
 0001:00045e60       _callnewh                  0000000180046e60 f   LIBCMT:handler.obj
 0001:00045f10       _ismbbkalnum_l             0000000180046f10 f   LIBCMT:ismbbyte.obj
 0001:00045f28       _ismbbkalnum               0000000180046f28 f   LIBCMT:ismbbyte.obj
 0001:00045f3c       _ismbbkprint_l             0000000180046f3c f   LIBCMT:ismbbyte.obj
 0001:00045f54       _ismbbkprint               0000000180046f54 f   LIBCMT:ismbbyte.obj
 0001:00045f68       _ismbbkpunct_l             0000000180046f68 f   LIBCMT:ismbbyte.obj
 0001:00045f80       _ismbbkpunct               0000000180046f80 f   LIBCMT:ismbbyte.obj
 0001:00045f94       _ismbbalnum_l              0000000180046f94 f   LIBCMT:ismbbyte.obj
 0001:00045fb0       _ismbbalnum                0000000180046fb0 f   LIBCMT:ismbbyte.obj
 0001:00045fc8       _ismbbalpha_l              0000000180046fc8 f   LIBCMT:ismbbyte.obj
 0001:00045fe4       _ismbbalpha                0000000180046fe4 f   LIBCMT:ismbbyte.obj
 0001:00045ffc       _ismbbgraph_l              0000000180046ffc f   LIBCMT:ismbbyte.obj
 0001:00046018       _ismbbgraph                0000000180047018 f   LIBCMT:ismbbyte.obj
 0001:00046030       _ismbbprint_l              0000000180047030 f   LIBCMT:ismbbyte.obj
 0001:0004604c       _ismbbprint                000000018004704c f   LIBCMT:ismbbyte.obj
 0001:00046064       _ismbbpunct_l              0000000180047064 f   LIBCMT:ismbbyte.obj
 0001:0004607c       _ismbbpunct                000000018004707c f   LIBCMT:ismbbyte.obj
 0001:00046090       _ismbblead_l               0000000180047090 f   LIBCMT:ismbbyte.obj
 0001:000460a8       _ismbblead                 00000001800470a8 f   LIBCMT:ismbbyte.obj
 0001:000460bc       _ismbbtrail_l              00000001800470bc f   LIBCMT:ismbbyte.obj
 0001:000460d4       _ismbbtrail                00000001800470d4 f   LIBCMT:ismbbyte.obj
 0001:000460e8       _ismbbkana_l               00000001800470e8 f   LIBCMT:ismbbyte.obj
 0001:00046160       _ismbbkana                 0000000180047160 f   LIBCMT:ismbbyte.obj
 0001:00046168       _isctype_l                 0000000180047168 f   LIBCMT:isctype.obj
 0001:00046274       _isctype                   0000000180047274 f   LIBCMT:isctype.obj
 0001:000462a0       __report_gsfailure         00000001800472a0 f   LIBCMT:gs_report.obj
 0001:000463ec       __ansicp                   00000001800473ec f   LIBCMT:convrtcp.obj
 0001:00046440       __convertcp                0000000180047440 f   LIBCMT:convrtcp.obj
 0001:000466c8       _get_daylight              00000001800476c8 f   LIBCMT:timeset.obj
 0001:00046708       _get_dstbias               0000000180047708 f   LIBCMT:timeset.obj
 0001:00046748       _get_timezone              0000000180047748 f   LIBCMT:timeset.obj
 0001:00046788       _get_tzname                0000000180047788 f   LIBCMT:timeset.obj
 0001:00046850       __daylight                 0000000180047850 f   LIBCMT:timeset.obj
 0001:00046858       __dstbias                  0000000180047858 f   LIBCMT:timeset.obj
 0001:00046860       __timezone                 0000000180047860 f   LIBCMT:timeset.obj
 0001:00046868       __tzname                   0000000180047868 f   LIBCMT:timeset.obj
 0001:00046870       _set_daylight              0000000180047870 f i LIBCMT:tzset.obj
 0001:00046888       _set_dstbias               0000000180047888 f i LIBCMT:tzset.obj
 0001:000468a0       _set_timezone              00000001800478a0 f i LIBCMT:tzset.obj
 0001:000472b4       __tzset                    00000001800482b4 f   LIBCMT:tzset.obj
 0001:000472f0       _tzset                     00000001800482f0 f   LIBCMT:tzset.obj
 0001:00047314       _isindst                   0000000180048314 f   LIBCMT:tzset.obj
 0001:00047344       _isleadbyte_l              0000000180048344 f i LIBCMT:_wctype.obj
 0001:0004738c       isleadbyte                 000000018004838c f i LIBCMT:_wctype.obj
 0001:000473d4       _iswalpha_l                00000001800483d4 f i LIBCMT:_wctype.obj
 0001:000473e4       iswalpha                   00000001800483e4 f i LIBCMT:_wctype.obj
 0001:000473f0       _iswupper_l                00000001800483f0 f i LIBCMT:_wctype.obj
 0001:00047400       iswupper                   0000000180048400 f i LIBCMT:_wctype.obj
 0001:0004740c       _iswlower_l                000000018004840c f i LIBCMT:_wctype.obj
 0001:0004741c       iswlower                   000000018004841c f i LIBCMT:_wctype.obj
 0001:00047428       _iswdigit_l                0000000180048428 f i LIBCMT:_wctype.obj
 0001:00047438       iswdigit                   0000000180048438 f i LIBCMT:_wctype.obj
 0001:00047444       _iswxdigit_l               0000000180048444 f i LIBCMT:_wctype.obj
 0001:00047454       iswxdigit                  0000000180048454 f i LIBCMT:_wctype.obj
 0001:00047460       _iswspace_l                0000000180048460 f i LIBCMT:_wctype.obj
 0001:00047470       iswspace                   0000000180048470 f i LIBCMT:_wctype.obj
 0001:0004747c       _iswpunct_l                000000018004847c f i LIBCMT:_wctype.obj
 0001:0004748c       iswpunct                   000000018004848c f i LIBCMT:_wctype.obj
 0001:00047498       _iswalnum_l                0000000180048498 f i LIBCMT:_wctype.obj
 0001:000474a8       iswalnum                   00000001800484a8 f i LIBCMT:_wctype.obj
 0001:000474b4       _iswprint_l                00000001800484b4 f i LIBCMT:_wctype.obj
 0001:000474c4       iswprint                   00000001800484c4 f i LIBCMT:_wctype.obj
 0001:000474d0       _iswgraph_l                00000001800484d0 f i LIBCMT:_wctype.obj
 0001:000474e0       iswgraph                   00000001800484e0 f i LIBCMT:_wctype.obj
 0001:000474ec       _iswcntrl_l                00000001800484ec f i LIBCMT:_wctype.obj
 0001:000474fc       iswcntrl                   00000001800484fc f i LIBCMT:_wctype.obj
 0001:00047508       iswascii                   0000000180048508 f i LIBCMT:_wctype.obj
 0001:00047518       _iswcsym_l                 0000000180048518 f i LIBCMT:_wctype.obj
 0001:00047548       __iswcsym                  0000000180048548 f i LIBCMT:_wctype.obj
 0001:00047574       _iswcsymf_l                0000000180048574 f i LIBCMT:_wctype.obj
 0001:000475a4       __iswcsymf                 00000001800485a4 f i LIBCMT:_wctype.obj
 0001:000475d0       __ascii_stricmp            00000001800485d0 f   LIBCMT:stricmp.obj
 0001:0004760c       _stricmp_l                 000000018004860c f   LIBCMT:stricmp.obj
 0001:000476f0       _stricmp                   00000001800486f0 f   LIBCMT:stricmp.obj
 0001:00047744       atol                       0000000180048744 f   LIBCMT:atox.obj
 0001:00047750       _atol_l                    0000000180048750 f   LIBCMT:atox.obj
 0001:00047760       atoi                       0000000180048760 f   LIBCMT:atox.obj
 0001:0004776c       _atoi_l                    000000018004876c f   LIBCMT:atox.obj
 0001:0004777c       _atoi64                    000000018004877c f   LIBCMT:atox.obj
 0001:00047788       _atoi64_l                  0000000180048788 f   LIBCMT:atox.obj
 0001:00047798       __ascii_strnicmp           0000000180048798 f   LIBCMT:strnicmp.obj
 0001:000477e0       _strnicmp_l                00000001800487e0 f   LIBCMT:strnicmp.obj
 0001:000478f4       _strnicmp                  00000001800488f4 f   LIBCMT:strnicmp.obj
 0001:00047a54       _itoa_s                    0000000180048a54 f   LIBCMT:xtoas.obj
 0001:00047a7c       _ltoa_s                    0000000180048a7c f   LIBCMT:xtoas.obj
 0001:00047aa0       _ultoa_s                   0000000180048aa0 f   LIBCMT:xtoas.obj
 0001:00047bbc       _i64toa_s                  0000000180048bbc f   LIBCMT:xtoas.obj
 0001:00047be0       _ui64toa_s                 0000000180048be0 f   LIBCMT:xtoas.obj
 0001:00047bf4       _msize                     0000000180048bf4 f   LIBCMT:msize.obj
 0001:00047c3c       _fptrap                    0000000180048c3c f   LIBCMT:crt0fp.obj
 0001:00047c48       _getenv_helper_nolock      0000000180048c48 f   LIBCMT:getenv.obj
 0001:00047ea4       getenv                     0000000180048ea4 f   LIBCMT:getenv.obj
 0001:00047f44       getenv_s                   0000000180048f44 f   LIBCMT:getenv.obj
 0001:00048078       _dupenv_s                  0000000180049078 f   LIBCMT:getenv.obj
 0001:000481ac       _tolower                   00000001800491ac f   LIBCMT:tolower.obj
 0001:000481b0       _tolower_l                 00000001800491b0 f   LIBCMT:tolower.obj
 0001:00048320       tolower                    0000000180049320 f   LIBCMT:tolower.obj
 0001:000485cc       strtol                     00000001800495cc f   LIBCMT:strtol.obj
 0001:000485fc       _strtol_l                  00000001800495fc f   LIBCMT:strtol.obj
 0001:00048620       strtoul                    0000000180049620 f   LIBCMT:strtol.obj
 0001:00048654       _strtoul_l                 0000000180049654 f   LIBCMT:strtol.obj
 0001:000488f4       _strtoi64                  00000001800498f4 f   LIBCMT:strtoq.obj
 0001:00048924       _strtoi64_l                0000000180049924 f   LIBCMT:strtoq.obj
 0001:00048948       _strtoui64                 0000000180049948 f   LIBCMT:strtoq.obj
 0001:0004897c       _strtoui64_l               000000018004997c f   LIBCMT:strtoq.obj
 0001:000489a4       _mbsnbicoll_l              00000001800499a4 f   LIBCMT:mbsnbico.obj
 0001:00048ab4       _mbsnbicoll                0000000180049ab4 f   LIBCMT:mbsnbico.obj
 0001:00048abc       __wtomb_environ            0000000180049abc f   LIBCMT:wtombenv.obj
 0001:00048bb0       calloc                     0000000180049bb0 f   LIBCMT:calloc.obj
 0001:00048bf4       strnlen                    0000000180049bf4 f   LIBCMT:strlen_s.obj
 0001:00049108       __crtCompareStringA        000000018004a108 f   LIBCMT:a_cmp.obj
 0001:00049194       _strnicoll_l               000000018004a194 f   LIBCMT:strnicol.obj
 0001:000492ac       _strnicoll                 000000018004a2ac f   LIBCMT:strnicol.obj
 0001:000493d4       __crtsetenv                000000018004a3d4 f   LIBCMT:setenv.obj
 0001:00049784       _strdup                    000000018004a784 f   LIBCMT:strdup.obj
 0001:000497f4       _mbschr_l                  000000018004a7f4 f   LIBCMT:mbschr.obj
 0001:000498ec       _mbschr                    000000018004a8ec f   LIBCMT:mbschr.obj
 0001:000498f4       RtlUnwindEx                000000018004a8f4 f   kernel32:KERNEL32.dll
 0001:000498fa       FlsSetValue                000000018004a8fa f   kernel32:KERNEL32.dll
 0001:00049900       GetCommandLineA            000000018004a900 f   kernel32:KERNEL32.dll
 0001:00049906       UnhandledExceptionFilter   000000018004a906 f   kernel32:KERNEL32.dll
 0001:0004990c       SetUnhandledExceptionFilter 000000018004a90c f   kernel32:KERNEL32.dll
 0001:00049912       RtlCaptureContext          000000018004a912 f   kernel32:KERNEL32.dll
 0001:00049918       GetModuleFileNameA         000000018004a918 f   kernel32:KERNEL32.dll
 0001:0004991e       EncodePointer              000000018004a91e f   kernel32:KERNEL32.dll
 0001:00049924       DecodePointer              000000018004a924 f   kernel32:KERNEL32.dll
 0001:0004992a       TlsAlloc                   000000018004a92a f   kernel32:KERNEL32.dll
 0001:00049930       FlsGetValue                000000018004a930 f   kernel32:KERNEL32.dll
 0001:00049936       FlsFree                    000000018004a936 f   kernel32:KERNEL32.dll
 0001:0004993c       GetCurrentThread           000000018004a93c f   kernel32:KERNEL32.dll
 0001:00049942       FlsAlloc                   000000018004a942 f   kernel32:KERNEL32.dll
 0001:00049948       GetCPInfo                  000000018004a948 f   kernel32:KERNEL32.dll
 0001:0004994e       GetACP                     000000018004a94e f   kernel32:KERNEL32.dll
 0001:00049954       GetOEMCP                   000000018004a954 f   kernel32:KERNEL32.dll
 0001:0004995a       IsValidCodePage            000000018004a95a f   kernel32:KERNEL32.dll
 0001:00049960       RtlVirtualUnwind           000000018004a960 f   kernel32:KERNEL32.dll
 0001:00049966       RtlLookupFunctionEntry     000000018004a966 f   kernel32:KERNEL32.dll
 0001:0004996c       ExitProcess                000000018004a96c f   kernel32:KERNEL32.dll
 0001:00049972       SetHandleCount             000000018004a972 f   kernel32:KERNEL32.dll
 0001:00049978       GetFileType                000000018004a978 f   kernel32:KERNEL32.dll
 0001:0004997e       GetStartupInfoA            000000018004a97e f   kernel32:KERNEL32.dll
 0001:00049984       FreeEnvironmentStringsA    000000018004a984 f   kernel32:KERNEL32.dll
 0001:0004998a       GetEnvironmentStrings      000000018004a98a f   kernel32:KERNEL32.dll
 0001:00049990       HeapSetInformation         000000018004a990 f   kernel32:KERNEL32.dll
 0001:00049996       QueryPerformanceCounter    000000018004a996 f   kernel32:KERNEL32.dll
 0001:0004999c       GetSystemTimeAsFileTime    000000018004a99c f   kernel32:KERNEL32.dll
 0001:000499a2       SetConsoleCtrlHandler      000000018004a9a2 f   kernel32:KERNEL32.dll
 0001:000499a8       LoadLibraryA               000000018004a9a8 f   kernel32:KERNEL32.dll
 0001:000499ae       FatalAppExitA              000000018004a9ae f   kernel32:KERNEL32.dll
 0001:000499b4       GetLocaleInfoW             000000018004a9b4 f   kernel32:KERNEL32.dll
 0001:000499ba       GetLocaleInfoA             000000018004a9ba f   kernel32:KERNEL32.dll
 0001:000499c0       LCMapStringA               000000018004a9c0 f   kernel32:KERNEL32.dll
 0001:000499c6       LCMapStringW               000000018004a9c6 f   kernel32:KERNEL32.dll
 0001:000499cc       GetStringTypeA             000000018004a9cc f   kernel32:KERNEL32.dll
 0001:000499d2       GetStringTypeW             000000018004a9d2 f   kernel32:KERNEL32.dll
 0001:000499d8       GetDateFormatA             000000018004a9d8 f   kernel32:KERNEL32.dll
 0001:000499de       GetTimeFormatA             000000018004a9de f   kernel32:KERNEL32.dll
 0001:000499e4       GetUserDefaultLCID         000000018004a9e4 f   kernel32:KERNEL32.dll
 0001:000499ea       EnumSystemLocalesA         000000018004a9ea f   kernel32:KERNEL32.dll
 0001:000499f0       IsValidLocale              000000018004a9f0 f   kernel32:KERNEL32.dll
 0001:000499f6       InitializeCriticalSectionAndSpinCount 000000018004a9f6 f   kernel32:KERNEL32.dll
 0001:000499fc       GetTimeZoneInformation     000000018004a9fc f   kernel32:KERNEL32.dll
 0001:00049a02       HeapSize                   000000018004aa02 f   kernel32:KERNEL32.dll
 0001:00049a08       CompareStringA             000000018004aa08 f   kernel32:KERNEL32.dll
 0001:00049a0e       CompareStringW             000000018004aa0e f   kernel32:KERNEL32.dll
 0001:00049a14       SetEnvironmentVariableA    000000018004aa14 f   kernel32:KERNEL32.dll
 0001:00049a30       __chkstk                   000000018004aa30 f   LIBCMT:chkstk.obj
 0001:00049a30       _alloca_probe              000000018004aa30     LIBCMT:chkstk.obj
 0002:00000000       __imp_OpenProcessToken     000000018004b000     advapi32:ADVAPI32.dll
 0002:00000008       __imp_GetTokenInformation  000000018004b008     advapi32:ADVAPI32.dll
 0002:00000010       __imp_ConvertSidToStringSidW 000000018004b010     advapi32:ADVAPI32.dll
 0002:00000018       __imp_AllocateAndInitializeSid 000000018004b018     advapi32:ADVAPI32.dll
 0002:00000020       __imp_CheckTokenMembership 000000018004b020     advapi32:ADVAPI32.dll
 0002:00000028       __imp_FreeSid              000000018004b028     advapi32:ADVAPI32.dll
 0002:00000030       __imp_RegCreateKeyExW      000000018004b030     advapi32:ADVAPI32.dll
 0002:00000038       __imp_RegOpenKeyExW        000000018004b038     advapi32:ADVAPI32.dll
 0002:00000040       __imp_RegQueryValueExW     000000018004b040     advapi32:ADVAPI32.dll
 0002:00000048       __imp_RegCloseKey          000000018004b048     advapi32:ADVAPI32.dll
 0002:00000050       __imp_RegEnumKeyExW        000000018004b050     advapi32:ADVAPI32.dll
 0002:00000058       \177ADVAPI32_NULL_THUNK_DATA 000000018004b058     advapi32:ADVAPI32.dll
 0002:00000060       __imp_CreateEnhMetaFileW   000000018004b060     gdi32:GDI32.dll
 0002:00000068       __imp_CreateDIBSection     000000018004b068     gdi32:GDI32.dll
 0002:00000070       __imp_CreateSolidBrush     000000018004b070     gdi32:GDI32.dll
 0002:00000078       __imp_GdiFlush             000000018004b078     gdi32:GDI32.dll
 0002:00000080       __imp_CloseEnhMetaFile     000000018004b080     gdi32:GDI32.dll
 0002:00000088       __imp_GetEnhMetaFileBits   000000018004b088     gdi32:GDI32.dll
 0002:00000090       __imp_DeleteEnhMetaFile    000000018004b090     gdi32:GDI32.dll
 0002:00000098       __imp_CreateFontIndirectW  000000018004b098     gdi32:GDI32.dll
 0002:000000a0       __imp_CreateCompatibleDC   000000018004b0a0     gdi32:GDI32.dll
 0002:000000a8       __imp_SelectObject         000000018004b0a8     gdi32:GDI32.dll
 0002:000000b0       __imp_GetTextMetricsW      000000018004b0b0     gdi32:GDI32.dll
 0002:000000b8       __imp_DeleteDC             000000018004b0b8     gdi32:GDI32.dll
 0002:000000c0       __imp_DeleteObject         000000018004b0c0     gdi32:GDI32.dll
 0002:000000c8       __imp_GetDeviceCaps        000000018004b0c8     gdi32:GDI32.dll
 0002:000000d0       \177GDI32_NULL_THUNK_DATA  000000018004b0d0     gdi32:GDI32.dll
 0002:000000d8       __imp_OpenFileMappingW     000000018004b0d8     kernel32:KERNEL32.dll
 0002:000000e0       __imp_LoadLibraryW         000000018004b0e0     kernel32:KERNEL32.dll
 0002:000000e8       __imp_CreateFileMappingW   000000018004b0e8     kernel32:KERNEL32.dll
 0002:000000f0       __imp_VirtualProtect       000000018004b0f0     kernel32:KERNEL32.dll
 0002:000000f8       __imp_lstrcpyW             000000018004b0f8     kernel32:KERNEL32.dll
 0002:00000100       __imp_MultiByteToWideChar  000000018004b100     kernel32:KERNEL32.dll
 0002:00000108       __imp_lstrcpynA            000000018004b108     kernel32:KERNEL32.dll
 0002:00000110       __imp_lstrlenA             000000018004b110     kernel32:KERNEL32.dll
 0002:00000118       __imp_WideCharToMultiByte  000000018004b118     kernel32:KERNEL32.dll
 0002:00000120       __imp_lstrcpyA             000000018004b120     kernel32:KERNEL32.dll
 0002:00000128       __imp_Module32NextW        000000018004b128     kernel32:KERNEL32.dll
 0002:00000130       __imp_Module32FirstW       000000018004b130     kernel32:KERNEL32.dll
 0002:00000138       __imp_CreateToolhelp32Snapshot 000000018004b138     kernel32:KERNEL32.dll
 0002:00000140       __imp_GetConsoleCursorInfo 000000018004b140     kernel32:KERNEL32.dll
 0002:00000148       __imp_GetConsoleScreenBufferInfo 000000018004b148     kernel32:KERNEL32.dll
 0002:00000150       __imp_GetStdHandle         000000018004b150     kernel32:KERNEL32.dll
 0002:00000158       __imp_GetConsoleTitleW     000000018004b158     kernel32:KERNEL32.dll
 0002:00000160       __imp_DeleteFileW          000000018004b160     kernel32:KERNEL32.dll
 0002:00000168       __imp_Thread32Next         000000018004b168     kernel32:KERNEL32.dll
 0002:00000170       __imp_Thread32First        000000018004b170     kernel32:KERNEL32.dll
 0002:00000178       __imp_GetConsoleMode       000000018004b178     kernel32:KERNEL32.dll
 0002:00000180       __imp_GetExitCodeProcess   000000018004b180     kernel32:KERNEL32.dll
 0002:00000188       __imp_CreateProcessW       000000018004b188     kernel32:KERNEL32.dll
 0002:00000190       __imp_SetConsoleMode       000000018004b190     kernel32:KERNEL32.dll
 0002:00000198       __imp_GetEnvironmentStringsW 000000018004b198     kernel32:KERNEL32.dll
 0002:000001a0       __imp_lstrcatW             000000018004b1a0     kernel32:KERNEL32.dll
 0002:000001a8       __imp_GetEnvironmentVariableW 000000018004b1a8     kernel32:KERNEL32.dll
 0002:000001b0       __imp_WaitForMultipleObjects 000000018004b1b0     kernel32:KERNEL32.dll
 0002:000001b8       __imp_CreateEventW         000000018004b1b8     kernel32:KERNEL32.dll
 0002:000001c0       __imp_SetConsoleTitleW     000000018004b1c0     kernel32:KERNEL32.dll
 0002:000001c8       __imp_CreateSemaphoreW     000000018004b1c8     kernel32:KERNEL32.dll
 0002:000001d0       __imp_ResetEvent           000000018004b1d0     kernel32:KERNEL32.dll
 0002:000001d8       __imp_TerminateProcess     000000018004b1d8     kernel32:KERNEL32.dll
 0002:000001e0       __imp_GetCurrentProcess    000000018004b1e0     kernel32:KERNEL32.dll
 0002:000001e8       __imp_SetEvent             000000018004b1e8     kernel32:KERNEL32.dll
 0002:000001f0       __imp_IsBadStringPtrW      000000018004b1f0     kernel32:KERNEL32.dll
 0002:000001f8       __imp_ReleaseSemaphore     000000018004b1f8     kernel32:KERNEL32.dll
 0002:00000200       __imp_WriteConsoleInputW   000000018004b200     kernel32:KERNEL32.dll
 0002:00000208       __imp_GetNumberOfConsoleInputEvents 000000018004b208     kernel32:KERNEL32.dll
 0002:00000210       __imp_ReadConsoleInputW    000000018004b210     kernel32:KERNEL32.dll
 0002:00000218       __imp_PeekConsoleInputW    000000018004b218     kernel32:KERNEL32.dll
 0002:00000220       __imp_SuspendThread        000000018004b220     kernel32:KERNEL32.dll
 0002:00000228       __imp_ResumeThread         000000018004b228     kernel32:KERNEL32.dll
 0002:00000230       __imp_VerifyVersionInfoW   000000018004b230     kernel32:KERNEL32.dll
 0002:00000238       __imp_VerSetConditionMask  000000018004b238     kernel32:KERNEL32.dll
 0002:00000240       __imp_ReleaseMutex         000000018004b240     kernel32:KERNEL32.dll
 0002:00000248       __imp_CreateMutexW         000000018004b248     kernel32:KERNEL32.dll
 0002:00000250       __imp_SetFilePointer       000000018004b250     kernel32:KERNEL32.dll
 0002:00000258       __imp_GetFileInformationByHandle 000000018004b258     kernel32:KERNEL32.dll
 0002:00000260       __imp_ReadProcessMemory    000000018004b260     kernel32:KERNEL32.dll
 0002:00000268       __imp_FreeLibrary          000000018004b268     kernel32:KERNEL32.dll
 0002:00000270       __imp_ExpandEnvironmentStringsW 000000018004b270     kernel32:KERNEL32.dll
 0002:00000278       __imp_SearchPathW          000000018004b278     kernel32:KERNEL32.dll
 0002:00000280       __imp_DebugBreak           000000018004b280     kernel32:KERNEL32.dll
 0002:00000288       __imp_HeapCreate           000000018004b288     kernel32:KERNEL32.dll
 0002:00000290       __imp_HeapDestroy          000000018004b290     kernel32:KERNEL32.dll
 0002:00000298       __imp_HeapAlloc            000000018004b298     kernel32:KERNEL32.dll
 0002:000002a0       __imp_HeapReAlloc          000000018004b2a0     kernel32:KERNEL32.dll
 0002:000002a8       __imp_HeapFree             000000018004b2a8     kernel32:KERNEL32.dll
 0002:000002b0       __imp_HeapValidate         000000018004b2b0     kernel32:KERNEL32.dll
 0002:000002b8       __imp_GetStartupInfoW      000000018004b2b8     kernel32:KERNEL32.dll
 0002:000002c0       __imp_OpenThread           000000018004b2c0     kernel32:KERNEL32.dll
 0002:000002c8       __imp_InitializeCriticalSection 000000018004b2c8     kernel32:KERNEL32.dll
 0002:000002d0       __imp_DeleteCriticalSection 000000018004b2d0     kernel32:KERNEL32.dll
 0002:000002d8       __imp_EnterCriticalSection 000000018004b2d8     kernel32:KERNEL32.dll
 0002:000002e0       __imp_LeaveCriticalSection 000000018004b2e0     kernel32:KERNEL32.dll
 0002:000002e8       __imp_TryEnterCriticalSection 000000018004b2e8     kernel32:KERNEL32.dll
 0002:000002f0       __imp_LocalFree            000000018004b2f0     kernel32:KERNEL32.dll
 0002:000002f8       __imp_LocalAlloc           000000018004b2f8     kernel32:KERNEL32.dll
 0002:00000300       __imp_lstrcmpiA            000000018004b300     kernel32:KERNEL32.dll
 0002:00000308       __imp_GetExitCodeThread    000000018004b308     kernel32:KERNEL32.dll
 0002:00000310       __imp_DisconnectNamedPipe  000000018004b310     kernel32:KERNEL32.dll
 0002:00000318       __imp_MapViewOfFile        000000018004b318     kernel32:KERNEL32.dll
 0002:00000320       __imp_FlushFileBuffers     000000018004b320     kernel32:KERNEL32.dll
 0002:00000328       __imp_GetOverlappedResult  000000018004b328     kernel32:KERNEL32.dll
 0002:00000330       __imp_ConnectNamedPipe     000000018004b330     kernel32:KERNEL32.dll
 0002:00000338       __imp_CreateNamedPipeW     000000018004b338     kernel32:KERNEL32.dll
 0002:00000340       __imp_FreeEnvironmentStringsW 000000018004b340     kernel32:KERNEL32.dll
 0002:00000348       __imp_SetConsoleWindowInfo 000000018004b348     kernel32:KERNEL32.dll
 0002:00000350       __imp_GetConsoleOutputCP   000000018004b350     kernel32:KERNEL32.dll
 0002:00000358       __imp_GetLargestConsoleWindowSize 000000018004b358     kernel32:KERNEL32.dll
 0002:00000360       __imp_FindClose            000000018004b360     kernel32:KERNEL32.dll
 0002:00000368       __imp_FindFirstFileW       000000018004b368     kernel32:KERNEL32.dll
 0002:00000370       __imp_GetFileSize          000000018004b370     kernel32:KERNEL32.dll
 0002:00000378       __imp_FindNextFileW        000000018004b378     kernel32:KERNEL32.dll
 0002:00000380       __imp_CreateDirectoryW     000000018004b380     kernel32:KERNEL32.dll
 0002:00000388       __imp_GetFileSizeEx        000000018004b388     kernel32:KERNEL32.dll
 0002:00000390       __imp_GetPrivateProfileIntW 000000018004b390     kernel32:KERNEL32.dll
 0002:00000398       __imp_WritePrivateProfileStringW 000000018004b398     kernel32:KERNEL32.dll
 0002:000003a0       __imp_IsBadReadPtr         000000018004b3a0     kernel32:KERNEL32.dll
 0002:000003a8       __imp_VirtualFree          000000018004b3a8     kernel32:KERNEL32.dll
 0002:000003b0       __imp_VirtualAlloc         000000018004b3b0     kernel32:KERNEL32.dll
 0002:000003b8       __imp_GetSystemInfo        000000018004b3b8     kernel32:KERNEL32.dll
 0002:000003c0       __imp_GetFullPathNameW     000000018004b3c0     kernel32:KERNEL32.dll
 0002:000003c8       __imp_GetVersionExW        000000018004b3c8     kernel32:KERNEL32.dll
 0002:000003d0       __imp_OpenProcess          000000018004b3d0     kernel32:KERNEL32.dll
 0002:000003d8       __imp_Process32NextW       000000018004b3d8     kernel32:KERNEL32.dll
 0002:000003e0       __imp_Process32FirstW      000000018004b3e0     kernel32:KERNEL32.dll
 0002:000003e8       __imp_GetWindowsDirectoryW 000000018004b3e8     kernel32:KERNEL32.dll
 0002:000003f0       __imp_CreateThread         000000018004b3f0     kernel32:KERNEL32.dll
 0002:000003f8       __imp_TerminateThread      000000018004b3f8     kernel32:KERNEL32.dll
 0002:00000400       __imp_RaiseException       000000018004b400     kernel32:KERNEL32.dll
 0002:00000408       __imp_DuplicateHandle      000000018004b408     kernel32:KERNEL32.dll
 0002:00000410       __imp_CompareStringW       000000018004b410     kernel32:KERNEL32.dll
 0002:00000418       __imp_CompareStringA       000000018004b418     kernel32:KERNEL32.dll
 0002:00000420       __imp_HeapSize             000000018004b420     kernel32:KERNEL32.dll
 0002:00000428       __imp_GetTimeZoneInformation 000000018004b428     kernel32:KERNEL32.dll
 0002:00000430       __imp_InitializeCriticalSectionAndSpinCount 000000018004b430     kernel32:KERNEL32.dll
 0002:00000438       __imp_IsValidLocale        000000018004b438     kernel32:KERNEL32.dll
 0002:00000440       __imp_EnumSystemLocalesA   000000018004b440     kernel32:KERNEL32.dll
 0002:00000448       __imp_GetUserDefaultLCID   000000018004b448     kernel32:KERNEL32.dll
 0002:00000450       __imp_GetTimeFormatA       000000018004b450     kernel32:KERNEL32.dll
 0002:00000458       __imp_GetDateFormatA       000000018004b458     kernel32:KERNEL32.dll
 0002:00000460       __imp_GetStringTypeW       000000018004b460     kernel32:KERNEL32.dll
 0002:00000468       __imp_GetStringTypeA       000000018004b468     kernel32:KERNEL32.dll
 0002:00000470       __imp_LCMapStringW         000000018004b470     kernel32:KERNEL32.dll
 0002:00000478       __imp_LCMapStringA         000000018004b478     kernel32:KERNEL32.dll
 0002:00000480       __imp_GetLocaleInfoA       000000018004b480     kernel32:KERNEL32.dll
 0002:00000488       __imp_GetLocaleInfoW       000000018004b488     kernel32:KERNEL32.dll
 0002:00000490       __imp_FatalAppExitA        000000018004b490     kernel32:KERNEL32.dll
 0002:00000498       __imp_LoadLibraryA         000000018004b498     kernel32:KERNEL32.dll
 0002:000004a0       __imp_SetConsoleCtrlHandler 000000018004b4a0     kernel32:KERNEL32.dll
 0002:000004a8       __imp_GetSystemTimeAsFileTime 000000018004b4a8     kernel32:KERNEL32.dll
 0002:000004b0       __imp_QueryPerformanceCounter 000000018004b4b0     kernel32:KERNEL32.dll
 0002:000004b8       __imp_HeapSetInformation   000000018004b4b8     kernel32:KERNEL32.dll
 0002:000004c0       __imp_GetEnvironmentStrings 000000018004b4c0     kernel32:KERNEL32.dll
 0002:000004c8       __imp_FreeEnvironmentStringsA 000000018004b4c8     kernel32:KERNEL32.dll
 0002:000004d0       __imp_GetStartupInfoA      000000018004b4d0     kernel32:KERNEL32.dll
 0002:000004d8       __imp_GetFileType          000000018004b4d8     kernel32:KERNEL32.dll
 0002:000004e0       __imp_SetHandleCount       000000018004b4e0     kernel32:KERNEL32.dll
 0002:000004e8       __imp_ExitProcess          000000018004b4e8     kernel32:KERNEL32.dll
 0002:000004f0       __imp_RtlLookupFunctionEntry 000000018004b4f0     kernel32:KERNEL32.dll
 0002:000004f8       __imp_RtlVirtualUnwind     000000018004b4f8     kernel32:KERNEL32.dll
 0002:00000500       __imp_IsValidCodePage      000000018004b500     kernel32:KERNEL32.dll
 0002:00000508       __imp_GetOEMCP             000000018004b508     kernel32:KERNEL32.dll
 0002:00000510       __imp_GetACP               000000018004b510     kernel32:KERNEL32.dll
 0002:00000518       __imp_GetCPInfo            000000018004b518     kernel32:KERNEL32.dll
 0002:00000520       __imp_FlsAlloc             000000018004b520     kernel32:KERNEL32.dll
 0002:00000528       __imp_GetCurrentThread     000000018004b528     kernel32:KERNEL32.dll
 0002:00000530       __imp_FlsFree              000000018004b530     kernel32:KERNEL32.dll
 0002:00000538       __imp_FlsGetValue          000000018004b538     kernel32:KERNEL32.dll
 0002:00000540       __imp_TlsAlloc             000000018004b540     kernel32:KERNEL32.dll
 0002:00000548       __imp_DecodePointer        000000018004b548     kernel32:KERNEL32.dll
 0002:00000550       __imp_EncodePointer        000000018004b550     kernel32:KERNEL32.dll
 0002:00000558       __imp_GetModuleFileNameA   000000018004b558     kernel32:KERNEL32.dll
 0002:00000560       __imp_UnmapViewOfFile      000000018004b560     kernel32:KERNEL32.dll
 0002:00000568       __imp_GetConsoleWindow     000000018004b568     kernel32:KERNEL32.dll
 0002:00000570       __imp_WriteFile            000000018004b570     kernel32:KERNEL32.dll
 0002:00000578       __imp_TransactNamedPipe    000000018004b578     kernel32:KERNEL32.dll
 0002:00000580       __imp_CloseHandle          000000018004b580     kernel32:KERNEL32.dll
 0002:00000588       __imp_ReadFile             000000018004b588     kernel32:KERNEL32.dll
 0002:00000590       __imp_GetCurrentThreadId   000000018004b590     kernel32:KERNEL32.dll
 0002:00000598       __imp_IsDebuggerPresent    000000018004b598     kernel32:KERNEL32.dll
 0002:000005a0       __imp_GetTickCount         000000018004b5a0     kernel32:KERNEL32.dll
 0002:000005a8       __imp_CreateFileW          000000018004b5a8     kernel32:KERNEL32.dll
 0002:000005b0       __imp_GetLastError         000000018004b5b0     kernel32:KERNEL32.dll
 0002:000005b8       __imp_WaitForSingleObject  000000018004b5b8     kernel32:KERNEL32.dll
 0002:000005c0       __imp_WaitNamedPipeW       000000018004b5c0     kernel32:KERNEL32.dll
 0002:000005c8       __imp_Sleep                000000018004b5c8     kernel32:KERNEL32.dll
 0002:000005d0       __imp_SetLastError         000000018004b5d0     kernel32:KERNEL32.dll
 0002:000005d8       __imp_GetCurrentProcessId  000000018004b5d8     kernel32:KERNEL32.dll
 0002:000005e0       __imp_SetNamedPipeHandleState 000000018004b5e0     kernel32:KERNEL32.dll
 0002:000005e8       __imp_GetModuleFileNameW   000000018004b5e8     kernel32:KERNEL32.dll
 0002:000005f0       __imp_GetModuleHandleW     000000018004b5f0     kernel32:KERNEL32.dll
 0002:000005f8       __imp_GetProcAddress       000000018004b5f8     kernel32:KERNEL32.dll
 0002:00000600       __imp_GetCurrentDirectoryW 000000018004b600     kernel32:KERNEL32.dll
 0002:00000608       __imp_lstrcmpW             000000018004b608     kernel32:KERNEL32.dll
 0002:00000610       __imp_lstrcmpiW            000000018004b610     kernel32:KERNEL32.dll
 0002:00000618       __imp_lstrcpynW            000000018004b618     kernel32:KERNEL32.dll
 0002:00000620       __imp_SetEnvironmentVariableW 000000018004b620     kernel32:KERNEL32.dll
 0002:00000628       __imp_SetThreadPriority    000000018004b628     kernel32:KERNEL32.dll
 0002:00000630       __imp_lstrlenW             000000018004b630     kernel32:KERNEL32.dll
 0002:00000638       __imp_RtlCaptureContext    000000018004b638     kernel32:KERNEL32.dll
 0002:00000640       __imp_SetUnhandledExceptionFilter 000000018004b640     kernel32:KERNEL32.dll
 0002:00000648       __imp_UnhandledExceptionFilter 000000018004b648     kernel32:KERNEL32.dll
 0002:00000650       __imp_GetCommandLineA      000000018004b650     kernel32:KERNEL32.dll
 0002:00000658       __imp_FlsSetValue          000000018004b658     kernel32:KERNEL32.dll
 0002:00000660       __imp_RtlUnwindEx          000000018004b660     kernel32:KERNEL32.dll
 0002:00000668       __imp_SetEnvironmentVariableA 000000018004b668     kernel32:KERNEL32.dll
 0002:00000670       \177KERNEL32_NULL_THUNK_DATA 000000018004b670     kernel32:KERNEL32.dll
 0002:00000678       __imp_SHAppBarMessage      000000018004b678     shell32:SHELL32.dll
 0002:00000680       \177SHELL32_NULL_THUNK_DATA 000000018004b680     shell32:SHELL32.dll
 0002:00000688       __imp_VkKeyScanW           000000018004b688     user32:USER32.dll
 0002:00000690       __imp_MapVirtualKeyW       000000018004b690     user32:USER32.dll
 0002:00000698       __imp_CharUpperBuffW       000000018004b698     user32:USER32.dll
 0002:000006a0       __imp_ShowWindowAsync      000000018004b6a0     user32:USER32.dll
 0002:000006a8       __imp_ShowWindow           000000018004b6a8     user32:USER32.dll
 0002:000006b0       __imp_SetForegroundWindow  000000018004b6b0     user32:USER32.dll
 0002:000006b8       __imp_wsprintfA            000000018004b6b8     user32:USER32.dll
 0002:000006c0       __imp_GetWindowTextW       000000018004b6c0     user32:USER32.dll
 0002:000006c8       __imp_SendMessageTimeoutW  000000018004b6c8     user32:USER32.dll
 0002:000006d0       __imp_SendMessageW         000000018004b6d0     user32:USER32.dll
 0002:000006d8       __imp_LoadKeyboardLayoutW  000000018004b6d8     user32:USER32.dll
 0002:000006e0       __imp_ActivateKeyboardLayout 000000018004b6e0     user32:USER32.dll
 0002:000006e8       __imp_GetDC                000000018004b6e8     user32:USER32.dll
 0002:000006f0       __imp_ReleaseDC            000000018004b6f0     user32:USER32.dll
 0002:000006f8       __imp_FillRect             000000018004b6f8     user32:USER32.dll
 0002:00000700       __imp_FindWindowExW        000000018004b700     user32:USER32.dll
 0002:00000708       __imp_IntersectRect        000000018004b708     user32:USER32.dll
 0002:00000710       __imp_MonitorFromRect      000000018004b710     user32:USER32.dll
 0002:00000718       __imp_SystemParametersInfoW 000000018004b718     user32:USER32.dll
 0002:00000720       __imp_IsRectEmpty          000000018004b720     user32:USER32.dll
 0002:00000728       __imp_EnumDisplayMonitors  000000018004b728     user32:USER32.dll
 0002:00000730       __imp_GetCursorPos         000000018004b730     user32:USER32.dll
 0002:00000738       __imp_MonitorFromPoint     000000018004b738     user32:USER32.dll
 0002:00000740       __imp_IsWindowEnabled      000000018004b740     user32:USER32.dll
 0002:00000748       __imp_EnableWindow         000000018004b748     user32:USER32.dll
 0002:00000750       __imp_GetWindowRect        000000018004b750     user32:USER32.dll
 0002:00000758       __imp_SetWindowPos         000000018004b758     user32:USER32.dll
 0002:00000760       __imp_MonitorFromWindow    000000018004b760     user32:USER32.dll
 0002:00000768       __imp_GetMonitorInfoW      000000018004b768     user32:USER32.dll
 0002:00000770       __imp_GetSystemMetrics     000000018004b770     user32:USER32.dll
 0002:00000778       __imp_PostMessageW         000000018004b778     user32:USER32.dll
 0002:00000780       __imp_IsWindowVisible      000000018004b780     user32:USER32.dll
 0002:00000788       __imp_RegisterWindowMessageW 000000018004b788     user32:USER32.dll
 0002:00000790       __imp_GetParent            000000018004b790     user32:USER32.dll
 0002:00000798       __imp_wsprintfW            000000018004b798     user32:USER32.dll
 0002:000007a0       __imp_MessageBoxW          000000018004b7a0     user32:USER32.dll
 0002:000007a8       __imp_FindWindowW          000000018004b7a8     user32:USER32.dll
 0002:000007b0       __imp_GetWindowThreadProcessId 000000018004b7b0     user32:USER32.dll
 0002:000007b8       __imp_GetClassNameW        000000018004b7b8     user32:USER32.dll
 0002:000007c0       __imp_GetWindowLongPtrW    000000018004b7c0     user32:USER32.dll
 0002:000007c8       __imp_IsWindow             000000018004b7c8     user32:USER32.dll
 0002:000007d0       \177USER32_NULL_THUNK_DATA 000000018004b7d0     user32:USER32.dll
 0002:000007d8       __imp_GetFileVersionInfoW  000000018004b7d8     version:VERSION.dll
 0002:000007e0       __imp_GetFileVersionInfoSizeW 000000018004b7e0     version:VERSION.dll
 0002:000007e8       __imp_VerQueryValueW       000000018004b7e8     version:VERSION.dll
 0002:000007f0       \177VERSION_NULL_THUNK_DATA 000000018004b7f0     version:VERSION.dll
 0002:000007f8       __xc_a                     000000018004b7f8     LIBCMT:crt0init.obj
 0002:00000808       __xc_z                     000000018004b808     LIBCMT:crt0init.obj
 0002:00000810       __xi_a                     000000018004b810     LIBCMT:crt0init.obj
 0002:00000828       __xi_z                     000000018004b828     LIBCMT:crt0init.obj
 0002:00000830       __xp_a                     000000018004b830     LIBCMT:crt0init.obj
 0002:00000838       __xp_z                     000000018004b838     LIBCMT:crt0init.obj
 0002:00000840       __xt_a                     000000018004b840     LIBCMT:crt0init.obj
 0002:00000848       __xt_z                     000000018004b848     LIBCMT:crt0init.obj
 0002:00000870       ??_C@_19IJOJOJIB@?$AAP?$AAA?$AAT?$AAH?$AA?$AA@ 000000018004b870     CEStr.obj
 0002:00000880       ??_C@_1EHK@JMHPNAMN@?$AAA?$AAC?$AAT?$AAI?$AAV?$AAA?$AAT?$AAE?$AA?$AA?$AAA?$AAL?$AAI?$AAA?$AAS?$AA?$AA?$AAA?$AAS?$AAS?$AAO?$AAC?$AA?$AA?$AAA?$AAT?$AAT?$AAR?$AAI?$AAB?$AA?$AA?$AAB?$AAE?$AAE?$AAP@ 000000018004b880     CmdLine.obj
 0002:00000d00       ??_C@_1BM@DIGKKBBA@?$AAC?$AAo?$AAn?$AAE?$AAm?$AAu?$AAC?$AA6?$AA4?$AA?4?$AAe?$AAx?$AAe?$AA?$AA@ 000000018004bd00     CmdLine.obj
 0002:00000d20       ??_C@_1BE@LPDGKFE@?$AAC?$AAo?$AAn?$AAE?$AAm?$AAu?$AAC?$AA6?$AA4?$AA?$AA@ 000000018004bd20     CmdLine.obj
 0002:00000d38       ??_C@_1BI@OPBAAHCM@?$AAC?$AAo?$AAn?$AAE?$AAm?$AAu?$AAC?$AA?4?$AAe?$AAx?$AAe?$AA?$AA@ 000000018004bd38     CmdLine.obj
 0002:00000d50       ??_C@_1BA@OOOLGAEE@?$AAC?$AAo?$AAn?$AAE?$AAm?$AAu?$AAC?$AA?$AA@ 000000018004bd50     CmdLine.obj
 0002:00000d60       ??_C@_1BA@DBKIDAPL@?$AAc?$AAm?$AAd?$AA?4?$AAe?$AAx?$AAe?$AA?$AA@ 000000018004bd60     CmdLine.obj
 0002:00000d70       ??_C@_17MEJHPLBO@?$AAc?$AAm?$AAd?$AA?$AA@ 000000018004bd70     CmdLine.obj
 0002:00000d78       ??_C@_15PENCDGID@?$AA?1?$AAK?$AA?$AA@ 000000018004bd78     CmdLine.obj
 0002:00000d80       ??_C@_15DBGGBOGM@?$AA?1?$AAC?$AA?$AA@ 000000018004bd80     CmdLine.obj
 0002:00000d88       ??_C@_17GCLANFBN@?$AA?5?$AA?$CI?$AA?0?$AA?$AA@ 000000018004bd88     CmdLine.obj
 0002:00000d90       ??_C@_15DPEKPBGF@?$AA?2?$AA?$CC?$AA?$AA@ 000000018004bd90     CmdLine.obj
 0002:00000d98       ??_C@_15JNBOKNOG@?$AA?$AN?$AA?6?$AA?$AA@ 000000018004bd98     CmdLine.obj
 0002:00000da0       ??_C@_11LOCGONAA@?$AA?$AA@ 000000018004bda0     CmdLine.obj
 0002:00000da8       ??_C@_19MJCDBCKE@?$AA?2?$AA?2?$AA?$DP?$AA?2?$AA?$AA@ 000000018004bda8     CmdLine.obj
 0002:00000db8       ??_C@_1BC@NAEGMMKI@?$AA?2?$AA?2?$AA?$DP?$AA?2?$AAU?$AAN?$AAC?$AA?2?$AA?$AA@ 000000018004bdb8     CmdLine.obj
 0002:00000dd0       ??_C@_1BA@JFHFEKBP@?$AAt?$AAc?$AAc?$AA?4?$AAe?$AAx?$AAe?$AA?$AA@ 000000018004bdd0     CmdLine.obj
 0002:00000de0       ??_C@_17BFDEJKOF@?$AAt?$AAc?$AAc?$AA?$AA@ 000000018004bde0     CmdLine.obj
 0002:00000de8       ??_C@_19DOGDICKI@?$AA?4?$AAe?$AAx?$AAe?$AA?$AA@ 000000018004bde8     CmdLine.obj
 0002:00000df8       ??_C@_1M@HHBDDMDH@?$AA?$DP?$AA?$CK?$AA?$DM?$AA?$DO?$AA?$HM?$AA?$AA@ 000000018004bdf8     CmdLine.obj
 0002:00000e08       ??_C@_1M@PJCPAACI@?$AA?5?$AA?$KA?$AA?7?$AA?$AN?$AA?6?$AA?$AA@ 000000018004be08     CmdLine.obj
 0002:00000e18       ??_C@_1M@JGKKHEFC@?$AAs?$AAt?$AAa?$AAr?$AAt?$AA?$AA@ 000000018004be18     CmdLine.obj
 0002:00000e28       ??_C@_0BO@KOCOEJCM@Wow64RevertWow64FsRedirection?$AA@ 000000018004be28     CmdLine.obj
 0002:00000e48       ??_C@_0BP@OODKCJPP@Wow64DisableWow64FsRedirection?$AA@ 000000018004be48     CmdLine.obj
 0002:00000e68       ??_C@_1BK@MGMFAEKH@?$AAk?$AAe?$AAr?$AAn?$AAe?$AAl?$AA3?$AA2?$AA?4?$AAd?$AAl?$AAl?$AA?$AA@ 000000018004be68     CmdLine.obj
 0002:00000e88       ??_C@_19CDGLJBOD@?$AA?4?$AAc?$AAo?$AAm?$AA?$AA@ 000000018004be88     CmdLine.obj
 0002:00000e98       ??_C@_1BI@KAPIDPND@?$AAc?$AAo?$AAn?$AAh?$AAo?$AAs?$AAt?$AA?4?$AAe?$AAx?$AAe?$AA?$AA@ 000000018004be98     CmdLine.obj
 0002:00000eb0       ??_C@_1BE@OMGDNGEO@?$AAc?$AAs?$AAr?$AAs?$AAs?$AA?4?$AAe?$AAx?$AAe?$AA?$AA@ 000000018004beb0     CmdLine.obj
 0002:00000ec8       ??_C@_1BK@BNOCAHHB@?$AAC?$AAo?$AAn?$AAE?$AAm?$AAu?$AA6?$AA4?$AA?4?$AAe?$AAx?$AAe?$AA?$AA@ 000000018004bec8     CmdLine.obj
 0002:00000ee8       ??_C@_1BG@PIGCKNCG@?$AAC?$AAo?$AAn?$AAE?$AAm?$AAu?$AA?4?$AAe?$AAx?$AAe?$AA?$AA@ 000000018004bee8     CmdLine.obj
 0002:00000f00       ??_C@_1CI@GKDINFFD@?$AAc?$AAo?$AAn?$AAe?$AAm?$AAu?$AA?9?$AAm?$AAs?$AAy?$AAs?$AA2?$AA?9?$AA6?$AA4?$AA?4?$AAe?$AAx?$AAe?$AA?$AA@ 000000018004bf00     CmdLine.obj
 0002:00000f28       ??_C@_1CI@BKGBONO@?$AAc?$AAo?$AAn?$AAe?$AAm?$AAu?$AA?9?$AAm?$AAs?$AAy?$AAs?$AA2?$AA?9?$AA3?$AA2?$AA?4?$AAe?$AAx?$AAe?$AA?$AA@ 000000018004bf28     CmdLine.obj
 0002:00000f50       ??_C@_1CG@HKNDDCJA@?$AAc?$AAo?$AAn?$AAe?$AAm?$AAu?$AA?9?$AAm?$AAs?$AAy?$AAs?$AA?9?$AA3?$AA2?$AA?4?$AAe?$AAx?$AAe?$AA?$AA@ 000000018004bf50     CmdLine.obj
 0002:00000f78       ??_C@_1CE@FMNIHOKA@?$AAc?$AAo?$AAn?$AAe?$AAm?$AAu?$AA?9?$AAc?$AAy?$AAg?$AA?9?$AA6?$AA4?$AA?4?$AAe?$AAx?$AAe?$AA?$AA@ 000000018004bf78     CmdLine.obj
 0002:00000fa0       ??_C@_1CE@DHEGLFCN@?$AAc?$AAo?$AAn?$AAe?$AAm?$AAu?$AA?9?$AAc?$AAy?$AAg?$AA?9?$AA3?$AA2?$AA?4?$AAe?$AAx?$AAe?$AA?$AA@ 000000018004bfa0     CmdLine.obj
 0002:00000fc8       ??_C@_1BI@FELILGEI@?$AAg?$AAi?$AAt?$AA?9?$AAc?$AAm?$AAd?$AA?4?$AAe?$AAx?$AAe?$AA?$AA@ 000000018004bfc8     CmdLine.obj
 0002:00000fe0       ??_C@_1BK@LMKHKIEA@?$AAg?$AAi?$AAt?$AA?9?$AAb?$AAa?$AAs?$AAh?$AA?4?$AAe?$AAx?$AAe?$AA?$AA@ 000000018004bfe0     CmdLine.obj
 0002:00001000       ??_C@_1BE@GNHPPGCJ@?$AAf?$AAa?$AAr?$AA6?$AA4?$AA?4?$AAe?$AAx?$AAe?$AA?$AA@ 000000018004c000     CmdLine.obj
 0002:00001018       ??_C@_1BA@ICCBDENM@?$AAf?$AAa?$AAr?$AA?4?$AAe?$AAx?$AAe?$AA?$AA@ 000000018004c018     CmdLine.obj
 0002:00001028       ??_C@_1BE@KKPGGEOO@?$AA?5?$AA?$DM?$AA?$DO?$AA?$CI?$AA?$CJ?$AA?$CG?$AA?$HM?$AA?$FO?$AA?$CC?$AA?$AA@ 000000018004c028     CmdLine.obj
 0002:0000103c       ??_C@_13HOIJIPNN@?$AA?5?$AA?$AA@ 000000018004c03c     CmdLine.obj
 0002:00001040       ??_C@_13NEIAEHFG@?$AA?$CC?$AA?$AA@ 000000018004c040     CmdLine.obj
 0002:00001044       ??_C@_15KEGLFFFP@?$AA?$CC?$AA?5?$AA?$AA@ 000000018004c044     CmdLine.obj
 0002:0000104c       ??_C@_13FPGAJAPJ@?$AA?2?$AA?$AA@ 000000018004c04c     CmdLine.obj
 0002:00001050       ??_C@_15NGAHEDKP@?$AA?5?$AA?3?$AA?$AA@ 000000018004c050     CmdLine.obj
 0002:00001058       ??_C@_1O@PICBDAL@?$AAC?$AAo?$AAn?$AAE?$AAm?$AAu?$AA?$AA@ 000000018004c058     Common.obj
 0002:00001068       ??_C@_1BA@LEPJIIOK@?$AAU?$AAn?$AAk?$AAn?$AAo?$AAw?$AAn?$AA?$AA@ 000000018004c068     ConEmuCheck.obj
 0002:00001080       ??_C@_1EM@INHGIPLC@?$AA?$CF?$AAs?$AA?4?$AA?$CF?$AAu?$AA?3?$AA?5?$AAC?$AAr?$AAe?$AAa?$AAt?$AAe?$AAF?$AAi?$AAl?$AAe?$AA?$CI?$AA?$CF?$AAs?$AA?$CJ?$AA?5?$AAf?$AAa?$AAi?$AAl?$AAe?$AAd?$AA?0?$AA?5?$AAc?$AAo@ 000000018004c080     ConEmuCheck.obj
 0002:000010d0       ??_C@_1CO@ELKEEMPJ@?$AAC?$AAo?$AAn?$AAE?$AAm?$AAu?$AAF?$AAi?$AAl?$AAe?$AAM?$AAa?$AAp?$AAp?$AAi?$AAn?$AAg?$AA?4?$AA?$CF?$AA0?$AA8?$AAX?$AA?$AA@ 000000018004c0d0     ConEmuCheck.obj
 0002:00001100       ??_C@_1DA@LCPELGGN@?$AAC?$AAo?$AAn?$AAE?$AAm?$AAu?$AAG?$AAu?$AAi?$AAI?$AAn?$AAf?$AAo?$AAM?$AAa?$AAp?$AAp?$AAi?$AAn?$AAg?$AA?4?$AA?$CF?$AAu?$AA?$AA@ 000000018004c100     ConEmuCheck.obj
 0002:00001130       ??_C@_1M@GJCOMIJN@?$AAF?$AAr?$AAL?$AAi?$AAb?$AA?$AA@ 000000018004c130     ConEmuCheck.obj
 0002:00001140       ??_C@_1M@KJKJNBFD@?$AAL?$AAd?$AAL?$AAi?$AAb?$AA?$AA@ 000000018004c140     ConEmuCheck.obj
 0002:00001150       ??_C@_1BA@OBPMCEAG@?$AAC?$AAh?$AAa?$AAn?$AAg?$AAe?$AAd?$AA?$AA@ 000000018004c150     ConEmuCheck.obj
 0002:00001160       ??_C@_1O@EHPOJOIH@?$AAS?$AAr?$AAL?$AAo?$AAa?$AAd?$AA?$AA@ 000000018004c160     ConEmuCheck.obj
 0002:00001170       ??_C@_1O@PPMFEOGL@?$AAH?$AAk?$AAL?$AAo?$AAa?$AAd?$AA?$AA@ 000000018004c170     ConEmuCheck.obj
 0002:00001180       ??_C@_1O@DEDLEBMG@?$AAI?$AAn?$AAj?$AAe?$AAc?$AAt?$AA?$AA@ 000000018004c180     ConEmuCheck.obj
 0002:00001190       ??_C@_1O@GMCJGMIO@?$AAC?$AAr?$AAe?$AAa?$AAt?$AAe?$AA?$AA@ 000000018004c190     ConEmuCheck.obj
 0002:000011a0       ??_C@_1M@JLDCNMKN@?$AAS?$AAh?$AAe?$AAl?$AAl?$AA?$AA@ 000000018004c1a0     ConEmuCheck.obj
 0002:000011b0       ??_C@_1DC@MJLCOFMA@?$AA?2?$AA?2?$AA?$CF?$AAs?$AA?2?$AAp?$AAi?$AAp?$AAe?$AA?2?$AAC?$AAo?$AAn?$AAE?$AAm?$AAu?$AAG?$AAu?$AAi?$AA?4?$AA?$CF?$AA0?$AA8?$AAX?$AA?$AA@ 000000018004c1b0     ConEmuCheck.obj
 0002:000011e4       ??_C@_13JOFGPIOO@?$AA?4?$AA?$AA@ 000000018004c1e4     ConEmuCheck.obj
 0002:000011e8       ??_C@_1CM@OPJKOFLA@?$AA?2?$AA?2?$AA?$CF?$AAs?$AA?2?$AAp?$AAi?$AAp?$AAe?$AA?2?$AAC?$AAo?$AAn?$AAE?$AAm?$AAu?$AAS?$AAr?$AAv?$AA?$CF?$AAu?$AA?$AA@ 000000018004c1e8     ConEmuCheck.obj
 0002:00001218       ??_C@_1CK@IFINLJPE@?$AA?2?$AA?2?$AA?$CF?$AAs?$AA?2?$AAp?$AAi?$AAp?$AAe?$AA?2?$AAC?$AAo?$AAn?$AAE?$AAm?$AAu?$AAH?$AAk?$AA?$CF?$AAu?$AA?$AA@ 000000018004c218     ConEmuCheck.obj
 0002:00001248       ??_C@_1CC@LMJBOHFL@?$AAW?$AAi?$AAn?$AAe?$AAC?$AAo?$AAn?$AAs?$AAo?$AAl?$AAe?$AAC?$AAl?$AAa?$AAs?$AAs?$AA?$AA@ 000000018004c248     ConEmuCheck.obj
 0002:00001270       ??_C@_1CG@FFFCCLIF@?$AAC?$AAo?$AAn?$AAs?$AAo?$AAl?$AAe?$AAW?$AAi?$AAn?$AAd?$AAo?$AAw?$AAC?$AAl?$AAa?$AAs?$AAs?$AA?$AA@ 000000018004c270     ConEmuCheck.obj
 0002:00001298       ??_C@_0M@DLDCCGNP@MessageBoxW?$AA@ 000000018004c298     ConEmuCheck.obj
 0002:000012a8       ??_C@_1BG@GACMCKCK@?$AAU?$AAs?$AAe?$AAr?$AA3?$AA2?$AA?4?$AAd?$AAl?$AAl?$AA?$AA@ 000000018004c2a8     ConEmuCheck.obj
 0002:000012c0       ??_C@_1FO@BGAPBIGG@?$AAC?$AAa?$AAn?$AA?8?$AAt?$AA?5?$AAm?$AAa?$AAp?$AA?5?$AAc?$AAo?$AAn?$AAs?$AAo?$AAl?$AAe?$AA?5?$AAi?$AAn?$AAf?$AAo?$AA?5?$AA?$CI?$AA?$CF?$AAs?$AA?$CJ?$AA?4?$AA?5?$AAE?$AAr?$AAr@ 000000018004c2c0     ConEmuCheck.obj
 0002:00001320       ??_C@_19EOHDNDII@?$AAR?$AAe?$AAa?$AAd?$AA?$AA@ 000000018004c320     ConEmuCheck.obj
 0002:00001330       ??_C@_1BE@HADLJAO@?$AAR?$AAe?$AAa?$AAd?$AAW?$AAr?$AAi?$AAt?$AAe?$AA?$AA@ 000000018004c330     ConEmuCheck.obj
 0002:00001350       ??_C@_1GM@LGOLGABE@?$AAC?$AAa?$AAn?$AA?8?$AAt?$AA?5?$AA?$CF?$AAs?$AA?5?$AAc?$AAo?$AAn?$AAs?$AAo?$AAl?$AAe?$AA?5?$AAd?$AAa?$AAt?$AAa?$AA?5?$AAf?$AAi?$AAl?$AAe?$AA?5?$AAm?$AAa?$AAp?$AAp?$AAi@ 000000018004c350     ConEmuCheck.obj
 0002:000013c0       ??_C@_19BDAJEHDN@?$AAo?$AAp?$AAe?$AAn?$AA?$AA@ 000000018004c3c0     ConEmuCheck.obj
 0002:000013d0       ??_C@_1O@KBENBEFG@?$AAc?$AAr?$AAe?$AAa?$AAt?$AAe?$AA?$AA@ 000000018004c3d0     ConEmuCheck.obj
 0002:000013e0       ??_C@_1GK@OGACKIKJ@?$AAI?$AAn?$AAt?$AAe?$AAr?$AAn?$AAa?$AAl?$AA?5?$AAe?$AAr?$AAr?$AAo?$AAr?$AA?4?$AA?5?$AAM?$AAa?$AAp?$AAp?$AAi?$AAn?$AAg?$AA?5?$AAf?$AAi?$AAl?$AAe?$AA?5?$AAn?$AAa?$AAm@ 000000018004c3e0     ConEmuCheck.obj
 0002:00001450       ??_C@_1CG@HCDHJIEM@?$AAC?$AAo?$AAn?$AAE?$AAm?$AAu?$AA?2?$AAC?$AAo?$AAn?$AAE?$AAm?$AAu?$AAC?$AA?4?$AAe?$AAx?$AAe?$AA?$AA@ 000000018004c450     ConEmuCheckEx.obj
 0002:00001478       ??_C@_1CK@KBHIPEEC@?$AAC?$AAo?$AAn?$AAE?$AAm?$AAu?$AA?2?$AAC?$AAo?$AAn?$AAE?$AAm?$AAu?$AAC?$AA6?$AA4?$AA?4?$AAe?$AAx?$AAe?$AA?$AA@ 000000018004c478     ConEmuCheckEx.obj
 0002:000014a8       ??_C@_1CA@CNCOCNJD@?$AAS?$AAo?$AAf?$AAt?$AAw?$AAa?$AAr?$AAe?$AA?2?$AAC?$AAo?$AAn?$AAE?$AAm?$AAu?$AA?$AA@ 000000018004c4a8     ConEmuCheckEx.obj
 0002:000014c8       ??_C@_1CC@PDEDDOGK@?$AA?2?$AAP?$AAl?$AAu?$AAg?$AAi?$AAn?$AAs?$AA?2?$AAC?$AAo?$AAn?$AAE?$AAm?$AAu?$AA?2?$AA?$AA@ 000000018004c4c8     ConEmuCheckEx.obj
 0002:000014f0       ??_C@_1CI@PDOPFPLH@?$AAV?$AAi?$AAr?$AAt?$AAu?$AAa?$AAl?$AAC?$AAo?$AAn?$AAs?$AAo?$AAl?$AAe?$AAC?$AAl?$AAa?$AAs?$AAs?$AA?$AA@ 000000018004c4f0     ConEmuCheckEx.obj
 0002:00001518       ??_C@_0BA@LIPPODFA@ShellExecuteExW?$AA@ 000000018004c518     ConEmuInjects.obj
 0002:00001528       ??_C@_1BI@BNFKGMFK@?$AAs?$AAh?$AAe?$AAl?$AAl?$AA3?$AA2?$AA?4?$AAd?$AAl?$AAl?$AA?$AA@ 000000018004c528     ConEmuInjects.obj
 0002:00001540       ??_C@_0BO@HCPBIAL@GetNumberOfConsoleInputEvents?$AA@ 000000018004c540     ConEmuInjects.obj
 0002:00001560       ??_C@_0BE@OGCEDBDL@WriteConsoleOutputW?$AA@ 000000018004c560     ConEmuInjects.obj
 0002:00001578       ??_C@_0BE@PKLMIEOM@WriteConsoleOutputA?$AA@ 000000018004c578     ConEmuInjects.obj
 0002:00001590       ??_C@_0BC@IBCKMAJE@ReadConsoleInputW?$AA@ 000000018004c590     ConEmuInjects.obj
 0002:000015a8       ??_C@_0BC@JNLCHFED@ReadConsoleInputA?$AA@ 000000018004c5a8     ConEmuInjects.obj
 0002:000015c0       ??_C@_0BC@EEHCEAN@PeekConsoleInputW?$AA@ 000000018004c5c0     ConEmuInjects.obj
 0002:000015d8       ??_C@_0BC@BINPJBNK@PeekConsoleInputA?$AA@ 000000018004c5d8     ConEmuInjects.obj
 0002:000015f0       ??_C@_0N@MOGGHBHN@AllocConsole?$AA@ 000000018004c5f0     ConEmuInjects.obj
 0002:00001600       ??_C@_0M@LAGCIMKJ@FreeConsole?$AA@ 000000018004c600     ConEmuInjects.obj
 0002:00001610       ??_C@_0BE@FDMAKOMB@SetHookCallbacksExt?$AA@ 000000018004c610     ConEmuInjects.obj
 0002:00001628       ??_C@_1CM@NELFNPDE@?$AAE?$AAx?$AAt?$AAe?$AAn?$AAd?$AAe?$AAd?$AAC?$AAo?$AAn?$AAs?$AAo?$AAl?$AAe?$AA6?$AA4?$AA?4?$AAd?$AAl?$AAl?$AA?$AA@ 000000018004c628     ConEmuInjects.obj
 0002:00001660       ??_C@_1FG@GKBMDCCM@?$AAC?$AAo?$AAn?$AAE?$AAm?$AAu?$AAH?$AAk?$AA?5?$AAi?$AAs?$AA?5?$AAb?$AAr?$AAo?$AAk?$AAe?$AAn?$AA?0?$AA?5?$AAe?$AAx?$AAp?$AAo?$AAr?$AAt?$AA?5?$AA?$CI?$AA?$CF?$AAs?$AA?$CJ?$AA?5@ 000000018004c660     ConEmuInjects.obj
 0002:000016b8       ??_C@_1BO@OGOEDKED@?$AAS?$AAe?$AAt?$AAF?$AAa?$AAr?$AAH?$AAo?$AAo?$AAk?$AAM?$AAo?$AAd?$AAe?$AA?$AA@ 000000018004c6b8     ConEmuInjects.obj
 0002:000016d8       ??_C@_1CO@HHOFMBDD@?$AAS?$AAe?$AAt?$AAL?$AAo?$AAa?$AAd?$AAL?$AAi?$AAb?$AAr?$AAa?$AAr?$AAy?$AAC?$AAa?$AAl?$AAl?$AAb?$AAa?$AAc?$AAk?$AA?$AA@ 000000018004c6d8     ConEmuInjects.obj
 0002:00001708       ??_C@_1CC@JNEFFKJH@?$AAS?$AAe?$AAt?$AAH?$AAo?$AAo?$AAk?$AAC?$AAa?$AAl?$AAl?$AAb?$AAa?$AAc?$AAk?$AAs?$AA?$AA@ 000000018004c708     ConEmuInjects.obj
 0002:00001730       ??_C@_1CM@DEPCLAGE@?$AAC?$AAo?$AAn?$AAE?$AAm?$AAu?$AA?5?$AAp?$AAl?$AAu?$AAg?$AAi?$AAn?$AA?0?$AA?5?$AAP?$AAI?$AAD?$AA?$DN?$AA?$CF?$AAu?$AA?$AA@ 000000018004c730     ConEmuInjects.obj
 0002:00001760       ??_C@_0P@JOHNNMGG@SetFarHookMode?$AA@ 000000018004c760     ConEmuInjects.obj
 0002:00001770       ??_C@_0BH@HLKHEPME@SetLoadLibraryCallback?$AA@ 000000018004c770     ConEmuInjects.obj
 0002:00001788       ??_C@_0BB@OPFPFOCM@SetHookCallbacks?$AA@ 000000018004c788     ConEmuInjects.obj
 0002:000017a0       ??_C@_1BM@LHLFCECN@?$AAC?$AAo?$AAn?$AAE?$AAm?$AAu?$AA?5?$AAp?$AAl?$AAu?$AAg?$AAi?$AAn?$AA?$AA@ 000000018004c7a0     ConEmuInjects.obj
 0002:000017c0       ??_C@_1IM@IDJBHJMA@?$AAC?$AAo?$AAn?$AAE?$AAm?$AAu?$AAH?$AAk?$AA?5?$AAw?$AAa?$AAs?$AA?5?$AAn?$AAo?$AAt?$AA?5?$AAl?$AAo?$AAa?$AAd?$AAe?$AAd?$AA?0?$AA?5?$AAb?$AAu?$AAt?$AA?5?$AAC?$AAo?$AAn@ 000000018004c7c0     ConEmuInjects.obj
 0002:00001850       ??_C@_1BO@MLCHEAGG@?$AAC?$AAo?$AAn?$AAE?$AAm?$AAu?$AAH?$AAk?$AA6?$AA4?$AA?4?$AAd?$AAl?$AAl?$AA?$AA@ 000000018004c850     ConEmuInjects.obj
 0002:00001870       ??_C@_0BF@NLPJFAHE@ProcessSynchroEventW?$AA@ 000000018004c870     ConEmuPlugin.obj
 0002:00001888       ??_C@_0BE@OMPAFBFG@ProcessViewerEventW?$AA@ 000000018004c888     ConEmuPlugin.obj
 0002:000018a0       ??_C@_0BE@PJBDJPG@ProcessEditorEventW?$AA@ 000000018004c8a0     ConEmuPlugin.obj
 0002:000018b8       ??_C@_08BCACMCCB@ExitFARW?$AA@ 000000018004c8b8     ConEmuPlugin.obj
 0002:000018c8       ??_C@_1BO@LDDOEOAL@?$AAE?$AAx?$AAi?$AAt?$AAF?$AAA?$AAR?$AA?5?$AA?9?$AA?5?$AAd?$AAo?$AAn?$AAe?$AA?$AA@ 000000018004c8c8     ConEmuPlugin.obj
 0002:000018e8       ??_C@_1BA@JOPOJEME@?$AAE?$AAx?$AAi?$AAt?$AAF?$AAA?$AAR?$AA?$AA@ 000000018004c8e8     ConEmuPlugin.obj
 0002:000018f8       ??_C@_1CA@IFHGCKFI@?$AAE?$AAx?$AAi?$AAt?$AAF?$AAA?$AAR?$AAW?$AA?5?$AA?9?$AA?5?$AAd?$AAo?$AAn?$AAe?$AA?$AA@ 000000018004c8f8     ConEmuPlugin.obj
 0002:00001918       ??_C@_1BC@OCOOMPC@?$AAE?$AAx?$AAi?$AAt?$AAF?$AAA?$AAR?$AAW?$AA?$AA@ 000000018004c918     ConEmuPlugin.obj
 0002:00001930       ??_C@_1CC@LCFMKIJA@?$AAE?$AAx?$AAi?$AAt?$AAF?$AAA?$AAR?$AAW?$AA3?$AA?5?$AA?9?$AA?5?$AAd?$AAo?$AAn?$AAe?$AA?$AA@ 000000018004c930     ConEmuPlugin.obj
 0002:00001958       ??_C@_1BE@GNKIHEAN@?$AAE?$AAx?$AAi?$AAt?$AAF?$AAA?$AAR?$AAW?$AA3?$AA?$AA@ 000000018004c958     ConEmuPlugin.obj
 0002:00001970       ??_7CPluginW1900@@6B@      000000018004c970     ConEmuPlugin1900.obj
 0002:00001a98       ??_C@_1CI@OHGGDAJD@?$AAE?$AAx?$AAi?$AAt?$AAF?$AAA?$AAR?$AAW?$AA1?$AA9?$AA0?$AA0?$AA?5?$AA?9?$AA?5?$AAd?$AAo?$AAn?$AAe?$AA?$AA@ 000000018004ca98     ConEmuPlugin1900.obj
 0002:00001ac0       ??_C@_1BK@BCDKFLCP@?$AAE?$AAx?$AAi?$AAt?$AAF?$AAA?$AAR?$AAW?$AA1?$AA9?$AA0?$AA0?$AA?$AA@ 000000018004cac0     ConEmuPlugin1900.obj
 0002:00001ae0       ??_C@_0BF@MFOIGNA@BackgroundMacroError?$AA@ 000000018004cae0     ConEmuPlugin1900.obj
 0002:00001b00       ??_C@_1OK@GOJADEAC@?$AAE?$AAr?$AAr?$AAo?$AAr?$AA?5?$AAi?$AAn?$AA?5?$AAM?$AAa?$AAc?$AAr?$AAo?$AA?4?$AA?5?$AAF?$AAa?$AAr?$AA?5?$AA?$CF?$AAu?$AA?4?$AA?$CF?$AAu?$AA?5?$AAb?$AAu?$AAi?$AAl?$AAd?$AA?5@ 000000018004cb00     ConEmuPlugin1900.obj
 0002:00001bf0       ??_C@_1BCK@MAAKAKN@?$AAE?$AAr?$AAr?$AAo?$AAr?$AA?5?$AAi?$AAn?$AA?5?$AAM?$AAa?$AAc?$AAr?$AAo?$AA?4?$AA?5?$AAF?$AAa?$AAr?$AA?5?$AA?$CF?$AAu?$AA?4?$AA?$CF?$AAu?$AA?5?$AAb?$AAu?$AAi?$AAl?$AAd?$AA?5@ 000000018004cbf0     ConEmuPlugin1900.obj
 0002:00001d20       ??_C@_1BC@OLJIBFPH@?$AA?0?$AA?5?$AAH?$AAi?$AAn?$AAt?$AA?3?$AA?5?$AA?$AA@ 000000018004cd20     ConEmuPlugin1900.obj
 0002:00001d38       ??_C@_19JPEEHMMI@?$AA?5?$AA?7?$AA?$AN?$AA?6?$AA?$AA@ 000000018004cd38     ConEmuPlugin1900.obj
 0002:00001d48       ??_C@_1O@BBPMHPCD@?$AAp?$AAr?$AAi?$AAn?$AAt?$AA?$CI?$AA?$AA@ 000000018004cd48     ConEmuPlugin1900.obj
 0002:00001d58       ??_C@_1M@OKCNCBMD@?$AA$?$AAT?$AAE?$AAX?$AAT?$AA?$AA@ 000000018004cd58     ConEmuPlugin1900.obj
 0002:00001d68       ??_C@_1BC@IALIJCAM@?$AAS?$AAo?$AAr?$AAt?$AAM?$AAo?$AAd?$AAe?$AA?$AA@ 000000018004cd68     ConEmuPlugin1900.obj
 0002:00001d80       ??_C@_1BG@MHMKAABO@?$AAS?$AAt?$AAa?$AAt?$AAu?$AAs?$AAL?$AAi?$AAn?$AAe?$AA?$AA@ 000000018004cd80     ConEmuPlugin1900.obj
 0002:00001d98       ??_C@_1BK@MBFACEDG@?$AAC?$AAo?$AAl?$AAu?$AAm?$AAn?$AAT?$AAi?$AAt?$AAl?$AAe?$AAs?$AA?$AA@ 000000018004cd98     ConEmuPlugin1900.obj
 0002:00001db8       ??_C@_1O@PDEOIOBG@?$AAK?$AAe?$AAy?$AAB?$AAa?$AAr?$AA?$AA@ 000000018004cdb8     ConEmuPlugin1900.obj
 0002:00001dc8       ??_C@_1BI@EKLHEFDO@?$AAS?$AAh?$AAo?$AAw?$AAM?$AAe?$AAn?$AAu?$AAB?$AAa?$AAr?$AA?$AA@ 000000018004cdc8     ConEmuPlugin1900.obj
 0002:00001de0       ??_C@_1BG@LKGDBHML@?$AAW?$AAT?$AAY?$AAP?$AAE?$AA_?$AAH?$AAE?$AAL?$AAP?$AA?$AA@ 000000018004cde0     ConEmuPlugin1900.obj
 0002:00001df8       ??_C@_1BI@IHGDMIGH@?$AAW?$AAT?$AAY?$AAP?$AAE?$AA_?$AAV?$AAM?$AAE?$AAN?$AAU?$AA?$AA@ 000000018004cdf8     ConEmuPlugin1900.obj
 0002:00001e10       ??_C@_1BK@NEJJBFEB@?$AAW?$AAT?$AAY?$AAP?$AAE?$AA_?$AAD?$AAI?$AAA?$AAL?$AAO?$AAG?$AA?$AA@ 000000018004ce10     ConEmuPlugin1900.obj
 0002:00001e30       ??_C@_1BK@MHHDIBO@?$AAW?$AAT?$AAY?$AAP?$AAE?$AA_?$AAE?$AAD?$AAI?$AAT?$AAO?$AAR?$AA?$AA@ 000000018004ce30     ConEmuPlugin1900.obj
 0002:00001e50       ??_C@_1BK@LNCDOEEM@?$AAW?$AAT?$AAY?$AAP?$AAE?$AA_?$AAV?$AAI?$AAE?$AAW?$AAE?$AAR?$AA?$AA@ 000000018004ce50     ConEmuPlugin1900.obj
 0002:00001e70       ??_C@_1BK@BKCACCAI@?$AAW?$AAT?$AAY?$AAP?$AAE?$AA_?$AAP?$AAA?$AAN?$AAE?$AAL?$AAS?$AA?$AA@ 000000018004ce70     ConEmuPlugin1900.obj
 0002:00001e90       ??_C@_1BO@HNJMHBAE@?$AAC?$AAo?$AAn?$AAE?$AAm?$AAu?$AAG?$AAu?$AAi?$AAM?$AAa?$AAc?$AAr?$AAo?$AA?$AA@ 000000018004ce90     ConEmuPlugin1900.obj
 0002:00001eb0       ??_C@_1CE@PEOBLGJK@?$AAC?$AAo?$AAn?$AAE?$AAm?$AAu?$AAM?$AAa?$AAc?$AAr?$AAo?$AAR?$AAe?$AAs?$AAu?$AAl?$AAt?$AA?$AA@ 000000018004ceb0     ConEmuPlugin1900.obj
 0002:00001ed8       ??_C@_1DE@DJEAMLPH@?$AAC?$AAo?$AAn?$AAE?$AAm?$AAu?$AA?4?$AAM?$AAa?$AAx?$AAi?$AAm?$AAu?$AAs?$AA5?$AA?$EA?$AAg?$AAm?$AAa?$AAi?$AAl?$AA?4?$AAc?$AAo?$AAm?$AA?$AA@ 000000018004ced8     ConEmuPlugin2800.obj
 0002:00001f10       ??_C@_1DO@JIOAOHCJ@?$AAC?$AAo?$AAn?$AAE?$AAm?$AAu?$AA?5?$AAs?$AAu?$AAp?$AAp?$AAo?$AAr?$AAt?$AA?5?$AAf?$AAo?$AAr?$AA?5?$AAF?$AAa?$AAr?$AA?5?$AAM?$AAa?$AAn?$AAa?$AAg?$AAe?$AAr?$AA?$AA@ 000000018004cf10     ConEmuPlugin2800.obj
 0002:00001f50       ??_7CPluginW2800@@6B@      000000018004cf50     ConEmuPlugin2800.obj
 0002:00002078       ??_C@_17IOMHDNEC@?$AAf?$AAa?$AAr?$AA?$AA@ 000000018004d078     ConEmuPlugin2800.obj
 0002:00002080       ??_C@_1CI@KIFAPNHL@?$AAE?$AAx?$AAi?$AAt?$AAF?$AAA?$AAR?$AAW?$AA2?$AA8?$AA0?$AA0?$AA?5?$AA?9?$AA?5?$AAd?$AAo?$AAn?$AAe?$AA?$AA@ 000000018004d080     ConEmuPlugin2800.obj
 0002:000020a8       ??_C@_1BK@DFKHOALC@?$AAE?$AAx?$AAi?$AAt?$AAF?$AAA?$AAR?$AAW?$AA2?$AA8?$AA0?$AA0?$AA?$AA@ 000000018004d0a8     ConEmuPlugin2800.obj
 0002:000020d0       ??_C@_1OK@MGLNOED@?$AAE?$AAr?$AAr?$AAo?$AAr?$AA?5?$AAi?$AAn?$AA?5?$AAM?$AAa?$AAc?$AAr?$AAo?$AA?4?$AA?5?$AAF?$AAa?$AAr?$AA?5?$AA?$CF?$AAu?$AA?4?$AA?$CF?$AAu?$AA?5?$AAb?$AAu?$AAi?$AAl?$AAd?$AA?5@ 000000018004d0d0     ConEmuPlugin2800.obj
 0002:000021c0       ??_C@_1BCK@KGGLGNDM@?$AAE?$AAr?$AAr?$AAo?$AAr?$AA?5?$AAi?$AAn?$AA?5?$AAM?$AAa?$AAc?$AAr?$AAo?$AA?4?$AA?5?$AAF?$AAa?$AAr?$AA?5?$AA?$CF?$AAu?$AA?4?$AA?$CF?$AAu?$AA?5?$AAb?$AAu?$AAi?$AAl?$AAd?$AA?5@ 000000018004d1c0     ConEmuPlugin2800.obj
 0002:000022f0       ??_7CPluginW995@@6B@       000000018004d2f0     ConEmuPlugin995.obj
 0002:00002418       ??_C@_1CG@PKCNLDOL@?$AAE?$AAx?$AAi?$AAt?$AAF?$AAA?$AAR?$AAW?$AA9?$AA9?$AA5?$AA?5?$AA?9?$AA?5?$AAd?$AAo?$AAn?$AAe?$AA?$AA@ 000000018004d418     ConEmuPlugin995.obj
 0002:00002440       ??_C@_1BI@IBAPHBGL@?$AAE?$AAx?$AAi?$AAt?$AAF?$AAA?$AAR?$AAW?$AA9?$AA9?$AA5?$AA?$AA@ 000000018004d440     ConEmuPlugin995.obj
 0002:00002460       ??_7CPluginAnsi@@6B@       000000018004d460     ConEmuPluginA.obj
 0002:00002588       ??_C@_1O@BKFLFFPA@?$AAP?$AAl?$AAu?$AAg?$AAi?$AAn?$AA?$AA@ 000000018004d588     ConEmuPluginA.obj
 0002:00002598       ??_C@_06HGFNEGAJ@ConEmu?$AA@ 000000018004d598     ConEmuPluginA.obj
 0002:0000259f       ??_C@_00CNPNBAHC@?$AA@     000000018004d59f     ConEmuPluginA.obj
 0002:000025a0       ??_C@_0P@DFGMHJNG@ConEmuGuiMacro?$AA@ 000000018004d5a0     ConEmuPluginA.obj
 0002:000025b0       ??_7CPluginBase@@6B@       000000018004d5b0     ConEmuPluginBase.obj
 0002:000026d8       ??_C@_1BO@ONHPLONP@?$AAC?$AAo?$AAn?$AAE?$AAm?$AAu?$AA?4?$AAx?$AA6?$AA4?$AA?4?$AAd?$AAl?$AAl?$AA?$AA@ 000000018004d6d8     ConEmuPluginBase.obj
 0002:000026f8       ??_C@_1DE@JGMOFHFB@?$AAD?$AAL?$AAL?$AA_?$AAP?$AAR?$AAO?$AAC?$AAE?$AAS?$AAS?$AA_?$AAD?$AAE?$AAT?$AAA?$AAC?$AAH?$AA?5?$AA?9?$AA?5?$AAd?$AAo?$AAn?$AAe?$AA?$AA@ 000000018004d6f8     ConEmuPluginBase.obj
 0002:00002730       ??_C@_1IA@EGLJCBKE@?$AAS?$AAy?$AAn?$AAc?$AAh?$AAo?$AA?5?$AAe?$AAv?$AAe?$AAn?$AAt?$AAs?$AA?5?$AAa?$AAr?$AAe?$AA?5?$AAp?$AAe?$AAn?$AAd?$AAi?$AAn?$AAg?$AA?$CB?$AA?6?$AAF?$AAa?$AAr?$AA?5?$AAm@ 000000018004d730     ConEmuPluginBase.obj
 0002:000027b0       ??_C@_1CG@KPFIDADG@?$AAD?$AAL?$AAL?$AA_?$AAP?$AAR?$AAO?$AAC?$AAE?$AAS?$AAS?$AA_?$AAD?$AAE?$AAT?$AAA?$AAC?$AAH?$AA?$AA@ 000000018004d7b0     ConEmuPluginBase.obj
 0002:000027e0       ??_C@_1PO@CKPDODMD@?$AAS?$AAe?$AAv?$AAe?$AAr?$AAa?$AAl?$AA?5?$AAi?$AAn?$AAs?$AAt?$AAa?$AAn?$AAc?$AAe?$AAs?$AA?5?$AAo?$AAf?$AA?5?$AAC?$AAo?$AAn?$AAE?$AAm?$AAu?$AA?5?$AAp?$AAl?$AAu?$AAg@ 000000018004d7e0     ConEmuPluginBase.obj
 0002:000028e0       ??_C@_13LBAGMAIH@?$AA?6?$AA?$AA@ 000000018004d8e0     ConEmuPluginBase.obj
 0002:000028e8       ??_C@_1BG@NBIHKCLP@?$AAC?$AAo?$AAn?$AAE?$AAm?$AAu?$AA?4?$AAd?$AAl?$AAl?$AA?$AA@ 000000018004d8e8     ConEmuPluginBase.obj
 0002:00002900       ??_C@_1FG@LNADFPCE@?$AAL?$AAo?$AAa?$AAd?$AAF?$AAa?$AAr?$AAV?$AAe?$AAr?$AAs?$AAi?$AAo?$AAn?$AA?4?$AAG?$AAe?$AAt?$AAM?$AAo?$AAd?$AAu?$AAl?$AAe?$AAF?$AAi?$AAl?$AAe?$AAN?$AAa?$AAm?$AAe@ 000000018004d900     ConEmuPluginBase.obj
 0002:00002958       ??_C@_1CA@GGFPMHLH@?$AA?6?$AAE?$AAr?$AAr?$AAC?$AAo?$AAd?$AAe?$AA?$DN?$AA0?$AAx?$AA?$CF?$AA0?$AA8?$AAX?$AA?$AA@ 000000018004d958     ConEmuPluginBase.obj
 0002:00002980       ??_C@_1EG@IINOBDEG@?$AAI?$AAn?$AAv?$AAa?$AAl?$AAi?$AAd?$AA?5?$AAa?$AAs?$AAM?$AAo?$AAd?$AAu?$AAl?$AAe?$AAP?$AAa?$AAt?$AAh?$AA?5?$AAw?$AAa?$AAs?$AA?5?$AAs?$AAp?$AAe?$AAc?$AAi?$AAf?$AAi@ 000000018004d980     ConEmuPluginBase.obj
 0002:000029d0       ??_C@_1GC@CPPHDKJK@?$AAL?$AAo?$AAa?$AAd?$AAA?$AAp?$AAp?$AAV?$AAe?$AAr?$AAs?$AAi?$AAo?$AAn?$AA?4?$AAG?$AAe?$AAt?$AAF?$AAi?$AAl?$AAe?$AAV?$AAe?$AAr?$AAs?$AAi?$AAo?$AAn?$AAI?$AAn?$AAf@ 000000018004d9d0     ConEmuPluginBase.obj
 0002:00002a40       ??_C@_1GC@BINFLBDC@?$AAL?$AAo?$AAa?$AAd?$AAA?$AAp?$AAp?$AAV?$AAe?$AAr?$AAs?$AAi?$AAo?$AAn?$AA?5?$AAf?$AAa?$AAi?$AAl?$AAe?$AAd?$AA?$CB?$AA?5?$AAC?$AAa?$AAn?$AA?8?$AAt?$AA?5?$AAa?$AAl?$AAl@ 000000018004da40     ConEmuPluginBase.obj
 0002:00002ab0       ??_C@_1FK@HILEEFML@?$AAL?$AAo?$AAa?$AAd?$AAA?$AAp?$AAp?$AAV?$AAe?$AAr?$AAs?$AAi?$AAo?$AAn?$AA?4?$AAG?$AAe?$AAt?$AAF?$AAi?$AAl?$AAe?$AAV?$AAe?$AAr?$AAs?$AAi?$AAo?$AAn?$AAI?$AAn?$AAf@ 000000018004dab0     ConEmuPluginBase.obj
 0002:00002b10       ??_C@_1FG@DPPGENBC@?$AAL?$AAo?$AAa?$AAd?$AAA?$AAp?$AAp?$AAV?$AAe?$AAr?$AAs?$AAi?$AAo?$AAn?$AA?4?$AAV?$AAe?$AAr?$AAQ?$AAu?$AAe?$AAr?$AAy?$AAV?$AAa?$AAl?$AAu?$AAe?$AA?$CI?$AA?$CC?$AA?2?$AA?$CC@ 000000018004db10     ConEmuPluginBase.obj
 0002:00002b70       ??_C@_1FI@CBKBKFFI@?$AAC?$AAo?$AAn?$AAE?$AAm?$AAu?$AA?5?$AAp?$AAl?$AAu?$AAg?$AAi?$AAn?$AA?5?$AA?$CF?$AA0?$AA2?$AAu?$AA?$CF?$AA0?$AA2?$AAu?$AA?$CF?$AA0?$AA2?$AAu?$AA?$CF?$AAs?$AA?$CF?$AAs?$AA?$FL?$AA?$CF@ 000000018004db70     ConEmuPluginBase.obj
 0002:00002bc8       ??_C@_13IMODFHAA@?$AA?9?$AA?$AA@ 000000018004dbc8     ConEmuPluginBase.obj
 0002:00002bd0       ??_C@_1BG@DILNIJHK@?$AA?$DM?$AAM?$AAs?$AAg?$AAI?$AAD?$AA?$DN?$AA?$CF?$AAi?$AA?$DO?$AA?$AA@ 000000018004dbd0     ConEmuPluginBase.obj
 0002:00002be8       ??_C@_1BA@CMKDJLHG@?$AA?$HN?$AA?5?$AA?9?$AA?5?$AAF?$AAa?$AAr?$AA?$AA@ 000000018004dbe8     ConEmuPluginBase.obj
 0002:00002c00       ??_C@_1LO@GJMEBJHL@?$AAP?$AAl?$AAu?$AAg?$AAi?$AAn?$AA?4?$AAC?$AAa?$AAl?$AAl?$AA?$CI?$AA?$CC?$AA?$CF?$AAs?$AA?$CC?$AA?0?$AA?$CF?$AAi?$AA?0?$AAA?$AAP?$AAa?$AAn?$AAe?$AAl?$AA?4?$AAP?$AAl?$AAu?$AAg?$AAi@ 000000018004dc00     ConEmuPluginBase.obj
 0002:00002cc0       ??_C@_1BBO@FBOKPEBF@?$AA$?$AAi?$AAf?$AA?5?$AA?$CI?$AAA?$AAP?$AAa?$AAn?$AAe?$AAl?$AA?4?$AAP?$AAl?$AAu?$AAg?$AAi?$AAn?$AA?$CJ?$AA?5?$AA?$CF?$AA?$CF?$AAA?$AA?$DN?$AA?$CC?$AA?$CC?$AA?$DL?$AA?5?$AA$?$AAe?$AAl?$AAs@ 000000018004dcc0     ConEmuPluginBase.obj
 0002:00002de0       ??_C@_1EK@LJEKIKEG@?$AA4?$AAb?$AA6?$AA7?$AA5?$AAd?$AA8?$AA0?$AA?9?$AA1?$AAd?$AA4?$AAa?$AA?9?$AA4?$AAe?$AAa?$AA9?$AA?9?$AA8?$AA4?$AA3?$AA6?$AA?9?$AAf?$AAd?$AAc?$AA2?$AA3?$AAf?$AA2?$AAf@ 000000018004dde0     ConEmuPluginBase.obj
 0002:00002e30       ??_C@_1PO@DJAPICLP@?$AA$?$AAi?$AAf?$AA?5?$AA?$CI?$AA?$CB?$AAE?$AAd?$AAi?$AAt?$AAo?$AAr?$AA?5?$AA?$CG?$AA?$CG?$AA?5?$AA?$CB?$AAV?$AAi?$AAe?$AAw?$AAe?$AAr?$AA?$CJ?$AA?5?$AA$?$AAi?$AAf?$AA?5?$AA?$CI?$AA?$CB?$AAA@ 000000018004de30     ConEmuPluginBase.obj
 0002:00002f30       ??_C@_1BK@NEALEMPH@?$AA?9?$AAn?$AAe?$AAw?$AA_?$AAc?$AAo?$AAn?$AAs?$AAo?$AAl?$AAe?$AA?$AA@ 000000018004df30     ConEmuPluginBase.obj
 0002:00002f50       ??_C@_17BJPFHBEJ@?$AAC?$AA?3?$AA?2?$AA?$AA@ 000000018004df50     ConEmuPluginBase.obj
 0002:00002f58       ??_C@_1CM@MHCEHIEP@?$AAS?$AAt?$AAa?$AAr?$AAt?$AA?5?$AAc?$AAo?$AAn?$AAs?$AAo?$AAl?$AAe?$AA?5?$AAp?$AAr?$AAo?$AAg?$AAr?$AAa?$AAm?$AA?$AA@ 000000018004df58     ConEmuPluginBase.obj
 0002:00002f88       ??_C@_1CK@KEKIDABI@?$AAC?$AAo?$AAn?$AAE?$AAm?$AAu?$AA?4?$AAC?$AAr?$AAe?$AAa?$AAt?$AAe?$AAP?$AAr?$AAo?$AAc?$AAe?$AAs?$AAs?$AA?$AA@ 000000018004df88     ConEmuPluginBase.obj
 0002:00002fb8       ??_C@_19KHBBCLDH@?$AAr?$AAu?$AAn?$AA?3?$AA?$AA@ 000000018004dfb8     ConEmuPluginBase.obj
 0002:00002fd0       ??_C@_1BPK@LEDPNENO@?$AAC?$AAo?$AAn?$AAE?$AAm?$AAu?$AA?5?$AAC?$AAo?$AAn?$AAs?$AAo?$AAl?$AAe?$AA?5?$AAi?$AAn?$AAf?$AAo?$AAr?$AAm?$AAa?$AAt?$AAi?$AAo?$AAn?$AA?6?$AAT?$AAe?$AAr?$AAm?$AAi@ 000000018004dfd0     ConEmuPluginBase.obj
 0002:000031cc       ??_C@_15BICKNCBF@?$AAN?$AAo?$AA?$AA@ 000000018004e1cc     ConEmuPluginBase.obj
 0002:000031d8       ??_C@_17PBAHFJOA@?$AAY?$AAe?$AAs?$AA?$AA@ 000000018004e1d8     ConEmuPluginBase.obj
 0002:000031e0       ??_C@_13IABLFADB@?$AAH?$AA?$AA@ 000000018004e1e0     ConEmuPluginBase.obj
 0002:000031e4       ??_C@_13DANNHAJN@?$AAV?$AA?$AA@ 000000018004e1e4     ConEmuPluginBase.obj
 0002:000031f0       ??_C@_1FC@DNELIAOB@?$AA?$CC?$AA?$CF?$AAs?$AA?$CC?$AA?5?$AA?1?$AAD?$AAE?$AAB?$AAU?$AAG?$AAP?$AAI?$AAD?$AA?$DN?$AA?$CF?$AAi?$AA?5?$AA?1?$AAB?$AAW?$AA?$DN?$AA?$CF?$AAi?$AA?5?$AA?1?$AAB?$AAH?$AA?$DN?$AA?$CF?$AAi?$AA?5@ 000000018004e1f0     ConEmuPluginBase.obj
 0002:00003250       ??_C@_1HI@LCPDMAIJ@?$AA?$CC?$AA?$CF?$AAs?$AA?$CC?$AA?5?$AA?1?$AAA?$AAT?$AAT?$AAA?$AAC?$AAH?$AA?5?$AA?1?$AAR?$AAO?$AAO?$AAT?$AA?5?$AA?$CC?$AA?$CF?$AAs?$AA?$CC?$AA?5?$AA?1?$AAD?$AAE?$AAB?$AAU?$AAG?$AAP?$AAI@ 000000018004e250     ConEmuPluginBase.obj
 0002:000032c8       ??_C@_1CI@DIEJPMOK@?$AA?2?$AAC?$AAo?$AAn?$AAE?$AAm?$AAu?$AA?2?$AAC?$AAo?$AAn?$AAE?$AAm?$AAu?$AAC?$AA?4?$AAe?$AAx?$AAe?$AA?$AA@ 000000018004e2c8     ConEmuPluginBase.obj
 0002:000032f0       ??_C@_1BK@PCAIPEAH@?$AA?2?$AAC?$AAo?$AAn?$AAE?$AAm?$AAu?$AAC?$AA?4?$AAe?$AAx?$AAe?$AA?$AA@ 000000018004e2f0     ConEmuPluginBase.obj
 0002:00003310       ??_C@_1BM@MGPNCPCE@?$AAC?$AAo?$AAn?$AAE?$AAm?$AAu?$AAB?$AAa?$AAs?$AAe?$AAD?$AAi?$AAr?$AA?$AA@ 000000018004e310     ConEmuPluginBase.obj
 0002:00003330       ??_C@_0BD@DHBGKFD@RequestLocalServer?$AA@ 000000018004e330     ConEmuPluginBase.obj
 0002:00003348       ??_C@_1CI@EIEAGHGL@?$AAC?$AAo?$AAn?$AAE?$AAm?$AAu?$AAS?$AAr?$AAv?$AAS?$AAt?$AAa?$AAr?$AAt?$AAe?$AAd?$AA?4?$AA?$CF?$AAu?$AA?$AA@ 000000018004e348     ConEmuPluginBase.obj
 0002:00003370       ??_C@_1BC@ENBPIJOP@?$AA?5?$AA?1?$AAG?$AAI?$AAD?$AA?$DN?$AA?$CF?$AAi?$AA?$AA@ 000000018004e370     ConEmuPluginBase.obj
 0002:00003388       ??_C@_1CK@NAOALPKN@?$AA?$CC?$AA?5?$AA?1?$AAA?$AAT?$AAT?$AAA?$AAC?$AAH?$AA?5?$AA?1?$AAF?$AAA?$AAR?$AAP?$AAI?$AAD?$AA?$DN?$AA?$CF?$AAi?$AA?$AA@ 000000018004e388     ConEmuPluginBase.obj
 0002:000033b8       ??_C@_1CA@CIILNAEN@?$AA?2?$AAC?$AAo?$AAn?$AAE?$AAm?$AAu?$AAH?$AAk?$AA6?$AA4?$AA?4?$AAd?$AAl?$AAl?$AA?$AA@ 000000018004e3b8     ConEmuPluginBase.obj
 0002:000033d8       ??_C@_19LKKOIHJI@?$AA?4?$AAt?$AAm?$AAp?$AA?$AA@ 000000018004e3d8     ConEmuPluginBase.obj
 0002:000033e8       ??_C@_17LCEPOKH@?$AAC?$AAE?$AAM?$AA?$AA@ 000000018004e3e8     ConEmuPluginBase.obj
 0002:000033f0       ??_C@_1BFI@CAKBMDAF@?$AAW?$AAr?$AAo?$AAn?$AAg?$AA?5?$AAp?$AAl?$AAu?$AAg?$AAi?$AAn?$AA?5?$AAv?$AAe?$AAr?$AAs?$AAi?$AAo?$AAn?$AA?5?$AAw?$AAa?$AAs?$AA?5?$AAl?$AAo?$AAa?$AAd?$AAe?$AAd?$AA?5@ 000000018004e3f0     ConEmuPluginBase.obj
 0002:00003550       ??_C@_1EA@BFFHMENH@?$AAC?$AAo?$AAn?$AAE?$AAm?$AAu?$AAC?$AA?3?$AA?5?$AAC?$AAh?$AAe?$AAc?$AAk?$AAR?$AAe?$AAs?$AAo?$AAu?$AAr?$AAc?$AAe?$AAs?$AA?5?$AAs?$AAt?$AAa?$AAr?$AAt?$AAe?$AAd?$AA?$AA@ 000000018004e550     ConEmuPluginBase.obj
 0002:00003590       ??_C@_1BA@DAHNNHGF@?$AAF?$AAA?$AAR?$AAL?$AAA?$AAN?$AAG?$AA?$AA@ 000000018004e590     ConEmuPluginBase.obj
 0002:000035a0       ??_C@_1CC@IHNECLD@?$AA?$HL?$AAT?$AAe?$AAm?$AAp?$AAo?$AAr?$AAa?$AAr?$AAy?$AA?5?$AAp?$AAa?$AAn?$AAe?$AAl?$AA?$AA@ 000000018004e5a0     ConEmuPluginBase.obj
 0002:000035c8       ??_C@_19IGFHNPAK@?$AAv?$AAi?$AAe?$AAw?$AA?$AA@ 000000018004e5c8     ConEmuPluginBase.obj
 0002:000035d8       ??_C@_19LELMJPKF@?$AAe?$AAd?$AAi?$AAt?$AA?$AA@ 000000018004e5d8     ConEmuPluginBase.obj
 0002:000035e8       ??_C@_1BE@FLHKCJKF@?$AAS?$AAo?$AAf?$AAt?$AAw?$AAa?$AAr?$AAe?$AA?2?$AA?$AA@ 000000018004e5e8     ConEmuPluginBase.obj
 0002:00003600       ??_C@_1BA@FJJFMPFO@?$AA?2?$AAU?$AAs?$AAe?$AAr?$AAs?$AA?2?$AA?$AA@ 000000018004e600     ConEmuPluginBase.obj
 0002:00003610       ??_C@_1BA@NIFIBMHP@?$AAF?$AAA?$AAR?$AAU?$AAS?$AAE?$AAR?$AA?$AA@ 000000018004e610     ConEmuPluginBase.obj
 0002:00003620       ??_C@_17NACPPFBM@?$AAF?$AAA?$AAR?$AA?$AA@ 000000018004e620     ConEmuPluginBase.obj
 0002:00003628       ??_C@_19HBICLLML@?$AAF?$AAA?$AAR?$AA2?$AA?$AA@ 000000018004e628     ConEmuPluginBase.obj
 0002:00003638       ??_C@_1BI@ENONIIIC@?$AAF?$AAa?$AAr?$AA?5?$AAM?$AAa?$AAn?$AAa?$AAg?$AAe?$AAr?$AA?$AA@ 000000018004e638     ConEmuPluginBase.obj
 0002:00003650       ??_C@_1BI@GILFJGEK@?$AAB?$AAu?$AAt?$AAt?$AAo?$AAn?$AAC?$AAo?$AAl?$AAo?$AAr?$AA?$AA@ 000000018004e650     ConEmuPluginBase.obj
 0002:00003668       ??_C@_1BK@NFAPLMGI@?$AAS?$AAe?$AAp?$AAa?$AAr?$AAa?$AAt?$AAe?$AAT?$AAa?$AAb?$AAs?$AA?$AA@ 000000018004e668     ConEmuPluginBase.obj
 0002:00003688       ??_C@_1CG@HOMCPCN@?$AA?2?$AAP?$AAl?$AAu?$AAg?$AAi?$AAn?$AAs?$AA?2?$AAP?$AAa?$AAn?$AAe?$AAl?$AAT?$AAa?$AAb?$AAs?$AA?$AA@ 000000018004e688     ConEmuPluginBase.obj
 0002:000036b0       ??_C@_0BJ@GFJHAGKD@AllowSetForegroundWindow?$AA@ 000000018004e6b0     ConEmuPluginBase.obj
 0002:000036d0       ??_C@_1BG@OILDLIOJ@?$AAu?$AAs?$AAe?$AAr?$AA3?$AA2?$AA?4?$AAd?$AAl?$AAl?$AA?$AA@ 000000018004e6d0     ConEmuPluginBase.obj
 0002:000036e8       ??_C@_0BG@HFNJBNKJ@Plugin?3?3MonitorThread?$AA@ 000000018004e6e8     ConEmuPluginBase.obj
 0002:00003700       ??_C@_1CE@DLFCKCF@?$AAC?$AAo?$AAn?$AAE?$AAm?$AAu?$AAT?$AAa?$AAb?$AAs?$AAC?$AAh?$AAa?$AAn?$AAg?$AAe?$AAd?$AA?$AA@ 000000018004e700     ConEmuPluginBase.obj
 0002:00003728       ??_C@_1CM@JBFABNEO@?$AAC?$AAo?$AAn?$AAE?$AAm?$AAu?$AAS?$AAh?$AAi?$AAf?$AAt?$AAP?$AAr?$AAe?$AAs?$AAs?$AAe?$AAd?$AA?4?$AA?$CF?$AAu?$AA?$AA@ 000000018004e728     ConEmuPluginBase.obj
 0002:00003758       ??_C@_1CK@EANOIBDN@?$AAC?$AAo?$AAn?$AAE?$AAm?$AAu?$AAC?$AAt?$AAr?$AAl?$AAP?$AAr?$AAe?$AAs?$AAs?$AAe?$AAd?$AA?4?$AA?$CF?$AAu?$AA?$AA@ 000000018004e758     ConEmuPluginBase.obj
 0002:00003788       ??_C@_1DE@DBNFJOHM@?$AAC?$AAo?$AAn?$AAs?$AAo?$AAl?$AAe?$AA2?$AA_?$AAc?$AAo?$AAn?$AAs?$AAo?$AAl?$AAe?$AAB?$AAu?$AAf?$AAf?$AAe?$AAr?$AA_?$AA?$CF?$AAd?$AA?$AA@ 000000018004e788     ConEmuPluginBase.obj
 0002:000037c0       ??_C@_1BO@KPCFCPEP@?$AAC?$AAo?$AAn?$AAE?$AAm?$AAu?$AAC?$AAD?$AA6?$AA4?$AA?4?$AAd?$AAl?$AAl?$AA?$AA@ 000000018004e7c0     ConEmuPluginBase.obj
 0002:000037e0       ??_C@_1HO@CHHOFADM@?$AAC?$AAo?$AAn?$AAs?$AAo?$AAl?$AAe?$AA?5?$AAw?$AAa?$AAs?$AA?5?$AAa?$AAb?$AAn?$AAo?$AAr?$AAm?$AAa?$AAl?$AAl?$AAy?$AA?5?$AAt?$AAe?$AAr?$AAm?$AAi?$AAn?$AAt?$AAa?$AAt@ 000000018004e7e0     ConEmuPluginBase.obj
 0002:00003860       ??_C@_1CE@JNNPBELN@?$AAE?$AAx?$AAi?$AAt?$AAF?$AAa?$AAr?$AAC?$AAm?$AAn?$AA?5?$AA?9?$AA?5?$AAd?$AAo?$AAn?$AAe?$AA?$AA@ 000000018004e860     ConEmuPluginBase.obj
 0002:00003888       ??_C@_1BG@KACGKIIO@?$AAE?$AAx?$AAi?$AAt?$AAF?$AAa?$AAr?$AAC?$AAm?$AAn?$AA?$AA@ 000000018004e888     ConEmuPluginBase.obj
 0002:000038a0       ??_C@_1BBA@LKLGFJB@?$AAi?$AAf?$AA?5?$AAA?$AAr?$AAe?$AAa?$AA?4?$AAS?$AAe?$AAa?$AAr?$AAc?$AAh?$AA?5?$AAt?$AAh?$AAe?$AAn?$AA?5?$AAK?$AAe?$AAy?$AAs?$AA?$CI?$AA?$CC?$AAE?$AAs?$AAc?$AA?$CC?$AA?$CJ?$AA?5@ 000000018004e8a0     ConEmuPluginBase.obj
 0002:000039b0       ??_C@_1MK@EDFFIGHJ@?$AA$?$AAi?$AAf?$AA?5?$AA?$CI?$AAS?$AAe?$AAa?$AAr?$AAc?$AAh?$AA?$CJ?$AA?5?$AAE?$AAs?$AAc?$AA?5?$AA$?$AAe?$AAn?$AAd?$AA?5?$AA$?$AAi?$AAf?$AA?5?$AA?$CI?$AAS?$AAh?$AAe?$AAl?$AAl@ 000000018004e9b0     ConEmuPluginBase.obj
 0002:00003a80       ??_C@_1NC@MNABBPPB@?$AA$?$AAi?$AAf?$AA?5?$AA?$CI?$AAS?$AAe?$AAa?$AAr?$AAc?$AAh?$AA?$CJ?$AA?5?$AAE?$AAs?$AAc?$AA?5?$AA$?$AAe?$AAn?$AAd?$AA?5?$AA$?$AAi?$AAf?$AA?5?$AA?$CI?$AAS?$AAh?$AAe?$AAl?$AAl@ 000000018004ea80     ConEmuPluginBase.obj
 0002:00003b58       ??_C@_0P@JNNILPEA@SetStartupInfo?$AA@ 000000018004eb58     ConEmuPluginBase.obj
 0002:00003b68       ??_C@_0BA@IDLLFCLM@SetStartupInfoW?$AA@ 000000018004eb68     ConEmuPluginBase.obj
 0002:00003b78       ??_C@_0P@LNKHCDND@OnConEmuLoaded?$AA@ 000000018004eb78     ConEmuPluginBase.obj
 0002:00003b88       ??_C@_1CE@PBCFEBMN@?$AAS?$AAt?$AAo?$AAp?$AAT?$AAh?$AAr?$AAe?$AAa?$AAd?$AA?5?$AA?9?$AA?5?$AAd?$AAo?$AAn?$AAe?$AA?$AA@ 000000018004eb88     ConEmuPluginBase.obj
 0002:00003bb0       ??_C@_0BF@HFFKFJOJ@ConEmuPluginBase?4cpp?$AA@ 000000018004ebb0     ConEmuPluginBase.obj
 0002:00003bc8       ??_C@_1BM@JHDMPIJF@?$AA?4?$AA?4?$AA?4?$AAF?$AAi?$AAn?$AAa?$AAl?$AAi?$AAz?$AAi?$AAn?$AAg?$AA?$AA@ 000000018004ebc8     ConEmuPluginBase.obj
 0002:00003be8       ??_C@_1CG@BFNCAMEE@?$AA?4?$AA?4?$AA?4?$AAS?$AAt?$AAo?$AAp?$AAp?$AAi?$AAn?$AAg?$AA?5?$AAs?$AAe?$AAr?$AAv?$AAe?$AAr?$AA?$AA@ 000000018004ebe8     ConEmuPluginBase.obj
 0002:00003c10       ??_C@_1BO@LCKDINAJ@?$AA?4?$AA?4?$AA?4?$AAC?$AAl?$AAo?$AAs?$AAi?$AAn?$AAg?$AAT?$AAa?$AAb?$AAs?$AA?$AA@ 000000018004ec10     ConEmuPluginBase.obj
 0002:00003c30       ??_C@_1BG@EPEIPMDI@?$AAS?$AAt?$AAo?$AAp?$AAT?$AAh?$AAr?$AAe?$AAa?$AAd?$AA?$AA@ 000000018004ec30     ConEmuPluginBase.obj
 0002:00003c48       ??_C@_1CC@DFJIOIPL@?$AAK?$AAe?$AAy?$AAs?$AA?$CI?$AA?8?$AAM?$AAs?$AAL?$AAC?$AAl?$AAi?$AAc?$AAk?$AA?8?$AA?$CJ?$AA?$AA@ 000000018004ec48     ConEmuPluginBase.obj
 0002:00003c70       ??_C@_1BC@GNOFNJJG@?$AAM?$AAs?$AAL?$AAC?$AAl?$AAi?$AAc?$AAk?$AA?$AA@ 000000018004ec70     ConEmuPluginBase.obj
 0002:00003c88       ??_C@_1DO@LEFBPADB@?$AAi?$AAf?$AA?5?$AAA?$AAr?$AAe?$AAa?$AA?4?$AAS?$AAe?$AAa?$AAr?$AAc?$AAh?$AA?5?$AAK?$AAe?$AAy?$AAs?$AA?$CI?$AA?$CC?$AAE?$AAs?$AAc?$AA?$CC?$AA?$CJ?$AA?5?$AAe?$AAn?$AAd?$AA?$AA@ 000000018004ec88     ConEmuPluginBase.obj
 0002:00003cc8       ??_C@_1CM@IICFOBPI@?$AA$?$AAi?$AAf?$AA?5?$AA?$CI?$AAS?$AAe?$AAa?$AAr?$AAc?$AAh?$AA?$CJ?$AA?5?$AAE?$AAs?$AAc?$AA?5?$AA$?$AAe?$AAn?$AAd?$AA?$AA@ 000000018004ecc8     ConEmuPluginBase.obj
 0002:00003d00       ??_C@_1CAM@BBLMGMFK@?$AA?$EA?$AA$?$AAI?$AAf?$AA?5?$AA?$CI?$AA?$CB?$AAC?$AAm?$AAd?$AAL?$AAi?$AAn?$AAe?$AA?4?$AAE?$AAm?$AAp?$AAt?$AAy?$AA?$CJ?$AA?5?$AA?$CF?$AAF?$AAl?$AAg?$AA_?$AAC?$AAm?$AAd?$AA?$DN?$AA1@ 000000018004ed00     ConEmuPluginBase.obj
 0002:00003f10       ??_C@_1CCO@OMFPMNEO@?$AA?$EA?$AAi?$AAf?$AA?5?$AAn?$AAo?$AAt?$AA?5?$AAC?$AAm?$AAd?$AAL?$AAi?$AAn?$AAe?$AA?4?$AAE?$AAm?$AAp?$AAt?$AAy?$AA?5?$AAt?$AAh?$AAe?$AAn?$AA?5?$AAF?$AAl?$AAg?$AA_?$AAC@ 000000018004ef10     ConEmuPluginBase.obj
 0002:00004140       ??_C@_1CG@OILEFJJN@?$AAC?$AAo?$AAn?$AAE?$AAm?$AAu?$AAT?$AAh?$AA?3?$AA?3?$AAS?$AAe?$AAt?$AAt?$AAi?$AAn?$AAg?$AAs?$AA?$AA@ 000000018004f140     ConEmuPluginBase.obj
 0002:00004168       ??_C@_1CO@INAJPHBH@?$AAC?$AAo?$AAn?$AAE?$AAm?$AAu?$AAF?$AAa?$AAr?$AAA?$AAl?$AAi?$AAv?$AAe?$AAE?$AAv?$AAe?$AAn?$AAt?$AA?4?$AA?$CF?$AAu?$AA?$AA@ 000000018004f168     ConEmuPluginBase.obj
 0002:00004198       ??_C@_1CI@MBMLEGFG@?$AAC?$AAo?$AAn?$AAE?$AAm?$AAu?$AAF?$AAa?$AAr?$AAM?$AAa?$AAp?$AAp?$AAi?$AAn?$AAg?$AA?4?$AA?$CF?$AAu?$AA?$AA@ 000000018004f198     ConEmuPluginBase.obj
 0002:000041c0       ??_C@_15NJGDBKNF@?$AA?$CC?$AA?$CJ?$AA?$AA@ 000000018004f1c0     ConEmuPluginBase.obj
 0002:000041c8       ??_C@_1BE@CPLNCDLK@?$AA?$EA?$AA?$FO?$AAp?$AAr?$AAi?$AAn?$AAt?$AA?$CI?$AA?$CC?$AA?$AA@ 000000018004f1c8     ConEmuPluginBase.obj
 0002:000041e0       ??_C@_1BE@GLIABAAK@?$AA?$EA?$AA?$FO?$AA$?$AAT?$AAE?$AAX?$AAT?$AA?5?$AA?$CC?$AA?$AA@ 000000018004f1e0     ConEmuPluginBase.obj
 0002:000041f8       ??_C@_1BO@CJPKCNHF@?$AAL?$AAu?$AAc?$AAi?$AAd?$AAa?$AA?5?$AAC?$AAo?$AAn?$AAs?$AAo?$AAl?$AAe?$AA?$AA@ 000000018004f1f8     EmergencyShow.obj
 0002:00004220       ??_C@_1EM@OAOIIPGN@?$AAC?$AAo?$AAn?$AAs?$AAo?$AAl?$AAe?$AA?2?$AA?$CF?$AAS?$AAy?$AAs?$AAt?$AAe?$AAm?$AAR?$AAo?$AAo?$AAt?$AA?$CF?$AA_?$AAs?$AAy?$AAs?$AAt?$AAe?$AAm?$AA3?$AA2?$AA_?$AAc?$AAm@ 000000018004f220     EmergencyShow.obj
 0002:00004270       ??_C@_1BC@MAHCNJIF@?$AAF?$AAo?$AAn?$AAt?$AAS?$AAi?$AAz?$AAe?$AA?$AA@ 000000018004f270     EmergencyShow.obj
 0002:00004288       ??_C@_1BA@GIKDDGPH@?$AAC?$AAo?$AAn?$AAs?$AAo?$AAl?$AAe?$AA?$AA@ 000000018004f288     EmergencyShow.obj
 0002:00004298       ??_C@_1DC@GKBPJPHN@?$AAC?$AAo?$AAn?$AAE?$AAm?$AAu?$AAE?$AAm?$AAe?$AAr?$AAg?$AAe?$AAn?$AAc?$AAy?$AAS?$AAh?$AAo?$AAw?$AA?3?$AA?$CF?$AA0?$AA8?$AAX?$AA?$AA@ 000000018004f298     EmergencyShow.obj
 0002:000042d0       ??_C@_19IGNAGDCF@?$AA?4?$AAb?$AAt?$AAm?$AA?$AA@ 000000018004f2d0     Execute.obj
 0002:000042e0       ??_C@_19PINKOIBI@?$AA?4?$AAb?$AAa?$AAt?$AA?$AA@ 000000018004f2e0     Execute.obj
 0002:000042f0       ??_C@_19BDKLHPGC@?$AA?4?$AAc?$AAm?$AAd?$AA?$AA@ 000000018004f2f0     Execute.obj
 0002:00004300       ??_C@_0P@LKABJJMO@IsWow64Process?$AA@ 000000018004f300     Execute.obj
 0002:00004310       ??_C@_1GK@PPEHOOAL@?$AAS?$AAO?$AAF?$AAT?$AAW?$AAA?$AAR?$AAE?$AA?2?$AAM?$AAi?$AAc?$AAr?$AAo?$AAs?$AAo?$AAf?$AAt?$AA?2?$AAW?$AAi?$AAn?$AAd?$AAo?$AAw?$AAs?$AA?2?$AAC?$AAu?$AAr?$AAr?$AAe@ 000000018004f310     Execute.obj
 0002:00004380       ??_C@_0M@HLOHPNFA@RegCloseKey?$AA@ 000000018004f380     Execute.obj
 0002:00004390       ??_C@_0BB@GLNAEDBD@RegQueryValueExW?$AA@ 000000018004f390     Execute.obj
 0002:000043a8       ??_C@_0O@COHOBMLB@RegOpenKeyExW?$AA@ 000000018004f3a8     Execute.obj
 0002:000043b8       ??_C@_1BK@CJEOECB@?$AAA?$AAd?$AAv?$AAA?$AAp?$AAi?$AA3?$AA2?$AA?4?$AAd?$AAl?$AAl?$AA?$AA@ 000000018004f3b8     Execute.obj
 0002:000043d8       ??_C@_1DE@JNLGFOOP@?$AA?4?$AAC?$AAO?$AAM?$AA?$DL?$AA?4?$AAE?$AAX?$AAE?$AA?$DL?$AA?4?$AAB?$AAA?$AAT?$AA?$DL?$AA?4?$AAC?$AAM?$AAD?$AA?$DL?$AA?4?$AAB?$AAT?$AAM?$AA?$DL?$AA?$AA@ 000000018004f3d8     Execute.obj
 0002:00004410       ??_C@_0BD@HGJIAJJM@RequestTrampolines?$AA@ 000000018004f410     HkFunc.obj
 0002:00004428       ??_C@_1BM@GLLFNEEF@?$AAS?$AAh?$AAe?$AAl?$AAl?$AA_?$AAT?$AAr?$AAa?$AAy?$AAW?$AAn?$AAd?$AA?$AA@ 000000018004f428     Monitors.obj
 0002:00004448       ??_C@_0BK@DNNLOFO@SetSecurityDescriptorDacl?$AA@ 000000018004f448     MSecurity.obj
 0002:00004468       ??_C@_0BN@FNLANPJJ@InitializeSecurityDescriptor?$AA@ 000000018004f468     MSecurity.obj
 0002:00004488       ??_C@_0O@GKCEJBAA@InitializeAcl?$AA@ 000000018004f488     MSecurity.obj
 0002:00004498       ??_C@_0N@HBKDHKNL@GetLengthSid?$AA@ 000000018004f498     MSecurity.obj
 0002:000044a8       ??_C@_0BJ@ECIKFEOL@AllocateAndInitializeSid?$AA@ 000000018004f4a8     MSecurity.obj
 0002:000044c8       ??_C@_0BD@EIGAJLOG@AddAccessDeniedAce?$AA@ 000000018004f4c8     MSecurity.obj
 0002:000044e0       ??_C@_0BE@IPKPLIM@AddAccessAllowedAce?$AA@ 000000018004f4e0     MSecurity.obj
 0002:000044f8       ??_C@_1BK@BIGILECK@?$AAA?$AAd?$AAv?$AAa?$AAp?$AAi?$AA3?$AA2?$AA?4?$AAd?$AAl?$AAl?$AA?$AA@ 000000018004f4f8     MSecurity.obj
 0002:00004518       ??_C@_1BO@HJHEFHMO@?$AAK?$AAe?$AAr?$AAn?$AAe?$AAl?$AAB?$AAa?$AAs?$AAe?$AA?4?$AAd?$AAl?$AAl?$AA?$AA@ 000000018004f518     MSecurity.obj
 0002:00004538       ??_C@_15LKGMKBFA@?$AA0?$AA0?$AA?$AA@ 000000018004f538     MStrSafe.obj
 0002:00004540       ??_C@_1BC@LMIJMNIA@?$AA0?$AA0?$AA0?$AA0?$AA0?$AA0?$AA0?$AA0?$AA?$AA@ 000000018004f540     MStrSafe.obj
 0002:00004558       ??_C@_08LEDEEJEF@00000000?$AA@ 000000018004f558     MStrSafe.obj
 0002:00004568       ??_C@_1DA@OEIAGFIH@?$AAC?$AAo?$AAn?$AAE?$AAm?$AAu?$AA?$AA?$AAF?$AAa?$AAr?$AA?5?$AAB?$AAa?$AAc?$AAk?$AAg?$AAr?$AAo?$AAu?$AAn?$AAd?$AA?$AA?$AA?$AA?$AA?$AA@ 000000018004f568     PluginBackground.obj
 0002:00004598       ??_C@_1DA@BMIFHIMF@?$AAC?$AAo?$AAn?$AAE?$AAm?$AAu?$AAV?$AAi?$AAe?$AAw?$AAS?$AAe?$AAt?$AAM?$AAa?$AAp?$AAp?$AAi?$AAn?$AAg?$AA?4?$AA?$CF?$AAu?$AA?$AA@ 000000018004f598     PluginBackground.obj
 0002:000045c8       ??_C@_1DC@PFNEMDKA@?$AA?2?$AA?2?$AA?$CF?$AAs?$AA?2?$AAp?$AAi?$AAp?$AAe?$AA?2?$AAC?$AAo?$AAn?$AAE?$AAm?$AAu?$AAP?$AAl?$AAu?$AAg?$AAi?$AAn?$AA?$CF?$AAu?$AA?$AA@ 000000018004f5c8     PluginSrv.obj
 0002:00004600       ??_C@_19HGGOABND@?$AA?$CF?$AA0?$AA8?$AAx?$AA?$AA@ 000000018004f600     PluginSrv.obj
 0002:00004610       ??_C@_1FM@LPOPCJG@?$AAS?$AAt?$AAa?$AAr?$AAt?$AAP?$AAi?$AAp?$AAe?$AAS?$AAe?$AAr?$AAv?$AAe?$AAr?$AA?3?$AAa?$AAp?$AAf?$AAn?$AAP?$AAi?$AAp?$AAe?$AAS?$AAe?$AAr?$AAv?$AAe?$AAr?$AAC?$AAo@ 000000018004f610     PluginSrv.obj
 0002:00004670       ??_C@_1FG@DJFPBHJF@?$AAP?$AAi?$AAp?$AAe?$AAS?$AAe?$AAr?$AAv?$AAe?$AAr?$AAE?$AAr?$AAr?$AAo?$AAr?$AA?0?$AA?5?$AAP?$AAI?$AAD?$AA?$DN?$AA?$CF?$AAu?$AA?0?$AA?5?$AAT?$AAI?$AAD?$AA?$DN?$AA?$CF?$AAu?$AA?6@ 000000018004f670     PluginSrv.obj
 0002:000046d0       ??_C@_1EA@JFONKNJK@?$AAP?$AAi?$AAp?$AAe?$AAS?$AAe?$AAr?$AAv?$AAe?$AAr?$AAE?$AAr?$AAr?$AAo?$AAr?$AA?0?$AA?5?$AAP?$AAI?$AAD?$AA?$DN?$AA?$CF?$AAu?$AA?0?$AA?5?$AAT?$AAI?$AAD?$AA?$DN?$AA?$CF?$AAu?$AA?$AA@ 000000018004f6d0     PluginSrv.obj
 0002:00004710       ??_C@_1M@KGONCMNM@?$AA?$CF?$AAs?$AA?6?$AA?$CF?$AAs?$AA?$AA@ 000000018004f710     PluginSrv.obj
 0002:00004720       ??_C@_1GG@PAGGIEEF@?$AAS?$AAt?$AAa?$AAr?$AAt?$AAP?$AAi?$AAp?$AAe?$AAI?$AAn?$AAs?$AAt?$AAa?$AAn?$AAc?$AAe?$AA?3?$AAC?$AAr?$AAe?$AAa?$AAt?$AAe?$AAT?$AAh?$AAr?$AAe?$AAa?$AAd?$AA?5?$AAf@ 000000018004f720     PluginSrv.obj
 0002:00004788       ??_C@_0BB@MDGFLNIP@PipeServerThread?$AA@ 000000018004f788     PluginSrv.obj
 0002:000047a0       ??_C@_1GC@MCEAIMAO@?$AAS?$AAt?$AAa?$AAr?$AAt?$AAP?$AAi?$AAp?$AAe?$AAI?$AAn?$AAs?$AAt?$AAa?$AAn?$AAc?$AAe?$AA?3?$AAC?$AAr?$AAe?$AAa?$AAt?$AAe?$AAE?$AAv?$AAe?$AAn?$AAt?$AA?5?$AAf?$AAa@ 000000018004f7a0     PluginSrv.obj
 0002:00004810       ??_C@_0EF@JMEBABEH@t?3?2vcproject?2maximus5?2conemu?2src@ 000000018004f810     PluginSrv.obj
 0002:00004860       ??_C@_1GK@OLPCHMBE@?$AAP?$AAi?$AAp?$AAe?$AAS?$AAe?$AAr?$AAv?$AAe?$AAr?$AAT?$AAh?$AAr?$AAe?$AAa?$AAd?$AA?3?$AAC?$AAo?$AAn?$AAn?$AAe?$AAc?$AAt?$AAN?$AAa?$AAm?$AAe?$AAd?$AAP?$AAi?$AAp@ 000000018004f860     PluginSrv.obj
 0002:000048d0       ??_C@_1HG@LHMKOAMG@?$AAP?$AAi?$AAp?$AAe?$AAS?$AAe?$AAr?$AAv?$AAe?$AAr?$AAT?$AAh?$AAr?$AAe?$AAa?$AAd?$AA?3?$AAW?$AAa?$AAi?$AAt?$AAF?$AAo?$AAr?$AAM?$AAu?$AAl?$AAt?$AAi?$AAp?$AAl?$AAe@ 000000018004f8d0     PluginSrv.obj
 0002:00004950       ??_C@_1HA@EGHGJDPG@?$AAP?$AAi?$AAp?$AAe?$AAS?$AAe?$AAr?$AAv?$AAe?$AAr?$AAT?$AAh?$AAr?$AAe?$AAa?$AAd?$AA?3?$AAG?$AAe?$AAt?$AAO?$AAv?$AAe?$AAr?$AAl?$AAa?$AAp?$AAp?$AAe?$AAd?$AAR?$AAe@ 000000018004f950     PluginSrv.obj
 0002:000049c0       ??_C@_1O@GNPNAMOC@?$AA0?$AAx?$AA?$CF?$AA0?$AA8?$AAX?$AA?$AA@ 000000018004f9c0     SetEnvVar.obj
 0002:000049d0       ??_C@_1BE@GIIMEDBE@?$AAC?$AAo?$AAn?$AAE?$AAm?$AAu?$AAP?$AAI?$AAD?$AA?$AA@ 000000018004f9d0     SetEnvVar.obj
 0002:000049e4       ??_C@_15EFLNJKHH@?$AA?$CF?$AAu?$AA?$AA@ 000000018004f9e4     SetEnvVar.obj
 0002:000049f0       ??_C@_1BG@CJNOKBPK@?$AAC?$AAo?$AAn?$AAE?$AAm?$AAu?$AAH?$AAW?$AAN?$AAD?$AA?$AA@ 000000018004f9f0     SetEnvVar.obj
 0002:00004a08       ??_C@_1BO@DIAPFMAN@?$AAC?$AAo?$AAn?$AAE?$AAm?$AAu?$AAB?$AAa?$AAc?$AAk?$AAH?$AAW?$AAN?$AAD?$AA?$AA@ 000000018004fa08     SetEnvVar.obj
 0002:00004a28       ??_C@_1BO@BBOAAODE@?$AAC?$AAo?$AAn?$AAE?$AAm?$AAu?$AAD?$AAr?$AAa?$AAw?$AAH?$AAW?$AAN?$AAD?$AA?$AA@ 000000018004fa28     SetEnvVar.obj
 0002:00004a48       ??_C@_1BM@PANMKOKH@?$AAC?$AAo?$AAn?$AAE?$AAm?$AAu?$AAI?$AAs?$AAA?$AAd?$AAm?$AAi?$AAn?$AA?$AA@ 000000018004fa48     SetEnvVar.obj
 0002:00004a68       ??_C@_1M@FJLJMGED@?$AAA?$AAD?$AAM?$AAI?$AAN?$AA?$AA@ 000000018004fa68     SetEnvVar.obj
 0002:00004a78       ??_C@_1BI@ECBFAEFL@?$AAC?$AAo?$AAn?$AAE?$AAm?$AAu?$AAB?$AAu?$AAi?$AAl?$AAd?$AA?$AA@ 000000018004fa78     SetEnvVar.obj
 0002:00004a90       ??_C@_1CC@PJKOAMEK@?$AA?$CF?$AA0?$AA2?$AAu?$AA?$CF?$AA0?$AA2?$AAu?$AA?$CF?$AA0?$AA2?$AAu?$AA?$CF?$AAs?$AA?$CF?$AAs?$AA?$AA@ 000000018004fa90     SetEnvVar.obj
 0002:00004ab8       ??_C@_1BI@FFAFPMFK@?$AAC?$AAo?$AAn?$AAE?$AAm?$AAu?$AAD?$AAr?$AAi?$AAv?$AAe?$AA?$AA@ 000000018004fab8     SetEnvVar.obj
 0002:00004ad0       ??_C@_1CA@FHNKNCOM@?$AAC?$AAo?$AAn?$AAE?$AAm?$AAu?$AAW?$AAo?$AAr?$AAk?$AAD?$AAr?$AAi?$AAv?$AAe?$AA?$AA@ 000000018004fad0     SetEnvVar.obj
 0002:00004af0       ??_C@_1BM@BEHEOFPA@?$AAC?$AAo?$AAn?$AAE?$AAm?$AAu?$AAW?$AAo?$AAr?$AAk?$AAD?$AAi?$AAr?$AA?$AA@ 000000018004faf0     SetEnvVar.obj
 0002:00004b10       ??_C@_1EA@DNEBDKPD@?$AAC?$AAa?$AAn?$AA?8?$AAt?$AA?5?$AAM?$AAa?$AAp?$AAV?$AAi?$AAe?$AAw?$AAO?$AAf?$AAF?$AAi?$AAl?$AAe?$AA?4?$AA?5?$AAE?$AAr?$AAr?$AAC?$AAo?$AAd?$AAe?$AA?$DN?$AA?$CF?$AAi?$AA?$AA@ 000000018004fb10     WConsole.obj
 0002:00004b50       ??_C@_1GM@IBJJIODM@?$AAC?$AAa?$AAn?$AA?8?$AAt?$AA?5?$AAC?$AAr?$AAe?$AAa?$AAt?$AAe?$AAF?$AAi?$AAl?$AAe?$AAM?$AAa?$AAp?$AAp?$AAi?$AAn?$AAg?$AA?$CI?$AAg?$AAh?$AAC?$AAo?$AAn?$AAs?$AAo?$AAl@ 000000018004fb50     WConsole.obj
 0002:00004bc0       ??_C@_0BN@BJODIFNA@GetConsoleScreenBufferInfoEx?$AA@ 000000018004fbc0     WConsole.obj
 0002:00004be0       ??_C@_0BN@MIEFGKAE@SetConsoleScreenBufferInfoEx?$AA@ 000000018004fbe0     WConsole.obj
 0002:00004c00       ??_C@_0BI@OEHNMHCG@GetCurrentConsoleFontEx?$AA@ 000000018004fc00     WConsole.obj
 0002:00004c18       ??_C@_0BI@PCBACGEE@SetCurrentConsoleFontEx?$AA@ 000000018004fc18     WConsole.obj
 0002:00004c30       ??_C@_1CO@DAOCNAIJ@?$AAN?$AAu?$AAm?$AAb?$AAe?$AAr?$AAO?$AAf?$AAH?$AAi?$AAs?$AAt?$AAo?$AAr?$AAy?$AAB?$AAu?$AAf?$AAf?$AAe?$AAr?$AAs?$AA?$AA@ 000000018004fc30     WConsole.obj
 0002:00004c60       ??_C@_1CE@BJHMHGLF@?$AAH?$AAi?$AAs?$AAt?$AAo?$AAr?$AAy?$AAB?$AAu?$AAf?$AAf?$AAe?$AAr?$AAS?$AAi?$AAz?$AAe?$AA?$AA@ 000000018004fc60     WConsole.obj
 0002:00004c88       ??_C@_1BO@IPFLJP@?$AAC?$AAo?$AAn?$AAs?$AAo?$AAl?$AAe?$AA?2?$AAC?$AAo?$AAn?$AAE?$AAm?$AAu?$AA?$AA@ 000000018004fc88     WConsole.obj
 0002:00004ca8       ??_C@_0BI@EJMIKHPD@GetConsoleSelectionInfo?$AA@ 000000018004fca8     WConsole.obj
 0002:00004cc0       ??_C@_13PJJBFPED@?$AA?$DL?$AA?$AA@ 000000018004fcc0     WFiles.obj
 0002:00004cc8       ??_C@_19GJLMFMHF@?$AA?4?$AAs?$AAv?$AAn?$AA?$AA@ 000000018004fcc8     WFiles.obj
 0002:00004cd8       ??_C@_19FMGJGEBB@?$AA?4?$AAg?$AAi?$AAt?$AA?$AA@ 000000018004fcd8     WFiles.obj
 0002:00004ce4       ??_C@_13BBDEGPLJ@?$AA?$CK?$AA?$AA@ 000000018004fce4     WFiles.obj
 0002:00004ce8       ??_C@_0BE@MABCBIBH@CancelSynchronousIo?$AA@ 000000018004fce8     WFiles.obj
 0002:00004d00       ??_C@_1BK@EJBALEBG@?$AAK?$AAe?$AAr?$AAn?$AAe?$AAl?$AA3?$AA2?$AA?4?$AAd?$AAl?$AAl?$AA?$AA@ 000000018004fd00     WFiles.obj
 0002:00004d20       ??_C@_1BK@ENAOCENB@?$AAZ?$AAo?$AAn?$AAe?$AAT?$AAr?$AAa?$AAn?$AAs?$AAf?$AAe?$AAr?$AA?$AA@ 000000018004fd20     WFiles.obj
 0002:00004d40       ??_C@_1O@EKIIMFKL@?$AAZ?$AAo?$AAn?$AAe?$AAI?$AAd?$AA?$AA@ 000000018004fd40     WFiles.obj
 0002:00004d50       ??_C@_1CC@DLHEMPJK@?$AA?3?$AAZ?$AAo?$AAn?$AAe?$AA?4?$AAI?$AAd?$AAe?$AAn?$AAt?$AAi?$AAf?$AAi?$AAe?$AAr?$AA?$AA@ 000000018004fd50     WFiles.obj
 0002:00004d78       ??_C@_1BE@GJOFHIHD@?$AAn?$AAt?$AAd?$AAl?$AAl?$AA?4?$AAd?$AAl?$AAl?$AA?$AA@ 000000018004fd78     WModuleCheck.obj
 0002:00004d90       ??_C@_1CI@LEBALGEL@?$AA0?$AAx?$AA?$CF?$AA0?$AA8?$AAX?$AA?3?$AA?5?$AA?$CF?$AAs?$AA?5?$AA?9?$AA?5?$AA?8?$AA?$CF?$AAs?$AA?8?$AA?$CF?$AAs?$AA?$AA@ 000000018004fd90     WObjects.obj
 0002:00004db8       ??_C@_1BG@FPBBIDMH@?$AA?5?$AA?9?$AA?5?$AA?$CF?$AAs?$AA?5?$AA?$FL?$AA?$CF?$AAu?$AA?$FN?$AA?$AA@ 000000018004fdb8     WObjects.obj
 0002:00004dd0       ??_C@_1CM@FCHOBPGC@?$AA?$DM?$AAG?$AAe?$AAt?$AAC?$AAl?$AAa?$AAs?$AAs?$AAN?$AAa?$AAm?$AAe?$AA?5?$AAf?$AAa?$AAi?$AAl?$AAe?$AAd?$AA?$DO?$AA?$AA@ 000000018004fdd0     WObjects.obj
 0002:00004e00       ??_C@_1DM@LIIMLPNP@?$AA0?$AAx?$AA?$CF?$AA0?$AA8?$AAX?$AA?3?$AA?5?$AAI?$AAn?$AAv?$AAa?$AAl?$AAi?$AAd?$AA?5?$AAw?$AAi?$AAn?$AAd?$AAo?$AAw?$AA?5?$AAh?$AAa?$AAn?$AAd?$AAl?$AAe?$AA?$AA@ 000000018004fe00     WObjects.obj
 0002:00004e40       ??_C@_1O@DPFEOIGE@?$AA?$DM?$AAN?$AAU?$AAL?$AAL?$AA?$DO?$AA?$AA@ 000000018004fe40     WObjects.obj
 0002:00004e50       ??_C@_1BM@PHJIAKGA@?$AAS?$AAo?$AAf?$AAt?$AAw?$AAa?$AAr?$AAe?$AA?2?$AAW?$AAi?$AAn?$AAe?$AA?$AA@ 000000018004fe50     WObjects.obj
 0002:00004e70       ??_C@_1FI@LJIDBGHG@?$AAS?$AAy?$AAs?$AAt?$AAe?$AAm?$AA?2?$AAC?$AAu?$AAr?$AAr?$AAe?$AAn?$AAt?$AAC?$AAo?$AAn?$AAt?$AAr?$AAo?$AAl?$AAS?$AAe?$AAt?$AA?2?$AAC?$AAo?$AAn?$AAt?$AAr?$AAo?$AAl@ 000000018004fe70     WObjects.obj
 0002:00004ed0       ??_C@_1FA@IMIIAJJK@?$AAS?$AAy?$AAs?$AAt?$AAe?$AAm?$AA?2?$AAC?$AAu?$AAr?$AAr?$AAe?$AAn?$AAt?$AAC?$AAo?$AAn?$AAt?$AAr?$AAo?$AAl?$AAS?$AAe?$AAt?$AA?2?$AAC?$AAo?$AAn?$AAt?$AAr?$AAo?$AAl@ 000000018004fed0     WObjects.obj
 0002:00004f20       ??_C@_0BE@HBINFEMB@FreeMemoryJobObject?$AA@ 000000018004ff20     WObjects.obj
 0002:00004f38       ??_C@_1BI@ONABKHKJ@?$AA?4?$AAv?$AAs?$AAh?$AAo?$AAs?$AAt?$AA?4?$AAe?$AAx?$AAe?$AA?$AA@ 000000018004ff38     WObjects.obj
 0002:00004f50       ??_C@_1BA@KEPCCGNM@?$AAg?$AAd?$AAb?$AA?4?$AAe?$AAx?$AAe?$AA?$AA@ 000000018004ff50     WObjects.obj
 0002:00004f60       ??_C@_1BI@MPDCNJBA@?$AAt?$AAl?$AAn?$AAt?$AAs?$AAv?$AAr?$AA?4?$AAe?$AAx?$AAe?$AA?$AA@ 000000018004ff60     WObjects.obj
 0002:00004f78       ??_C@_1BK@HHKNEJDC@?$AAt?$AAl?$AAn?$AAt?$AAs?$AAe?$AAs?$AAs?$AA?4?$AAe?$AAx?$AAe?$AA?$AA@ 000000018004ff78     WObjects.obj
 0002:00004f94       ??_C@_13EJFHHPOP@?$AA?$CF?$AA?$AA@ 000000018004ff94     WObjects.obj
 0002:00004f98       ??_C@_1CE@ECCAMEKN@?$AA?2?$AAS?$AAy?$AAs?$AAW?$AAO?$AAW?$AA6?$AA4?$AA?2?$AAc?$AAm?$AAd?$AA?4?$AAe?$AAx?$AAe?$AA?$AA@ 000000018004ff98     WObjects.obj
 0002:00004fc0       ??_C@_1CC@PDLBBEEF@?$AAS?$AAy?$AAs?$AAW?$AAO?$AAW?$AA6?$AA4?$AA?2?$AAc?$AAm?$AAd?$AA?4?$AAe?$AAx?$AAe?$AA?$AA@ 000000018004ffc0     WObjects.obj
 0002:00004fe8       ??_C@_1CE@PMNGKNKL@?$AA?2?$AAS?$AAy?$AAs?$AAt?$AAe?$AAm?$AA3?$AA2?$AA?2?$AAc?$AAm?$AAd?$AA?4?$AAe?$AAx?$AAe?$AA?$AA@ 000000018004ffe8     WObjects.obj
 0002:00005010       ??_C@_1CC@ENEHHNED@?$AAS?$AAy?$AAs?$AAt?$AAe?$AAm?$AA3?$AA2?$AA?2?$AAc?$AAm?$AAd?$AA?4?$AAe?$AAx?$AAe?$AA?$AA@ 0000000180050010     WObjects.obj
 0002:00005038       ??_C@_1BA@PHJPMKEE@?$AAC?$AAo?$AAm?$AAS?$AAp?$AAe?$AAc?$AA?$AA@ 0000000180050038     WObjects.obj
 0002:00005048       ??_C@_1CK@OLMGMMDO@?$AAC?$AAo?$AAn?$AAE?$AAm?$AAu?$AAS?$AAl?$AAe?$AAe?$AAp?$AAI?$AAn?$AAd?$AAi?$AAc?$AAa?$AAt?$AAo?$AAr?$AA?$AA@ 0000000180050048     WObjects.obj
 0002:00005078       ??_C@_1BC@HBINJLDK@?$AA?0?$AA?4?$AA?3?$AA?$DL?$AA?5?$AA?7?$AA?$AN?$AA?6?$AA?$AA@ 0000000180050078     WObjects.obj
 0002:00005090       ??_C@_17CGDCDLG@?$AAo?$AAe?$AAm?$AA?$AA@ 0000000180050090     WObjects.obj
 0002:00005098       ??_C@_1M@EHJDGNNP@?$AAo?$AAe?$AAm?$AAc?$AAp?$AA?$AA@ 0000000180050098     WObjects.obj
 0002:000050a8       ??_C@_17GDMDFNNL@?$AAa?$AAc?$AAp?$AA?$AA@ 00000001800500a8     WObjects.obj
 0002:000050b0       ??_C@_19CMKJINKI@?$AAa?$AAn?$AAs?$AAi?$AA?$AA@ 00000001800500b0     WObjects.obj
 0002:000050c0       ??_C@_1O@MJHAAPBC@?$AAa?$AAn?$AAs?$AAi?$AAc?$AAp?$AA?$AA@ 00000001800500c0     WObjects.obj
 0002:000050d0       ??_C@_19MPDNHKDG@?$AAu?$AAt?$AAf?$AA8?$AA?$AA@ 00000001800500d0     WObjects.obj
 0002:000050e0       ??_C@_1M@FPEIIFAM@?$AAu?$AAt?$AAf?$AA?9?$AA8?$AA?$AA@ 00000001800500e0     WObjects.obj
 0002:000050ec       ??_C@_05LCABBMOG@?$CFs?3?$CFi?$AA@ 00000001800500ec     WThreads.obj
 0002:00005100       ??_C@_1FA@BFJDIMLC@?$AAC?$AA?3?$AA?2?$AAP?$AAr?$AAo?$AAg?$AAr?$AAa?$AAm?$AA?5?$AAF?$AAi?$AAl?$AAe?$AAs?$AA?2?$AAJ?$AAP?$AAS?$AAo?$AAf?$AAt?$AA?2?$AAT?$AAC?$AAC?$AAL?$AAE?$AA1?$AA3?$AA?2@ 0000000180050100     WUser.obj
 0002:00005150       ??_C@_1EO@GBOKIPHE@?$AAC?$AA?3?$AA?2?$AAP?$AAr?$AAo?$AAg?$AAr?$AAa?$AAm?$AA?5?$AAF?$AAi?$AAl?$AAe?$AAs?$AA?2?$AAJ?$AAP?$AAS?$AAo?$AAf?$AAt?$AA?2?$AAT?$AAC?$AAM?$AAD?$AA1?$AA3?$AA?2?$AAt@ 0000000180050150     WUser.obj
 0002:000051a0       ??_C@_1CA@CBMLAMC@?$AAI?$AAn?$AAs?$AAt?$AAa?$AAl?$AAl?$AAL?$AAo?$AAc?$AAa?$AAt?$AAi?$AAo?$AAn?$AA?$AA@ 00000001800501a0     WUser.obj
 0002:000051c0       ??_C@_1BI@NAAHPGNK@?$AAJ?$AAP?$AA?5?$AAS?$AAo?$AAf?$AAt?$AAw?$AAa?$AAr?$AAe?$AA?$AA@ 00000001800501c0     WUser.obj
 0002:000051d8       ??_C@_1BE@CCMLAJPM@?$AAP?$AAu?$AAb?$AAl?$AAi?$AAs?$AAh?$AAe?$AAr?$AA?$AA@ 00000001800501d8     WUser.obj
 0002:000051f0       ??_C@_1GI@BAAGFBH@?$AAS?$AAO?$AAF?$AAT?$AAW?$AAA?$AAR?$AAE?$AA?2?$AAM?$AAi?$AAc?$AAr?$AAo?$AAs?$AAo?$AAf?$AAt?$AA?2?$AAW?$AAi?$AAn?$AAd?$AAo?$AAw?$AAs?$AA?2?$AAC?$AAu?$AAr?$AAr?$AAe@ 00000001800501f0     WUser.obj
 0002:00005258       ??_C@_1BE@BGAOJFLF@?$AA?2?$AAt?$AAc?$AAm?$AAd?$AA?4?$AAe?$AAx?$AAe?$AA?$AA@ 0000000180050258     WUser.obj
 0002:00005270       ??_C@_19NHABCBNP@?$AAP?$AAa?$AAt?$AAh?$AA?$AA@ 0000000180050270     WUser.obj
 0002:00005280       ??_C@_1CK@HMKJOJBO@?$AAS?$AAO?$AAF?$AAT?$AAW?$AAA?$AAR?$AAE?$AA?2?$AAJ?$AAP?$AA?5?$AAS?$AAo?$AAf?$AAt?$AAw?$AAa?$AAr?$AAe?$AA?$AA@ 0000000180050280     WUser.obj
 0002:000052b0       ??_C@_1DM@LBPENHOD@?$AA?$CF?$AAC?$AAo?$AAn?$AAE?$AAm?$AAu?$AAD?$AAi?$AAr?$AA?$CF?$AA?2?$AA?4?$AA?4?$AA?2?$AA?4?$AA?4?$AA?2?$AAt?$AAc?$AAc?$AA?2?$AAt?$AAc?$AAc?$AA?4?$AAe?$AAx?$AAe?$AA?$AA@ 00000001800502b0     WUser.obj
 0002:000052f0       ??_C@_1DG@KKKDJMJH@?$AA?$CF?$AAC?$AAo?$AAn?$AAE?$AAm?$AAu?$AAD?$AAi?$AAr?$AA?$CF?$AA?2?$AA?4?$AA?4?$AA?2?$AAt?$AAc?$AAc?$AA?2?$AAt?$AAc?$AAc?$AA?4?$AAe?$AAx?$AAe?$AA?$AA@ 00000001800502f0     WUser.obj
 0002:00005328       ??_C@_1CI@HDMJOOBM@?$AA?$CF?$AAC?$AAo?$AAn?$AAE?$AAm?$AAu?$AAD?$AAi?$AAr?$AA?$CF?$AA?2?$AAt?$AAc?$AAc?$AA?4?$AAe?$AAx?$AAe?$AA?$AA@ 0000000180050328     WUser.obj
 0002:00005350       ??_C@_1DA@EMHAGABM@?$AA?$CF?$AAC?$AAo?$AAn?$AAE?$AAm?$AAu?$AAB?$AAa?$AAs?$AAe?$AAD?$AAi?$AAr?$AA?$CF?$AA?2?$AAt?$AAc?$AAc?$AA?4?$AAe?$AAx?$AAe?$AA?$AA@ 0000000180050350     WUser.obj
 0002:00005380       ?ProcessDetach@NativeDll@<CrtImplementationDetails>@@0IB 0000000180050380     LIBCMT:wcstol.obj
 0002:00005384       ?ProcessAttach@NativeDll@<CrtImplementationDetails>@@0IB 0000000180050384     LIBCMT:wcstol.obj
 0002:00005388       ?ThreadAttach@NativeDll@<CrtImplementationDetails>@@0IB 0000000180050388     LIBCMT:wcstol.obj
 0002:0000538c       ?ThreadDetach@NativeDll@<CrtImplementationDetails>@@0IB 000000018005038c     LIBCMT:wcstol.obj
 0002:00005390       ?ProcessVerifier@NativeDll@<CrtImplementationDetails>@@0IB 0000000180050390     LIBCMT:wcstol.obj
 0002:00005398       _pRawDllMain               0000000180050398     LIBCMT:dllcrt0.obj
 0002:00005398       _pDefaultRawDllMain        0000000180050398     LIBCMT:dllcrt0.obj
 0002:000053a0       ??_C@_0P@GGKDKEEG@runtime?5error?5?$AA@ 00000001800503a0     LIBCMT:crt0msg.obj
 0002:000053b0       ??_C@_02PCIJFNDE@?$AN?6?$AA@ 00000001800503b0     LIBCMT:crt0msg.obj
 0002:000053b8       ??_C@_0O@MJNIPGOH@TLOSS?5error?$AN?6?$AA@ 00000001800503b8     LIBCMT:crt0msg.obj
 0002:000053c8       ??_C@_0N@BONNPDHF@SING?5error?$AN?6?$AA@ 00000001800503c8     LIBCMT:crt0msg.obj
 0002:000053d8       ??_C@_0P@MBDAJNE@DOMAIN?5error?$AN?6?$AA@ 00000001800503d8     LIBCMT:crt0msg.obj
 0002:000053f0       ??_C@_0JL@DFDOOABL@R6034?$AN?6An?5application?5has?5made?5a@ 00000001800503f0     LIBCMT:crt0msg.obj
 0002:00005490       ??_C@_0PH@EPAFIJ@R6033?$AN?6?9?5Attempt?5to?5use?5MSIL?5cod@ 0000000180050490     LIBCMT:crt0msg.obj
 0002:00005588       ??_C@_0DD@BKEEABMM@R6032?$AN?6?9?5not?5enough?5space?5for?5lo@ 0000000180050588     LIBCMT:crt0msg.obj
 0002:000055c0       ??_C@_0GD@OFKILIED@R6031?$AN?6?9?5Attempt?5to?5initialize?5t@ 00000001800505c0     LIBCMT:crt0msg.obj
 0002:00005628       ??_C@_0BP@LPMHJOKI@R6030?$AN?6?9?5CRT?5not?5initialized?$AN?6?$AA@ 0000000180050628     LIBCMT:crt0msg.obj
 0002:00005648       ??_C@_0CF@KJDAIALP@R6028?$AN?6?9?5unable?5to?5initialize?5he@ 0000000180050648     LIBCMT:crt0msg.obj
 0002:00005670       ??_C@_0DF@GAKBPDFP@R6027?$AN?6?9?5not?5enough?5space?5for?5lo@ 0000000180050670     LIBCMT:crt0msg.obj
 0002:000056a8       ??_C@_0DF@IBLNNAIG@R6026?$AN?6?9?5not?5enough?5space?5for?5st@ 00000001800506a8     LIBCMT:crt0msg.obj
 0002:000056e0       ??_C@_0CG@IOHKGFNJ@R6025?$AN?6?9?5pure?5virtual?5function?5c@ 00000001800506e0     LIBCMT:crt0msg.obj
 0002:00005708       ??_C@_0DF@JIJJFJDC@R6024?$AN?6?9?5not?5enough?5space?5for?5_o@ 0000000180050708     LIBCMT:crt0msg.obj
 0002:00005740       ??_C@_0CJ@EGEJHFME@R6019?$AN?6?9?5unable?5to?5open?5console?5@ 0000000180050740     LIBCMT:crt0msg.obj
 0002:00005770       ??_C@_0CB@GNHNIELH@R6018?$AN?6?9?5unexpected?5heap?5error?$AN?6@ 0000000180050770     LIBCMT:crt0msg.obj
 0002:00005798       ??_C@_0CN@FOLDKNG@R6017?$AN?6?9?5unexpected?5multithread?5@ 0000000180050798     LIBCMT:crt0msg.obj
 0002:000057c8       ??_C@_0CM@FAHFJNHO@R6016?$AN?6?9?5not?5enough?5space?5for?5th@ 00000001800507c8     LIBCMT:crt0msg.obj
 0002:00005800       ??_C@_0JG@LBKMGKLD@?$AN?6This?5application?5has?5requested@ 0000000180050800     LIBCMT:crt0msg.obj
 0002:00005898       ??_C@_0CM@FLCNIPKK@R6009?$AN?6?9?5not?5enough?5space?5for?5en@ 0000000180050898     LIBCMT:crt0msg.obj
 0002:000058c8       ??_C@_0CK@KMMJOAPP@R6008?$AN?6?9?5not?5enough?5space?5for?5ar@ 00000001800508c8     LIBCMT:crt0msg.obj
 0002:000058f8       ??_C@_0CN@LEKKICBM@R6002?$AN?6?9?5floating?5point?5support?5@ 00000001800508f8     LIBCMT:crt0msg.obj
 0002:00005928       ??_C@_0CF@GOGNBNAK@Microsoft?5Visual?5C?$CL?$CL?5Runtime?5Lib@ 0000000180050928     LIBCMT:crt0msg.obj
 0002:00005950       ??_C@_02PHMGELLB@?6?6?$AA@ 0000000180050950     LIBCMT:crt0msg.obj
 0002:00005954       ??_C@_03KHICJKCI@?4?4?4?$AA@ 0000000180050954     LIBCMT:crt0msg.obj
 0002:00005958       ??_C@_0BH@DNAGHKFM@?$DMprogram?5name?5unknown?$DO?$AA@ 0000000180050958     LIBCMT:crt0msg.obj
 0002:00005970       ??_C@_0BK@OFGJDLJJ@Runtime?5Error?$CB?6?6Program?3?5?$AA@ 0000000180050970     LIBCMT:crt0msg.obj
 0002:00005990       ??_C@_07LCBHPJJN@LC_TIME?$AA@ 0000000180050990     LIBCMT:setlocal.obj
 0002:00005998       ??_C@_0L@DLHIECNL@LC_NUMERIC?$AA@ 0000000180050998     LIBCMT:setlocal.obj
 0002:000059a8       ??_C@_0M@MIENIKLA@LC_MONETARY?$AA@ 00000001800509a8     LIBCMT:setlocal.obj
 0002:000059b8       ??_C@_08EADHIDAD@LC_CTYPE?$AA@ 00000001800509b8     LIBCMT:setlocal.obj
 0002:000059c8       ??_C@_0L@KFJHEKIK@LC_COLLATE?$AA@ 00000001800509c8     LIBCMT:setlocal.obj
 0002:000059d4       ??_C@_06NEFDFEKB@LC_ALL?$AA@ 00000001800509d4     LIBCMT:setlocal.obj
 0002:000059e0       __lc_category              00000001800509e0     LIBCMT:setlocal.obj
 0002:00005af0       ??_C@_03EGDHDPFD@_?4?0?$AA@ 0000000180050af0     LIBCMT:setlocal.obj
 0002:00005af4       ??_C@_01LFCBOECM@?4?$AA@   0000000180050af4     LIBCMT:setlocal.obj
 0002:00005af8       ??_C@_01IDAFKMJL@_?$AA@    0000000180050af8     LIBCMT:setlocal.obj
 0002:00005afc       ??_C@_01ICJEACDI@?$DL?$AA@ 0000000180050afc     LIBCMT:setlocal.obj
 0002:00005b00       ??_C@_01NEMOKFLO@?$DN?$AA@ 0000000180050b00     LIBCMT:setlocal.obj
 0002:00005b04       ??_C@_01GFHCPBMG@C?$AA@    0000000180050b04     LIBCMT:setlocal.obj
 0002:00005b08       ??_C@_02BALPLPBG@?$DN?$DL?$AA@ 0000000180050b08     LIBCMT:setlocal.obj
 0002:00005b10       ??_C@_0P@MIGLKIOC@CorExitProcess?$AA@ 0000000180050b10     LIBCMT:crt0dat.obj
 0002:00005b20       ??_C@_1BI@BGOHAHKC@?$AAm?$AAs?$AAc?$AAo?$AAr?$AAe?$AAe?$AA?4?$AAd?$AAl?$AAl?$AA?$AA@ 0000000180050b20     LIBCMT:crt0dat.obj
 0002:00005b40       _XcptActTab                0000000180050b40     LIBCMT:winxfltr.obj
 0002:00005be0       ??_C@_0BI@DFKBFLJE@GetProcessWindowStation?$AA@ 0000000180050be0     LIBCMT:crtmbox.obj
 0002:00005bf8       ??_C@_0BK@CIDNPOGP@GetUserObjectInformationA?$AA@ 0000000180050bf8     LIBCMT:crtmbox.obj
 0002:00005c18       ??_C@_0BD@HHGDFDBJ@GetLastActivePopup?$AA@ 0000000180050c18     LIBCMT:crtmbox.obj
 0002:00005c30       ??_C@_0BA@HNOPNCHB@GetActiveWindow?$AA@ 0000000180050c30     LIBCMT:crtmbox.obj
 0002:00005c40       ??_C@_0M@CHKKJDAI@MessageBoxA?$AA@ 0000000180050c40     LIBCMT:crtmbox.obj
 0002:00005c50       ??_C@_0L@NDEGIDAG@USER32?4DLL?$AA@ 0000000180050c50     LIBCMT:crtmbox.obj
 0002:00005c5c       ??_C@_13NOLLCAOD@?$AA?$AA?$AA?$AA@ 0000000180050c5c     LIBCMT:a_map.obj
 0002:00005c60       __newctype                 0000000180050c60     LIBCMT:ctype.obj
 0002:00005f60       _wctype                    0000000180050f60     LIBCMT:ctype.obj
 0002:00006170       __newclmap                 0000000180051170     LIBCMT:ctype.obj
 0002:000062f0       __newcumap                 00000001800512f0     LIBCMT:ctype.obj
 0002:00006470       ??_C@_08JCCMCCIL@HH?3mm?3ss?$AA@ 0000000180051470     LIBCMT:strftime.obj
 0002:00006480       ??_C@_0BE@CKGJFCPC@dddd?0?5MMMM?5dd?0?5yyyy?$AA@ 0000000180051480     LIBCMT:strftime.obj
 0002:00006498       ??_C@_08BPBNCDIB@MM?1dd?1yy?$AA@ 0000000180051498     LIBCMT:strftime.obj
 0002:000064a4       ??_C@_02CJNFDJBF@PM?$AA@   00000001800514a4     LIBCMT:strftime.obj
 0002:000064a8       ??_C@_02DEDBPAFC@AM?$AA@   00000001800514a8     LIBCMT:strftime.obj
 0002:000064b0       ??_C@_08EDHMEBNP@December?$AA@ 00000001800514b0     LIBCMT:strftime.obj
 0002:000064c0       ??_C@_08HCHEGEOA@November?$AA@ 00000001800514c0     LIBCMT:strftime.obj
 0002:000064d0       ??_C@_07JJNFCEND@October?$AA@ 00000001800514d0     LIBCMT:strftime.obj
 0002:000064d8       ??_C@_09BHHEALKD@September?$AA@ 00000001800514d8     LIBCMT:strftime.obj
 0002:000064e4       ??_C@_06LBBHFDDG@August?$AA@ 00000001800514e4     LIBCMT:strftime.obj
 0002:000064ec       ??_C@_04MIEPOIFP@July?$AA@ 00000001800514ec     LIBCMT:strftime.obj
 0002:000064f4       ??_C@_04CNLMGBGM@June?$AA@ 00000001800514f4     LIBCMT:strftime.obj
 0002:000064fc       ??_C@_05DMJDNLEJ@April?$AA@ 00000001800514fc     LIBCMT:strftime.obj
 0002:00006504       ??_C@_05HPCKOFNC@March?$AA@ 0000000180051504     LIBCMT:strftime.obj
 0002:00006510       ??_C@_08GNJGEPFN@February?$AA@ 0000000180051510     LIBCMT:strftime.obj
 0002:00006520       ??_C@_07CGJPFGJA@January?$AA@ 0000000180051520     LIBCMT:strftime.obj
 0002:00006528       ??_C@_03MKABNOCG@Dec?$AA@  0000000180051528     LIBCMT:strftime.obj
 0002:0000652c       ??_C@_03JPJOFNIA@Nov?$AA@  000000018005152c     LIBCMT:strftime.obj
 0002:00006530       ??_C@_03BMAOKBAD@Oct?$AA@  0000000180051530     LIBCMT:strftime.obj
 0002:00006534       ??_C@_03GGCAPAJC@Sep?$AA@  0000000180051534     LIBCMT:strftime.obj
 0002:00006538       ??_C@_03IFJFEIGA@Aug?$AA@  0000000180051538     LIBCMT:strftime.obj
 0002:0000653c       ??_C@_03LBGABGKK@Jul?$AA@  000000018005153c     LIBCMT:strftime.obj
 0002:00006540       ??_C@_03IDFGHECI@Jun?$AA@  0000000180051540     LIBCMT:strftime.obj
 0002:00006544       ??_C@_03CNMDKL@May?$AA@    0000000180051544     LIBCMT:strftime.obj
 0002:00006548       ??_C@_03LEOLGMJP@Apr?$AA@  0000000180051548     LIBCMT:strftime.obj
 0002:0000654c       ??_C@_03ODNJBKGA@Mar?$AA@  000000018005154c     LIBCMT:strftime.obj
 0002:00006550       ??_C@_03HJBDCHOM@Feb?$AA@  0000000180051550     LIBCMT:strftime.obj
 0002:00006554       ??_C@_03JIHJHPIE@Jan?$AA@  0000000180051554     LIBCMT:strftime.obj
 0002:00006558       ??_C@_08INBOOONO@Saturday?$AA@ 0000000180051558     LIBCMT:strftime.obj
 0002:00006564       ??_C@_06JECMNKMI@Friday?$AA@ 0000000180051564     LIBCMT:strftime.obj
 0002:00006570       ??_C@_08HACCIKIA@Thursday?$AA@ 0000000180051570     LIBCMT:strftime.obj
 0002:00006580       ??_C@_09DLIGFAKA@Wednesday?$AA@ 0000000180051580     LIBCMT:strftime.obj
 0002:00006590       ??_C@_07BAAGCFCM@Tuesday?$AA@ 0000000180051590     LIBCMT:strftime.obj
 0002:00006598       ??_C@_06JLEDEDGH@Monday?$AA@ 0000000180051598     LIBCMT:strftime.obj
 0002:000065a0       ??_C@_06OOPIFAJ@Sunday?$AA@ 00000001800515a0     LIBCMT:strftime.obj
 0002:000065a8       ??_C@_03FEFJNEK@Sat?$AA@   00000001800515a8     LIBCMT:strftime.obj
 0002:000065ac       ??_C@_03IDIOELNC@Fri?$AA@  00000001800515ac     LIBCMT:strftime.obj
 0002:000065b0       ??_C@_03IOFIKPDN@Thu?$AA@  00000001800515b0     LIBCMT:strftime.obj
 0002:000065b4       ??_C@_03MHOMLAJA@Wed?$AA@  00000001800515b4     LIBCMT:strftime.obj
 0002:000065b8       ??_C@_03NAGEINEP@Tue?$AA@  00000001800515b8     LIBCMT:strftime.obj
 0002:000065bc       ??_C@_03PDAGKDH@Mon?$AA@   00000001800515bc     LIBCMT:strftime.obj
 0002:000065c0       ??_C@_03KOEHGMDN@Sun?$AA@  00000001800515c0     LIBCMT:strftime.obj
 0002:000065c4       ??_C@_03EBAPMIKO@a?1p?$AA@ 00000001800515c4     LIBCMT:strftime.obj
 0002:000065c8       ??_C@_05JAMEPDIN@am?1pm?$AA@ 00000001800515c8     LIBCMT:strftime.obj
 0002:000065d0       ??_C@_0O@FMJNFNKE@united?9states?$AA@ 00000001800515d0     LIBCMT:getqloc.obj
 0002:000065e0       ??_C@_0P@NDHFFKCA@united?9kingdom?$AA@ 00000001800515e0     LIBCMT:getqloc.obj
 0002:000065f0       ??_C@_0BC@HHDADLGF@trinidad?5?$CG?5tobago?$AA@ 00000001800515f0     LIBCMT:getqloc.obj
 0002:00006608       ??_C@_0M@IOAEBDAC@south?9korea?$AA@ 0000000180051608     LIBCMT:getqloc.obj
 0002:00006618       ??_C@_0N@FIELFKIJ@south?9africa?$AA@ 0000000180051618     LIBCMT:getqloc.obj
 0002:00006628       ??_C@_0M@OPNDHCMC@south?5korea?$AA@ 0000000180051628     LIBCMT:getqloc.obj
 0002:00006638       ??_C@_0N@MDEOEPFI@south?5africa?$AA@ 0000000180051638     LIBCMT:getqloc.obj
 0002:00006648       ??_C@_06FKAPCJLB@slovak?$AA@ 0000000180051648     LIBCMT:getqloc.obj
 0002:00006650       ??_C@_0M@EFJANOAL@puerto?9rico?$AA@ 0000000180051650     LIBCMT:getqloc.obj
 0002:00006660       ??_C@_08PGOJKDAI@pr?9china?$AA@ 0000000180051660     LIBCMT:getqloc.obj
 0002:00006670       ??_C@_08JHDOMCMI@pr?5china?$AA@ 0000000180051670     LIBCMT:getqloc.obj
 0002:0000667c       ??_C@_02JHCHFBLL@nz?$AA@   000000018005167c     LIBCMT:getqloc.obj
 0002:00006680       ??_C@_0M@LINHDHKP@new?9zealand?$AA@ 0000000180051680     LIBCMT:getqloc.obj
 0002:00006690       ??_C@_09IIIPPBDB@hong?9kong?$AA@ 0000000180051690     LIBCMT:getqloc.obj
 0002:000066a0       ??_C@_07HJLCKBG@holland?$AA@ 00000001800516a0     LIBCMT:getqloc.obj
 0002:000066a8       ??_C@_0O@LEHGMHAG@great?5britain?$AA@ 00000001800516a8     LIBCMT:getqloc.obj
 0002:000066b8       ??_C@_07FACOMELA@england?$AA@ 00000001800516b8     LIBCMT:getqloc.obj
 0002:000066c0       ??_C@_05JIHCEICB@czech?$AA@ 00000001800516c0     LIBCMT:getqloc.obj
 0002:000066c8       ??_C@_05BBJOBLGB@china?$AA@ 00000001800516c8     LIBCMT:getqloc.obj
 0002:000066d0       ??_C@_07GPKPHICP@britain?$AA@ 00000001800516d0     LIBCMT:getqloc.obj
 0002:000066d8       ??_C@_07MHIPBHMG@america?$AA@ 00000001800516d8     LIBCMT:getqloc.obj
 0002:000066e0       ??_C@_03KIALPMKC@usa?$AA@  00000001800516e0     LIBCMT:getqloc.obj
 0002:000066e4       ??_C@_02FGJGKGGD@us?$AA@   00000001800516e4     LIBCMT:getqloc.obj
 0002:000066e8       ??_C@_02NEINDODK@uk?$AA@   00000001800516e8     LIBCMT:getqloc.obj
 0002:000066ec       ??_C@_05JMPCFJFJ@swiss?$AA@ 00000001800516ec     LIBCMT:getqloc.obj
 0002:000066f8       ??_C@_0BA@HLOCPIOD@swedish?9finland?$AA@ 00000001800516f8     LIBCMT:getqloc.obj
 0002:00006708       ??_C@_0BC@PKCNIABK@spanish?9venezuela?$AA@ 0000000180051708     LIBCMT:getqloc.obj
 0002:00006720       ??_C@_0BA@GBHHMIJI@spanish?9uruguay?$AA@ 0000000180051720     LIBCMT:getqloc.obj
 0002:00006730       ??_C@_0BE@BHDOHPMC@spanish?9puerto?5rico?$AA@ 0000000180051730     LIBCMT:getqloc.obj
 0002:00006748       ??_C@_0N@KMOIDGGN@spanish?9peru?$AA@ 0000000180051748     LIBCMT:getqloc.obj
 0002:00006758       ??_C@_0BB@HMHLPGPH@spanish?9paraguay?$AA@ 0000000180051758     LIBCMT:getqloc.obj
 0002:00006770       ??_C@_0P@MCPKNGFD@spanish?9panama?$AA@ 0000000180051770     LIBCMT:getqloc.obj
 0002:00006780       ??_C@_0BC@IHOHGAIL@spanish?9nicaragua?$AA@ 0000000180051780     LIBCMT:getqloc.obj
 0002:00006798       ??_C@_0P@KLMJDNFJ@spanish?9modern?$AA@ 0000000180051798     LIBCMT:getqloc.obj
 0002:000067a8       ??_C@_0BA@BPAPGBCM@spanish?9mexican?$AA@ 00000001800517a8     LIBCMT:getqloc.obj
 0002:000067b8       ??_C@_0BB@PDECHHHE@spanish?9honduras?$AA@ 00000001800517b8     LIBCMT:getqloc.obj
 0002:000067d0       ??_C@_0BC@KLHKFGDB@spanish?9guatemala?$AA@ 00000001800517d0     LIBCMT:getqloc.obj
 0002:000067e8       ??_C@_0BE@MFOOKJAI@spanish?9el?5salvador?$AA@ 00000001800517e8     LIBCMT:getqloc.obj
 0002:00006800       ??_C@_0BA@FCOKFPFC@spanish?9ecuador?$AA@ 0000000180051800     LIBCMT:getqloc.obj
 0002:00006810       ??_C@_0BL@PLMGIMOO@spanish?9dominican?5republic?$AA@ 0000000180051810     LIBCMT:getqloc.obj
 0002:00006830       ??_C@_0BD@HLGDNMHB@spanish?9costa?5rica?$AA@ 0000000180051830     LIBCMT:getqloc.obj
 0002:00006848       ??_C@_0BB@PKCBKCPE@spanish?9colombia?$AA@ 0000000180051848     LIBCMT:getqloc.obj
 0002:00006860       ??_C@_0O@MCBIJGNE@spanish?9chile?$AA@ 0000000180051860     LIBCMT:getqloc.obj
 0002:00006870       ??_C@_0BA@BEFEIGJJ@spanish?9bolivia?$AA@ 0000000180051870     LIBCMT:getqloc.obj
 0002:00006880       ??_C@_0BC@EMECMPD@spanish?9argentina?$AA@ 0000000180051880     LIBCMT:getqloc.obj
 0002:00006898       ??_C@_0BF@EALFLENP@portuguese?9brazilian?$AA@ 0000000180051898     LIBCMT:getqloc.obj
 0002:000068b0       ??_C@_0BC@HBLEBLNN@norwegian?9nynorsk?$AA@ 00000001800518b0     LIBCMT:getqloc.obj
 0002:000068c8       ??_C@_0BB@HMACDDCK@norwegian?9bokmal?$AA@ 00000001800518c8     LIBCMT:getqloc.obj
 0002:000068e0       ??_C@_09BAFFPPHE@norwegian?$AA@ 00000001800518e0     LIBCMT:getqloc.obj
 0002:000068f0       ??_C@_0O@EAJFJDFG@italian?9swiss?$AA@ 00000001800518f0     LIBCMT:getqloc.obj
 0002:00006900       ??_C@_0O@CNOMPGD@irish?9english?$AA@ 0000000180051900     LIBCMT:getqloc.obj
 0002:00006910       ??_C@_0N@EDHBGCKG@german?9swiss?$AA@ 0000000180051910     LIBCMT:getqloc.obj
 0002:00006920       ??_C@_0BC@JACMHNBP@german?9luxembourg?$AA@ 0000000180051920     LIBCMT:getqloc.obj
 0002:00006938       ??_C@_0BE@HBGMGFEG@german?9lichtenstein?$AA@ 0000000180051938     LIBCMT:getqloc.obj
 0002:00006950       ??_C@_0BA@HKKBIBKL@german?9austrian?$AA@ 0000000180051950     LIBCMT:getqloc.obj
 0002:00006960       ??_C@_0N@GCAEPEBK@french?9swiss?$AA@ 0000000180051960     LIBCMT:getqloc.obj
 0002:00006970       ??_C@_0BC@DJFJJCK@french?9luxembourg?$AA@ 0000000180051970     LIBCMT:getqloc.obj
 0002:00006988       ??_C@_0BA@NNCEDFIC@french?9canadian?$AA@ 0000000180051988     LIBCMT:getqloc.obj
 0002:00006998       ??_C@_0P@CMPOCLM@french?9belgian?$AA@ 0000000180051998     LIBCMT:getqloc.obj
 0002:000069a8       ??_C@_0M@GHHDJOK@english?9usa?$AA@ 00000001800519a8     LIBCMT:getqloc.obj
 0002:000069b8       ??_C@_0L@PLDJKEIL@english?9us?$AA@ 00000001800519b8     LIBCMT:getqloc.obj
 0002:000069c8       ??_C@_0L@HJCCDMNC@english?9uk?$AA@ 00000001800519c8     LIBCMT:getqloc.obj
 0002:000069d8       ??_C@_0BK@CKLIAGJB@english?9trinidad?5y?5tobago?$AA@ 00000001800519d8     LIBCMT:getqloc.obj
 0002:000069f8       ??_C@_0BF@JMJMGNNF@english?9south?5africa?$AA@ 00000001800519f8     LIBCMT:getqloc.obj
 0002:00006a10       ??_C@_0L@DKIIFDFD@english?9nz?$AA@ 0000000180051a10     LIBCMT:getqloc.obj
 0002:00006a20       ??_C@_0BA@ONHGJCLH@english?9jamaica?$AA@ 0000000180051a20     LIBCMT:getqloc.obj
 0002:00006a30       ??_C@_0M@HJBGHOPO@english?9ire?$AA@ 0000000180051a30     LIBCMT:getqloc.obj
 0002:00006a40       ??_C@_0BC@LFEKMIFB@english?9caribbean?$AA@ 0000000180051a40     LIBCMT:getqloc.obj
 0002:00006a58       ??_C@_0M@OLDPFKHI@english?9can?$AA@ 0000000180051a58     LIBCMT:getqloc.obj
 0002:00006a68       ??_C@_0P@OMDEHBMP@english?9belize?$AA@ 0000000180051a68     LIBCMT:getqloc.obj
 0002:00006a78       ??_C@_0M@KFHFPFED@english?9aus?$AA@ 0000000180051a78     LIBCMT:getqloc.obj
 0002:00006a88       ??_C@_0BB@MNMBKDFE@english?9american?$AA@ 0000000180051a88     LIBCMT:getqloc.obj
 0002:00006aa0       ??_C@_0O@KIDLNNBA@dutch?9belgian?$AA@ 0000000180051aa0     LIBCMT:getqloc.obj
 0002:00006ab0       ??_C@_0BE@JBKABBMH@chinese?9traditional?$AA@ 0000000180051ab0     LIBCMT:getqloc.obj
 0002:00006ac8       ??_C@_0BC@MJJMPKCG@chinese?9singapore?$AA@ 0000000180051ac8     LIBCMT:getqloc.obj
 0002:00006ae0       ??_C@_0BD@FDKADDCP@chinese?9simplified?$AA@ 0000000180051ae0     LIBCMT:getqloc.obj
 0002:00006af8       ??_C@_0BB@DBEFDDME@chinese?9hongkong?$AA@ 0000000180051af8     LIBCMT:getqloc.obj
 0002:00006b10       ??_C@_07DHNMFMCI@chinese?$AA@ 0000000180051b10     LIBCMT:getqloc.obj
 0002:00006b18       ??_C@_03FNDDCHI@chi?$AA@   0000000180051b18     LIBCMT:getqloc.obj
 0002:00006b1c       ??_C@_03BMMIADDJ@chh?$AA@  0000000180051b1c     LIBCMT:getqloc.obj
 0002:00006b20       ??_C@_08OAIPJDGI@canadian?$AA@ 0000000180051b20     LIBCMT:getqloc.obj
 0002:00006b30       ??_C@_07HBPMNPNJ@belgian?$AA@ 0000000180051b30     LIBCMT:getqloc.obj
 0002:00006b38       ??_C@_0L@OEKOPBEL@australian?$AA@ 0000000180051b38     LIBCMT:getqloc.obj
 0002:00006b48       ??_C@_0BB@MEIMBEDG@american?9english?$AA@ 0000000180051b48     LIBCMT:getqloc.obj
 0002:00006b60       ??_C@_0BB@DFMDPDGB@american?5english?$AA@ 0000000180051b60     LIBCMT:getqloc.obj
 0002:00006b78       ??_C@_08IJLOKOLL@american?$AA@ 0000000180051b78     LIBCMT:getqloc.obj
 0002:00006b90       __rg_language              0000000180051b90     LIBCMT:getqloc.obj
 0002:00006fa0       __rg_country               0000000180051fa0     LIBCMT:getqloc.obj
 0002:00007110       __rglangidNotDefault       0000000180052110     LIBCMT:getqloc.obj
 0002:00007124       ??_C@_01GBGANLPD@0?$AA@    0000000180052124     LIBCMT:getqloc.obj
 0002:00007128       ??_C@_03NFKLAGEF@OCP?$AA@  0000000180052128     LIBCMT:getqloc.obj
 0002:0000712c       ??_C@_03DFHEHBHG@ACP?$AA@  000000018005212c     LIBCMT:getqloc.obj
 0002:00007130       ??_C@_0BC@NFIEMBLL@Norwegian?9Nynorsk?$AA@ 0000000180052130     LIBCMT:getqloc.obj
 0002:00007148       ??_C@_0BC@JEAENNKH@SystemFunction036?$AA@ 0000000180052148     LIBCMT:rand_s.obj
 0002:00007160       ??_C@_0N@JJPEKNFO@ADVAPI32?4DLL?$AA@ 0000000180052160     LIBCMT:rand_s.obj
 0002:00007180       __dnames                   0000000180052180     LIBCMT:timeset.obj
 0002:00007198       __mnames                   0000000180052198     LIBCMT:timeset.obj
 0002:000071c0       ??_C@_02CLFPBFFP@TZ?$AA@   00000001800521c0     LIBCMT:tzset.obj
 0002:00007238       __rtc_iaa                  0000000180052238     LIBCMT:_initsect_.obj
 0002:00007240       __rtc_izz                  0000000180052240     LIBCMT:_initsect_.obj
 0002:00007248       __rtc_taa                  0000000180052248     LIBCMT:_initsect_.obj
 0002:00007250       __rtc_tzz                  0000000180052250     LIBCMT:_initsect_.obj
 0002:00009c44       __IMPORT_DESCRIPTOR_KERNEL32 0000000180054c44     kernel32:KERNEL32.dll
 0002:00009c58       __IMPORT_DESCRIPTOR_USER32 0000000180054c58     user32:USER32.dll
 0002:00009c6c       __IMPORT_DESCRIPTOR_GDI32  0000000180054c6c     gdi32:GDI32.dll
 0002:00009c80       __IMPORT_DESCRIPTOR_ADVAPI32 0000000180054c80     advapi32:ADVAPI32.dll
 0002:00009c94       __IMPORT_DESCRIPTOR_SHELL32 0000000180054c94     shell32:SHELL32.dll
 0002:00009ca8       __IMPORT_DESCRIPTOR_VERSION 0000000180054ca8     version:VERSION.dll
 0002:00009cbc       __NULL_IMPORT_DESCRIPTOR   0000000180054cbc     kernel32:KERNEL32.dll
 0003:00000000       ?gsInternalCommands@@3PEB_WEB 0000000180057000     CmdLine.obj
 0003:00000010       ?Far3Func@@3PAUExportFunc@@A 0000000180057010     ConEmuPlugin.obj
 0003:00000090       ?StdPalette@?1??GetStdPalette@Far3Color@@SAPEBKXZ@4PAKA 0000000180057090     ConEmuPlugin1900.obj
 0003:000000d0       ?guid_ConEmu@@3U_GUID@@A   00000001800570d0     ConEmuPlugin2800.obj
 0003:000000e0       ?guid_ConEmuPluginItems@@3U_GUID@@A 00000001800570e0     ConEmuPlugin2800.obj
 0003:000000f0       ?guid_ConEmuPluginMenu@@3U_GUID@@A 00000001800570f0     ConEmuPlugin2800.obj
 0003:00000100       ?guid_ConEmuGuiMacroDlg@@3U_GUID@@A 0000000180057100     ConEmuPlugin2800.obj
 0003:00000110       ?guid_ConEmuWaitEndSynchro@@3U_GUID@@A 0000000180057110     ConEmuPlugin2800.obj
 0003:00000120       ?guid_ConEmuMsg@@3U_GUID@@A 0000000180057120     ConEmuPlugin2800.obj
 0003:00000130       ?guid_ConEmuInput@@3U_GUID@@A 0000000180057130     ConEmuPlugin2800.obj
 0003:00000140       ?guid_ConEmuMenu@@3U_GUID@@A 0000000180057140     ConEmuPlugin2800.obj
 0003:00000180       ?gnPluginOpenFrom@@3HA     0000000180057180     ConEmuPluginBase.obj
 0003:00000184       ?gnReqCommand@@3KA         0000000180057184     ConEmuPluginBase.obj
 0003:00000188       ?lastModifiedStateW@@3HA   0000000180057188     ConEmuPluginBase.obj
 0003:00000190       ?gFarMode@@3UHookModeFar@@A 0000000180057190     ConEmuPluginBase.obj
 0003:000001c0       ?gpPluginMenu@@3PAUPluginAndMenuCommands@@A 00000001800571c0     ConEmuPluginBase.obj
 0003:00000280       ?g_TerminatedThreadIdx@@3JA 0000000180057280     WThreads.obj
 0003:00000290       __abort_behavior           0000000180057290     LIBCMT:abort.obj
 0003:00000410       __flsindex                 0000000180057410     LIBCMT:tidtable.obj
 0003:00000420       __initialmbcinfo           0000000180057420     LIBCMT:mbctype.obj
 0003:00000640       _mbctype                   0000000180057640     LIBCMT:mbctype.obj
 0003:00000750       _mbcasemap                 0000000180057750     LIBCMT:mbctype.obj
 0003:00000850       __ptmbcinfo                0000000180057850     LIBCMT:mbctype.obj
 0003:00000958       __globallocalestatus       0000000180057958     LIBCMT:glstatus.obj
 0003:00000960       __clocalestr               0000000180057960     LIBCMT:nlsdata2.obj
 0003:00000970       __initiallocinfo           0000000180057970     LIBCMT:nlsdata2.obj
 0003:00000ad0       __ptlocinfo                0000000180057ad0     LIBCMT:nlsdata2.obj
 0003:00000ad8       __lc_clike                 0000000180057ad8     LIBCMT:nlsdata2.obj
 0003:00000ae0       __initiallocalestructinfo  0000000180057ae0     LIBCMT:nlsdata2.obj
 0003:00000c60       _aexit_rtn                 0000000180057c60     LIBCMT:crt0dat.obj
 0003:00000c70       __badioinfo                0000000180057c70     LIBCMT:ioinit.obj
 0003:00000cc8       _amblksiz                  0000000180057cc8     LIBCMT:heapinit.obj
 0003:00000ccc       _First_FPE_Indx            0000000180057ccc     LIBCMT:winxfltr.obj
 0003:00000cd0       _Num_FPE                   0000000180057cd0     LIBCMT:winxfltr.obj
 0003:00000cd4       _XcptActTabSize            0000000180057cd4     LIBCMT:winxfltr.obj
 0003:00000cd8       _XcptActTabCount           0000000180057cd8     LIBCMT:winxfltr.obj
 0003:00000f20       __security_cookie          0000000180057f20     LIBCMT:gs_cookie.obj
 0003:00000f28       __security_cookie_complement 0000000180057f28     LIBCMT:gs_cookie.obj
 0003:00000f30       _pctype                    0000000180057f30     LIBCMT:ctype.obj
 0003:00000f38       _pwctype                   0000000180057f38     LIBCMT:ctype.obj
 0003:00000f40       __lc_time_c                0000000180057f40     LIBCMT:strftime.obj
 0003:000010a8       __lc_time_curr             00000001800580a8     LIBCMT:strftime.obj
 0003:000010b0       __lconv_static_decimal     00000001800580b0     LIBCMT:lconv.obj
 0003:000010c0       __lconv_c                  00000001800580c0     LIBCMT:lconv.obj
 0003:00001118       __lconv                    0000000180058118     LIBCMT:lconv.obj
 0003:00001120       __mb_cur_max               0000000180058120     LIBCMT:nlsdata1.obj
 0003:00001124       __decimal_point            0000000180058124     LIBCMT:nlsdata1.obj
 0003:00001128       __decimal_point_length     0000000180058128     LIBCMT:nlsdata1.obj
 0003:00001130       _cfltcvt_tab               0000000180058130     LIBCMT:cmiscdat.obj
 0003:00001180       _timezone                  0000000180058180     LIBCMT:timeset.obj
 0003:00001184       _daylight                  0000000180058184     LIBCMT:timeset.obj
 0003:00001188       _dstbias                   0000000180058188     LIBCMT:timeset.obj
 0003:00001210       _tzname                    0000000180058210     LIBCMT:timeset.obj
 0003:00001240       _lpdays                    0000000180058240     LIBCMT:days.obj
 0003:00001278       _days                      0000000180058278     LIBCMT:days.obj
 0003:000012c0       ?gbInCommonShutdown@@3HA   00000001800582c0     Common.obj
 0003:000012c8       ?OnShutdownConsole@@3P6AXXZEA 00000001800582c8     Common.obj
 0003:000012d8       ?gpLocalSecurity@@3PEAU_SECURITY_ATTRIBUTES@@EA 00000001800582d8     ConEmuCheck.obj
 0003:000012e0       ?ghWorkingModule@@3_KA     00000001800582e0     ConEmuCheck.obj
 0003:000012e8       ?gfGetRealConsoleWindow@@3P6APEAUHWND__@@XZEA 00000001800582e8     ConEmuCheck.obj
 0003:00001338       ?ghHooksModule@@3PEAUHINSTANCE__@@EA 0000000180058338     ConEmuInjects.obj
 0003:00001340       ?gbHooksModuleLoaded@@3HA  0000000180058340     ConEmuInjects.obj
 0003:00001348       ?SetHookCallbacks@@3P6A_NPEBDPEB_WPEAUHINSTANCE__@@P6AHPEAUHookCallbackArg@@@ZP6AX3@Z5@ZEA 0000000180058348     ConEmuInjects.obj
 0003:00001350       ?SetLoadLibraryCallback@@3P6AXPEAUHINSTANCE__@@P6AX0@Z1@ZEA 0000000180058350     ConEmuInjects.obj
 0003:00001358       ?SetFarHookMode@@3P6AXPEAUHookModeFar@@@ZEA 0000000180058358     ConEmuInjects.obj
 0003:00001360       ?ghExtConModule@@3PEAUHINSTANCE__@@EA 0000000180058360     ConEmuInjects.obj
 0003:00001368       ?SetHookCallbacksExt@@3P6A_NPEBDPEB_WPEAUHINSTANCE__@@P6AHPEAUHookCallbackArg@@@ZP6AX3@Z5@ZEA 0000000180058368     ConEmuInjects.obj
 0003:00001370       ?InfoW1900@@3PEAUPluginStartupInfo@@EA 0000000180058370     ConEmuPlugin1900.obj
 0003:00001378       ?FSFW1900@@3PEAUFarStandardFunctions@@EA 0000000180058378     ConEmuPlugin1900.obj
 0003:00001648       ?LastIndex@?1??Color2FgIndex@Far3Color@@SAXKAEAGPEBK@Z@4HA 0000000180058648     ConEmuPlugin1900.obj
 0003:0000164c       ?LastColor@?1??Color2FgIndex@Far3Color@@SAXKAEAGPEBK@Z@4KA 000000018005864c     ConEmuPlugin1900.obj
 0003:00001650       ?LastIndex@?1??Color2BgIndex@Far3Color@@SAXKHAEAGPEBK@Z@4HA 0000000180058650     ConEmuPlugin1900.obj
 0003:00001654       ?LastColor@?1??Color2BgIndex@Far3Color@@SAXKHAEAGPEBK@Z@4KA 0000000180058654     ConEmuPlugin1900.obj
 0003:00001658       ?InfoW2800@@3PEAUPluginStartupInfo@@EA 0000000180058658     ConEmuPlugin2800.obj
 0003:00001660       ?FSFW2800@@3PEAUFarStandardFunctions@@EA 0000000180058660     ConEmuPlugin2800.obj
 0003:00001958       ?InfoW995@@3PEAUPluginStartupInfo@@EA 0000000180058958     ConEmuPlugin995.obj
 0003:00001960       ?FSFW995@@3PEAUFarStandardFunctions@@EA 0000000180058960     ConEmuPlugin995.obj
 0003:00001bc0       ?InfoA@@3PEAUPluginStartupInfo@@EA 0000000180058bc0     ConEmuPluginA.obj
 0003:00001bc8       ?FSFA@@3PEAUFarStandardFunctions@@EA 0000000180058bc8     ConEmuPluginA.obj
 0003:00001ee0       ?gszDir2@@3PA_WA           0000000180058ee0     ConEmuPluginBase.obj
 0003:000026e0       ?gpConMap@@3PEAV?$MFileMapping@UCESERVER_CONSOLE_MAPPING_HDR@@@@EA 00000001800596e0     ConEmuPluginBase.obj
 0003:000026e8       ?gsbiDetached@@3U_CONSOLE_SCREEN_BUFFER_INFO@@A 00000001800596e8     ConEmuPluginBase.obj
 0003:00002700       ?gszDir1@@3PA_WA           0000000180059700     ConEmuPluginBase.obj
 0003:00002f00       ?gpPlugin@@3PEAVCPluginBase@@EA 0000000180059f00     ConEmuPluginBase.obj
 0003:00002f08       ?gb_DllUniqueWarned@CPluginBase@@1_NA 0000000180059f08     ConEmuPluginBase.obj
 0003:00002f09       ?gb_DllUniqueChecked@CPluginBase@@1_NA 0000000180059f09     ConEmuPluginBase.obj
 0003:00002f0a       ?gb_ProtocolWarned@CPluginBase@@1_NA 0000000180059f0a     ConEmuPluginBase.obj
 0003:00002f0b       ?gbExitFarCalled@@3_NA     0000000180059f0b     ConEmuPluginBase.obj
 0003:00002f14       ?gbWasDetached@@3HA        0000000180059f14     ConEmuPluginBase.obj
 0003:00002f18       ?gbFarWndVisible@@3HA      0000000180059f18     ConEmuPluginBase.obj
 0003:00002f1c       ?gnPeekReadCount@@3KA      0000000180059f1c     ConEmuPluginBase.obj
 0003:00002f20       ?gnInLongOperation@@3JA    0000000180059f20     ConEmuPluginBase.obj
 0003:00002f24       ?gdwPreDetachGuiPID@@3KA   0000000180059f24     ConEmuPluginBase.obj
 0003:00002f28       ?ghPluginModule@@3PEAUHINSTANCE__@@EA 0000000180059f28     ConEmuPluginBase.obj
 0003:00002f30       ?ghConEmuWndDC@@3PEAUHWND__@@EA 0000000180059f30     ConEmuPluginBase.obj
 0003:00002f38       ?gdwServerPID@@3KA         0000000180059f38     ConEmuPluginBase.obj
 0003:00002f3c       ?TerminalMode@@3HA         0000000180059f3c     ConEmuPluginBase.obj
 0003:00002f40       ?FarHwnd@@3PEAUHWND__@@EA  0000000180059f40     ConEmuPluginBase.obj
 0003:00002f48       ?gnMainThreadId@@3KA       0000000180059f48     ConEmuPluginBase.obj
 0003:00002f4c       ?gnMainThreadIdInitial@@3KA 0000000180059f4c     ConEmuPluginBase.obj
 0003:00002f50       ?ghMonitorThread@@3PEAXEA  0000000180059f50     ConEmuPluginBase.obj
 0003:00002f58       ?gnMonitorThreadId@@3KA    0000000180059f58     ConEmuPluginBase.obj
 0003:00002f5c       ?maxTabCount@@3HA          0000000180059f5c     ConEmuPluginBase.obj
 0003:00002f60       ?ghSetWndSendTabsEvent@@3PEAXEA 0000000180059f60     ConEmuPluginBase.obj
 0003:00002f68       ?gFarVersion@@3UFarVersion@@A 0000000180059f68     ConEmuPluginBase.obj
 0003:00002f74       ?lastWindowCount@@3HA      0000000180059f74     ConEmuPluginBase.obj
 0003:00002f78       ?gnCurTabCount@@3HA        0000000180059f78     ConEmuPluginBase.obj
 0003:00002f7c       ?gbForceSendTabs@@3HA      0000000180059f7c     ConEmuPluginBase.obj
 0003:00002f80       ?gpTabs@@3PEAUCESERVER_REQ@@EA 0000000180059f80     ConEmuPluginBase.obj
 0003:00002f88       ?gnCurrentWindowType@@3HA  0000000180059f88     ConEmuPluginBase.obj
 0003:00002f8c       ?gbIgnoreUpdateTabs@@3HA   0000000180059f8c     ConEmuPluginBase.obj
 0003:00002f90       ?gbRequestUpdateTabs@@3HA  0000000180059f90     ConEmuPluginBase.obj
 0003:00002f94       ?gbClosingModalViewerEditor@@3HA 0000000180059f94     ConEmuPluginBase.obj
 0003:00002f98       ?gLastMouseReadEvent@@3U_MOUSE_EVENT_RECORD@@A 0000000180059f98     ConEmuPluginBase.obj
 0003:00002fa8       ?gbUngetDummyMouseEvent@@3HA 0000000180059fa8     ConEmuPluginBase.obj
 0003:00002fac       ?gnAllowDummyMouseEvent@@3JA 0000000180059fac     ConEmuPluginBase.obj
 0003:00002fb0       ?gnDummyMouseEventFromMacro@@3JA 0000000180059fb0     ConEmuPluginBase.obj
 0003:00002fb4       ?gnDataSize@@3KA           0000000180059fb4     ConEmuPluginBase.obj
 0003:00002fb8       ?csData@@3PEAVMSection@@EA 0000000180059fb8     ConEmuPluginBase.obj
 0003:00002fc0       ?gpCmdRet@@3PEAUCESERVER_REQ@@EA 0000000180059fc0     ConEmuPluginBase.obj
 0003:00002fc8       ?gpData@@3PEAEEA           0000000180059fc8     ConEmuPluginBase.obj
 0003:00002fd0       ?gpCursor@@3PEAEEA         0000000180059fd0     ConEmuPluginBase.obj
 0003:00002fd8       ?gpReqCommandData@@3PEAXEA 0000000180059fd8     ConEmuPluginBase.obj
 0003:00002fe0       ?ghReqCommandEvent@@3PEAXEA 0000000180059fe0     ConEmuPluginBase.obj
 0003:00002fe8       ?gbReqCommandWaiting@@3HA  0000000180059fe8     ConEmuPluginBase.obj
 0003:00002fec       ?gnMsgTabChanged@@3IA      0000000180059fec     ConEmuPluginBase.obj
 0003:00002ff0       ?csTabs@@3PEAVMSection@@EA 0000000180059ff0     ConEmuPluginBase.obj
 0003:00002ff8       ?gbPlugKeyChanged@@3HA     0000000180059ff8     ConEmuPluginBase.obj
 0003:00002ffc       ?gbNeedPostTabSend@@3HA    0000000180059ffc     ConEmuPluginBase.obj
 0003:00003000       ?ghRegMonitorKey@@3PEAUHKEY__@@EA 000000018005a000     ConEmuPluginBase.obj
 0003:00003008       ?ghRegMonitorEvt@@3PEAXEA  000000018005a008     ConEmuPluginBase.obj
 0003:00003010       ?ghPluginSemaphore@@3PEAXEA 000000018005a010     ConEmuPluginBase.obj
 0003:00003018       ?gbNeedPostEditCheck@@3HA  000000018005a018     ConEmuPluginBase.obj
 0003:0000301c       ?gbNeedPostReloadFarInfo@@3HA 000000018005a01c     ConEmuPluginBase.obj
 0003:00003020       ?gsFarLang@@3PA_WA         000000018005a020     ConEmuPluginBase.obj
 0003:000030a0       ?gnNeedPostTabSendTick@@3KA 000000018005a0a0     ConEmuPluginBase.obj
 0003:000030a4       ?gbStartedUnderConsole2@@3HA 000000018005a0a4     ConEmuPluginBase.obj
 0003:000030a8       ?gpConMapInfo@@3PEBUCESERVER_CONSOLE_MAPPING_HDR@@EB 000000018005a0a8     ConEmuPluginBase.obj
 0003:000030b0       ?gnSelfPID@@3KA            000000018005a0b0     ConEmuPluginBase.obj
 0003:000030b4       ?gbWaitConsoleInputEmpty@@3HA 000000018005a0b4     ConEmuPluginBase.obj
 0003:000030b8       ?ghFarInfoMapping@@3PEAXEA 000000018005a0b8     ConEmuPluginBase.obj
 0003:000030c0       ?gpFarInfo@@3PEAUCEFAR_INFO_MAPPING@@EA 000000018005a0c0     ConEmuPluginBase.obj
 0003:000030c8       ?gpFarInfoMapping@@3PEAUCEFAR_INFO_MAPPING@@EA 000000018005a0c8     ConEmuPluginBase.obj
 0003:000030d0       ?ghFarAliveEvent@@3PEAXEA  000000018005a0d0     ConEmuPluginBase.obj
 0003:000030d8       ?gPanelRegLeft@@3UPanelViewRegInfo@@A 000000018005a0d8     ConEmuPluginBase.obj
 0003:00003108       ?gPanelRegRight@@3UPanelViewRegInfo@@A 000000018005a108     ConEmuPluginBase.obj
 0003:00003138       ?ghConEmuCtrlPressed@@3PEAXEA 000000018005a138     ConEmuPluginBase.obj
 0003:00003140       ?ghConEmuShiftPressed@@3PEAXEA 000000018005a140     ConEmuPluginBase.obj
 0003:00003148       ?gbWaitConsoleWrite@@3HA   000000018005a148     ConEmuPluginBase.obj
 0003:0000314c       ?gnSynchroCount@@3HA       000000018005a14c     ConEmuPluginBase.obj
 0003:00003150       ?ghConsoleInputEmpty@@3PEAXEA 000000018005a150     ConEmuPluginBase.obj
 0003:00003158       ?ghConsoleWrite@@3PEAXEA   000000018005a158     ConEmuPluginBase.obj
 0003:00003160       ?gbSynchroProhibited@@3_NA 000000018005a160     ConEmuPluginBase.obj
 0003:00003161       ?gbInputSynchroPending@@3_NA 000000018005a161     ConEmuPluginBase.obj
 0003:00003178       ?hkFunc@@3UHkFunc@@A       000000018005a178     HkFunc.obj
 0003:00003180       ?AssertMsgBox@@3P6AHPEB_WI0PEAUHWND__@@_N@ZEA 000000018005a180     MAssert.obj
 0003:00003188       ?ghHeap@@3PEAXEA           000000018005a188     Memory.obj
 0003:00003190       ?gNullDesc@@3PEAVMNullDesc@@EA 000000018005a190     MSecurity.obj
 0003:00003198       ?gbNeedBgActivate@@3HA     000000018005a198     PluginBackground.obj
 0003:0000319c       ?gbBgPluginsAllowed@@3HA   000000018005a19c     PluginBackground.obj
 0003:000031a0       ?gpBgPlugin@@3PEAVCPluginBackground@@EA 000000018005a1a0     PluginBackground.obj
 0003:000031b0       ?gszPluginServerPipe@@3PA_WA 000000018005a1b0     PluginSrv.obj
 0003:000033b8       ?gpPlugServer@@3PEAU?$PipeServer@UCESERVER_REQ@@@@EA 000000018005a3b8     PluginSrv.obj
 0003:000033c0       ?ghServerTerminateEvent@@3PEAXEA 000000018005a3c0     PluginSrv.obj
 0003:000033c8       ?gbForcedServerTermination@@3_NA 000000018005a3c8     PluginSrv.obj
 0003:000033d0       ?gpConsoleInfoStr@@3PEAU_CONSOLE_INFO@@EA 000000018005a3d0     WConsole.obj
 0003:000033d8       ?ghConsoleSection@@3PEAXEA 000000018005a3d8     WConsole.obj
 0003:000033e0       ?g_LastSetConsoleFont@@3UMY_CONSOLE_FONT_INFOEX@@A 000000018005a3e0     WConsole.obj
 0003:000034d0       ?gfnSearchAppPaths@@3P6A_NPEB_WAEAUCEStr@@_NPEAU1@@ZEA 000000018005a4d0     WObjects.obj
 0003:0000bd20       ?g_ThreadsIdx@@3JA         0000000180062d20     WThreads.obj
 0003:0000bd2c       __error_mode               0000000180062d2c     LIBCMT:dllcrt0.obj
 0003:0000bd30       _aenvptr                   0000000180062d30     LIBCMT:dllcrt0.obj
 0003:0000bd38       _wenvptr                   0000000180062d38     LIBCMT:dllcrt0.obj
 0003:0000bd40       __app_type                 0000000180062d40     LIBCMT:dllcrt0.obj
 0003:0000c070       __pPurecall                0000000180063070     LIBCMT:inithelp.obj
 0003:0000c080       __mbulinfo                 0000000180063080     LIBCMT:mbctype.obj
 0003:0000c08c       __mbcodepage               000000018006308c     LIBCMT:mbctype.obj
 0003:0000c090       __ismbcodepage             0000000180063090     LIBCMT:mbctype.obj
 0003:0000c094       __mblcid                   0000000180063094     LIBCMT:mbctype.obj
 0003:0000c098       __locale_changed           0000000180063098     LIBCMT:setlocal.obj
 0003:0000c0a0       __lc_handle                00000001800630a0     LIBCMT:nlsdata2.obj
 0003:0000c0b8       __lc_codepage              00000001800630b8     LIBCMT:nlsdata2.obj
 0003:0000c0bc       __lc_collate_cp            00000001800630bc     LIBCMT:nlsdata2.obj
 0003:0000c0c0       __pInvalidArgHandler       00000001800630c0     LIBCMT:invarg.obj
 0003:0000c0c8       _maxwait                   00000001800630c8     LIBCMT:crtheap.obj
 0003:0000c0d0       _umaskval                  00000001800630d0     LIBCMT:crt0dat.obj
 0003:0000c0d4       __argc                     00000001800630d4     LIBCMT:crt0dat.obj
 0003:0000c0d8       __argv                     00000001800630d8     LIBCMT:crt0dat.obj
 0003:0000c0e0       __wargv                    00000001800630e0     LIBCMT:crt0dat.obj
 0003:0000c0e8       _environ                   00000001800630e8     LIBCMT:crt0dat.obj
 0003:0000c0f0       __initenv                  00000001800630f0     LIBCMT:crt0dat.obj
 0003:0000c0f8       _wenviron                  00000001800630f8     LIBCMT:crt0dat.obj
 0003:0000c100       __winitenv                 0000000180063100     LIBCMT:crt0dat.obj
 0003:0000c108       _pgmptr                    0000000180063108     LIBCMT:crt0dat.obj
 0003:0000c110       _wpgmptr                   0000000180063110     LIBCMT:crt0dat.obj
 0003:0000c118       _exitflag                  0000000180063118     LIBCMT:crt0dat.obj
 0003:0000c11c       _C_Termination_Done        000000018006311c     LIBCMT:crt0dat.obj
 0003:0000c120       _C_Exit_Done               0000000180063120     LIBCMT:crt0dat.obj
 0003:0000c240       _crtheap                   0000000180063240     LIBCMT:heapinit.obj
 0003:0000c4dc       __lconv_static_null        00000001800634dc     LIBCMT:lconv.obj
 0003:0000c4e0       ?__pInconsistency@@3P6AXXZEA 00000001800634e0     LIBCMT:hooks.obj
 0003:0000c4f8       ?_pnhHeap@@3P6AH_K@ZEA     00000001800634f8     LIBCMT:handler.obj
 0003:0000cb2c       _newmode                   0000000180063b2c     LIBCMT:_newmode.obj
 0003:0000cb34       _debugger_hook_dummy       0000000180063b34     <common>
 0003:0000cb38       _nhandle                   0000000180063b38     <common>
 0003:0000cb40       __pioinfo                  0000000180063b40     <common>
 0003:0000cd40       __env_initialized          0000000180063d40     <common>
 0003:0000cd48       __onexitend                0000000180063d48     <common>
 0003:0000cd50       __onexitbegin              0000000180063d50     <common>
 0003:0000cd58       __mbctype_initialized      0000000180063d58     <common>
 0003:0000cd60       _FPinit                    0000000180063d60     <common>
 0003:0000cd68       __dyn_tls_init_callback    0000000180063d68     <common>
 0003:0000cd70       __setlc_active             0000000180063d70     <common>
 0003:0000cd74       __unguarded_readlc_active  0000000180063d74     <common>
 0003:0000cd78       _acmdln                    0000000180063d78     <common>
 0003:0000cd80       _pDestructExceptionObject  0000000180063d80     <common>

 entry point at        0001:0003b37c

 Static symbols

 0001:00000750       ?StringValidateDestW@@YAJPEB_W_K_K@Z 0000000180001750 f   CEStr.obj
 0001:00000790       ?StringCopyWorkerW@@YAJPEA_W_KPEA_KPEB_W1@Z 0000000180001790 f   CEStr.obj
 0001:000050d0       ?StringValidateDestW@@YAJPEB_W_K_K@Z 00000001800060d0 f   ConEmuCheck.obj
 0001:00005110       ?StringCopyWorkerW@@YAJPEA_W_KPEA_KPEB_W1@Z 0000000180006110 f   ConEmuCheck.obj
 0001:00007320       ?StringValidateDestW@@YAJPEB_W_K_K@Z 0000000180008320 f   ConEmuCheckEx.obj
 0001:00007360       ?StringCopyWorkerW@@YAJPEA_W_KPEA_KPEB_W1@Z 0000000180008360 f   ConEmuCheckEx.obj
 0001:00007570       ?StringValidateDestAndLengthW@@YAJPEB_W_KPEA_K_K@Z 0000000180008570 f   ConEmuCheckEx.obj
 0001:000075e0       ?StringLengthWorkerW@@YAJPEB_W_KPEA_K@Z 00000001800085e0 f   ConEmuCheckEx.obj
 0001:00007e40       ?StringValidateDestW@@YAJPEB_W_K_K@Z 0000000180008e40 f   ConEmuInjects.obj
 0001:00007e80       ?StringCopyWorkerW@@YAJPEA_W_KPEA_KPEB_W1@Z 0000000180008e80 f   ConEmuInjects.obj
 0001:00008c20       ?ChangeExports@@YA_NPEBUExportFunc@@PEAUHINSTANCE__@@@Z 0000000180009c20 f   ConEmuPlugin.obj
 0001:0000c9d0       ?GetFarSetting@@YAHPEAX_KPEB_W@Z 000000018000d9d0 f   ConEmuPlugin1900.obj
 0001:0000cd40       ?CallGuiMacroProc@@YAXXZ   000000018000dd40 f   ConEmuPlugin1900.obj
 0001:0000d190       ?CallGuiMacroDlg@@YA_JPEAXHH0@Z 000000018000e190 f   ConEmuPlugin1900.obj
 0001:0000d890       ?MAKEFARVERSION@@YA?AUVersionInfo@@KKKKW4VERSION_STAGE@@@Z 000000018000e890 f   ConEmuPlugin2800.obj
 0001:0000f5d0       ?WExists@@YA_JAEBUWindowInfo@@AEBV?$MArray@UWindowInfo@@@@@Z 00000001800105d0 f   ConEmuPlugin2800.obj
 0001:00010b60       ?GetFarSetting@@YAHPEAX_KPEB_W@Z 0000000180011b60 f   ConEmuPlugin2800.obj
 0001:00010ef0       ?CallGuiMacroProc@@YAXXZ   0000000180011ef0 f   ConEmuPlugin2800.obj
 0001:00011330       ?CallGuiMacroDlg@@YA_JPEAX_J10@Z 0000000180012330 f   ConEmuPlugin2800.obj
 0001:00011950       ?FreeMacroResult@@YAXPEAXPEAUFarMacroValue@@_K@Z 0000000180012950 f   ConEmuPlugin2800.obj
 0001:000145e0       ?CallGuiMacroProc@@YAXXZ   00000001800155e0 f   ConEmuPlugin995.obj
 0001:000149e0       ?CallGuiMacroDlg@@YA_JPEAXHH_J@Z 00000001800159e0 f   ConEmuPlugin995.obj
 0001:00017010       ?CallGuiMacroProc@@YAXXZ   0000000180018010 f   ConEmuPluginA.obj
 0001:00017430       ?CallGuiMacroDlg@@YA_JPEAXHH_J@Z 0000000180018430 f   ConEmuPluginA.obj
 0001:000183b0       ?LoadFarVersion@@YA_NAEAUFarVersion@@AEAY0CAA@_W@Z 00000001800193b0 f   ConEmuPluginBase.obj
 0001:00018450       ?SetDefaultFarVersion@@YAXAEAUFarVersion@@@Z 0000000180019450 f   ConEmuPluginBase.obj
 0001:000184b0       ?LoadFarVersion@@YA_NPEB_WAEAUFarVersion@@AEAY0CAA@_W@Z 00000001800194b0 f   ConEmuPluginBase.obj
 0001:00018520       ?LoadAppVersion@@YA_NPEB_WAEAUtagVS_FIXEDFILEINFO@@AEAY0CAA@_W@Z 0000000180019520 f   ConEmuPluginBase.obj
 0001:00018560       ?LoadModuleVersion@@YA_NPEB_WAEAUtagVS_FIXEDFILEINFO@@PEA_W_K@Z 0000000180019560 f   ConEmuPluginBase.obj
 0001:00018840       ?StringValidateDestW@@YAJPEB_W_K_K@Z 0000000180019840 f   ConEmuPluginBase.obj
 0001:00018880       ?StringValidateDestAndLengthW@@YAJPEB_W_KPEA_K_K@Z 0000000180019880 f   ConEmuPluginBase.obj
 0001:000188f0       ?StringLengthWorkerW@@YAJPEB_W_KPEA_K@Z 00000001800198f0 f   ConEmuPluginBase.obj
 0001:00018990       ?StringCopyWorkerW@@YAJPEA_W_KPEA_KPEB_W1@Z 0000000180019990 f   ConEmuPluginBase.obj
 0001:00018a80       ?ConvertVersionToFarVersion@@YAXAEBUtagVS_FIXEDFILEINFO@@AEAUFarVersion@@@Z 0000000180019a80 f   ConEmuPluginBase.obj
 0001:00025670       ?StringValidateDestW@@YAJPEB_W_K_K@Z 0000000180026670 f   Execute.obj
 0001:000256b0       ?StringCopyWorkerW@@YAJPEA_W_KPEA_KPEB_W1@Z 00000001800266b0 f   Execute.obj
 0001:00025c80       ?StringValidateDestA@@YAJPEBD_K_K@Z 0000000180026c80 f   Memory.obj
 0001:00025cc0       ?StringCopyWorkerA@@YAJPEAD_KPEA_KPEBD1@Z 0000000180026cc0 f   Memory.obj
 0001:00025e40       ?StringValidateDestW@@YAJPEB_W_K_K@Z 0000000180026e40 f   Memory.obj
 0001:00025e80       ?StringCopyWorkerW@@YAJPEA_W_KPEA_KPEB_W1@Z 0000000180026e80 f   Memory.obj
 0001:00026670       ?FindMonitor@impl@?L@??MonitorFromParam@@YAPEAUHMONITOR__@@PEB_W@Z@SAHPEAU3@PEAUHDC__@@PEAUtagRECT@@_J@Z 0000000180027670 f   Monitors.obj
 0001:0002d350       ?StringValidateDestW@@YAJPEB_W_K_K@Z 000000018002e350 f   PluginBackground.obj
 0001:0002d390       ?StringCopyWorkerW@@YAJPEA_W_KPEA_KPEB_W1@Z 000000018002e390 f   PluginBackground.obj
 0001:000309b0       ?StringValidateDestW@@YAJPEB_W_K_K@Z 00000001800319b0 f   PluginSrv.obj
 0001:000309f0       ?StringCopyWorkerW@@YAJPEA_W_KPEA_KPEB_W1@Z 00000001800319f0 f   PluginSrv.obj
 0001:00035c20       ?StringValidateDestW@@YAJPEB_W_K_K@Z 0000000180036c20 f   WObjects.obj
 0001:00035c60       ?StringCopyWorkerW@@YAJPEA_W_KPEA_KPEB_W1@Z 0000000180036c60 f   WObjects.obj
 0001:00036410       ?CheckRegKeyExist@@YA_NPEAURegKeyExistArg@@@Z 0000000180037410 f   WObjects.obj
 0001:00037a30       ?StringValidateDestAndLengthW@@YAJPEB_W_KPEA_K_K@Z 0000000180038a30 f   WObjects.obj
 0001:00037aa0       ?StringLengthWorkerW@@YAJPEB_W_KPEA_K@Z 0000000180038aa0 f   WObjects.obj
 0001:00039e20       ?StringValidateDestW@@YAJPEB_W_K_K@Z 000000018003ae20 f   WUser.obj
 0001:00039e60       ?StringCopyWorkerW@@YAJPEA_W_KPEA_KPEB_W1@Z 000000018003ae60 f   WUser.obj
 0001:0003abac       ?wcstoxl@@YAKPEAUlocaleinfo_struct@@PEB_WPEAPEB_WHH@Z 000000018003bbac f   LIBCMT:wcstol.obj
 0001:0003b264       __DllMainCRTStartup        000000018003c264 f   LIBCMT:dllcrt0.obj
 0001:0003bce8       ?CPtoLCID@@YAHH@Z          000000018003cce8 f   LIBCMT:mbctype.obj
 0001:0003bd1c       ?setSBCS@@YAXPEAUthreadmbcinfostruct@@@Z 000000018003cd1c f   LIBCMT:mbctype.obj
 0001:0003bdb0       ?setSBUpLow@@YAXPEAUthreadmbcinfostruct@@@Z 000000018003cdb0 f   LIBCMT:mbctype.obj
 0001:0003c050       ?getSystemCP@@YAHH@Z       000000018003d050 f   LIBCMT:mbctype.obj
 0001:0003c894       _copytlocinfo_nolock       000000018003d894 f   LIBCMT:setlocal.obj
 0001:0003c8c8       _updatetlocinfoEx_nolock   000000018003d8c8 f   LIBCMT:setlocal.obj
 0001:0003ca14       sync_legacy_variables_lk   000000018003da14 f   LIBCMT:setlocal.obj
 0001:0003ce30       _setlocale_get_all         000000018003de30 f   LIBCMT:setlocal.obj
 0001:0003d258       _setlocale_set_cat         000000018003e258 f   LIBCMT:setlocal.obj
 0001:0003d560       _setlocale_nolock          000000018003e560 f   LIBCMT:setlocal.obj
 0001:0003e69c       _initterm                  000000018003f69c f   LIBCMT:crt0dat.obj
 0001:0003e84c       doexit                     000000018003f84c f   LIBCMT:crt0dat.obj
 0001:0003ef0c       parse_cmdline              000000018003ff0c f   LIBCMT:stdargv.obj
 0001:0003f470       xcptlookup                 0000000180040470 f   LIBCMT:winxfltr.obj
 0001:0003f770       ctrlevent_capture          0000000180040770 f   LIBCMT:winsig.obj
 0001:0003f808       siglookup                  0000000180040808 f   LIBCMT:winsig.obj
 0001:00041024       ?__crtGetLocaleInfoW_stat@@YAHPEAUlocaleinfo_struct@@KKPEA_WHH@Z 0000000180042024 f   LIBCMT:w_loc.obj
 0001:000410cc       ?__crtGetLocaleInfoA_stat@@YAHPEAUlocaleinfo_struct@@KKPEADHH@Z 00000001800420cc f   LIBCMT:a_loc.obj
 0001:00041350       ?strncnt@@YAHPEBDH@Z       0000000180042350 f   LIBCMT:a_map.obj
 0001:0004136c       ?__crtLCMapStringA_stat@@YAHPEAUlocaleinfo_struct@@KKPEBDHPEADHHH@Z 000000018004236c f   LIBCMT:a_map.obj
 0001:00041944       ?__crtGetStringTypeA_stat@@YAHPEAUlocaleinfo_struct@@KPEBDHPEAGHHH@Z 0000000180042944 f   LIBCMT:a_str.obj
 0001:00041c80       _get_lc_time               0000000180042c80 f   LIBCMT:inittime.obj
 0001:0004253c       fix_grouping               000000018004353c f   LIBCMT:initnum.obj
 0001:000427cc       fix_grouping               00000001800437cc f   LIBCMT:initmon.obj
 0001:0004381c       ?_store_str@@YAXPEADPEAPEADPEA_K@Z 000000018004481c f   LIBCMT:strftime.obj
 0001:00043840       ?_store_number@@YAXHPEAPEADPEA_K@Z 0000000180044840 f   LIBCMT:strftime.obj
 0001:000438a4       ?_store_num@@YAXHHPEAPEADPEA_KI@Z 00000001800448a4 f   LIBCMT:strftime.obj
 0001:00043980       ?_expandtime@@YAHPEAUlocaleinfo_struct@@DPEBUtm@@PEAPEADPEA_KPEAU__lc_time_data@@I@Z 0000000180044980 f   LIBCMT:strftime.obj
 0001:00043fdc       ?_store_winword@@YAHPEAUlocaleinfo_struct@@HPEBUtm@@PEAPEADPEA_KPEAU__lc_time_data@@@Z 0000000180044fdc f   LIBCMT:strftime.obj
 0001:00044960       TranslateName              0000000180045960 f   LIBCMT:getqloc.obj
 0001:000449f8       GetLcidFromDefault         00000001800459f8 f   LIBCMT:getqloc.obj
 0001:00044a1c       ProcessCodePage            0000000180045a1c f   LIBCMT:getqloc.obj
 0001:00044ae4       TestDefaultCountry         0000000180045ae4 f   LIBCMT:getqloc.obj
 0001:00044b0c       LcidFromHexString          0000000180045b0c f   LIBCMT:getqloc.obj
 0001:00044b48       GetPrimaryLen              0000000180045b48 f   LIBCMT:getqloc.obj
 0001:00044b64       CountryEnumProc            0000000180045b64 f   LIBCMT:getqloc.obj
 0001:00044c4c       TestDefaultLanguage        0000000180045c4c f   LIBCMT:getqloc.obj
 0001:00044d00       LangCountryEnumProc        0000000180045d00 f   LIBCMT:getqloc.obj
 0001:00044f94       LanguageEnumProc           0000000180045f94 f   LIBCMT:getqloc.obj
 0001:000450a4       GetLcidFromCountry         00000001800460a4 f   LIBCMT:getqloc.obj
 0001:000450e4       GetLcidFromLangCountry     00000001800460e4 f   LIBCMT:getqloc.obj
 0001:00045178       GetLcidFromLanguage        0000000180046178 f   LIBCMT:getqloc.obj
 0001:000455b4       ?__crtGetStringTypeW_stat@@YAHPEAUlocaleinfo_struct@@KPEB_WHPEAGHH@Z 00000001800465b4 f   LIBCMT:w_str.obj
 0001:00045978       _onexit_nolock             0000000180046978 f   LIBCMT:onexit.obj
 0001:00045e94       ?x_ismbbtype_l@@YAHPEAUlocaleinfo_struct@@IHH@Z 0000000180046e94 f   LIBCMT:ismbbyte.obj
 0001:000468b8       _tzset_nolock              00000001800478b8 f   LIBCMT:tzset.obj
 0001:00046d58       cvtdate                    0000000180047d58 f   LIBCMT:tzset.obj
 0001:00047010       _isindst_nolock            0000000180048010 f   LIBCMT:tzset.obj
 0001:00047950       xtoa_s                     0000000180048950 f   LIBCMT:xtoas.obj
 0001:00047ab4       x64toa_s                   0000000180048ab4 f   LIBCMT:xtoas.obj
 0001:00047cec       _getenv_s_helper           0000000180048cec f   LIBCMT:getenv.obj
 0001:00047dc0       _dupenv_s_helper           0000000180048dc0 f   LIBCMT:getenv.obj
 0001:00048348       ?strtoxl@@YAKPEAUlocaleinfo_struct@@PEBDPEAPEBDHH@Z 0000000180049348 f   LIBCMT:strtol.obj
 0001:0004867c       ?strtoxq@@YA_KPEAUlocaleinfo_struct@@PEBDPEAPEBDHH@Z 000000018004967c f   LIBCMT:strtoq.obj
 0001:00048c10       ?strncnt@@YAHPEBDH@Z       0000000180049c10 f   LIBCMT:a_cmp.obj
 0001:00048c2c       ?__crtCompareStringA_stat@@YAHPEAUlocaleinfo_struct@@KKPEBDH1HH@Z 0000000180049c2c f   LIBCMT:a_cmp.obj
 0001:000492d0       findenv                    000000018004a2d0 f   LIBCMT:setenv.obj
 0001:00049354       copy_environ               000000018004a354 f   LIBCMT:setenv.obj
 0001:00049a80       ?filt$0@?0??SetThreadName@@YAXKPEAD@Z@4HA 000000018004aa80 f   WThreads.obj
 0001:00049a94       __DllMainCRTStartup$filt$0 000000018004aa94 f   LIBCMT:dllcrt0.obj
 0001:00049ab0       _initptd$fin$1             000000018004aab0 f   LIBCMT:tidtable.obj
 0001:00049ad0       _initptd$fin$0             000000018004aad0 f   LIBCMT:tidtable.obj
 0001:00049ae9       _freefls$fin$1             000000018004aae9 f   LIBCMT:tidtable.obj
 0001:00049b09       _freefls$fin$0             000000018004ab09 f   LIBCMT:tidtable.obj
 0001:00049b22       __updatetmbcinfo$fin$0     000000018004ab22 f   LIBCMT:mbctype.obj
 0001:00049b3b       _setmbcp$fin$0             000000018004ab3b f   LIBCMT:mbctype.obj
 0001:00049b54       __updatetlocinfo$fin$0     000000018004ab54 f   LIBCMT:setlocal.obj
 0001:00049b6d       _free_locale$fin$1         000000018004ab6d f   LIBCMT:setlocal.obj
 0001:00049b8d       _free_locale$fin$0         000000018004ab8d f   LIBCMT:setlocal.obj
 0001:00049ba6       _get_current_locale$fin$1  000000018004aba6 f   LIBCMT:setlocal.obj
 0001:00049bc6       _get_current_locale$fin$0  000000018004abc6 f   LIBCMT:setlocal.obj
 0001:00049bdf       setlocale$fin$1            000000018004abdf f   LIBCMT:setlocal.obj
 0001:00049bff       setlocale$fin$0            000000018004abff f   LIBCMT:setlocal.obj
 0001:00049c1f       setlocale$fin$2            000000018004ac1f f   LIBCMT:setlocal.obj
 0001:00049c40       _IsNonwritableInCurrentImage$filt$0 000000018004ac40 f   LIBCMT:pesect.obj
 0001:00049c61       doexit$fin$0               000000018004ac61 f   LIBCMT:crt0dat.obj
 0001:00049c83       ctrlevent_capture$fin$0    000000018004ac83 f   LIBCMT:winsig.obj
 0001:00049c99       signal$fin$0               000000018004ac99 f   LIBCMT:winsig.obj
 0001:00049caf       raise$fin$0                000000018004acaf f   LIBCMT:winsig.obj
 0001:00049ccb       _mtinitlocknum$fin$0       000000018004accb f   LIBCMT:mlock.obj
 0001:00049ce7       _onexit$fin$0              000000018004ace7 f   LIBCMT:onexit.obj
 0001:00049cfb       __crtInitCritSecAndSpinCount$filt$0 000000018004acfb f   LIBCMT:initcrit.obj
 0001:00049d1d       _tzset_nolock$fin$0        000000018004ad1d f   LIBCMT:tzset.obj
 0001:00049d36       __tzset$fin$0              000000018004ad36 f   LIBCMT:tzset.obj
 0001:00049d4f       _tzset$fin$0               000000018004ad4f f   LIBCMT:tzset.obj
 0001:00049d68       _isindst$fin$0             000000018004ad68 f   LIBCMT:tzset.obj
 0001:00049d81       getenv$fin$0               000000018004ad81 f   LIBCMT:getenv.obj
 0001:00049d9a       getenv_s$fin$0             000000018004ad9a f   LIBCMT:getenv.obj
 0001:00049db3       _dupenv_s$fin$0            000000018004adb3 f   LIBCMT:getenv.obj
 0001:00049dd0       ??__EhkFunc@@YAXXZ         000000018004add0 f   HkFunc.obj
