 colorer

 Timestamp is 56453bab (Fri Nov 13 04:23:55 2015)

 Preferred load address is 0000000180000000

 Start         Length     Name                   Class
 0001:00000000 00137531H .text                   CODE
 0001:00137540 00018c62H .text$x                 CODE
 0001:001501b0 00001c18H .text$yc                CODE
 0001:00151dd0 00002803H .text$yd                CODE
 0002:00000000 00000398H .idata$5                DATA
 0002:00000398 00000008H .CRT$XCA                DATA
 0002:000003a0 00000328H .CRT$XCU                DATA
 0002:000006c8 00000008H .CRT$XCZ                DATA
 0002:000006d0 00000008H .CRT$XIA                DATA
 0002:000006d8 00000018H .CRT$XIC                DATA
 0002:000006f0 00000008H .CRT$XIZ                DATA
 0002:000006f8 00000008H .CRT$XPA                DATA
 0002:00000700 00000008H .CRT$XPX                DATA
 0002:00000708 00000008H .CRT$XPXA               DATA
 0002:00000710 00000008H .CRT$XPZ                DATA
 0002:00000718 00000008H .CRT$XTA                DATA
 0002:00000720 00000008H .CRT$XTZ                DATA
 0002:00000730 00082476H .rdata                  DATA
 0002:00082bb0 0001172cH .rdata$r                DATA
 0002:000942e0 00000008H .rtc$IAA                DATA
 0002:000942e8 00000008H .rtc$IZZ                DATA
 0002:000942f0 00000008H .rtc$TAA                DATA
 0002:000942f8 00000008H .rtc$TZZ                DATA
 0002:00094300 00031810H .xdata                  DATA
 0002:000c5b10 00001124H .xdata$x                DATA
 0002:000c6c34 0000003cH .idata$2                DATA
 0002:000c6c70 00000014H .idata$3                DATA
 0002:000c6c88 00000398H .idata$4                DATA
 0002:000c7020 0000086eH .idata$6                DATA
 0002:000c7890 00000110H .edata                  DATA
 0003:00000000 000405a0H .data                   DATA
 0003:000405a0 00002cd0H .bss                    DATA
 0004:00000000 0000e8ecH .pdata                  DATA
 0005:00000000 00000e11H text                    DATA
 0006:00000000 00002fc0H data                    DATA
 0007:00000000 00000058H .rsrc$01                DATA
 0007:00000060 000002e8H .rsrc$02                DATA

  Address         Publics by Value              Rva+Base               Lib:Object

 0000:00000000       ___safe_se_handler_table   0000000000000000     <absolute>
 0000:00000000       ___safe_se_handler_count   0000000000000000     <absolute>
 0000:00000000       __ImageBase                0000000180000000     <linker-defined>
 0001:00000000       DllMain                    0000000180001000 f   pcolorer.cpp.obj
 0001:00000350       GetGlobalInfoW             0000000180001350 f   pcolorer.cpp.obj
 0001:000003d0       SetStartupInfoW            00000001800013d0 f   pcolorer.cpp.obj
 0001:00000420       GetPluginInfoW             0000000180001420 f   pcolorer.cpp.obj
 0001:000004a0       ExitFARW                   00000001800014a0 f   pcolorer.cpp.obj
 0001:000004d0       OpenW                      00000001800014d0 f   pcolorer.cpp.obj
 0001:00000680       ConfigureW                 0000000180001680 f   pcolorer.cpp.obj
 0001:000006e0       ProcessEditorEventW        00000001800016e0 f   pcolorer.cpp.obj
 0001:00000780       ProcessEditorInputW        0000000180001780 f   pcolorer.cpp.obj
 0001:000007d0       GetMinFarVersionW          00000001800017d0 f   pcolorer.cpp.obj
 0001:000007e0       ??1bad_alloc@std@@UEAA@XZ  00000001800017e0 f i FarEditorSet.cpp.obj
 0001:000007f0       ??_Ebad_alloc@std@@UEAAPEAXI@Z 00000001800017f0 f i  CIL library: CIL module
 0001:000007f0       ??_Gbad_alloc@std@@UEAAPEAXI@Z 00000001800017f0 f i FarEditorSet.cpp.obj
 0001:00000830       ?cast@StyledRegion@@SAPEBV1@PEBVRegionDefine@@@Z 0000000180001830 f i FarEditorSet.cpp.obj
 0001:000008c0       ?equals@XMLString@xercesc_3_1@@SA_NPEB_W0@Z 00000001800018c0 f i FarEditorSet.cpp.obj
 0001:00000920       ??1XmlParserErrorHandler@@UEAA@XZ 0000000180001920 f i FarEditorSet.cpp.obj
 0001:00000930       ??_GXmlParserErrorHandler@@UEAAPEAXI@Z 0000000180001930 f i FarEditorSet.cpp.obj
 0001:00000930       ??_EXmlParserErrorHandler@@UEAAPEAXI@Z 0000000180001930 f i  CIL library: CIL module
 0001:00000930       ??_EErrorHandler@xercesc_3_1@@UEAAPEAXI@Z 0000000180001930 f i  CIL library: CIL module
 0001:00000930       ??_GErrorHandler@xercesc_3_1@@UEAAPEAXI@Z 0000000180001930 f i FarEditorSet.cpp.obj
 0001:00000960       ?resetErrors@XmlParserErrorHandler@@UEAAXXZ 0000000180001960 f i FarEditorSet.cpp.obj
 0001:00000970       ??0ParserFactoryException@@QEAA@AEBVString@@@Z 0000000180001970 f i FarEditorSet.cpp.obj
 0001:00000aa0       ??0FarEditorSet@@QEAA@XZ   0000000180001aa0 f   FarEditorSet.cpp.obj
 0001:00000bf0       ??1FarEditorSet@@QEAA@XZ   0000000180001bf0 f   FarEditorSet.cpp.obj
 0001:00000e50       ?openMenu@FarEditorSet@@QEAAXH@Z 0000000180001e50 f   FarEditorSet.cpp.obj
 0001:00001250       ?viewFile@FarEditorSet@@QEAAXAEBVString@@@Z 0000000180002250 f   FarEditorSet.cpp.obj
 0001:00001590       ?getCountFileTypeAndGroup@FarEditorSet@@AEAA_KXZ 0000000180002590 f   FarEditorSet.cpp.obj
 0001:00001640       ?getFileTypeByIndex@FarEditorSet@@AEAAPEAVFileTypeImpl@@H@Z 0000000180002640 f   FarEditorSet.cpp.obj
 0001:000016f0       ?FillTypeMenu@FarEditorSet@@AEAAXPEAVChooseTypeMenu@@PEAVFileType@@@Z 00000001800026f0 f   FarEditorSet.cpp.obj
 0001:00001890       ?KeyDialogProc@@YA_JPEAX_J10@Z 0000000180002890 f   FarEditorSet.cpp.obj
 0001:000019b0       ?chooseType@FarEditorSet@@AEAAXXZ 00000001800029b0 f   FarEditorSet.cpp.obj
 0001:00002120       ?getHRDescription@FarEditorSet@@QEAAPEBVString@@AEBV2@VDString@@@Z 0000000180003120 f   FarEditorSet.cpp.obj
 0001:000021c0       ?SettingDialogProc@@YA_JPEAX_J10@Z 00000001800031c0 f   FarEditorSet.cpp.obj
 0001:00002800       ??_GDString@@UEAAPEAXI@Z   0000000180003800 f i FarEditorSet.cpp.obj
 0001:00002800       ??_EDString@@UEAAPEAXI@Z   0000000180003800 f i  CIL library: CIL module
 0001:00002880       ??_GString@@UEAAPEAXI@Z    0000000180003880 f i FarEditorSet.cpp.obj
 0001:00002880       ??_EString@@UEAAPEAXI@Z    0000000180003880 f i  CIL library: CIL module
 0001:000028e0       ?configure@FarEditorSet@@QEAAX_N@Z 00000001800038e0 f   FarEditorSet.cpp.obj
 0001:000048f0       ?chooseHRDName@FarEditorSet@@QEAA?BVSString@@PEBVString@@VDString@@@Z 00000001800058f0 f   FarEditorSet.cpp.obj
 0001:00004e80       ?editorEvent@FarEditorSet@@QEAAHPEBUProcessEditorEventInfo@@@Z 0000000180005e80 f   FarEditorSet.cpp.obj
 0001:000058d0       ?TestLoadBase@FarEditorSet@@QEAA_NPEB_W00HW4HRC_MODE@1@@Z 00000001800068d0 f   FarEditorSet.cpp.obj
 0001:00006050       ?ReloadBase@FarEditorSet@@AEAAXXZ 0000000180007050 f   FarEditorSet.cpp.obj
 0001:000064d0       ?addCurrentEditor@FarEditorSet@@AEAAPEAVFarEditor@@XZ 00000001800074d0 f   FarEditorSet.cpp.obj
 0001:00006830       ?getCurrentFileName@FarEditorSet@@AEAAPEAVString@@XZ 0000000180007830 f   FarEditorSet.cpp.obj
 0001:00006a60       ?getCurrentEditor@FarEditorSet@@AEAAPEAVFarEditor@@XZ 0000000180007a60 f   FarEditorSet.cpp.obj
 0001:00006e20       ?disableColorer@FarEditorSet@@AEAAXXZ 0000000180007e20 f   FarEditorSet.cpp.obj
 0001:00006fb0       ?ApplySettingsToEditors@FarEditorSet@@AEAAXXZ 0000000180007fb0 f   FarEditorSet.cpp.obj
 0001:00007040       ?dropCurrentEditor@FarEditorSet@@AEAAX_N@Z 0000000180008040 f   FarEditorSet.cpp.obj
 0001:000075e0       ?ReadSettings@FarEditorSet@@QEAAXXZ 00000001800085e0 f   FarEditorSet.cpp.obj
 0001:000087c0       ?setLogPath@FarEditorSet@@QEAAXPEB_W@Z 00000001800097c0 f   FarEditorSet.cpp.obj
 0001:00008b60       ?SaveSettings@FarEditorSet@@AEAAXXZ 0000000180009b60 f   FarEditorSet.cpp.obj
 0001:00009060       ?SetBgEditor@FarEditorSet@@QEAA_NXZ 000000018000a060 f   FarEditorSet.cpp.obj
 0001:00009210       ?LoadUserHrd@FarEditorSet@@QEAAXPEBVString@@PEAVParserFactory@@@Z 000000018000a210 f   FarEditorSet.cpp.obj
 0001:00009640       ??0ParserFactoryException@@QEAA@AEBV0@@Z 000000018000a640 f i FarEditorSet.cpp.obj
 0001:00009670       ?LoadUserHrc@FarEditorSet@@QEAAXPEBVString@@PEAVParserFactory@@@Z 000000018000a670 f   FarEditorSet.cpp.obj
 0001:000096f0       ?getParamDefValue@FarEditorSet@@AEAAPEBVString@@PEAVFileTypeImpl@@VSString@@@Z 000000018000a6f0 f   FarEditorSet.cpp.obj
 0001:00009970       ?buildHrcList@FarEditorSet@@AEAAPEAUFarList@@XZ 000000018000a970 f   FarEditorSet.cpp.obj
 0001:00009c00       ?buildParamsList@FarEditorSet@@AEAAPEAUFarList@@PEAVFileTypeImpl@@@Z 000000018000ac00 f   FarEditorSet.cpp.obj
 0001:00009e00       ?ChangeParamValueListType@FarEditorSet@@AEAAXPEAX_N@Z 000000018000ae00 f   FarEditorSet.cpp.obj
 0001:00009eb0       ?setCrossValueListToCombobox@FarEditorSet@@AEAAXPEAVFileTypeImpl@@PEAX@Z 000000018000aeb0 f   FarEditorSet.cpp.obj
 0001:0000a270       ?setCrossPosValueListToCombobox@FarEditorSet@@AEAAXPEAVFileTypeImpl@@PEAX@Z 000000018000b270 f   FarEditorSet.cpp.obj
 0001:0000a590       ?setYNListValueToCombobox@FarEditorSet@@AEAAXPEAVFileTypeImpl@@PEAXVDString@@@Z 000000018000b590 f   FarEditorSet.cpp.obj
 0001:0000a8d0       ?setTFListValueToCombobox@FarEditorSet@@AEAAXPEAVFileTypeImpl@@PEAXVDString@@@Z 000000018000b8d0 f   FarEditorSet.cpp.obj
 0001:0000ac10       ?setCustomListValueToCombobox@FarEditorSet@@AEAAXPEAVFileTypeImpl@@PEAXVDString@@@Z 000000018000bc10 f   FarEditorSet.cpp.obj
 0001:0000aec0       ?OnChangeHrc@FarEditorSet@@QEAAXPEAX@Z 000000018000bec0 f   FarEditorSet.cpp.obj
 0001:0000af60       ?SaveChangedValueParam@FarEditorSet@@AEAAXPEAX@Z 000000018000bf60 f   FarEditorSet.cpp.obj
 0001:0000b2e0       ?OnChangeParam@FarEditorSet@@QEAAXPEAXH@Z 000000018000c2e0 f   FarEditorSet.cpp.obj
 0001:0000b680       ?SettingHrcDialogProc@@YA_JPEAX_J10@Z 000000018000c680 f   FarEditorSet.cpp.obj
 0001:0000b770       ?configureHrc@FarEditorSet@@QEAAXXZ 000000018000c770 f   FarEditorSet.cpp.obj
 0001:0000bcd0       ?showExceptionMessage@FarEditorSet@@QEAAXPEB_W@Z 000000018000ccd0 f   FarEditorSet.cpp.obj
 0001:0000bd70       ??1?$vector@VSString@@V?$allocator@VSString@@@std@@@std@@QEAA@XZ 000000018000cd70 f i FarEditorSet.cpp.obj
 0001:0000bd80       ?erase@?$_Hash@V?$_Umap_traits@VSString@@PEAVSharedXmlInputSource@@V?$_Hash_compare@VSString@@U?$hash@VSString@@@std@@U?$equal_to@VSString@@@3@@std@@V?$allocator@U?$pair@$$CBVSString@@PEAVSharedXmlInputSource@@@std@@@4@$0A@@tr1@std@@@std@@QEAA?AV?$_List_iterator@V?$_List_val@U?$pair@$$CBVSString@@PEAVSharedXmlInputSource@@@std@@V?$allocator@U?$pair@$$CBVSString@@PEAVSharedXmlInputSource@@@std@@@2@@std@@@2@V?$_List_const_iterator@V?$_List_val@U?$pair@$$CBVSString@@PEAVSharedXmlInputSource@@@std@@V?$allocator@U?$pair@$$CBVSString@@PEAVSharedXmlInputSource@@@std@@@2@@std@@@2@0@Z 000000018000cd80 f i colorer_lib:SharedXmlInputSource.cpp.obj
 0001:0000bd80       ?erase@?$_Hash@V?$_Umap_traits@VSString@@PEAVFileTypeImpl@@V?$_Hash_compare@VSString@@U?$hash@VSString@@@std@@U?$equal_to@VSString@@@3@@std@@V?$allocator@U?$pair@$$CBVSString@@PEAVFileTypeImpl@@@std@@@4@$0A@@tr1@std@@@std@@QEAA?AV?$_List_iterator@V?$_List_val@U?$pair@$$CBVSString@@PEAVFileTypeImpl@@@std@@V?$allocator@U?$pair@$$CBVSString@@PEAVFileTypeImpl@@@std@@@2@@std@@@2@V?$_List_const_iterator@V?$_List_val@U?$pair@$$CBVSString@@PEAVFileTypeImpl@@@std@@V?$allocator@U?$pair@$$CBVSString@@PEAVFileTypeImpl@@@std@@@2@@std@@@2@0@Z 000000018000cd80 f i colorer_lib:HRCParserImpl.cpp.obj
 0001:0000bd80       ?erase@?$_Hash@V?$_Umap_traits@VSString@@PEAVFarEditor@@V?$_Hash_compare@VSString@@U?$hash@VSString@@@std@@U?$equal_to@VSString@@@3@@std@@V?$allocator@U?$pair@$$CBVSString@@PEAVFarEditor@@@std@@@4@$0A@@tr1@std@@@std@@QEAA?AV?$_List_iterator@V?$_List_val@U?$pair@$$CBVSString@@PEAVFarEditor@@@std@@V?$allocator@U?$pair@$$CBVSString@@PEAVFarEditor@@@std@@@2@@std@@@2@V?$_List_const_iterator@V?$_List_val@U?$pair@$$CBVSString@@PEAVFarEditor@@@std@@V?$allocator@U?$pair@$$CBVSString@@PEAVFarEditor@@@std@@@2@@std@@@2@0@Z 000000018000cd80 f i FarEditorSet.cpp.obj
 0001:0000bd80       ?erase@?$_Hash@V?$_Umap_traits@VSString@@PEAVSharedInputSource@@V?$_Hash_compare@VSString@@U?$hash@VSString@@@std@@U?$equal_to@VSString@@@3@@std@@V?$allocator@U?$pair@$$CBVSString@@PEAVSharedInputSource@@@std@@@4@$0A@@tr1@std@@@std@@QEAA?AV?$_List_iterator@V?$_List_val@U?$pair@$$CBVSString@@PEAVSharedInputSource@@@std@@V?$allocator@U?$pair@$$CBVSString@@PEAVSharedInputSource@@@std@@@2@@std@@@2@V?$_List_const_iterator@V?$_List_val@U?$pair@$$CBVSString@@PEAVSharedInputSource@@@std@@V?$allocator@U?$pair@$$CBVSString@@PEAVSharedInputSource@@@std@@@2@@std@@@2@0@Z 000000018000cd80 f i colorer_lib:SharedInputSource.cpp.obj
 0001:0000bf50       ?equal_range@?$_Hash@V?$_Umap_traits@VSString@@PEAVFarEditor@@V?$_Hash_compare@VSString@@U?$hash@VSString@@@std@@U?$equal_to@VSString@@@3@@std@@V?$allocator@U?$pair@$$CBVSString@@PEAVFarEditor@@@std@@@4@$0A@@tr1@std@@@std@@QEAA?AU?$pair@V?$_List_iterator@V?$_List_val@U?$pair@$$CBVSString@@PEAVFarEditor@@@std@@V?$allocator@U?$pair@$$CBVSString@@PEAVFarEditor@@@std@@@2@@std@@@std@@V12@@2@AEBVSString@@@Z 000000018000cf50 f i FarEditorSet.cpp.obj
 0001:0000bf50       ?equal_range@?$_Hash@V?$_Umap_traits@VSString@@PEAVSharedInputSource@@V?$_Hash_compare@VSString@@U?$hash@VSString@@@std@@U?$equal_to@VSString@@@3@@std@@V?$allocator@U?$pair@$$CBVSString@@PEAVSharedInputSource@@@std@@@4@$0A@@tr1@std@@@std@@QEAA?AU?$pair@V?$_List_iterator@V?$_List_val@U?$pair@$$CBVSString@@PEAVSharedInputSource@@@std@@V?$allocator@U?$pair@$$CBVSString@@PEAVSharedInputSource@@@std@@@2@@std@@@std@@V12@@2@AEBVSString@@@Z 000000018000cf50 f i colorer_lib:SharedInputSource.cpp.obj
 0001:0000bf50       ?equal_range@?$_Hash@V?$_Umap_traits@VSString@@PEAVSharedXmlInputSource@@V?$_Hash_compare@VSString@@U?$hash@VSString@@@std@@U?$equal_to@VSString@@@3@@std@@V?$allocator@U?$pair@$$CBVSString@@PEAVSharedXmlInputSource@@@std@@@4@$0A@@tr1@std@@@std@@QEAA?AU?$pair@V?$_List_iterator@V?$_List_val@U?$pair@$$CBVSString@@PEAVSharedXmlInputSource@@@std@@V?$allocator@U?$pair@$$CBVSString@@PEAVSharedXmlInputSource@@@std@@@2@@std@@@std@@V12@@2@AEBVSString@@@Z 000000018000cf50 f i colorer_lib:SharedXmlInputSource.cpp.obj
 0001:0000c050       ?_Tidy@?$vector@VSString@@V?$allocator@VSString@@@std@@@std@@IEAAXXZ 000000018000d050 f i FarEditorSet.cpp.obj
 0001:0000c0c0       ??R?$_Hash_compare@VSString@@U?$hash@VSString@@@std@@U?$equal_to@VSString@@@3@@std@@QEBA_KAEBVSString@@@Z 000000018000d0c0 f i FarEditorSet.cpp.obj
 0001:0000c130       ??0bad_alloc@std@@QEAA@AEBV01@@Z 000000018000d130 f i FarEditorSet.cpp.obj
 0001:0000c160       ??1LineSource@@MEAA@XZ     000000018000d160 f i FarEditor.cpp.obj
 0001:0000c170       ??_ELineSource@@MEAAPEAXI@Z 000000018000d170 f i  CIL library: CIL module
 0001:0000c170       ??_GLineSource@@MEAAPEAXI@Z 000000018000d170 f i FarEditor.cpp.obj
 0001:0000c1a0       ??0LineRegion@@QEAA@AEBV0@@Z 000000018000d1a0 f i FarEditor.cpp.obj
 0001:0000c1f0       ??1LineRegion@@QEAA@XZ     000000018000d1f0 f i FarEditor.cpp.obj
 0001:0000c210       ??_GLineRegion@@QEAAPEAXI@Z 000000018000d210 f i FarEditor.cpp.obj
 0001:0000c250       ??0FarEditor@@QEAA@PEAUPluginStartupInfo@@PEAVParserFactory@@@Z 000000018000d250 f   FarEditor.cpp.obj
 0001:0000c5c0       ??_GFarEditor@@UEAAPEAXI@Z 000000018000d5c0 f i FarEditor.cpp.obj
 0001:0000c5c0       ??_EFarEditor@@UEAAPEAXI@Z 000000018000d5c0 f i  CIL library: CIL module
 0001:0000c600       ??1FarEditor@@UEAA@XZ      000000018000d600 f   FarEditor.cpp.obj
 0001:0000c700       ?getLine@FarEditor@@UEAAPEAVString@@_K@Z 000000018000d700 f   FarEditor.cpp.obj
 0001:0000c800       ?chooseFileType@FarEditor@@QEAAXPEAVString@@@Z 000000018000d800 f   FarEditor.cpp.obj
 0001:0000c880       ?setFileType@FarEditor@@QEAAXPEAVFileType@@@Z 000000018000d880 f   FarEditor.cpp.obj
 0001:0000c8f0       ?reloadTypeSettings@FarEditor@@AEAAXXZ 000000018000d8f0 f   FarEditor.cpp.obj
 0001:0000cb20       ?setDrawCross@FarEditor@@QEAAXHH@Z 000000018000db20 f   FarEditor.cpp.obj
 0001:0000cc80       ?setRegionMapper@FarEditor@@QEAAXPEAVRegionMapper@@@Z 000000018000dc80 f   FarEditor.cpp.obj
 0001:0000ce00       ?matchPair@FarEditor@@QEAAXXZ 000000018000de00 f   FarEditor.cpp.obj
 0001:0000cf30       ?selectPair@FarEditor@@QEAAXXZ 000000018000df30 f   FarEditor.cpp.obj
 0001:0000d050       ?selectBlock@FarEditor@@QEAAXXZ 000000018000e050 f   FarEditor.cpp.obj
 0001:0000d170       ?selectRegion@FarEditor@@QEAAXXZ 000000018000e170 f   FarEditor.cpp.obj
 0001:0000d250       ?getNameCurrentScheme@FarEditor@@QEAAXXZ 000000018000e250 f   FarEditor.cpp.obj
 0001:0000d610       ?locateFunction@FarEditor@@QEAAXXZ 000000018000e610 f   FarEditor.cpp.obj
 0001:0000dbb0       ?editorInput@FarEditor@@QEAAHAEBU_INPUT_RECORD@@@Z 000000018000ebb0 f   FarEditor.cpp.obj
 0001:0000dc70       ?editorEvent@FarEditor@@QEAAH_JPEAX@Z 000000018000ec70 f   FarEditor.cpp.obj
 0001:0000e9d0       ?showOutliner@FarEditor@@AEAAXPEAVOutliner@@@Z 000000018000f9d0 f   FarEditor.cpp.obj
 0001:0000ffd0       ?convert@FarEditor@@AEAA?AUFarColor@@PEBVStyledRegion@@@Z 0000000180010fd0 f   FarEditor.cpp.obj
 0001:000100b0       ?cleanEditor@FarEditor@@QEAAXXZ 00000001800110b0 f   FarEditor.cpp.obj
 0001:00010150       ??0ChooseTypeMenu@@QEAA@PEB_W0@Z 0000000180011150 f   ChooseTypeMenu.cpp.obj
 0001:000103b0       ??1ChooseTypeMenu@@QEAA@XZ 00000001800113b0 f   ChooseTypeMenu.cpp.obj
 0001:00010410       ?DeleteItem@ChooseTypeMenu@@QEAAX_K@Z 0000000180011410 f   ChooseTypeMenu.cpp.obj
 0001:00010490       ?AddItem@ChooseTypeMenu@@AEAA_KPEB_W_KPEBVFileType@@_K@Z 0000000180011490 f   ChooseTypeMenu.cpp.obj
 0001:000105f0       ?MoveToFavorites@ChooseTypeMenu@@QEAAX_K@Z 00000001800115f0 f   ChooseTypeMenu.cpp.obj
 0001:000106f0       ?AddFavorite@ChooseTypeMenu@@QEAA_KPEBVFileType@@@Z 00000001800116f0 f   ChooseTypeMenu.cpp.obj
 0001:000107b0       ?DelFromFavorites@ChooseTypeMenu@@QEAAX_K@Z 00000001800117b0 f   ChooseTypeMenu.cpp.obj
 0001:000108e0       ?AddItemInGroup@ChooseTypeMenu@@QEAA_KPEAVFileType@@@Z 00000001800118e0 f   ChooseTypeMenu.cpp.obj
 0001:00010ac0       ?GenerateName@ChooseTypeMenu@@QEAAPEAVStringBuffer@@PEBVFileType@@@Z 0000000180011ac0 f   ChooseTypeMenu.cpp.obj
 0001:00010ce0       ??0FarHrcSettingsException@@QEAA@AEBVString@@@Z 0000000180011ce0 f i FarHrcSettings.cpp.obj
 0001:00010e10       ??1HRCParserException@@UEAA@XZ 0000000180011e10 f i colorer_lib:HRCParserImpl.cpp.obj
 0001:00010e10       ??1ParserFactoryException@@UEAA@XZ 0000000180011e10 f i FarEditorSet.cpp.obj
 0001:00010e10       ??1StringIndexOutOfBoundsException@@UEAA@XZ 0000000180011e10 f i colorer_lib:DString.cpp.obj
 0001:00010e10       ??1Exception@@UEAA@XZ      0000000180011e10 f i colorer_lib:Exception.cpp.obj
 0001:00010e10       ??1InputSourceException@@UEAA@XZ 0000000180011e10 f i colorer_lib:XmlInputSource.cpp.obj
 0001:00010e10       ??1FarHrcSettingsException@@UEAA@XZ 0000000180011e10 f i FarHrcSettings.cpp.obj
 0001:00010e10       ??1SettingsControlException@@UEAA@XZ 0000000180011e10 f i SettingsControl.cpp.obj
 0001:00010e10       ??1UnsupportedEncodingException@@UEAA@XZ 0000000180011e10 f i colorer_lib:DString.cpp.obj
 0001:00010e40       ?readProfile@FarHrcSettings@@QEAAXXZ 0000000180011e40 f   FarHrcSettings.cpp.obj
 0001:00011060       ?readXML@FarHrcSettings@@QEAAXPEAVString@@_N@Z 0000000180012060 f   FarHrcSettings.cpp.obj
 0001:000113e0       ??0FarHrcSettingsException@@QEAA@AEBV0@@Z 00000001800123e0 f i FarHrcSettings.cpp.obj
 0001:00011410       ?UpdatePrototype@FarHrcSettings@@AEAAXPEAVDOMElement@xercesc_3_1@@_N@Z 0000000180012410 f   FarHrcSettings.cpp.obj
 0001:00011e80       ?readProfileFromRegistry@FarHrcSettings@@AEAAXXZ 0000000180012e80 f   FarHrcSettings.cpp.obj
 0001:00012450       ?writeProfileToRegistry@FarHrcSettings@@AEAAXXZ 0000000180013450 f   FarHrcSettings.cpp.obj
 0001:00012730       ??0SettingsControlException@@QEAA@AEBVString@@@Z 0000000180013730 f i SettingsControl.cpp.obj
 0001:00012860       ??0SettingsControlException@@QEAA@AEBV0@@Z 0000000180013860 f i SettingsControl.cpp.obj
 0001:00012890       ??1SettingsControl@@QEAA@XZ 0000000180013890 f   SettingsControl.cpp.obj
 0001:000128b0       ?trim@@YAPEA_WPEA_W@Z      00000001800138b0 f   tools.cpp.obj
 0001:00012930       ?PathToFull@@YAPEA_WPEB_W_N@Z 0000000180013930 f   tools.cpp.obj
 0001:00012af0       ?PathToFullS@@YAPEAVSString@@PEB_W_N@Z 0000000180013af0 f   tools.cpp.obj
 0001:00012b60       ??4DString@@QEAAAEAV0@AEBV0@@Z 0000000180013b60 f   colorer_lib:DString.cpp.obj
 0001:00012c20       ??0DString@@QEAA@PEBEHH@Z  0000000180013c20 f   colorer_lib:DString.cpp.obj
 0001:00013140       ??0UnsupportedEncodingException@@QEAA@AEBV0@@Z 0000000180014140 f i colorer_lib:DString.cpp.obj
 0001:00013170       ??0DString@@QEAA@PEBDHHH@Z 0000000180014170 f   colorer_lib:DString.cpp.obj
 0001:00013250       ??0DString@@QEAA@PEB_WHH@Z 0000000180014250 f   colorer_lib:DString.cpp.obj
 0001:00013320       ??0DString@@QEAA@AEBVString@@HH@Z 0000000180014320 f   colorer_lib:DString.cpp.obj
 0001:00013320       ??0DString@@QEAA@PEBVString@@HH@Z 0000000180014320 f   colorer_lib:DString.cpp.obj
 0001:00013430       ??1DString@@UEAA@XZ        0000000180014430 f   colorer_lib:DString.cpp.obj
 0001:00013490       ??ADString@@UEBA_WH@Z      0000000180014490 f   colorer_lib:DString.cpp.obj
 0001:00013600       ??0StringIndexOutOfBoundsException@@QEAA@AEBV0@@Z 0000000180014600 f i colorer_lib:DString.cpp.obj
 0001:00013630       ?length@DString@@UEBAHXZ   0000000180014630 f   colorer_lib:DString.cpp.obj
 0001:00013640       ??0StringBuffer@@QEAA@XZ   0000000180014640 f   colorer_lib:StringBuffer.cpp.obj
 0001:000136b0       ??_EStringBuffer@@UEAAPEAXI@Z 00000001800146b0 f i  CIL library: CIL module
 0001:000136b0       ??_GStringBuffer@@UEAAPEAXI@Z 00000001800146b0 f i colorer_lib:StringBuffer.cpp.obj
 0001:000136b0       ??_ESString@@UEAAPEAXI@Z   00000001800146b0 f i  CIL library: CIL module
 0001:000136b0       ??_GSString@@UEAAPEAXI@Z   00000001800146b0 f i colorer_lib:SString.cpp.obj
 0001:00013730       ??0StringBuffer@@QEAA@PEBDHH@Z 0000000180014730 f   colorer_lib:StringBuffer.cpp.obj
 0001:000137f0       ??0StringBuffer@@QEAA@PEBVString@@HH@Z 00000001800147f0 f   colorer_lib:StringBuffer.cpp.obj
 0001:000137f0       ??0StringBuffer@@QEAA@AEBVString@@HH@Z 00000001800147f0 f   colorer_lib:StringBuffer.cpp.obj
 0001:00013840       ?append@StringBuffer@@QEAAAEAV1@PEBVString@@@Z 0000000180014840 f   colorer_lib:StringBuffer.cpp.obj
 0001:00013920       ?append@StringBuffer@@QEAAAEAV1@AEBVString@@@Z 0000000180014920 f   colorer_lib:StringBuffer.cpp.obj
 0001:00013a40       ??HStringBuffer@@QEAAAEAV0@PEBD@Z 0000000180014a40 f   colorer_lib:StringBuffer.cpp.obj
 0001:00013b10       ??3@YAXPEAX@Z              0000000180014b10 f   colorer_lib:MemoryChunks.cpp.obj
 0001:00013b20       ?chunk_alloc@@YAPEAX_K@Z   0000000180014b20 f   colorer_lib:MemoryChunks.cpp.obj
 0001:00013ca0       ?chunk_free@@YAXPEAX@Z     0000000180014ca0 f   colorer_lib:MemoryChunks.cpp.obj
 0001:00013d80       ?push_back@?$vector@PEAEV?$allocator@PEAE@std@@@std@@QEAAXAEBQEAE@Z 0000000180014d80 f i colorer_lib:MemoryChunks.cpp.obj
 0001:00013e20       ??0StringIndexOutOfBoundsException@@QEAA@AEBVString@@@Z 0000000180014e20 f   colorer_lib:String.cpp.obj
 0001:00013ef0       ??1String@@UEAA@XZ         0000000180014ef0 f   colorer_lib:String.cpp.obj
 0001:00013f30       ??8String@@QEBA_NAEBV0@@Z  0000000180014f30 f   colorer_lib:String.cpp.obj
 0001:00013fd0       ??9String@@QEBA_NAEBV0@@Z  0000000180014fd0 f   colorer_lib:String.cpp.obj
 0001:00014070       ?equals@String@@QEBA_NPEBD@Z 0000000180015070 f   colorer_lib:String.cpp.obj
 0001:00014070       ??8String@@QEBA_NPEBD@Z    0000000180015070 f   colorer_lib:String.cpp.obj
 0001:00014140       ?equalsIgnoreCase@String@@QEBA_NPEBV1@@Z 0000000180015140 f   colorer_lib:String.cpp.obj
 0001:00014320       ?compareTo@String@@QEBAHAEBV1@@Z 0000000180015320 f   colorer_lib:String.cpp.obj
 0001:000143e0       ?compareToIgnoreCase@String@@QEBAHAEBV1@@Z 00000001800153e0 f   colorer_lib:String.cpp.obj
 0001:00014520       ?getWChars@String@@UEBAHPEAPEA_W@Z 0000000180015520 f   colorer_lib:String.cpp.obj
 0001:000145f0       ?getBytes@String@@UEBAHPEAPEAEH@Z 00000001800155f0 f   colorer_lib:String.cpp.obj
 0001:00014780       ?getChars@String@@UEBAPEBDH@Z 0000000180015780 f   colorer_lib:String.cpp.obj
 0001:000147d0       ?getWChars@String@@UEBAPEB_WXZ 00000001800157d0 f   colorer_lib:String.cpp.obj
 0001:00014810       ?indexOf@String@@UEBAH_WH@Z 0000000180015810 f   colorer_lib:String.cpp.obj
 0001:00014880       ?indexOf@String@@UEBAHAEBV1@H@Z 0000000180015880 f   colorer_lib:String.cpp.obj
 0001:00014930       ?indexOfIgnoreCase@String@@UEBAHAEBV1@H@Z 0000000180015930 f   colorer_lib:String.cpp.obj
 0001:00014a70       ?lastIndexOf@String@@UEBAH_WH@Z 0000000180015a70 f   colorer_lib:String.cpp.obj
 0001:00014b00       ?lastIndexOf@String@@UEBAHAEBV1@H@Z 0000000180015b00 f   colorer_lib:String.cpp.obj
 0001:00014bf0       ?startsWith@String@@UEBA_NAEBV1@H@Z 0000000180015bf0 f   colorer_lib:String.cpp.obj
 0001:00014c90       ?replace@String@@QEBAPEAV1@AEBV1@0@Z 0000000180015c90 f   colorer_lib:String.cpp.obj
 0001:00014e50       ?warning@XmlParserErrorHandler@@UEAAXAEBVSAXParseException@xercesc_3_1@@@Z 0000000180015e50 f   colorer_lib:XmlParserErrorHandler.cpp.obj
 0001:00015430       ?error@XmlParserErrorHandler@@UEAAXAEBVSAXParseException@xercesc_3_1@@@Z 0000000180016430 f   colorer_lib:XmlParserErrorHandler.cpp.obj
 0001:00015a10       ?fatalError@XmlParserErrorHandler@@UEAAXAEBVSAXParseException@xercesc_3_1@@@Z 0000000180016a10 f   colorer_lib:XmlParserErrorHandler.cpp.obj
 0001:00015ff0       ?view@TextConsoleViewer@@QEAAXXZ 0000000180016ff0 f   colorer_lib:TextConsoleViewer.cpp.obj
 0001:00016a80       ??1ErrorHandler@colorer@@UEAA@XZ 0000000180017a80 f i colorer_lib:FileErrorHandler.cpp.obj
 0001:00016a90       ??0FileErrorHandler@@QEAA@PEBVString@@H_N@Z 0000000180017a90 f   colorer_lib:FileErrorHandler.cpp.obj
 0001:00016d40       ??_EFileErrorHandler@@UEAAPEAXI@Z 0000000180017d40 f i  CIL library: CIL module
 0001:00016d40       ??_GFileErrorHandler@@UEAAPEAXI@Z 0000000180017d40 f i colorer_lib:FileErrorHandler.cpp.obj
 0001:00016dd0       ?error@FileErrorHandler@@UEAAXAEBVString@@@Z 0000000180017dd0 f   colorer_lib:FileErrorHandler.cpp.obj
 0001:00016df0       ?fatalError@FileErrorHandler@@UEAAXAEBVString@@@Z 0000000180017df0 f   colorer_lib:FileErrorHandler.cpp.obj
 0001:00016e20       ?warning@FileErrorHandler@@UEAAXAEBVString@@@Z 0000000180017e20 f   colorer_lib:FileErrorHandler.cpp.obj
 0001:00016e50       ?newInstance@XmlInputSource@@SAPEAV1@PEB_WPEAV1@@Z 0000000180017e50 f   colorer_lib:XmlInputSource.cpp.obj
 0001:00016ff0       ??0InputSourceException@@QEAA@AEBV0@@Z 0000000180017ff0 f i colorer_lib:XmlInputSource.cpp.obj
 0001:00017020       ?newInstance@XmlInputSource@@SAPEAV1@PEB_W0@Z 0000000180018020 f   colorer_lib:XmlInputSource.cpp.obj
 0001:000172b0       ??0UnsupportedEncodingException@@QEAA@AEBVString@@@Z 00000001800182b0 f   colorer_lib:Encodings.cpp.obj
 0001:00017380       ?getEncodingIndex@Encodings@@SAHPEBD@Z 0000000180018380 f   colorer_lib:Encodings.cpp.obj
 0001:00017400       ?toBytes@Encodings@@SAHH_WPEAE@Z 0000000180018400 f   colorer_lib:Encodings.cpp.obj
 0001:000175f0       ??1RegionHandler@@MEAA@XZ  00000001800185f0 f i colorer_lib:BaseEditor.cpp.obj
 0001:00017600       ??_GRegionHandler@@MEAAPEAXI@Z 0000000180018600 f i colorer_lib:BaseEditor.cpp.obj
 0001:00017600       ??_ERegionHandler@@MEAAPEAXI@Z 0000000180018600 f i  CIL library: CIL module
 0001:00017630       ??1PairMatch@@UEAA@XZ      0000000180018630 f i colorer_lib:BaseEditor.cpp.obj
 0001:000176b0       ?setStart@PairMatch@@QEAAXPEAVLineRegion@@@Z 00000001800186b0 f i colorer_lib:BaseEditor.cpp.obj
 0001:00017780       ?setEnd@PairMatch@@QEAAXPEAVLineRegion@@@Z 0000000180018780 f i colorer_lib:BaseEditor.cpp.obj
 0001:00017850       ??_GPairMatch@@UEAAPEAXI@Z 0000000180018850 f i colorer_lib:BaseEditor.cpp.obj
 0001:00017850       ??_EPairMatch@@UEAAPEAXI@Z 0000000180018850 f i  CIL library: CIL module
 0001:00017890       ??0BaseEditor@@QEAA@PEAVParserFactory@@PEAVLineSource@@@Z 0000000180018890 f   colorer_lib:BaseEditor.cpp.obj
 0001:00017d10       ??_GBaseEditor@@UEAAPEAXI@Z 0000000180018d10 f i colorer_lib:BaseEditor.cpp.obj
 0001:00017d10       ??_EBaseEditor@@UEAAPEAXI@Z 0000000180018d10 f i  CIL library: CIL module
 0001:00017d50       ??1BaseEditor@@UEAA@XZ     0000000180018d50 f   colorer_lib:BaseEditor.cpp.obj
 0001:00017e50       ?remapLRS@BaseEditor@@AEAAX_N@Z 0000000180018e50 f   colorer_lib:BaseEditor.cpp.obj
 0001:000181c0       ?chooseFileTypeCh@BaseEditor@@AEAAPEAVFileType@@PEBVString@@HH@Z 00000001800191c0 f   colorer_lib:BaseEditor.cpp.obj
 0001:00018510       ?chooseFileType@BaseEditor@@QEAAPEAVFileType@@PEBVString@@@Z 0000000180019510 f   colorer_lib:BaseEditor.cpp.obj
 0001:00018790       ?addRegionHandler@BaseEditor@@QEAAXPEAVRegionHandler@@@Z 0000000180019790 f   colorer_lib:BaseEditor.cpp.obj
 0001:00018830       ?addEditorListener@BaseEditor@@QEAAXPEAVEditorListener@@@Z 0000000180019830 f   colorer_lib:BaseEditor.cpp.obj
 0001:000188d0       ?getPairMatch@BaseEditor@@AEAAPEAVPairMatch@@HH@Z 00000001800198d0 f   colorer_lib:BaseEditor.cpp.obj
 0001:00018a70       ?searchLocalPair@BaseEditor@@QEAAPEAVPairMatch@@HH@Z 0000000180019a70 f   colorer_lib:BaseEditor.cpp.obj
 0001:00018ce0       ?searchGlobalPair@BaseEditor@@QEAAPEAVPairMatch@@HH@Z 0000000180019ce0 f   colorer_lib:BaseEditor.cpp.obj
 0001:00018f20       ?getLineRegions@BaseEditor@@QEAAPEAVLineRegion@@H@Z 0000000180019f20 f   colorer_lib:BaseEditor.cpp.obj
 0001:00018f80       ?validate@BaseEditor@@QEAAXH_N@Z 0000000180019f80 f   colorer_lib:BaseEditor.cpp.obj
 0001:00019130       ?startParsing@BaseEditor@@UEAAX_K@Z 000000018001a130 f   colorer_lib:BaseEditor.cpp.obj
 0001:000191c0       ?endParsing@BaseEditor@@UEAAX_K@Z 000000018001a1c0 f   colorer_lib:BaseEditor.cpp.obj
 0001:00019250       ?clearLine@BaseEditor@@UEAAX_KPEAVString@@@Z 000000018001a250 f   colorer_lib:BaseEditor.cpp.obj
 0001:000192f0       ?addRegion@BaseEditor@@UEAAX_KPEAVString@@HHPEBVRegion@@@Z 000000018001a2f0 f   colorer_lib:BaseEditor.cpp.obj
 0001:000193c0       ?enterScheme@BaseEditor@@UEAAX_KPEAVString@@HHPEBVRegion@@PEBVScheme@@@Z 000000018001a3c0 f   colorer_lib:BaseEditor.cpp.obj
 0001:000194b0       ?leaveScheme@BaseEditor@@UEAAX_KPEAVString@@HHPEBVRegion@@PEBVScheme@@@Z 000000018001a4b0 f   colorer_lib:BaseEditor.cpp.obj
 0001:000195a0       ?_Reserve@?$vector@PEBVRegion@@V?$allocator@PEBVRegion@@@std@@@std@@IEAAX_K@Z 000000018001a5a0 f i colorer_lib:HRCParserImpl.cpp.obj
 0001:000195a0       ?_Reserve@?$vector@PEAVFileTypeImpl@@V?$allocator@PEAVFileTypeImpl@@@std@@@std@@IEAAX_K@Z 000000018001a5a0 f i colorer_lib:HRCParserImpl.cpp.obj
 0001:000195a0       ?_Reserve@?$vector@PEAVSchemeNode@@V?$allocator@PEAVSchemeNode@@@std@@@std@@IEAAX_K@Z 000000018001a5a0 f i colorer_lib:HRCParserImpl.cpp.obj
 0001:000195a0       ?_Reserve@?$vector@PEAVVirtualEntry@@V?$allocator@PEAVVirtualEntry@@@std@@@std@@IEAAX_K@Z 000000018001a5a0 f i colorer_lib:HRCParserImpl.cpp.obj
 0001:000195a0       ?_Reserve@?$vector@PEAVEditorListener@@V?$allocator@PEAVEditorListener@@@std@@@std@@IEAAX_K@Z 000000018001a5a0 f i colorer_lib:BaseEditor.cpp.obj
 0001:000195a0       ?_Reserve@?$vector@PEAEV?$allocator@PEAE@std@@@std@@IEAAX_K@Z 000000018001a5a0 f i colorer_lib:MemoryChunks.cpp.obj
 0001:000195a0       ?_Reserve@?$vector@PEAVString@@V?$allocator@PEAVString@@@std@@@std@@IEAAX_K@Z 000000018001a5a0 f i colorer_lib:TextLinesStore.cpp.obj
 0001:000195a0       ?_Reserve@?$vector@PEBVString@@V?$allocator@PEBVString@@@std@@@std@@IEAAX_K@Z 000000018001a5a0 f i colorer_lib:ParserFactory.cpp.obj
 0001:000195a0       ?_Reserve@?$vector@PEAVFileTypeChooser@@V?$allocator@PEAVFileTypeChooser@@@std@@@std@@IEAAX_K@Z 000000018001a5a0 f i colorer_lib:HRCParserImpl.cpp.obj
 0001:000195a0       ?_Reserve@?$vector@PEAVRegionHandler@@V?$allocator@PEAVRegionHandler@@@std@@@std@@IEAAX_K@Z 000000018001a5a0 f i colorer_lib:BaseEditor.cpp.obj
 0001:00019630       ??1FileType@@MEAA@XZ       000000018001a630 f i colorer_lib:FileTypeImpl.cpp.obj
 0001:00019640       ??_GFileType@@MEAAPEAXI@Z  000000018001a640 f i colorer_lib:FileTypeImpl.cpp.obj
 0001:00019640       ??_EFileType@@MEAAPEAXI@Z  000000018001a640 f i  CIL library: CIL module
 0001:00019670       ?getPublicId@InputSource@xercesc_3_1@@UEBAPEB_WXZ 000000018001a670 f i colorer_lib:ZipXmlInputSource.cpp.obj
 0001:00019670       ?getParent@Region@@UEBAPEBV1@XZ 000000018001a670 f i colorer_lib:HRCParserImpl.cpp.obj
 0001:00019670       ?getGroup@FileTypeImpl@@UEBAPEBVString@@XZ 000000018001a670 f i colorer_lib:FileTypeImpl.cpp.obj
 0001:00019680       ??0FileTypeImpl@@IEAA@PEAVHRCParserImpl@@@Z 000000018001a680 f   colorer_lib:FileTypeImpl.cpp.obj
 0001:00019740       ??_GFileTypeImpl@@MEAAPEAXI@Z 000000018001a740 f i colorer_lib:FileTypeImpl.cpp.obj
 0001:00019740       ??_EFileTypeImpl@@MEAAPEAXI@Z 000000018001a740 f i  CIL library: CIL module
 0001:00019780       ??1FileTypeImpl@@MEAA@XZ   000000018001a780 f   colorer_lib:FileTypeImpl.cpp.obj
 0001:000198e0       ?getBaseScheme@FileTypeImpl@@UEAAPEAVScheme@@XZ 000000018001a8e0 f   colorer_lib:FileTypeImpl.cpp.obj
 0001:00019910       ?enumParams@FileTypeImpl@@UEBA?AV?$vector@VSString@@V?$allocator@VSString@@@std@@@std@@XZ 000000018001a910 f   colorer_lib:FileTypeImpl.cpp.obj
 0001:00019990       ?getParamDescription@FileTypeImpl@@UEBAPEBVString@@AEBV2@@Z 000000018001a990 f   colorer_lib:FileTypeImpl.cpp.obj
 0001:00019bf0       ?getParamValue@FileTypeImpl@@UEBAPEBVString@@AEBV2@@Z 000000018001abf0 f   colorer_lib:FileTypeImpl.cpp.obj
 0001:00019e60       ?getParamValueInt@FileTypeImpl@@UEBAHAEBVString@@H@Z 000000018001ae60 f   colorer_lib:FileTypeImpl.cpp.obj
 0001:00019ea0       ?getParamDefaultValue@FileTypeImpl@@UEBAPEBVString@@AEBV2@@Z 000000018001aea0 f   colorer_lib:FileTypeImpl.cpp.obj
 0001:0001a100       ?getParamUserValue@FileTypeImpl@@QEBAPEBVString@@AEBV2@@Z 000000018001b100 f   colorer_lib:FileTypeImpl.cpp.obj
 0001:0001a360       ?addParam@FileTypeImpl@@QEAAPEAVTypeParameter@@PEBVString@@@Z 000000018001b360 f   colorer_lib:FileTypeImpl.cpp.obj
 0001:0001a6a0       ?setParamValue@FileTypeImpl@@UEAAXAEBVString@@PEBV2@@Z 000000018001b6a0 f   colorer_lib:FileTypeImpl.cpp.obj
 0001:0001ab00       ?setParamDefaultValue@FileTypeImpl@@QEAAXAEBVString@@PEBV2@@Z 000000018001bb00 f   colorer_lib:FileTypeImpl.cpp.obj
 0001:0001af60       ?setParamDescription@FileTypeImpl@@QEAAXAEBVString@@PEBV2@@Z 000000018001bf60 f   colorer_lib:FileTypeImpl.cpp.obj
 0001:0001b3c0       ?getPriority@FileTypeImpl@@QEBANPEBVString@@0@Z 000000018001c3c0 f   colorer_lib:FileTypeImpl.cpp.obj
 0001:0001b4f0       ??1?$vector@PEAVEditorListener@@V?$allocator@PEAVEditorListener@@@std@@@std@@QEAA@XZ 000000018001c4f0 f i colorer_lib:BaseEditor.cpp.obj
 0001:0001b4f0       ??1?$vector@V?$_List_iterator@V?$_List_val@U?$pair@$$CBVSString@@PEAV?$unordered_map@VSString@@PEAV?$vector@PEBVString@@V?$allocator@PEBVString@@@std@@@std@@U?$hash@VSString@@@3@U?$equal_to@VSString@@@3@V?$allocator@U?$pair@$$CBVSString@@PEAV?$vector@PEBVString@@V?$allocator@PEBVString@@@std@@@std@@@std@@@3@@tr1@std@@@std@@V?$allocator@U?$pair@$$CBVSString@@PEAV?$unordered_map@VSString@@PEAV?$vector@PEBVString@@V?$allocator@PEBVString@@@std@@@std@@U?$hash@VSString@@@3@U?$equal_to@VSString@@@3@V?$allocator@U?$pair@$$CBVSString@@PEAV?$vector@PEBVString@@V?$allocator@PEBVString@@@std@@@std@@@std@@@3@@tr1@std@@@std@@@2@@std@@@std@@V?$allocator@V?$_List_iterator@V?$_List_val@U?$pair@$$CBVSString@@PEAV?$unordered_map@VSString@@PEAV?$vector@PEBVString@@V?$allocator@PEBVString@@@std@@@std@@U?$hash@VSString@@@3@U?$equal_to@VSString@@@3@V?$allocator@U?$pair@$$CBVSString@@PEAV?$vector@PEBVString@@V?$allocator@PEBVString@@@std@@@std@@@std@@@3@@tr1@std@@@std@@V?$allocator@U?$pair@$$CBVSString@@PEAV?$unordered_map@VSString@@PEAV?$vector@PEBVString@@V?$allocator@PEBVString@@@std@@@std@@U?$hash@VSString@@@3@U?$equal_to@VSString@@@3@V?$allocator@U?$pair@$$CBVSString@@PEAV?$vector@PEBVString@@V?$allocator@PEBVString@@@std@@@std@@@std@@@3@@tr1@std@@@std@@@2@@std@@@std@@@2@@std@@QEAA@XZ 000000018001c4f0 f i colorer_lib:ParserFactory.cpp.obj
 0001:0001b4f0       ??1?$vector@V?$_List_iterator@V?$_List_val@U?$pair@$$CBVSString@@PEAVString@@@std@@V?$allocator@U?$pair@$$CBVSString@@PEAVString@@@std@@@2@@std@@@std@@V?$allocator@V?$_List_iterator@V?$_List_val@U?$pair@$$CBVSString@@PEAVString@@@std@@V?$allocator@U?$pair@$$CBVSString@@PEAVString@@@std@@@2@@std@@@std@@@2@@std@@QEAA@XZ 000000018001c4f0 f i colorer_lib:HRCParserImpl.cpp.obj
 0001:0001b4f0       ??1?$vector@V?$_List_iterator@V?$_List_val@U?$pair@$$CBVSString@@PEAVSchemeImpl@@@std@@V?$allocator@U?$pair@$$CBVSString@@PEAVSchemeImpl@@@std@@@2@@std@@@std@@V?$allocator@V?$_List_iterator@V?$_List_val@U?$pair@$$CBVSString@@PEAVSchemeImpl@@@std@@V?$allocator@U?$pair@$$CBVSString@@PEAVSchemeImpl@@@std@@@2@@std@@@std@@@2@@std@@QEAA@XZ 000000018001c4f0 f i colorer_lib:HRCParserImpl.cpp.obj
 0001:0001b4f0       ??1?$vector@PEAVFileTypeImpl@@V?$allocator@PEAVFileTypeImpl@@@std@@@std@@QEAA@XZ 000000018001c4f0 f i colorer_lib:HRCParserImpl.cpp.obj
 0001:0001b4f0       ??1?$vector@V?$_List_iterator@V?$_List_val@U?$pair@$$CBVSString@@PEAVSharedXmlInputSource@@@std@@V?$allocator@U?$pair@$$CBVSString@@PEAVSharedXmlInputSource@@@std@@@2@@std@@@std@@V?$allocator@V?$_List_iterator@V?$_List_val@U?$pair@$$CBVSString@@PEAVSharedXmlInputSource@@@std@@V?$allocator@U?$pair@$$CBVSString@@PEAVSharedXmlInputSource@@@std@@@2@@std@@@std@@@2@@std@@QEAA@XZ 000000018001c4f0 f i colorer_lib:SharedXmlInputSource.cpp.obj
 0001:0001b4f0       ??1?$vector@PEAVFileTypeChooser@@V?$allocator@PEAVFileTypeChooser@@@std@@@std@@QEAA@XZ 000000018001c4f0 f i colorer_lib:FileTypeImpl.cpp.obj
 0001:0001b4f0       ??1?$vector@PEBVRegion@@V?$allocator@PEBVRegion@@@std@@@std@@QEAA@XZ 000000018001c4f0 f i colorer_lib:HRCParserImpl.cpp.obj
 0001:0001b4f0       ??1?$vector@V?$_List_iterator@V?$_List_val@U?$pair@$$CBVSString@@PEAVTypeParameter@@@std@@V?$allocator@U?$pair@$$CBVSString@@PEAVTypeParameter@@@std@@@2@@std@@@std@@V?$allocator@V?$_List_iterator@V?$_List_val@U?$pair@$$CBVSString@@PEAVTypeParameter@@@std@@V?$allocator@U?$pair@$$CBVSString@@PEAVTypeParameter@@@std@@@2@@std@@@std@@@2@@std@@QEAA@XZ 000000018001c4f0 f i colorer_lib:FileTypeImpl.cpp.obj
 0001:0001b4f0       ??1?$vector@PEAVRegionHandler@@V?$allocator@PEAVRegionHandler@@@std@@@std@@QEAA@XZ 000000018001c4f0 f i colorer_lib:BaseEditor.cpp.obj
 0001:0001b4f0       ??1?$vector@PEBVString@@V?$allocator@PEBVString@@@std@@@std@@QEAA@XZ 000000018001c4f0 f i colorer_lib:ParserFactory.cpp.obj
 0001:0001b4f0       ??1?$vector@V?$_List_iterator@V?$_List_val@U?$pair@$$CBVSString@@PEBVString@@@std@@V?$allocator@U?$pair@$$CBVSString@@PEBVString@@@std@@@2@@std@@@std@@V?$allocator@V?$_List_iterator@V?$_List_val@U?$pair@$$CBVSString@@PEBVString@@@std@@V?$allocator@U?$pair@$$CBVSString@@PEBVString@@@std@@@2@@std@@@std@@@2@@std@@QEAA@XZ 000000018001c4f0 f i colorer_lib:ParserFactory.cpp.obj
 0001:0001b4f0       ??1?$vector@V?$_List_iterator@V?$_List_val@U?$pair@$$CBVSString@@PEAVFarEditor@@@std@@V?$allocator@U?$pair@$$CBVSString@@PEAVFarEditor@@@std@@@2@@std@@@std@@V?$allocator@V?$_List_iterator@V?$_List_val@U?$pair@$$CBVSString@@PEAVFarEditor@@@std@@V?$allocator@U?$pair@$$CBVSString@@PEAVFarEditor@@@std@@@2@@std@@@std@@@2@@std@@QEAA@XZ 000000018001c4f0 f i FarEditorSet.cpp.obj
 0001:0001b4f0       ??1?$vector@V?$_List_iterator@V?$_List_val@U?$pair@$$CBVSString@@PEAVFileTypeImpl@@@std@@V?$allocator@U?$pair@$$CBVSString@@PEAVFileTypeImpl@@@std@@@2@@std@@@std@@V?$allocator@V?$_List_iterator@V?$_List_val@U?$pair@$$CBVSString@@PEAVFileTypeImpl@@@std@@V?$allocator@U?$pair@$$CBVSString@@PEAVFileTypeImpl@@@std@@@2@@std@@@std@@@2@@std@@QEAA@XZ 000000018001c4f0 f i colorer_lib:HRCParserImpl.cpp.obj
 0001:0001b4f0       ??1?$vector@PEAVOutlineItem@@V?$allocator@PEAVOutlineItem@@@std@@@std@@QEAA@XZ 000000018001c4f0 f i colorer_lib:Outliner.cpp.obj
 0001:0001b4f0       ??1?$vector@PEAVString@@V?$allocator@PEAVString@@@std@@@std@@QEAA@XZ 000000018001c4f0 f i colorer_lib:FileTypeImpl.cpp.obj
 0001:0001b4f0       ??1?$vector@V?$_List_iterator@V?$_List_val@U?$pair@$$CBVSString@@PEAVSharedInputSource@@@std@@V?$allocator@U?$pair@$$CBVSString@@PEAVSharedInputSource@@@std@@@2@@std@@@std@@V?$allocator@V?$_List_iterator@V?$_List_val@U?$pair@$$CBVSString@@PEAVSharedInputSource@@@std@@V?$allocator@U?$pair@$$CBVSString@@PEAVSharedInputSource@@@std@@@2@@std@@@std@@@2@@std@@QEAA@XZ 000000018001c4f0 f i colorer_lib:SharedInputSource.cpp.obj
 0001:0001b4f0       ??1?$vector@PEAVLineRegion@@V?$allocator@PEAVLineRegion@@@std@@@std@@QEAA@XZ 000000018001c4f0 f i colorer_lib:LineRegionsSupport.cpp.obj
 0001:0001b4f0       ??1?$vector@PEAVSchemeNode@@V?$allocator@PEAVSchemeNode@@@std@@@std@@QEAA@XZ 000000018001c4f0 f i colorer_lib:HRCParserImpl.cpp.obj
 0001:0001b4f0       ??1?$vector@V?$_List_iterator@V?$_List_val@U?$pair@$$CBVSString@@PEAV?$vector@PEBVString@@V?$allocator@PEBVString@@@std@@@std@@@std@@V?$allocator@U?$pair@$$CBVSString@@PEAV?$vector@PEBVString@@V?$allocator@PEBVString@@@std@@@std@@@std@@@2@@std@@@std@@V?$allocator@V?$_List_iterator@V?$_List_val@U?$pair@$$CBVSString@@PEAV?$vector@PEBVString@@V?$allocator@PEBVString@@@std@@@std@@@std@@V?$allocator@U?$pair@$$CBVSString@@PEAV?$vector@PEBVString@@V?$allocator@PEBVString@@@std@@@std@@@std@@@2@@std@@@std@@@2@@std@@QEAA@XZ 000000018001c4f0 f i colorer_lib:ParserFactory.cpp.obj
 0001:0001b4f0       ??1?$vector@V?$_List_iterator@V?$_List_val@U?$pair@$$CBVSString@@PEAVRegionDefine@@@std@@V?$allocator@U?$pair@$$CBVSString@@PEAVRegionDefine@@@std@@@2@@std@@@std@@V?$allocator@V?$_List_iterator@V?$_List_val@U?$pair@$$CBVSString@@PEAVRegionDefine@@@std@@V?$allocator@U?$pair@$$CBVSString@@PEAVRegionDefine@@@std@@@2@@std@@@std@@@2@@std@@QEAA@XZ 000000018001c4f0 f i colorer_lib:StyledHRDMapper.cpp.obj
 0001:0001b4f0       ??1?$vector@HV?$allocator@H@std@@@std@@QEAA@XZ 000000018001c4f0 f i FarEditor.cpp.obj
 0001:0001b4f0       ??1?$vector@V?$_List_iterator@V?$_List_val@U?$pair@$$CBVSString@@H@std@@V?$allocator@U?$pair@$$CBVSString@@H@std@@@2@@std@@@std@@V?$allocator@V?$_List_iterator@V?$_List_val@U?$pair@$$CBVSString@@H@std@@V?$allocator@U?$pair@$$CBVSString@@H@std@@@2@@std@@@std@@@2@@std@@QEAA@XZ 000000018001c4f0 f i colorer_lib:HRCParserImpl.cpp.obj
 0001:0001b4f0       ??1?$vector@PEAVVirtualEntry@@V?$allocator@PEAVVirtualEntry@@@std@@@std@@QEAA@XZ 000000018001c4f0 f i colorer_lib:HRCParserHelpers.cpp.obj
 0001:0001b4f0       ??1?$vector@V?$_List_iterator@V?$_List_val@U?$pair@$$CBVSString@@PEBVRegion@@@std@@V?$allocator@U?$pair@$$CBVSString@@PEBVRegion@@@std@@@2@@std@@@std@@V?$allocator@V?$_List_iterator@V?$_List_val@U?$pair@$$CBVSString@@PEBVRegion@@@std@@V?$allocator@U?$pair@$$CBVSString@@PEBVRegion@@@std@@@2@@std@@@std@@@2@@std@@QEAA@XZ 000000018001c4f0 f i colorer_lib:HRCParserImpl.cpp.obj
 0001:0001b520       ?reserve@?$vector@VSString@@V?$allocator@VSString@@@std@@@std@@QEAAX_K@Z 000000018001c520 f i colorer_lib:FileTypeImpl.cpp.obj
 0001:0001b640       ?push_back@?$vector@VSString@@V?$allocator@VSString@@@std@@@std@@QEAAXAEBVSString@@@Z 000000018001c640 f i colorer_lib:FileTypeImpl.cpp.obj
 0001:0001b700       ?_Reserve@?$vector@VSString@@V?$allocator@VSString@@@std@@@std@@IEAAX_K@Z 000000018001c700 f i colorer_lib:FileTypeImpl.cpp.obj
 0001:0001b7c0       ?allocate@?$allocator@VSString@@@std@@QEAAPEAVSString@@_K@Z 000000018001c7c0 f i colorer_lib:FileTypeImpl.cpp.obj
 0001:0001b840       ?_Insert@?$_Hash@V?$_Umap_traits@VSString@@PEAVFileTypeImpl@@V?$_Hash_compare@VSString@@U?$hash@VSString@@@std@@U?$equal_to@VSString@@@3@@std@@V?$allocator@U?$pair@$$CBVSString@@PEAVFileTypeImpl@@@std@@@4@$0A@@tr1@std@@@std@@IEAA?AU?$pair@V?$_List_iterator@V?$_List_val@U?$pair@$$CBVSString@@PEAVFileTypeImpl@@@std@@V?$allocator@U?$pair@$$CBVSString@@PEAVFileTypeImpl@@@std@@@2@@std@@@std@@_N@2@AEBU?$pair@$$CBVSString@@PEAVFileTypeImpl@@@2@V?$_List_iterator@V?$_List_val@U?$pair@$$CBVSString@@PEAVFileTypeImpl@@@std@@V?$allocator@U?$pair@$$CBVSString@@PEAVFileTypeImpl@@@std@@@2@@std@@@2@@Z 000000018001c840 f i colorer_lib:HRCParserImpl.cpp.obj
 0001:0001b840       ?_Insert@?$_Hash@V?$_Umap_traits@VSString@@PEAVTypeParameter@@V?$_Hash_compare@VSString@@U?$hash@VSString@@@std@@U?$equal_to@VSString@@@3@@std@@V?$allocator@U?$pair@$$CBVSString@@PEAVTypeParameter@@@std@@@4@$0A@@tr1@std@@@std@@IEAA?AU?$pair@V?$_List_iterator@V?$_List_val@U?$pair@$$CBVSString@@PEAVTypeParameter@@@std@@V?$allocator@U?$pair@$$CBVSString@@PEAVTypeParameter@@@std@@@2@@std@@@std@@_N@2@AEBU?$pair@$$CBVSString@@PEAVTypeParameter@@@2@V?$_List_iterator@V?$_List_val@U?$pair@$$CBVSString@@PEAVTypeParameter@@@std@@V?$allocator@U?$pair@$$CBVSString@@PEAVTypeParameter@@@std@@@2@@std@@@2@@Z 000000018001c840 f i colorer_lib:FileTypeImpl.cpp.obj
 0001:0001b840       ?_Insert@?$_Hash@V?$_Umap_traits@VSString@@PEAVSchemeImpl@@V?$_Hash_compare@VSString@@U?$hash@VSString@@@std@@U?$equal_to@VSString@@@3@@std@@V?$allocator@U?$pair@$$CBVSString@@PEAVSchemeImpl@@@std@@@4@$0A@@tr1@std@@@std@@IEAA?AU?$pair@V?$_List_iterator@V?$_List_val@U?$pair@$$CBVSString@@PEAVSchemeImpl@@@std@@V?$allocator@U?$pair@$$CBVSString@@PEAVSchemeImpl@@@std@@@2@@std@@@std@@_N@2@AEBU?$pair@$$CBVSString@@PEAVSchemeImpl@@@2@V?$_List_iterator@V?$_List_val@U?$pair@$$CBVSString@@PEAVSchemeImpl@@@std@@V?$allocator@U?$pair@$$CBVSString@@PEAVSchemeImpl@@@std@@@2@@std@@@2@@Z 000000018001c840 f i colorer_lib:HRCParserImpl.cpp.obj
 0001:0001b840       ?_Insert@?$_Hash@V?$_Umap_traits@VSString@@PEAVRegionDefine@@V?$_Hash_compare@VSString@@U?$hash@VSString@@@std@@U?$equal_to@VSString@@@3@@std@@V?$allocator@U?$pair@$$CBVSString@@PEAVRegionDefine@@@std@@@4@$0A@@tr1@std@@@std@@IEAA?AU?$pair@V?$_List_iterator@V?$_List_val@U?$pair@$$CBVSString@@PEAVRegionDefine@@@std@@V?$allocator@U?$pair@$$CBVSString@@PEAVRegionDefine@@@std@@@2@@std@@@std@@_N@2@AEBU?$pair@$$CBVSString@@PEAVRegionDefine@@@2@V?$_List_iterator@V?$_List_val@U?$pair@$$CBVSString@@PEAVRegionDefine@@@std@@V?$allocator@U?$pair@$$CBVSString@@PEAVRegionDefine@@@std@@@2@@std@@@2@@Z 000000018001c840 f i colorer_lib:StyledHRDMapper.cpp.obj
 0001:0001b9a0       ?_Check_size@?$_Hash@V?$_Umap_traits@VSString@@PEAVSchemeImpl@@V?$_Hash_compare@VSString@@U?$hash@VSString@@@std@@U?$equal_to@VSString@@@3@@std@@V?$allocator@U?$pair@$$CBVSString@@PEAVSchemeImpl@@@std@@@4@$0A@@tr1@std@@@std@@IEAAXXZ 000000018001c9a0 f i colorer_lib:HRCParserImpl.cpp.obj
 0001:0001b9a0       ?_Check_size@?$_Hash@V?$_Umap_traits@VSString@@PEAVFileTypeImpl@@V?$_Hash_compare@VSString@@U?$hash@VSString@@@std@@U?$equal_to@VSString@@@3@@std@@V?$allocator@U?$pair@$$CBVSString@@PEAVFileTypeImpl@@@std@@@4@$0A@@tr1@std@@@std@@IEAAXXZ 000000018001c9a0 f i colorer_lib:HRCParserImpl.cpp.obj
 0001:0001b9a0       ?_Check_size@?$_Hash@V?$_Umap_traits@VSString@@PEAVRegionDefine@@V?$_Hash_compare@VSString@@U?$hash@VSString@@@std@@U?$equal_to@VSString@@@3@@std@@V?$allocator@U?$pair@$$CBVSString@@PEAVRegionDefine@@@std@@@4@$0A@@tr1@std@@@std@@IEAAXXZ 000000018001c9a0 f i colorer_lib:StyledHRDMapper.cpp.obj
 0001:0001b9a0       ?_Check_size@?$_Hash@V?$_Umap_traits@VSString@@PEAVTypeParameter@@V?$_Hash_compare@VSString@@U?$hash@VSString@@@std@@U?$equal_to@VSString@@@3@@std@@V?$allocator@U?$pair@$$CBVSString@@PEAVTypeParameter@@@std@@@4@$0A@@tr1@std@@@std@@IEAAXXZ 000000018001c9a0 f i colorer_lib:FileTypeImpl.cpp.obj
 0001:0001bab0       ??$_Uninit_move@PEAVSString@@PEAV1@V?$allocator@VSString@@@std@@V1@@std@@YAPEAVSString@@PEAV1@00AEAV?$allocator@VSString@@@0@0U_Nonscalar_ptr_iterator_tag@0@@Z 000000018001cab0 f i colorer_lib:FileTypeImpl.cpp.obj
 0001:0001bb10       ??0Exception@@QEAA@AEBV0@@Z 000000018001cb10 f   colorer_lib:Exception.cpp.obj
 0001:0001bc90       ??_EParserFactoryException@@UEAAPEAXI@Z 000000018001cc90 f i  CIL library: CIL module
 0001:0001bc90       ??_GStringIndexOutOfBoundsException@@UEAAPEAXI@Z 000000018001cc90 f i colorer_lib:DString.cpp.obj
 0001:0001bc90       ??_GUnsupportedEncodingException@@UEAAPEAXI@Z 000000018001cc90 f i colorer_lib:DString.cpp.obj
 0001:0001bc90       ??_GInputSourceException@@UEAAPEAXI@Z 000000018001cc90 f i colorer_lib:XmlInputSource.cpp.obj
 0001:0001bc90       ??_EStringIndexOutOfBoundsException@@UEAAPEAXI@Z 000000018001cc90 f i  CIL library: CIL module
 0001:0001bc90       ??_ESettingsControlException@@UEAAPEAXI@Z 000000018001cc90 f i  CIL library: CIL module
 0001:0001bc90       ??_EFarHrcSettingsException@@UEAAPEAXI@Z 000000018001cc90 f i  CIL library: CIL module
 0001:0001bc90       ??_GParserFactoryException@@UEAAPEAXI@Z 000000018001cc90 f i FarEditorSet.cpp.obj
 0001:0001bc90       ??_EHRCParserException@@UEAAPEAXI@Z 000000018001cc90 f i  CIL library: CIL module
 0001:0001bc90       ??_EException@@UEAAPEAXI@Z 000000018001cc90 f i  CIL library: CIL module
 0001:0001bc90       ??_EInputSourceException@@UEAAPEAXI@Z 000000018001cc90 f i  CIL library: CIL module
 0001:0001bc90       ??_GSettingsControlException@@UEAAPEAXI@Z 000000018001cc90 f i SettingsControl.cpp.obj
 0001:0001bc90       ??_EUnsupportedEncodingException@@UEAAPEAXI@Z 000000018001cc90 f i  CIL library: CIL module
 0001:0001bc90       ??_GException@@UEAAPEAXI@Z 000000018001cc90 f i colorer_lib:Exception.cpp.obj
 0001:0001bc90       ??_GFarHrcSettingsException@@UEAAPEAXI@Z 000000018001cc90 f i FarHrcSettings.cpp.obj
 0001:0001bc90       ??_GHRCParserException@@UEAAPEAXI@Z 000000018001cc90 f i colorer_lib:HRCParserImpl.cpp.obj
 0001:0001bce0       ??0Exception@@QEAA@AEBVString@@@Z 000000018001cce0 f   colorer_lib:Exception.cpp.obj
 0001:0001be50       ??0InputSourceException@@QEAA@AEBVString@@@Z 000000018001ce50 f   colorer_lib:Exception.cpp.obj
 0001:0001bf80       ?construct@SString@@IEAAXPEBVString@@HH@Z 000000018001cf80 f   colorer_lib:SString.cpp.obj
 0001:0001c0c0       ??0SString@@QEAA@PEBVString@@HH@Z 000000018001d0c0 f   colorer_lib:SString.cpp.obj
 0001:0001c100       ??0SString@@QEAA@AEBV0@@Z  000000018001d100 f   colorer_lib:SString.cpp.obj
 0001:0001c230       ??0SString@@QEAA@AEBVString@@HH@Z 000000018001d230 f   colorer_lib:SString.cpp.obj
 0001:0001c270       ??0SString@@QEAA@PEADH@Z   000000018001d270 f   colorer_lib:SString.cpp.obj
 0001:0001c360       ??0SString@@QEAA@PEA_W@Z   000000018001d360 f   colorer_lib:SString.cpp.obj
 0001:0001c440       ??0SString@@QEAA@H@Z       000000018001d440 f   colorer_lib:SString.cpp.obj
 0001:0001c610       ??ASString@@UEBA_WH@Z      000000018001d610 f   colorer_lib:SString.cpp.obj
 0001:0001c660       ?length@SString@@UEBAHXZ   000000018001d660 f   colorer_lib:SString.cpp.obj
 0001:0001c660       ?getID@Region@@UEBAHXZ     000000018001d660 f   colorer_lib:HRCParserImpl.cpp.obj
 0001:0001c670       ?replaceTabs@TextLinesStore@@AEAAX_K@Z 000000018001d670 f   colorer_lib:TextLinesStore.cpp.obj
 0001:0001c850       ??_GTextLinesStore@@UEAAPEAXI@Z 000000018001d850 f i colorer_lib:TextLinesStore.cpp.obj
 0001:0001c850       ??_ETextLinesStore@@UEAAPEAXI@Z 000000018001d850 f i  CIL library: CIL module
 0001:0001c8d0       ??1TextLinesStore@@UEAA@XZ 000000018001d8d0 f   colorer_lib:TextLinesStore.cpp.obj
 0001:0001c930       ?freeFile@TextLinesStore@@IEAAXXZ 000000018001d930 f   colorer_lib:TextLinesStore.cpp.obj
 0001:0001c9a0       ?loadFile@TextLinesStore@@QEAAXPEBVString@@0_N@Z 000000018001d9a0 f   colorer_lib:TextLinesStore.cpp.obj
 0001:0001cf10       ?getLine@TextLinesStore@@UEAAPEAVString@@_K@Z 000000018001df10 f   colorer_lib:TextLinesStore.cpp.obj
 0001:0001cf30       ?startJob@LineSource@@UEAAX_K@Z 000000018001df30 f i FarEditor.cpp.obj
 0001:0001cf30       ?clearLine@RegionHandler@@UEAAX_KPEAVString@@@Z 000000018001df30 f i colorer_lib:BaseEditor.cpp.obj
 0001:0001cf30       ?endParsing@RegionHandler@@UEAAX_K@Z 000000018001df30 f i colorer_lib:BaseEditor.cpp.obj
 0001:0001cf30       ?error@DefaultErrorHandler@@UEAAXAEBVString@@@Z 000000018001df30 f i colorer_lib:ParserFactory.cpp.obj
 0001:0001cf30       ?endJob@LineSource@@UEAAX_K@Z 000000018001df30 f i FarEditor.cpp.obj
 0001:0001cf30       ?warning@DefaultErrorHandler@@UEAAXAEBVString@@@Z 000000018001df30 f i colorer_lib:ParserFactory.cpp.obj
 0001:0001cf30       ?startParsing@RegionHandler@@UEAAX_K@Z 000000018001df30 f i colorer_lib:BaseEditor.cpp.obj
 0001:0001cf30       ?fatalError@DefaultErrorHandler@@UEAAXAEBVString@@@Z 000000018001df30 f i colorer_lib:ParserFactory.cpp.obj
 0001:0001cf30       ??3@YAXPEAX0@Z             000000018001df30 f i FarEditorSet.cpp.obj
 0001:0001cf40       ??_EDefaultErrorHandler@@UEAAPEAXI@Z 000000018001df40 f i  CIL library: CIL module
 0001:0001cf40       ??_GDefaultErrorHandler@@UEAAPEAXI@Z 000000018001df40 f i colorer_lib:ParserFactory.cpp.obj
 0001:0001cf40       ??_GErrorHandler@colorer@@UEAAPEAXI@Z 000000018001df40 f i colorer_lib:FileErrorHandler.cpp.obj
 0001:0001cf40       ??_EErrorHandler@colorer@@UEAAPEAXI@Z 000000018001df40 f i  CIL library: CIL module
 0001:0001cf70       ??_EBaseEntityResolver@@UEAAPEAXI@Z 000000018001df70 f i  CIL library: CIL module
 0001:0001cf70       ??_GBaseEntityResolver@@UEAAPEAXI@Z 000000018001df70 f i colorer_lib:ParserFactory.cpp.obj
 0001:0001cf70       ??_GXMLEntityResolver@xercesc_3_1@@UEAAPEAXI@Z 000000018001df70 f i colorer_lib:ParserFactory.cpp.obj
 0001:0001cf70       ??_EXMLEntityResolver@xercesc_3_1@@UEAAPEAXI@Z 000000018001df70 f i  CIL library: CIL module
 0001:0001cfa0       ??1BaseEntityResolver@@UEAA@XZ 000000018001dfa0 f i colorer_lib:ParserFactory.cpp.obj
 0001:0001cfb0       ?loadCatalog@ParserFactory@@QEAAXPEBVString@@@Z 000000018001dfb0 f   colorer_lib:ParserFactory.cpp.obj
 0001:0001d430       ?parseCatalogBlock@ParserFactory@@AEAAXPEBVDOMElement@xercesc_3_1@@@Z 000000018001e430 f   colorer_lib:ParserFactory.cpp.obj
 0001:0001d580       ?parseHrcSetsBlock@ParserFactory@@AEAAXPEBVDOMElement@xercesc_3_1@@@Z 000000018001e580 f   colorer_lib:ParserFactory.cpp.obj
 0001:0001d5a0       ?addHrcSetsLocation@ParserFactory@@AEAAXPEBVDOMElement@xercesc_3_1@@@Z 000000018001e5a0 f   colorer_lib:ParserFactory.cpp.obj
 0001:0001d810       ?parseHrdSetsBlock@ParserFactory@@AEAAXPEBVDOMElement@xercesc_3_1@@@Z 000000018001e810 f   colorer_lib:ParserFactory.cpp.obj
 0001:0001d8f0       ?parseHRDSetsChild@ParserFactory@@QEAAXPEBVDOMElement@xercesc_3_1@@@Z 000000018001e8f0 f   colorer_lib:ParserFactory.cpp.obj
 0001:0001e8d0       ?searchPath@ParserFactory@@AEAAPEAVString@@XZ 000000018001f8d0 f   colorer_lib:ParserFactory.cpp.obj
 0001:0001ec50       ?searchPathWindows@ParserFactory@@AEAAXPEAV?$vector@PEAVString@@V?$allocator@PEAVString@@@std@@@std@@@Z 000000018001fc50 f   colorer_lib:ParserFactory.cpp.obj
 0001:0001fc10       ??0ParserFactory@@QEAA@PEAVErrorHandler@colorer@@@Z 0000000180020c10 f   colorer_lib:ParserFactory.cpp.obj
 0001:0001fd40       ??_EParserFactory@@UEAAPEAXI@Z 0000000180020d40 f i  CIL library: CIL module
 0001:0001fd40       ??_GParserFactory@@UEAAPEAXI@Z 0000000180020d40 f i colorer_lib:ParserFactory.cpp.obj
 0001:0001fd80       ??1ParserFactory@@UEAA@XZ  0000000180020d80 f   colorer_lib:ParserFactory.cpp.obj
 0001:0001ff20       ?enumHRDInstances@ParserFactory@@QEAA?AV?$vector@VSString@@V?$allocator@VSString@@@std@@@std@@AEBVString@@@Z 0000000180020f20 f   colorer_lib:ParserFactory.cpp.obj
 0001:00020290       ?getHRDescription@ParserFactory@@QEAAPEBVString@@AEBV2@0@Z 0000000180021290 f   colorer_lib:ParserFactory.cpp.obj
 0001:00020720       ?getHRCParser@ParserFactory@@QEAAPEAVHRCParser@@XZ 0000000180021720 f   colorer_lib:ParserFactory.cpp.obj
 0001:00021190       ?loadPathWindows@ParserFactory@@AEAAXPEBVString@@0@Z 0000000180022190 f   colorer_lib:ParserFactory.cpp.obj
 0001:00021710       ?createStyledMapper@ParserFactory@@QEAAPEAVStyledHRDMapper@@PEBVString@@0@Z 0000000180022710 f   colorer_lib:ParserFactory.cpp.obj
 0001:00022350       ?push_back@?$vector@PEBVString@@V?$allocator@PEBVString@@@std@@@std@@QEAAX$$QEAPEBVString@@@Z 0000000180023350 f i colorer_lib:ParserFactory.cpp.obj
 0001:000223e0       ??1?$list@U?$pair@$$CBVSString@@PEBVString@@@std@@V?$allocator@U?$pair@$$CBVSString@@PEBVString@@@std@@@2@@std@@QEAA@XZ 00000001800233e0 f i colorer_lib:ParserFactory.cpp.obj
 0001:000223e0       ??1?$list@U?$pair@$$CBVSString@@PEAVSharedInputSource@@@std@@V?$allocator@U?$pair@$$CBVSString@@PEAVSharedInputSource@@@std@@@2@@std@@QEAA@XZ 00000001800233e0 f i colorer_lib:SharedInputSource.cpp.obj
 0001:000223e0       ??1?$list@U?$pair@$$CBVSString@@PEAVSharedXmlInputSource@@@std@@V?$allocator@U?$pair@$$CBVSString@@PEAVSharedXmlInputSource@@@std@@@2@@std@@QEAA@XZ 00000001800233e0 f i colorer_lib:SharedXmlInputSource.cpp.obj
 0001:000223e0       ??1?$list@U?$pair@$$CBVSString@@PEAVSchemeImpl@@@std@@V?$allocator@U?$pair@$$CBVSString@@PEAVSchemeImpl@@@std@@@2@@std@@QEAA@XZ 00000001800233e0 f i colorer_lib:HRCParserImpl.cpp.obj
 0001:000223e0       ??1?$list@U?$pair@$$CBVSString@@PEAVString@@@std@@V?$allocator@U?$pair@$$CBVSString@@PEAVString@@@std@@@2@@std@@QEAA@XZ 00000001800233e0 f i colorer_lib:HRCParserImpl.cpp.obj
 0001:000223e0       ??1?$list@U?$pair@$$CBVSString@@PEAV?$vector@PEBVString@@V?$allocator@PEBVString@@@std@@@std@@@std@@V?$allocator@U?$pair@$$CBVSString@@PEAV?$vector@PEBVString@@V?$allocator@PEBVString@@@std@@@std@@@std@@@2@@std@@QEAA@XZ 00000001800233e0 f i colorer_lib:ParserFactory.cpp.obj
 0001:000223e0       ??1?$list@U?$pair@$$CBVSString@@PEAV?$unordered_map@VSString@@PEAV?$vector@PEBVString@@V?$allocator@PEBVString@@@std@@@std@@U?$hash@VSString@@@3@U?$equal_to@VSString@@@3@V?$allocator@U?$pair@$$CBVSString@@PEAV?$vector@PEBVString@@V?$allocator@PEBVString@@@std@@@std@@@std@@@3@@tr1@std@@@std@@V?$allocator@U?$pair@$$CBVSString@@PEAV?$unordered_map@VSString@@PEAV?$vector@PEBVString@@V?$allocator@PEBVString@@@std@@@std@@U?$hash@VSString@@@3@U?$equal_to@VSString@@@3@V?$allocator@U?$pair@$$CBVSString@@PEAV?$vector@PEBVString@@V?$allocator@PEBVString@@@std@@@std@@@std@@@3@@tr1@std@@@std@@@2@@std@@QEAA@XZ 00000001800233e0 f i colorer_lib:ParserFactory.cpp.obj
 0001:000223e0       ??1?$list@U?$pair@$$CBVSString@@PEAVTypeParameter@@@std@@V?$allocator@U?$pair@$$CBVSString@@PEAVTypeParameter@@@std@@@2@@std@@QEAA@XZ 00000001800233e0 f i colorer_lib:FileTypeImpl.cpp.obj
 0001:000223e0       ??1?$list@U?$pair@$$CBVSString@@PEBVRegion@@@std@@V?$allocator@U?$pair@$$CBVSString@@PEBVRegion@@@std@@@2@@std@@QEAA@XZ 00000001800233e0 f i colorer_lib:HRCParserImpl.cpp.obj
 0001:000223e0       ??1?$list@U?$pair@$$CBVSString@@H@std@@V?$allocator@U?$pair@$$CBVSString@@H@std@@@2@@std@@QEAA@XZ 00000001800233e0 f i colorer_lib:HRCParserImpl.cpp.obj
 0001:000223e0       ??1?$list@U?$pair@$$CBVSString@@PEAVFileTypeImpl@@@std@@V?$allocator@U?$pair@$$CBVSString@@PEAVFileTypeImpl@@@std@@@2@@std@@QEAA@XZ 00000001800233e0 f i colorer_lib:HRCParserImpl.cpp.obj
 0001:000223e0       ??1?$list@U?$pair@$$CBVSString@@PEAVRegionDefine@@@std@@V?$allocator@U?$pair@$$CBVSString@@PEAVRegionDefine@@@std@@@2@@std@@QEAA@XZ 00000001800233e0 f i colorer_lib:StyledHRDMapper.cpp.obj
 0001:000223e0       ??1?$list@U?$pair@$$CBVSString@@PEAVFarEditor@@@std@@V?$allocator@U?$pair@$$CBVSString@@PEAVFarEditor@@@std@@@2@@std@@QEAA@XZ 00000001800233e0 f i FarEditorSet.cpp.obj
 0001:00022410       ?_Init@?$_Hash@V?$_Umap_traits@VSString@@PEAVTypeParameter@@V?$_Hash_compare@VSString@@U?$hash@VSString@@@std@@U?$equal_to@VSString@@@3@@std@@V?$allocator@U?$pair@$$CBVSString@@PEAVTypeParameter@@@std@@@4@$0A@@tr1@std@@@std@@IEAAX_K@Z 0000000180023410 f i colorer_lib:FileTypeImpl.cpp.obj
 0001:00022410       ?_Init@?$_Hash@V?$_Umap_traits@VSString@@PEAVFileTypeImpl@@V?$_Hash_compare@VSString@@U?$hash@VSString@@@std@@U?$equal_to@VSString@@@3@@std@@V?$allocator@U?$pair@$$CBVSString@@PEAVFileTypeImpl@@@std@@@4@$0A@@tr1@std@@@std@@IEAAX_K@Z 0000000180023410 f i colorer_lib:HRCParserImpl.cpp.obj
 0001:00022410       ?_Init@?$_Hash@V?$_Umap_traits@VSString@@PEAVSchemeImpl@@V?$_Hash_compare@VSString@@U?$hash@VSString@@@std@@U?$equal_to@VSString@@@3@@std@@V?$allocator@U?$pair@$$CBVSString@@PEAVSchemeImpl@@@std@@@4@$0A@@tr1@std@@@std@@IEAAX_K@Z 0000000180023410 f i colorer_lib:HRCParserImpl.cpp.obj
 0001:00022410       ?_Init@?$_Hash@V?$_Umap_traits@VSString@@PEAV?$vector@PEBVString@@V?$allocator@PEBVString@@@std@@@std@@V?$_Hash_compare@VSString@@U?$hash@VSString@@@std@@U?$equal_to@VSString@@@3@@3@V?$allocator@U?$pair@$$CBVSString@@PEAV?$vector@PEBVString@@V?$allocator@PEBVString@@@std@@@std@@@std@@@3@$0A@@tr1@std@@@std@@IEAAX_K@Z 0000000180023410 f i colorer_lib:ParserFactory.cpp.obj
 0001:00022410       ?_Init@?$_Hash@V?$_Umap_traits@VSString@@PEAVFarEditor@@V?$_Hash_compare@VSString@@U?$hash@VSString@@@std@@U?$equal_to@VSString@@@3@@std@@V?$allocator@U?$pair@$$CBVSString@@PEAVFarEditor@@@std@@@4@$0A@@tr1@std@@@std@@IEAAX_K@Z 0000000180023410 f i FarEditorSet.cpp.obj
 0001:00022410       ?_Init@?$_Hash@V?$_Umap_traits@VSString@@PEAVString@@V?$_Hash_compare@VSString@@U?$hash@VSString@@@std@@U?$equal_to@VSString@@@3@@std@@V?$allocator@U?$pair@$$CBVSString@@PEAVString@@@std@@@4@$0A@@tr1@std@@@std@@IEAAX_K@Z 0000000180023410 f i colorer_lib:HRCParserImpl.cpp.obj
 0001:00022410       ?_Init@?$_Hash@V?$_Umap_traits@VSString@@PEBVString@@V?$_Hash_compare@VSString@@U?$hash@VSString@@@std@@U?$equal_to@VSString@@@3@@std@@V?$allocator@U?$pair@$$CBVSString@@PEBVString@@@std@@@4@$0A@@tr1@std@@@std@@IEAAX_K@Z 0000000180023410 f i colorer_lib:ParserFactory.cpp.obj
 0001:00022410       ?_Init@?$_Hash@V?$_Umap_traits@VSString@@PEAVRegionDefine@@V?$_Hash_compare@VSString@@U?$hash@VSString@@@std@@U?$equal_to@VSString@@@3@@std@@V?$allocator@U?$pair@$$CBVSString@@PEAVRegionDefine@@@std@@@4@$0A@@tr1@std@@@std@@IEAAX_K@Z 0000000180023410 f i colorer_lib:StyledHRDMapper.cpp.obj
 0001:00022410       ?_Init@?$_Hash@V?$_Umap_traits@VSString@@PEAV?$unordered_map@VSString@@PEAV?$vector@PEBVString@@V?$allocator@PEBVString@@@std@@@std@@U?$hash@VSString@@@3@U?$equal_to@VSString@@@3@V?$allocator@U?$pair@$$CBVSString@@PEAV?$vector@PEBVString@@V?$allocator@PEBVString@@@std@@@std@@@std@@@3@@tr1@std@@V?$_Hash_compare@VSString@@U?$hash@VSString@@@std@@U?$equal_to@VSString@@@3@@4@V?$allocator@U?$pair@$$CBVSString@@PEAV?$unordered_map@VSString@@PEAV?$vector@PEBVString@@V?$allocator@PEBVString@@@std@@@std@@U?$hash@VSString@@@3@U?$equal_to@VSString@@@3@V?$allocator@U?$pair@$$CBVSString@@PEAV?$vector@PEBVString@@V?$allocator@PEBVString@@@std@@@std@@@std@@@3@@tr1@std@@@std@@@4@$0A@@tr1@std@@@std@@IEAAX_K@Z 0000000180023410 f i colorer_lib:ParserFactory.cpp.obj
 0001:00022410       ?_Init@?$_Hash@V?$_Umap_traits@VSString@@PEAVSharedInputSource@@V?$_Hash_compare@VSString@@U?$hash@VSString@@@std@@U?$equal_to@VSString@@@3@@std@@V?$allocator@U?$pair@$$CBVSString@@PEAVSharedInputSource@@@std@@@4@$0A@@tr1@std@@@std@@IEAAX_K@Z 0000000180023410 f i colorer_lib:SharedInputSource.cpp.obj
 0001:00022410       ?_Init@?$_Hash@V?$_Umap_traits@VSString@@PEBVRegion@@V?$_Hash_compare@VSString@@U?$hash@VSString@@@std@@U?$equal_to@VSString@@@3@@std@@V?$allocator@U?$pair@$$CBVSString@@PEBVRegion@@@std@@@4@$0A@@tr1@std@@@std@@IEAAX_K@Z 0000000180023410 f i colorer_lib:HRCParserImpl.cpp.obj
 0001:00022410       ?_Init@?$_Hash@V?$_Umap_traits@VSString@@PEAVSharedXmlInputSource@@V?$_Hash_compare@VSString@@U?$hash@VSString@@@std@@U?$equal_to@VSString@@@3@@std@@V?$allocator@U?$pair@$$CBVSString@@PEAVSharedXmlInputSource@@@std@@@4@$0A@@tr1@std@@@std@@IEAAX_K@Z 0000000180023410 f i colorer_lib:SharedXmlInputSource.cpp.obj
 0001:00022490       ?clear@?$list@U?$pair@$$CBVSString@@PEAVString@@@std@@V?$allocator@U?$pair@$$CBVSString@@PEAVString@@@std@@@2@@std@@QEAAXXZ 0000000180023490 f i colorer_lib:HRCParserImpl.cpp.obj
 0001:00022490       ?clear@?$list@U?$pair@$$CBVSString@@PEAV?$unordered_map@VSString@@PEAV?$vector@PEBVString@@V?$allocator@PEBVString@@@std@@@std@@U?$hash@VSString@@@3@U?$equal_to@VSString@@@3@V?$allocator@U?$pair@$$CBVSString@@PEAV?$vector@PEBVString@@V?$allocator@PEBVString@@@std@@@std@@@std@@@3@@tr1@std@@@std@@V?$allocator@U?$pair@$$CBVSString@@PEAV?$unordered_map@VSString@@PEAV?$vector@PEBVString@@V?$allocator@PEBVString@@@std@@@std@@U?$hash@VSString@@@3@U?$equal_to@VSString@@@3@V?$allocator@U?$pair@$$CBVSString@@PEAV?$vector@PEBVString@@V?$allocator@PEBVString@@@std@@@std@@@std@@@3@@tr1@std@@@std@@@2@@std@@QEAAXXZ 0000000180023490 f i colorer_lib:ParserFactory.cpp.obj
 0001:00022490       ?clear@?$list@U?$pair@$$CBVSString@@PEAVRegionDefine@@@std@@V?$allocator@U?$pair@$$CBVSString@@PEAVRegionDefine@@@std@@@2@@std@@QEAAXXZ 0000000180023490 f i colorer_lib:StyledHRDMapper.cpp.obj
 0001:00022490       ?clear@?$list@U?$pair@$$CBVSString@@PEAVSharedInputSource@@@std@@V?$allocator@U?$pair@$$CBVSString@@PEAVSharedInputSource@@@std@@@2@@std@@QEAAXXZ 0000000180023490 f i colorer_lib:SharedInputSource.cpp.obj
 0001:00022490       ?clear@?$list@U?$pair@$$CBVSString@@PEAVSharedXmlInputSource@@@std@@V?$allocator@U?$pair@$$CBVSString@@PEAVSharedXmlInputSource@@@std@@@2@@std@@QEAAXXZ 0000000180023490 f i colorer_lib:SharedXmlInputSource.cpp.obj
 0001:00022490       ?clear@?$list@U?$pair@$$CBVSString@@PEAVSchemeImpl@@@std@@V?$allocator@U?$pair@$$CBVSString@@PEAVSchemeImpl@@@std@@@2@@std@@QEAAXXZ 0000000180023490 f i colorer_lib:HRCParserImpl.cpp.obj
 0001:00022490       ?clear@?$list@U?$pair@$$CBVSString@@PEAVFarEditor@@@std@@V?$allocator@U?$pair@$$CBVSString@@PEAVFarEditor@@@std@@@2@@std@@QEAAXXZ 0000000180023490 f i FarEditorSet.cpp.obj
 0001:00022490       ?clear@?$list@U?$pair@$$CBVSString@@H@std@@V?$allocator@U?$pair@$$CBVSString@@H@std@@@2@@std@@QEAAXXZ 0000000180023490 f i colorer_lib:HRCParserImpl.cpp.obj
 0001:00022490       ?clear@?$list@U?$pair@$$CBVSString@@PEBVRegion@@@std@@V?$allocator@U?$pair@$$CBVSString@@PEBVRegion@@@std@@@2@@std@@QEAAXXZ 0000000180023490 f i colorer_lib:HRCParserImpl.cpp.obj
 0001:00022490       ?clear@?$list@U?$pair@$$CBVSString@@PEAVTypeParameter@@@std@@V?$allocator@U?$pair@$$CBVSString@@PEAVTypeParameter@@@std@@@2@@std@@QEAAXXZ 0000000180023490 f i colorer_lib:FileTypeImpl.cpp.obj
 0001:00022490       ?clear@?$list@U?$pair@$$CBVSString@@PEAVFileTypeImpl@@@std@@V?$allocator@U?$pair@$$CBVSString@@PEAVFileTypeImpl@@@std@@@2@@std@@QEAAXXZ 0000000180023490 f i colorer_lib:HRCParserImpl.cpp.obj
 0001:00022490       ?clear@?$list@U?$pair@$$CBVSString@@PEBVString@@@std@@V?$allocator@U?$pair@$$CBVSString@@PEBVString@@@std@@@2@@std@@QEAAXXZ 0000000180023490 f i colorer_lib:ParserFactory.cpp.obj
 0001:00022490       ?clear@?$list@U?$pair@$$CBVSString@@PEAV?$vector@PEBVString@@V?$allocator@PEBVString@@@std@@@std@@@std@@V?$allocator@U?$pair@$$CBVSString@@PEAV?$vector@PEBVString@@V?$allocator@PEBVString@@@std@@@std@@@std@@@2@@std@@QEAAXXZ 0000000180023490 f i colorer_lib:ParserFactory.cpp.obj
 0001:00022550       ?_Insert_n@?$vector@V?$_List_iterator@V?$_List_val@U?$pair@$$CBVSString@@PEAVSchemeImpl@@@std@@V?$allocator@U?$pair@$$CBVSString@@PEAVSchemeImpl@@@std@@@2@@std@@@std@@V?$allocator@V?$_List_iterator@V?$_List_val@U?$pair@$$CBVSString@@PEAVSchemeImpl@@@std@@V?$allocator@U?$pair@$$CBVSString@@PEAVSchemeImpl@@@std@@@2@@std@@@std@@@2@@std@@IEAAXV?$_Vector_const_iterator@V?$_Vector_val@V?$_List_iterator@V?$_List_val@U?$pair@$$CBVSString@@PEAVSchemeImpl@@@std@@V?$allocator@U?$pair@$$CBVSString@@PEAVSchemeImpl@@@std@@@2@@std@@@std@@V?$allocator@V?$_List_iterator@V?$_List_val@U?$pair@$$CBVSString@@PEAVSchemeImpl@@@std@@V?$allocator@U?$pair@$$CBVSString@@PEAVSchemeImpl@@@std@@@2@@std@@@std@@@2@@std@@@2@_KAEBV?$_List_iterator@V?$_List_val@U?$pair@$$CBVSString@@PEAVSchemeImpl@@@std@@V?$allocator@U?$pair@$$CBVSString@@PEAVSchemeImpl@@@std@@@2@@std@@@2@@Z 0000000180023550 f i colorer_lib:HRCParserImpl.cpp.obj
 0001:00022550       ?_Insert_n@?$vector@V?$_List_iterator@V?$_List_val@U?$pair@$$CBVSString@@PEBVString@@@std@@V?$allocator@U?$pair@$$CBVSString@@PEBVString@@@std@@@2@@std@@@std@@V?$allocator@V?$_List_iterator@V?$_List_val@U?$pair@$$CBVSString@@PEBVString@@@std@@V?$allocator@U?$pair@$$CBVSString@@PEBVString@@@std@@@2@@std@@@std@@@2@@std@@IEAAXV?$_Vector_const_iterator@V?$_Vector_val@V?$_List_iterator@V?$_List_val@U?$pair@$$CBVSString@@PEBVString@@@std@@V?$allocator@U?$pair@$$CBVSString@@PEBVString@@@std@@@2@@std@@@std@@V?$allocator@V?$_List_iterator@V?$_List_val@U?$pair@$$CBVSString@@PEBVString@@@std@@V?$allocator@U?$pair@$$CBVSString@@PEBVString@@@std@@@2@@std@@@std@@@2@@std@@@2@_KAEBV?$_List_iterator@V?$_List_val@U?$pair@$$CBVSString@@PEBVString@@@std@@V?$allocator@U?$pair@$$CBVSString@@PEBVString@@@std@@@2@@std@@@2@@Z 0000000180023550 f i colorer_lib:ParserFactory.cpp.obj
 0001:00022550       ?_Insert_n@?$vector@V?$_List_iterator@V?$_List_val@U?$pair@$$CBVSString@@PEAVSharedXmlInputSource@@@std@@V?$allocator@U?$pair@$$CBVSString@@PEAVSharedXmlInputSource@@@std@@@2@@std@@@std@@V?$allocator@V?$_List_iterator@V?$_List_val@U?$pair@$$CBVSString@@PEAVSharedXmlInputSource@@@std@@V?$allocator@U?$pair@$$CBVSString@@PEAVSharedXmlInputSource@@@std@@@2@@std@@@std@@@2@@std@@IEAAXV?$_Vector_const_iterator@V?$_Vector_val@V?$_List_iterator@V?$_List_val@U?$pair@$$CBVSString@@PEAVSharedXmlInputSource@@@std@@V?$allocator@U?$pair@$$CBVSString@@PEAVSharedXmlInputSource@@@std@@@2@@std@@@std@@V?$allocator@V?$_List_iterator@V?$_List_val@U?$pair@$$CBVSString@@PEAVSharedXmlInputSource@@@std@@V?$allocator@U?$pair@$$CBVSString@@PEAVSharedXmlInputSource@@@std@@@2@@std@@@std@@@2@@std@@@2@_KAEBV?$_List_iterator@V?$_List_val@U?$pair@$$CBVSString@@PEAVSharedXmlInputSource@@@std@@V?$allocator@U?$pair@$$CBVSString@@PEAVSharedXmlInputSource@@@std@@@2@@std@@@2@@Z 0000000180023550 f i colorer_lib:SharedXmlInputSource.cpp.obj
 0001:00022550       ?_Insert_n@?$vector@V?$_List_iterator@V?$_List_val@U?$pair@$$CBVSString@@PEAVSharedInputSource@@@std@@V?$allocator@U?$pair@$$CBVSString@@PEAVSharedInputSource@@@std@@@2@@std@@@std@@V?$allocator@V?$_List_iterator@V?$_List_val@U?$pair@$$CBVSString@@PEAVSharedInputSource@@@std@@V?$allocator@U?$pair@$$CBVSString@@PEAVSharedInputSource@@@std@@@2@@std@@@std@@@2@@std@@IEAAXV?$_Vector_const_iterator@V?$_Vector_val@V?$_List_iterator@V?$_List_val@U?$pair@$$CBVSString@@PEAVSharedInputSource@@@std@@V?$allocator@U?$pair@$$CBVSString@@PEAVSharedInputSource@@@std@@@2@@std@@@std@@V?$allocator@V?$_List_iterator@V?$_List_val@U?$pair@$$CBVSString@@PEAVSharedInputSource@@@std@@V?$allocator@U?$pair@$$CBVSString@@PEAVSharedInputSource@@@std@@@2@@std@@@std@@@2@@std@@@2@_KAEBV?$_List_iterator@V?$_List_val@U?$pair@$$CBVSString@@PEAVSharedInputSource@@@std@@V?$allocator@U?$pair@$$CBVSString@@PEAVSharedInputSource@@@std@@@2@@std@@@2@@Z 0000000180023550 f i colorer_lib:SharedInputSource.cpp.obj
 0001:00022550       ?_Insert_n@?$vector@V?$_List_iterator@V?$_List_val@U?$pair@$$CBVSString@@PEAVRegionDefine@@@std@@V?$allocator@U?$pair@$$CBVSString@@PEAVRegionDefine@@@std@@@2@@std@@@std@@V?$allocator@V?$_List_iterator@V?$_List_val@U?$pair@$$CBVSString@@PEAVRegionDefine@@@std@@V?$allocator@U?$pair@$$CBVSString@@PEAVRegionDefine@@@std@@@2@@std@@@std@@@2@@std@@IEAAXV?$_Vector_const_iterator@V?$_Vector_val@V?$_List_iterator@V?$_List_val@U?$pair@$$CBVSString@@PEAVRegionDefine@@@std@@V?$allocator@U?$pair@$$CBVSString@@PEAVRegionDefine@@@std@@@2@@std@@@std@@V?$allocator@V?$_List_iterator@V?$_List_val@U?$pair@$$CBVSString@@PEAVRegionDefine@@@std@@V?$allocator@U?$pair@$$CBVSString@@PEAVRegionDefine@@@std@@@2@@std@@@std@@@2@@std@@@2@_KAEBV?$_List_iterator@V?$_List_val@U?$pair@$$CBVSString@@PEAVRegionDefine@@@std@@V?$allocator@U?$pair@$$CBVSString@@PEAVRegionDefine@@@std@@@2@@std@@@2@@Z 0000000180023550 f i colorer_lib:StyledHRDMapper.cpp.obj
 0001:00022550       ?_Insert_n@?$vector@V?$_List_iterator@V?$_List_val@U?$pair@$$CBVSString@@PEBVRegion@@@std@@V?$allocator@U?$pair@$$CBVSString@@PEBVRegion@@@std@@@2@@std@@@std@@V?$allocator@V?$_List_iterator@V?$_List_val@U?$pair@$$CBVSString@@PEBVRegion@@@std@@V?$allocator@U?$pair@$$CBVSString@@PEBVRegion@@@std@@@2@@std@@@std@@@2@@std@@IEAAXV?$_Vector_const_iterator@V?$_Vector_val@V?$_List_iterator@V?$_List_val@U?$pair@$$CBVSString@@PEBVRegion@@@std@@V?$allocator@U?$pair@$$CBVSString@@PEBVRegion@@@std@@@2@@std@@@std@@V?$allocator@V?$_List_iterator@V?$_List_val@U?$pair@$$CBVSString@@PEBVRegion@@@std@@V?$allocator@U?$pair@$$CBVSString@@PEBVRegion@@@std@@@2@@std@@@std@@@2@@std@@@2@_KAEBV?$_List_iterator@V?$_List_val@U?$pair@$$CBVSString@@PEBVRegion@@@std@@V?$allocator@U?$pair@$$CBVSString@@PEBVRegion@@@std@@@2@@std@@@2@@Z 0000000180023550 f i colorer_lib:HRCParserImpl.cpp.obj
 0001:00022550       ?_Insert_n@?$vector@V?$_List_iterator@V?$_List_val@U?$pair@$$CBVSString@@PEAVFarEditor@@@std@@V?$allocator@U?$pair@$$CBVSString@@PEAVFarEditor@@@std@@@2@@std@@@std@@V?$allocator@V?$_List_iterator@V?$_List_val@U?$pair@$$CBVSString@@PEAVFarEditor@@@std@@V?$allocator@U?$pair@$$CBVSString@@PEAVFarEditor@@@std@@@2@@std@@@std@@@2@@std@@IEAAXV?$_Vector_const_iterator@V?$_Vector_val@V?$_List_iterator@V?$_List_val@U?$pair@$$CBVSString@@PEAVFarEditor@@@std@@V?$allocator@U?$pair@$$CBVSString@@PEAVFarEditor@@@std@@@2@@std@@@std@@V?$allocator@V?$_List_iterator@V?$_List_val@U?$pair@$$CBVSString@@PEAVFarEditor@@@std@@V?$allocator@U?$pair@$$CBVSString@@PEAVFarEditor@@@std@@@2@@std@@@std@@@2@@std@@@2@_KAEBV?$_List_iterator@V?$_List_val@U?$pair@$$CBVSString@@PEAVFarEditor@@@std@@V?$allocator@U?$pair@$$CBVSString@@PEAVFarEditor@@@std@@@2@@std@@@2@@Z 0000000180023550 f i FarEditorSet.cpp.obj
 0001:00022550       ?_Insert_n@?$vector@V?$_List_iterator@V?$_List_val@U?$pair@$$CBVSString@@PEAV?$vector@PEBVString@@V?$allocator@PEBVString@@@std@@@std@@@std@@V?$allocator@U?$pair@$$CBVSString@@PEAV?$vector@PEBVString@@V?$allocator@PEBVString@@@std@@@std@@@std@@@2@@std@@@std@@V?$allocator@V?$_List_iterator@V?$_List_val@U?$pair@$$CBVSString@@PEAV?$vector@PEBVString@@V?$allocator@PEBVString@@@std@@@std@@@std@@V?$allocator@U?$pair@$$CBVSString@@PEAV?$vector@PEBVString@@V?$allocator@PEBVString@@@std@@@std@@@std@@@2@@std@@@std@@@2@@std@@IEAAXV?$_Vector_const_iterator@V?$_Vector_val@V?$_List_iterator@V?$_List_val@U?$pair@$$CBVSString@@PEAV?$vector@PEBVString@@V?$allocator@PEBVString@@@std@@@std@@@std@@V?$allocator@U?$pair@$$CBVSString@@PEAV?$vector@PEBVString@@V?$allocator@PEBVString@@@std@@@std@@@std@@@2@@std@@@std@@V?$allocator@V?$_List_iterator@V?$_List_val@U?$pair@$$CBVSString@@PEAV?$vector@PEBVString@@V?$allocator@PEBVString@@@std@@@std@@@std@@V?$allocator@U?$pair@$$CBVSString@@PEAV?$vector@PEBVString@@V?$allocator@PEBVString@@@std@@@std@@@std@@@2@@std@@@std@@@2@@std@@@2@_KAEBV?$_List_iterator@V?$_List_val@U?$pair@$$CBVSString@@PEAV?$vector@PEBVString@@V?$allocator@PEBVString@@@std@@@std@@@std@@V?$allocator@U?$pair@$$CBVSString@@PEAV?$vector@PEBVString@@V?$allocator@PEBVString@@@std@@@std@@@std@@@2@@std@@@2@@Z 0000000180023550 f i colorer_lib:ParserFactory.cpp.obj
 0001:00022550       ?_Insert_n@?$vector@V?$_List_iterator@V?$_List_val@U?$pair@$$CBVSString@@PEAV?$unordered_map@VSString@@PEAV?$vector@PEBVString@@V?$allocator@PEBVString@@@std@@@std@@U?$hash@VSString@@@3@U?$equal_to@VSString@@@3@V?$allocator@U?$pair@$$CBVSString@@PEAV?$vector@PEBVString@@V?$allocator@PEBVString@@@std@@@std@@@std@@@3@@tr1@std@@@std@@V?$allocator@U?$pair@$$CBVSString@@PEAV?$unordered_map@VSString@@PEAV?$vector@PEBVString@@V?$allocator@PEBVString@@@std@@@std@@U?$hash@VSString@@@3@U?$equal_to@VSString@@@3@V?$allocator@U?$pair@$$CBVSString@@PEAV?$vector@PEBVString@@V?$allocator@PEBVString@@@std@@@std@@@std@@@3@@tr1@std@@@std@@@2@@std@@@std@@V?$allocator@V?$_List_iterator@V?$_List_val@U?$pair@$$CBVSString@@PEAV?$unordered_map@VSString@@PEAV?$vector@PEBVString@@V?$allocator@PEBVString@@@std@@@std@@U?$hash@VSString@@@3@U?$equal_to@VSString@@@3@V?$allocator@U?$pair@$$CBVSString@@PEAV?$vector@PEBVString@@V?$allocator@PEBVString@@@std@@@std@@@std@@@3@@tr1@std@@@std@@V?$allocator@U?$pair@$$CBVSString@@PEAV?$unordered_map@VSString@@PEAV?$vector@PEBVString@@V?$allocator@PEBVString@@@std@@@std@@U?$hash@VSString@@@3@U?$equal_to@VSString@@@3@V?$allocator@U?$pair@$$CBVSString@@PEAV?$vector@PEBVString@@V?$allocator@PEBVString@@@std@@@std@@@std@@@3@@tr1@std@@@std@@@2@@std@@@std@@@2@@std@@IEAAXV?$_Vector_const_iterator@V?$_Vector_val@V?$_List_iterator@V?$_List_val@U?$pair@$$CBVSString@@PEAV?$unordered_map@VSString@@PEAV?$vector@PEBVString@@V?$allocator@PEBVString@@@std@@@std@@U?$hash@VSString@@@3@U?$equal_to@VSString@@@3@V?$allocator@U?$pair@$$CBVSString@@PEAV?$vector@PEBVString@@V?$allocator@PEBVString@@@std@@@std@@@std@@@3@@tr1@std@@@std@@V?$allocator@U?$pair@$$CBVSString@@PEAV?$unordered_map@VSString@@PEAV?$vector@PEBVString@@V?$allocator@PEBVString@@@std@@@std@@U?$hash@VSString@@@3@U?$equal_to@VSString@@@3@V?$allocator@U?$pair@$$CBVSString@@PEAV?$vector@PEBVString@@V?$allocator@PEBVString@@@std@@@std@@@std@@@3@@tr1@std@@@std@@@2@@std@@@std@@V?$allocator@V?$_List_iterator@V?$_List_val@U?$pair@$$CBVSString@@PEAV?$unordered_map@VSString@@PEAV?$vector@PEBVString@@V?$allocator@PEBVString@@@std@@@std@@U?$hash@VSString@@@3@U?$equal_to@VSString@@@3@V?$allocator@U?$pair@$$CBVSString@@PEAV?$vector@PEBVString@@V?$allocator@PEBVString@@@std@@@std@@@std@@@3@@tr1@std@@@std@@V?$allocator@U?$pair@$$CBVSString@@PEAV?$unordered_map@VSString@@PEAV?$vector@PEBVString@@V?$allocator@PEBVString@@@std@@@std@@U?$hash@VSString@@@3@U?$equal_to@VSString@@@3@V?$allocator@U?$pair@$$CBVSString@@PEAV?$vector@PEBVString@@V?$allocator@PEBVString@@@std@@@std@@@std@@@3@@tr1@std@@@std@@@2@@std@@@std@@@2@@std@@@2@_KAEBV?$_List_iterator@V?$_List_val@U?$pair@$$CBVSString@@PEAV?$unordered_map@VSString@@PEAV?$vector@PEBVString@@V?$allocator@PEBVString@@@std@@@std@@U?$hash@VSString@@@3@U?$equal_to@VSString@@@3@V?$allocator@U?$pair@$$CBVSString@@PEAV?$vector@PEBVString@@V?$allocator@PEBVString@@@std@@@std@@@std@@@3@@tr1@std@@@std@@V?$allocator@U?$pair@$$CBVSString@@PEAV?$unordered_map@VSString@@PEAV?$vector@PEBVString@@V?$allocator@PEBVString@@@std@@@std@@U?$hash@VSString@@@3@U?$equal_to@VSString@@@3@V?$allocator@U?$pair@$$CBVSString@@PEAV?$vector@PEBVString@@V?$allocator@PEBVString@@@std@@@std@@@std@@@3@@tr1@std@@@std@@@2@@std@@@2@@Z 0000000180023550 f i colorer_lib:ParserFactory.cpp.obj
 0001:00022550       ?_Insert_n@?$vector@V?$_List_iterator@V?$_List_val@U?$pair@$$CBVSString@@PEAVString@@@std@@V?$allocator@U?$pair@$$CBVSString@@PEAVString@@@std@@@2@@std@@@std@@V?$allocator@V?$_List_iterator@V?$_List_val@U?$pair@$$CBVSString@@PEAVString@@@std@@V?$allocator@U?$pair@$$CBVSString@@PEAVString@@@std@@@2@@std@@@std@@@2@@std@@IEAAXV?$_Vector_const_iterator@V?$_Vector_val@V?$_List_iterator@V?$_List_val@U?$pair@$$CBVSString@@PEAVString@@@std@@V?$allocator@U?$pair@$$CBVSString@@PEAVString@@@std@@@2@@std@@@std@@V?$allocator@V?$_List_iterator@V?$_List_val@U?$pair@$$CBVSString@@PEAVString@@@std@@V?$allocator@U?$pair@$$CBVSString@@PEAVString@@@std@@@2@@std@@@std@@@2@@std@@@2@_KAEBV?$_List_iterator@V?$_List_val@U?$pair@$$CBVSString@@PEAVString@@@std@@V?$allocator@U?$pair@$$CBVSString@@PEAVString@@@std@@@2@@std@@@2@@Z 0000000180023550 f i colorer_lib:HRCParserImpl.cpp.obj
 0001:00022550       ?_Insert_n@?$vector@V?$_List_iterator@V?$_List_val@U?$pair@$$CBVSString@@PEAVFileTypeImpl@@@std@@V?$allocator@U?$pair@$$CBVSString@@PEAVFileTypeImpl@@@std@@@2@@std@@@std@@V?$allocator@V?$_List_iterator@V?$_List_val@U?$pair@$$CBVSString@@PEAVFileTypeImpl@@@std@@V?$allocator@U?$pair@$$CBVSString@@PEAVFileTypeImpl@@@std@@@2@@std@@@std@@@2@@std@@IEAAXV?$_Vector_const_iterator@V?$_Vector_val@V?$_List_iterator@V?$_List_val@U?$pair@$$CBVSString@@PEAVFileTypeImpl@@@std@@V?$allocator@U?$pair@$$CBVSString@@PEAVFileTypeImpl@@@std@@@2@@std@@@std@@V?$allocator@V?$_List_iterator@V?$_List_val@U?$pair@$$CBVSString@@PEAVFileTypeImpl@@@std@@V?$allocator@U?$pair@$$CBVSString@@PEAVFileTypeImpl@@@std@@@2@@std@@@std@@@2@@std@@@2@_KAEBV?$_List_iterator@V?$_List_val@U?$pair@$$CBVSString@@PEAVFileTypeImpl@@@std@@V?$allocator@U?$pair@$$CBVSString@@PEAVFileTypeImpl@@@std@@@2@@std@@@2@@Z 0000000180023550 f i colorer_lib:HRCParserImpl.cpp.obj
 0001:00022550       ?_Insert_n@?$vector@V?$_List_iterator@V?$_List_val@U?$pair@$$CBVSString@@PEAVTypeParameter@@@std@@V?$allocator@U?$pair@$$CBVSString@@PEAVTypeParameter@@@std@@@2@@std@@@std@@V?$allocator@V?$_List_iterator@V?$_List_val@U?$pair@$$CBVSString@@PEAVTypeParameter@@@std@@V?$allocator@U?$pair@$$CBVSString@@PEAVTypeParameter@@@std@@@2@@std@@@std@@@2@@std@@IEAAXV?$_Vector_const_iterator@V?$_Vector_val@V?$_List_iterator@V?$_List_val@U?$pair@$$CBVSString@@PEAVTypeParameter@@@std@@V?$allocator@U?$pair@$$CBVSString@@PEAVTypeParameter@@@std@@@2@@std@@@std@@V?$allocator@V?$_List_iterator@V?$_List_val@U?$pair@$$CBVSString@@PEAVTypeParameter@@@std@@V?$allocator@U?$pair@$$CBVSString@@PEAVTypeParameter@@@std@@@2@@std@@@std@@@2@@std@@@2@_KAEBV?$_List_iterator@V?$_List_val@U?$pair@$$CBVSString@@PEAVTypeParameter@@@std@@V?$allocator@U?$pair@$$CBVSString@@PEAVTypeParameter@@@std@@@2@@std@@@2@@Z 0000000180023550 f i colorer_lib:FileTypeImpl.cpp.obj
 0001:00022760       ?allocate@?$allocator@PEBVString@@@std@@QEAAPEAPEBVString@@_K@Z 0000000180023760 f i colorer_lib:ParserFactory.cpp.obj
 0001:00022760       ?allocate@?$allocator@V?$_List_iterator@V?$_List_val@U?$pair@$$CBVSString@@PEAVRegionDefine@@@std@@V?$allocator@U?$pair@$$CBVSString@@PEAVRegionDefine@@@std@@@2@@std@@@std@@@std@@QEAAPEAV?$_List_iterator@V?$_List_val@U?$pair@$$CBVSString@@PEAVRegionDefine@@@std@@V?$allocator@U?$pair@$$CBVSString@@PEAVRegionDefine@@@std@@@2@@std@@@2@_K@Z 0000000180023760 f i colorer_lib:StyledHRDMapper.cpp.obj
 0001:00022760       ?allocate@?$allocator@PEAVSchemeNode@@@std@@QEAAPEAPEAVSchemeNode@@_K@Z 0000000180023760 f i colorer_lib:HRCParserImpl.cpp.obj
 0001:00022760       ?allocate@?$allocator@V?$_List_iterator@V?$_List_val@U?$pair@$$CBVSString@@PEAV?$unordered_map@VSString@@PEAV?$vector@PEBVString@@V?$allocator@PEBVString@@@std@@@std@@U?$hash@VSString@@@3@U?$equal_to@VSString@@@3@V?$allocator@U?$pair@$$CBVSString@@PEAV?$vector@PEBVString@@V?$allocator@PEBVString@@@std@@@std@@@std@@@3@@tr1@std@@@std@@V?$allocator@U?$pair@$$CBVSString@@PEAV?$unordered_map@VSString@@PEAV?$vector@PEBVString@@V?$allocator@PEBVString@@@std@@@std@@U?$hash@VSString@@@3@U?$equal_to@VSString@@@3@V?$allocator@U?$pair@$$CBVSString@@PEAV?$vector@PEBVString@@V?$allocator@PEBVString@@@std@@@std@@@std@@@3@@tr1@std@@@std@@@2@@std@@@std@@@std@@QEAAPEAV?$_List_iterator@V?$_List_val@U?$pair@$$CBVSString@@PEAV?$unordered_map@VSString@@PEAV?$vector@PEBVString@@V?$allocator@PEBVString@@@std@@@std@@U?$hash@VSString@@@3@U?$equal_to@VSString@@@3@V?$allocator@U?$pair@$$CBVSString@@PEAV?$vector@PEBVString@@V?$allocator@PEBVString@@@std@@@std@@@std@@@3@@tr1@std@@@std@@V?$allocator@U?$pair@$$CBVSString@@PEAV?$unordered_map@VSString@@PEAV?$vector@PEBVString@@V?$allocator@PEBVString@@@std@@@std@@U?$hash@VSString@@@3@U?$equal_to@VSString@@@3@V?$allocator@U?$pair@$$CBVSString@@PEAV?$vector@PEBVString@@V?$allocator@PEBVString@@@std@@@std@@@std@@@3@@tr1@std@@@std@@@2@@std@@@2@_K@Z 0000000180023760 f i colorer_lib:ParserFactory.cpp.obj
 0001:00022760       ?allocate@?$allocator@V?$_List_iterator@V?$_List_val@U?$pair@$$CBVSString@@PEAVFarEditor@@@std@@V?$allocator@U?$pair@$$CBVSString@@PEAVFarEditor@@@std@@@2@@std@@@std@@@std@@QEAAPEAV?$_List_iterator@V?$_List_val@U?$pair@$$CBVSString@@PEAVFarEditor@@@std@@V?$allocator@U?$pair@$$CBVSString@@PEAVFarEditor@@@std@@@2@@std@@@2@_K@Z 0000000180023760 f i FarEditorSet.cpp.obj
 0001:00022760       ?allocate@?$allocator@PEBVRegion@@@std@@QEAAPEAPEBVRegion@@_K@Z 0000000180023760 f i colorer_lib:HRCParserImpl.cpp.obj
 0001:00022760       ?allocate@?$allocator@PEAVFileTypeChooser@@@std@@QEAAPEAPEAVFileTypeChooser@@_K@Z 0000000180023760 f i colorer_lib:HRCParserImpl.cpp.obj
 0001:00022760       ?allocate@?$allocator@V?$_List_iterator@V?$_List_val@U?$pair@$$CBVSString@@PEAVSchemeImpl@@@std@@V?$allocator@U?$pair@$$CBVSString@@PEAVSchemeImpl@@@std@@@2@@std@@@std@@@std@@QEAAPEAV?$_List_iterator@V?$_List_val@U?$pair@$$CBVSString@@PEAVSchemeImpl@@@std@@V?$allocator@U?$pair@$$CBVSString@@PEAVSchemeImpl@@@std@@@2@@std@@@2@_K@Z 0000000180023760 f i colorer_lib:HRCParserImpl.cpp.obj
 0001:00022760       ?allocate@?$allocator@V?$_List_iterator@V?$_List_val@U?$pair@$$CBVSString@@PEAVSharedInputSource@@@std@@V?$allocator@U?$pair@$$CBVSString@@PEAVSharedInputSource@@@std@@@2@@std@@@std@@@std@@QEAAPEAV?$_List_iterator@V?$_List_val@U?$pair@$$CBVSString@@PEAVSharedInputSource@@@std@@V?$allocator@U?$pair@$$CBVSString@@PEAVSharedInputSource@@@std@@@2@@std@@@2@_K@Z 0000000180023760 f i colorer_lib:SharedInputSource.cpp.obj
 0001:00022760       ?allocate@?$allocator@PEAVOutlineItem@@@std@@QEAAPEAPEAVOutlineItem@@_K@Z 0000000180023760 f i colorer_lib:Outliner.cpp.obj
 0001:00022760       ?allocate@?$allocator@V?$_List_iterator@V?$_List_val@U?$pair@$$CBVSString@@PEBVRegion@@@std@@V?$allocator@U?$pair@$$CBVSString@@PEBVRegion@@@std@@@2@@std@@@std@@@std@@QEAAPEAV?$_List_iterator@V?$_List_val@U?$pair@$$CBVSString@@PEBVRegion@@@std@@V?$allocator@U?$pair@$$CBVSString@@PEBVRegion@@@std@@@2@@std@@@2@_K@Z 0000000180023760 f i colorer_lib:HRCParserImpl.cpp.obj
 0001:00022760       ?allocate@?$allocator@PEAVString@@@std@@QEAAPEAPEAVString@@_K@Z 0000000180023760 f i colorer_lib:TextLinesStore.cpp.obj
 0001:00022760       ?allocate@?$allocator@PEAVRegionHandler@@@std@@QEAAPEAPEAVRegionHandler@@_K@Z 0000000180023760 f i colorer_lib:BaseEditor.cpp.obj
 0001:00022760       ?allocate@?$allocator@V?$_List_iterator@V?$_List_val@U?$pair@$$CBVSString@@H@std@@V?$allocator@U?$pair@$$CBVSString@@H@std@@@2@@std@@@std@@@std@@QEAAPEAV?$_List_iterator@V?$_List_val@U?$pair@$$CBVSString@@H@std@@V?$allocator@U?$pair@$$CBVSString@@H@std@@@2@@std@@@2@_K@Z 0000000180023760 f i colorer_lib:HRCParserImpl.cpp.obj
 0001:00022760       ?allocate@?$allocator@V?$_List_iterator@V?$_List_val@U?$pair@$$CBVSString@@PEAV?$vector@PEBVString@@V?$allocator@PEBVString@@@std@@@std@@@std@@V?$allocator@U?$pair@$$CBVSString@@PEAV?$vector@PEBVString@@V?$allocator@PEBVString@@@std@@@std@@@std@@@2@@std@@@std@@@std@@QEAAPEAV?$_List_iterator@V?$_List_val@U?$pair@$$CBVSString@@PEAV?$vector@PEBVString@@V?$allocator@PEBVString@@@std@@@std@@@std@@V?$allocator@U?$pair@$$CBVSString@@PEAV?$vector@PEBVString@@V?$allocator@PEBVString@@@std@@@std@@@std@@@2@@std@@@2@_K@Z 0000000180023760 f i colorer_lib:ParserFactory.cpp.obj
 0001:00022760       ?allocate@?$allocator@V?$_List_iterator@V?$_List_val@U?$pair@$$CBVSString@@PEBVString@@@std@@V?$allocator@U?$pair@$$CBVSString@@PEBVString@@@std@@@2@@std@@@std@@@std@@QEAAPEAV?$_List_iterator@V?$_List_val@U?$pair@$$CBVSString@@PEBVString@@@std@@V?$allocator@U?$pair@$$CBVSString@@PEBVString@@@std@@@2@@std@@@2@_K@Z 0000000180023760 f i colorer_lib:ParserFactory.cpp.obj
 0001:00022760       ?allocate@?$allocator@V?$_List_iterator@V?$_List_val@U?$pair@$$CBVSString@@PEAVSharedXmlInputSource@@@std@@V?$allocator@U?$pair@$$CBVSString@@PEAVSharedXmlInputSource@@@std@@@2@@std@@@std@@@std@@QEAAPEAV?$_List_iterator@V?$_List_val@U?$pair@$$CBVSString@@PEAVSharedXmlInputSource@@@std@@V?$allocator@U?$pair@$$CBVSString@@PEAVSharedXmlInputSource@@@std@@@2@@std@@@2@_K@Z 0000000180023760 f i colorer_lib:SharedXmlInputSource.cpp.obj
 0001:00022760       ?allocate@?$allocator@PEBVRegionDefine@@@std@@QEAAPEAPEBVRegionDefine@@_K@Z 0000000180023760 f i colorer_lib:RegionMapperImpl.cpp.obj
 0001:00022760       ?allocate@?$allocator@V?$_List_iterator@V?$_List_val@U?$pair@$$CBVSString@@PEAVFileTypeImpl@@@std@@V?$allocator@U?$pair@$$CBVSString@@PEAVFileTypeImpl@@@std@@@2@@std@@@std@@@std@@QEAAPEAV?$_List_iterator@V?$_List_val@U?$pair@$$CBVSString@@PEAVFileTypeImpl@@@std@@V?$allocator@U?$pair@$$CBVSString@@PEAVFileTypeImpl@@@std@@@2@@std@@@2@_K@Z 0000000180023760 f i colorer_lib:HRCParserImpl.cpp.obj
 0001:00022760       ?allocate@?$allocator@PEAVLineRegion@@@std@@QEAAPEAPEAVLineRegion@@_K@Z 0000000180023760 f i colorer_lib:LineRegionsSupport.cpp.obj
 0001:00022760       ?allocate@?$allocator@PEAVFileTypeImpl@@@std@@QEAAPEAPEAVFileTypeImpl@@_K@Z 0000000180023760 f i colorer_lib:HRCParserImpl.cpp.obj
 0001:00022760       ?allocate@?$allocator@V?$_List_iterator@V?$_List_val@U?$pair@$$CBVSString@@PEAVString@@@std@@V?$allocator@U?$pair@$$CBVSString@@PEAVString@@@std@@@2@@std@@@std@@@std@@QEAAPEAV?$_List_iterator@V?$_List_val@U?$pair@$$CBVSString@@PEAVString@@@std@@V?$allocator@U?$pair@$$CBVSString@@PEAVString@@@std@@@2@@std@@@2@_K@Z 0000000180023760 f i colorer_lib:HRCParserImpl.cpp.obj
 0001:00022760       ?allocate@?$allocator@V?$_List_iterator@V?$_List_val@U?$pair@$$CBVSString@@PEAVTypeParameter@@@std@@V?$allocator@U?$pair@$$CBVSString@@PEAVTypeParameter@@@std@@@2@@std@@@std@@@std@@QEAAPEAV?$_List_iterator@V?$_List_val@U?$pair@$$CBVSString@@PEAVTypeParameter@@@std@@V?$allocator@U?$pair@$$CBVSString@@PEAVTypeParameter@@@std@@@2@@std@@@2@_K@Z 0000000180023760 f i colorer_lib:FileTypeImpl.cpp.obj
 0001:00022760       ?allocate@?$allocator@PEAE@std@@QEAAPEAPEAE_K@Z 0000000180023760 f i colorer_lib:MemoryChunks.cpp.obj
 0001:00022760       ?allocate@?$allocator@PEAVVirtualEntry@@@std@@QEAAPEAPEAVVirtualEntry@@_K@Z 0000000180023760 f i colorer_lib:HRCParserImpl.cpp.obj
 0001:00022760       ?allocate@?$allocator@PEAVEditorListener@@@std@@QEAAPEAPEAVEditorListener@@_K@Z 0000000180023760 f i colorer_lib:BaseEditor.cpp.obj
 0001:000227d0       ?_Insert@?$_Hash@V?$_Umap_traits@VSString@@PEAV?$unordered_map@VSString@@PEAV?$vector@PEBVString@@V?$allocator@PEBVString@@@std@@@std@@U?$hash@VSString@@@3@U?$equal_to@VSString@@@3@V?$allocator@U?$pair@$$CBVSString@@PEAV?$vector@PEBVString@@V?$allocator@PEBVString@@@std@@@std@@@std@@@3@@tr1@std@@V?$_Hash_compare@VSString@@U?$hash@VSString@@@std@@U?$equal_to@VSString@@@3@@4@V?$allocator@U?$pair@$$CBVSString@@PEAV?$unordered_map@VSString@@PEAV?$vector@PEBVString@@V?$allocator@PEBVString@@@std@@@std@@U?$hash@VSString@@@3@U?$equal_to@VSString@@@3@V?$allocator@U?$pair@$$CBVSString@@PEAV?$vector@PEBVString@@V?$allocator@PEBVString@@@std@@@std@@@std@@@3@@tr1@std@@@std@@@4@$0A@@tr1@std@@@std@@IEAA?AU?$pair@V?$_List_iterator@V?$_List_val@U?$pair@$$CBVSString@@PEAV?$unordered_map@VSString@@PEAV?$vector@PEBVString@@V?$allocator@PEBVString@@@std@@@std@@U?$hash@VSString@@@3@U?$equal_to@VSString@@@3@V?$allocator@U?$pair@$$CBVSString@@PEAV?$vector@PEBVString@@V?$allocator@PEBVString@@@std@@@std@@@std@@@3@@tr1@std@@@std@@V?$allocator@U?$pair@$$CBVSString@@PEAV?$unordered_map@VSString@@PEAV?$vector@PEBVString@@V?$allocator@PEBVString@@@std@@@std@@U?$hash@VSString@@@3@U?$equal_to@VSString@@@3@V?$allocator@U?$pair@$$CBVSString@@PEAV?$vector@PEBVString@@V?$allocator@PEBVString@@@std@@@std@@@std@@@3@@tr1@std@@@std@@@2@@std@@@std@@_N@2@AEBU?$pair@$$CBVSString@@PEAV?$unordered_map@VSString@@PEAV?$vector@PEBVString@@V?$allocator@PEBVString@@@std@@@std@@U?$hash@VSString@@@3@U?$equal_to@VSString@@@3@V?$allocator@U?$pair@$$CBVSString@@PEAV?$vector@PEBVString@@V?$allocator@PEBVString@@@std@@@std@@@std@@@3@@tr1@std@@@2@V?$_List_iterator@V?$_List_val@U?$pair@$$CBVSString@@PEAV?$unordered_map@VSString@@PEAV?$vector@PEBVString@@V?$allocator@PEBVString@@@std@@@std@@U?$hash@VSString@@@3@U?$equal_to@VSString@@@3@V?$allocator@U?$pair@$$CBVSString@@PEAV?$vector@PEBVString@@V?$allocator@PEBVString@@@std@@@std@@@std@@@3@@tr1@std@@@std@@V?$allocator@U?$pair@$$CBVSString@@PEAV?$unordered_map@VSString@@PEAV?$vector@PEBVString@@V?$allocator@PEBVString@@@std@@@std@@U?$hash@VSString@@@3@U?$equal_to@VSString@@@3@V?$allocator@U?$pair@$$CBVSString@@PEAV?$vector@PEBVString@@V?$allocator@PEBVString@@@std@@@std@@@std@@@3@@tr1@std@@@std@@@2@@std@@@2@@Z 00000001800237d0 f i colorer_lib:ParserFactory.cpp.obj
 0001:000227d0       ?_Insert@?$_Hash@V?$_Umap_traits@VSString@@PEAV?$vector@PEBVString@@V?$allocator@PEBVString@@@std@@@std@@V?$_Hash_compare@VSString@@U?$hash@VSString@@@std@@U?$equal_to@VSString@@@3@@3@V?$allocator@U?$pair@$$CBVSString@@PEAV?$vector@PEBVString@@V?$allocator@PEBVString@@@std@@@std@@@std@@@3@$0A@@tr1@std@@@std@@IEAA?AU?$pair@V?$_List_iterator@V?$_List_val@U?$pair@$$CBVSString@@PEAV?$vector@PEBVString@@V?$allocator@PEBVString@@@std@@@std@@@std@@V?$allocator@U?$pair@$$CBVSString@@PEAV?$vector@PEBVString@@V?$allocator@PEBVString@@@std@@@std@@@std@@@2@@std@@@std@@_N@2@AEBU?$pair@$$CBVSString@@PEAV?$vector@PEBVString@@V?$allocator@PEBVString@@@std@@@std@@@2@V?$_List_iterator@V?$_List_val@U?$pair@$$CBVSString@@PEAV?$vector@PEBVString@@V?$allocator@PEBVString@@@std@@@std@@@std@@V?$allocator@U?$pair@$$CBVSString@@PEAV?$vector@PEBVString@@V?$allocator@PEBVString@@@std@@@std@@@std@@@2@@std@@@2@@Z 00000001800237d0 f i colorer_lib:ParserFactory.cpp.obj
 0001:000227d0       ?_Insert@?$_Hash@V?$_Umap_traits@VSString@@PEBVString@@V?$_Hash_compare@VSString@@U?$hash@VSString@@@std@@U?$equal_to@VSString@@@3@@std@@V?$allocator@U?$pair@$$CBVSString@@PEBVString@@@std@@@4@$0A@@tr1@std@@@std@@IEAA?AU?$pair@V?$_List_iterator@V?$_List_val@U?$pair@$$CBVSString@@PEBVString@@@std@@V?$allocator@U?$pair@$$CBVSString@@PEBVString@@@std@@@2@@std@@@std@@_N@2@AEBU?$pair@$$CBVSString@@PEBVString@@@2@V?$_List_iterator@V?$_List_val@U?$pair@$$CBVSString@@PEBVString@@@std@@V?$allocator@U?$pair@$$CBVSString@@PEBVString@@@std@@@2@@std@@@2@@Z 00000001800237d0 f i colorer_lib:ParserFactory.cpp.obj
 0001:000227d0       ?_Insert@?$_Hash@V?$_Umap_traits@VSString@@PEAVString@@V?$_Hash_compare@VSString@@U?$hash@VSString@@@std@@U?$equal_to@VSString@@@3@@std@@V?$allocator@U?$pair@$$CBVSString@@PEAVString@@@std@@@4@$0A@@tr1@std@@@std@@IEAA?AU?$pair@V?$_List_iterator@V?$_List_val@U?$pair@$$CBVSString@@PEAVString@@@std@@V?$allocator@U?$pair@$$CBVSString@@PEAVString@@@std@@@2@@std@@@std@@_N@2@AEBU?$pair@$$CBVSString@@PEAVString@@@2@V?$_List_iterator@V?$_List_val@U?$pair@$$CBVSString@@PEAVString@@@std@@V?$allocator@U?$pair@$$CBVSString@@PEAVString@@@std@@@2@@std@@@2@@Z 00000001800237d0 f i colorer_lib:HRCParserImpl.cpp.obj
 0001:000229b0       ?_Check_size@?$_Hash@V?$_Umap_traits@VSString@@PEAV?$vector@PEBVString@@V?$allocator@PEBVString@@@std@@@std@@V?$_Hash_compare@VSString@@U?$hash@VSString@@@std@@U?$equal_to@VSString@@@3@@3@V?$allocator@U?$pair@$$CBVSString@@PEAV?$vector@PEBVString@@V?$allocator@PEBVString@@@std@@@std@@@std@@@3@$0A@@tr1@std@@@std@@IEAAXXZ 00000001800239b0 f i colorer_lib:ParserFactory.cpp.obj
 0001:000229b0       ?_Check_size@?$_Hash@V?$_Umap_traits@VSString@@PEBVString@@V?$_Hash_compare@VSString@@U?$hash@VSString@@@std@@U?$equal_to@VSString@@@3@@std@@V?$allocator@U?$pair@$$CBVSString@@PEBVString@@@std@@@4@$0A@@tr1@std@@@std@@IEAAXXZ 00000001800239b0 f i colorer_lib:ParserFactory.cpp.obj
 0001:000229b0       ?_Check_size@?$_Hash@V?$_Umap_traits@VSString@@PEAV?$unordered_map@VSString@@PEAV?$vector@PEBVString@@V?$allocator@PEBVString@@@std@@@std@@U?$hash@VSString@@@3@U?$equal_to@VSString@@@3@V?$allocator@U?$pair@$$CBVSString@@PEAV?$vector@PEBVString@@V?$allocator@PEBVString@@@std@@@std@@@std@@@3@@tr1@std@@V?$_Hash_compare@VSString@@U?$hash@VSString@@@std@@U?$equal_to@VSString@@@3@@4@V?$allocator@U?$pair@$$CBVSString@@PEAV?$unordered_map@VSString@@PEAV?$vector@PEBVString@@V?$allocator@PEBVString@@@std@@@std@@U?$hash@VSString@@@3@U?$equal_to@VSString@@@3@V?$allocator@U?$pair@$$CBVSString@@PEAV?$vector@PEBVString@@V?$allocator@PEBVString@@@std@@@std@@@std@@@3@@tr1@std@@@std@@@4@$0A@@tr1@std@@@std@@IEAAXXZ 00000001800239b0 f i colorer_lib:ParserFactory.cpp.obj
 0001:000229b0       ?_Check_size@?$_Hash@V?$_Umap_traits@VSString@@PEAVString@@V?$_Hash_compare@VSString@@U?$hash@VSString@@@std@@U?$equal_to@VSString@@@3@@std@@V?$allocator@U?$pair@$$CBVSString@@PEAVString@@@std@@@4@$0A@@tr1@std@@@std@@IEAAXXZ 00000001800239b0 f i colorer_lib:HRCParserImpl.cpp.obj
 0001:00022a90       ?_Splice_same@?$list@U?$pair@$$CBVSString@@PEAVFileTypeImpl@@@std@@V?$allocator@U?$pair@$$CBVSString@@PEAVFileTypeImpl@@@std@@@2@@std@@QEAAXV?$_List_const_iterator@V?$_List_val@U?$pair@$$CBVSString@@PEAVFileTypeImpl@@@std@@V?$allocator@U?$pair@$$CBVSString@@PEAVFileTypeImpl@@@std@@@2@@std@@@2@AEAV12@00_K@Z 0000000180023a90 f i colorer_lib:HRCParserImpl.cpp.obj
 0001:00022a90       ?_Splice_same@?$list@U?$pair@$$CBVSString@@PEBVRegion@@@std@@V?$allocator@U?$pair@$$CBVSString@@PEBVRegion@@@std@@@2@@std@@QEAAXV?$_List_const_iterator@V?$_List_val@U?$pair@$$CBVSString@@PEBVRegion@@@std@@V?$allocator@U?$pair@$$CBVSString@@PEBVRegion@@@std@@@2@@std@@@2@AEAV12@00_K@Z 0000000180023a90 f i colorer_lib:HRCParserImpl.cpp.obj
 0001:00022a90       ?_Splice_same@?$list@U?$pair@$$CBVSString@@PEAVString@@@std@@V?$allocator@U?$pair@$$CBVSString@@PEAVString@@@std@@@2@@std@@QEAAXV?$_List_const_iterator@V?$_List_val@U?$pair@$$CBVSString@@PEAVString@@@std@@V?$allocator@U?$pair@$$CBVSString@@PEAVString@@@std@@@2@@std@@@2@AEAV12@00_K@Z 0000000180023a90 f i colorer_lib:HRCParserImpl.cpp.obj
 0001:00022a90       ?_Splice_same@?$list@U?$pair@$$CBVSString@@PEAVSchemeImpl@@@std@@V?$allocator@U?$pair@$$CBVSString@@PEAVSchemeImpl@@@std@@@2@@std@@QEAAXV?$_List_const_iterator@V?$_List_val@U?$pair@$$CBVSString@@PEAVSchemeImpl@@@std@@V?$allocator@U?$pair@$$CBVSString@@PEAVSchemeImpl@@@std@@@2@@std@@@2@AEAV12@00_K@Z 0000000180023a90 f i colorer_lib:HRCParserImpl.cpp.obj
 0001:00022a90       ?_Splice_same@?$list@U?$pair@$$CBVSString@@PEAVFarEditor@@@std@@V?$allocator@U?$pair@$$CBVSString@@PEAVFarEditor@@@std@@@2@@std@@QEAAXV?$_List_const_iterator@V?$_List_val@U?$pair@$$CBVSString@@PEAVFarEditor@@@std@@V?$allocator@U?$pair@$$CBVSString@@PEAVFarEditor@@@std@@@2@@std@@@2@AEAV12@00_K@Z 0000000180023a90 f i FarEditorSet.cpp.obj
 0001:00022a90       ?_Splice_same@?$list@U?$pair@$$CBVSString@@PEAV?$vector@PEBVString@@V?$allocator@PEBVString@@@std@@@std@@@std@@V?$allocator@U?$pair@$$CBVSString@@PEAV?$vector@PEBVString@@V?$allocator@PEBVString@@@std@@@std@@@std@@@2@@std@@QEAAXV?$_List_const_iterator@V?$_List_val@U?$pair@$$CBVSString@@PEAV?$vector@PEBVString@@V?$allocator@PEBVString@@@std@@@std@@@std@@V?$allocator@U?$pair@$$CBVSString@@PEAV?$vector@PEBVString@@V?$allocator@PEBVString@@@std@@@std@@@std@@@2@@std@@@2@AEAV12@00_K@Z 0000000180023a90 f i colorer_lib:ParserFactory.cpp.obj
 0001:00022a90       ?_Splice_same@?$list@U?$pair@$$CBVSString@@PEAVRegionDefine@@@std@@V?$allocator@U?$pair@$$CBVSString@@PEAVRegionDefine@@@std@@@2@@std@@QEAAXV?$_List_const_iterator@V?$_List_val@U?$pair@$$CBVSString@@PEAVRegionDefine@@@std@@V?$allocator@U?$pair@$$CBVSString@@PEAVRegionDefine@@@std@@@2@@std@@@2@AEAV12@00_K@Z 0000000180023a90 f i colorer_lib:StyledHRDMapper.cpp.obj
 0001:00022a90       ?_Splice_same@?$list@U?$pair@$$CBVSString@@PEAVTypeParameter@@@std@@V?$allocator@U?$pair@$$CBVSString@@PEAVTypeParameter@@@std@@@2@@std@@QEAAXV?$_List_const_iterator@V?$_List_val@U?$pair@$$CBVSString@@PEAVTypeParameter@@@std@@V?$allocator@U?$pair@$$CBVSString@@PEAVTypeParameter@@@std@@@2@@std@@@2@AEAV12@00_K@Z 0000000180023a90 f i colorer_lib:FileTypeImpl.cpp.obj
 0001:00022a90       ?_Splice_same@?$list@U?$pair@$$CBVSString@@PEAVSharedXmlInputSource@@@std@@V?$allocator@U?$pair@$$CBVSString@@PEAVSharedXmlInputSource@@@std@@@2@@std@@QEAAXV?$_List_const_iterator@V?$_List_val@U?$pair@$$CBVSString@@PEAVSharedXmlInputSource@@@std@@V?$allocator@U?$pair@$$CBVSString@@PEAVSharedXmlInputSource@@@std@@@2@@std@@@2@AEAV12@00_K@Z 0000000180023a90 f i colorer_lib:SharedXmlInputSource.cpp.obj
 0001:00022a90       ?_Splice_same@?$list@U?$pair@$$CBVSString@@PEBVString@@@std@@V?$allocator@U?$pair@$$CBVSString@@PEBVString@@@std@@@2@@std@@QEAAXV?$_List_const_iterator@V?$_List_val@U?$pair@$$CBVSString@@PEBVString@@@std@@V?$allocator@U?$pair@$$CBVSString@@PEBVString@@@std@@@2@@std@@@2@AEAV12@00_K@Z 0000000180023a90 f i colorer_lib:ParserFactory.cpp.obj
 0001:00022a90       ?_Splice_same@?$list@U?$pair@$$CBVSString@@PEAV?$unordered_map@VSString@@PEAV?$vector@PEBVString@@V?$allocator@PEBVString@@@std@@@std@@U?$hash@VSString@@@3@U?$equal_to@VSString@@@3@V?$allocator@U?$pair@$$CBVSString@@PEAV?$vector@PEBVString@@V?$allocator@PEBVString@@@std@@@std@@@std@@@3@@tr1@std@@@std@@V?$allocator@U?$pair@$$CBVSString@@PEAV?$unordered_map@VSString@@PEAV?$vector@PEBVString@@V?$allocator@PEBVString@@@std@@@std@@U?$hash@VSString@@@3@U?$equal_to@VSString@@@3@V?$allocator@U?$pair@$$CBVSString@@PEAV?$vector@PEBVString@@V?$allocator@PEBVString@@@std@@@std@@@std@@@3@@tr1@std@@@std@@@2@@std@@QEAAXV?$_List_const_iterator@V?$_List_val@U?$pair@$$CBVSString@@PEAV?$unordered_map@VSString@@PEAV?$vector@PEBVString@@V?$allocator@PEBVString@@@std@@@std@@U?$hash@VSString@@@3@U?$equal_to@VSString@@@3@V?$allocator@U?$pair@$$CBVSString@@PEAV?$vector@PEBVString@@V?$allocator@PEBVString@@@std@@@std@@@std@@@3@@tr1@std@@@std@@V?$allocator@U?$pair@$$CBVSString@@PEAV?$unordered_map@VSString@@PEAV?$vector@PEBVString@@V?$allocator@PEBVString@@@std@@@std@@U?$hash@VSString@@@3@U?$equal_to@VSString@@@3@V?$allocator@U?$pair@$$CBVSString@@PEAV?$vector@PEBVString@@V?$allocator@PEBVString@@@std@@@std@@@std@@@3@@tr1@std@@@std@@@2@@std@@@2@AEAV12@00_K@Z 0000000180023a90 f i colorer_lib:ParserFactory.cpp.obj
 0001:00022a90       ?_Splice_same@?$list@U?$pair@$$CBVSString@@PEAVSharedInputSource@@@std@@V?$allocator@U?$pair@$$CBVSString@@PEAVSharedInputSource@@@std@@@2@@std@@QEAAXV?$_List_const_iterator@V?$_List_val@U?$pair@$$CBVSString@@PEAVSharedInputSource@@@std@@V?$allocator@U?$pair@$$CBVSString@@PEAVSharedInputSource@@@std@@@2@@std@@@2@AEAV12@00_K@Z 0000000180023a90 f i colorer_lib:SharedInputSource.cpp.obj
 0001:00022b40       ?_Reinsert@?$_Hash@V?$_Umap_traits@VSString@@PEAV?$unordered_map@VSString@@PEAV?$vector@PEBVString@@V?$allocator@PEBVString@@@std@@@std@@U?$hash@VSString@@@3@U?$equal_to@VSString@@@3@V?$allocator@U?$pair@$$CBVSString@@PEAV?$vector@PEBVString@@V?$allocator@PEBVString@@@std@@@std@@@std@@@3@@tr1@std@@V?$_Hash_compare@VSString@@U?$hash@VSString@@@std@@U?$equal_to@VSString@@@3@@4@V?$allocator@U?$pair@$$CBVSString@@PEAV?$unordered_map@VSString@@PEAV?$vector@PEBVString@@V?$allocator@PEBVString@@@std@@@std@@U?$hash@VSString@@@3@U?$equal_to@VSString@@@3@V?$allocator@U?$pair@$$CBVSString@@PEAV?$vector@PEBVString@@V?$allocator@PEBVString@@@std@@@std@@@std@@@3@@tr1@std@@@std@@@4@$0A@@tr1@std@@@std@@IEAAXV?$_List_iterator@V?$_List_val@U?$pair@$$CBVSString@@PEAV?$unordered_map@VSString@@PEAV?$vector@PEBVString@@V?$allocator@PEBVString@@@std@@@std@@U?$hash@VSString@@@3@U?$equal_to@VSString@@@3@V?$allocator@U?$pair@$$CBVSString@@PEAV?$vector@PEBVString@@V?$allocator@PEBVString@@@std@@@std@@@std@@@3@@tr1@std@@@std@@V?$allocator@U?$pair@$$CBVSString@@PEAV?$unordered_map@VSString@@PEAV?$vector@PEBVString@@V?$allocator@PEBVString@@@std@@@std@@U?$hash@VSString@@@3@U?$equal_to@VSString@@@3@V?$allocator@U?$pair@$$CBVSString@@PEAV?$vector@PEBVString@@V?$allocator@PEBVString@@@std@@@std@@@std@@@3@@tr1@std@@@std@@@2@@std@@@2@@Z 0000000180023b40 f i colorer_lib:ParserFactory.cpp.obj
 0001:00022b40       ?_Reinsert@?$_Hash@V?$_Umap_traits@VSString@@PEAV?$vector@PEBVString@@V?$allocator@PEBVString@@@std@@@std@@V?$_Hash_compare@VSString@@U?$hash@VSString@@@std@@U?$equal_to@VSString@@@3@@3@V?$allocator@U?$pair@$$CBVSString@@PEAV?$vector@PEBVString@@V?$allocator@PEBVString@@@std@@@std@@@std@@@3@$0A@@tr1@std@@@std@@IEAAXV?$_List_iterator@V?$_List_val@U?$pair@$$CBVSString@@PEAV?$vector@PEBVString@@V?$allocator@PEBVString@@@std@@@std@@@std@@V?$allocator@U?$pair@$$CBVSString@@PEAV?$vector@PEBVString@@V?$allocator@PEBVString@@@std@@@std@@@std@@@2@@std@@@2@@Z 0000000180023b40 f i colorer_lib:ParserFactory.cpp.obj
 0001:00022b40       ?_Reinsert@?$_Hash@V?$_Umap_traits@VSString@@PEBVString@@V?$_Hash_compare@VSString@@U?$hash@VSString@@@std@@U?$equal_to@VSString@@@3@@std@@V?$allocator@U?$pair@$$CBVSString@@PEBVString@@@std@@@4@$0A@@tr1@std@@@std@@IEAAXV?$_List_iterator@V?$_List_val@U?$pair@$$CBVSString@@PEBVString@@@std@@V?$allocator@U?$pair@$$CBVSString@@PEBVString@@@std@@@2@@std@@@2@@Z 0000000180023b40 f i colorer_lib:ParserFactory.cpp.obj
 0001:00022b40       ?_Reinsert@?$_Hash@V?$_Umap_traits@VSString@@PEAVString@@V?$_Hash_compare@VSString@@U?$hash@VSString@@@std@@U?$equal_to@VSString@@@3@@std@@V?$allocator@U?$pair@$$CBVSString@@PEAVString@@@std@@@4@$0A@@tr1@std@@@std@@IEAAXV?$_List_iterator@V?$_List_val@U?$pair@$$CBVSString@@PEAVString@@@std@@V?$allocator@U?$pair@$$CBVSString@@PEAVString@@@std@@@2@@std@@@2@@Z 0000000180023b40 f i colorer_lib:HRCParserImpl.cpp.obj
 0001:00022bb0       ??$_Uninit_fill_n@PEAV?$_List_iterator@V?$_List_val@U?$pair@$$CBVSString@@PEAV?$vector@PEBVString@@V?$allocator@PEBVString@@@std@@@std@@@std@@V?$allocator@U?$pair@$$CBVSString@@PEAV?$vector@PEBVString@@V?$allocator@PEBVString@@@std@@@std@@@std@@@2@@std@@@std@@_KV12@V?$allocator@V?$_List_iterator@V?$_List_val@U?$pair@$$CBVSString@@PEAV?$vector@PEBVString@@V?$allocator@PEBVString@@@std@@@std@@@std@@V?$allocator@U?$pair@$$CBVSString@@PEAV?$vector@PEBVString@@V?$allocator@PEBVString@@@std@@@std@@@std@@@2@@std@@@std@@@2@V12@@std@@YAXPEAV?$_List_iterator@V?$_List_val@U?$pair@$$CBVSString@@PEAV?$vector@PEBVString@@V?$allocator@PEBVString@@@std@@@std@@@std@@V?$allocator@U?$pair@$$CBVSString@@PEAV?$vector@PEBVString@@V?$allocator@PEBVString@@@std@@@std@@@std@@@2@@std@@@0@_KPEBV10@AEAV?$allocator@V?$_List_iterator@V?$_List_val@U?$pair@$$CBVSString@@PEAV?$vector@PEBVString@@V?$allocator@PEBVString@@@std@@@std@@@std@@V?$allocator@U?$pair@$$CBVSString@@PEAV?$vector@PEBVString@@V?$allocator@PEBVString@@@std@@@std@@@std@@@2@@std@@@std@@@0@0U_Nonscalar_ptr_iterator_tag@0@@Z 0000000180023bb0 f i colorer_lib:ParserFactory.cpp.obj
 0001:00022bb0       ??$_Uninit_fill_n@PEAV?$_List_iterator@V?$_List_val@U?$pair@$$CBVSString@@PEAVString@@@std@@V?$allocator@U?$pair@$$CBVSString@@PEAVString@@@std@@@2@@std@@@std@@_KV12@V?$allocator@V?$_List_iterator@V?$_List_val@U?$pair@$$CBVSString@@PEAVString@@@std@@V?$allocator@U?$pair@$$CBVSString@@PEAVString@@@std@@@2@@std@@@std@@@2@V12@@std@@YAXPEAV?$_List_iterator@V?$_List_val@U?$pair@$$CBVSString@@PEAVString@@@std@@V?$allocator@U?$pair@$$CBVSString@@PEAVString@@@std@@@2@@std@@@0@_KPEBV10@AEAV?$allocator@V?$_List_iterator@V?$_List_val@U?$pair@$$CBVSString@@PEAVString@@@std@@V?$allocator@U?$pair@$$CBVSString@@PEAVString@@@std@@@2@@std@@@std@@@0@0U_Nonscalar_ptr_iterator_tag@0@@Z 0000000180023bb0 f i colorer_lib:HRCParserImpl.cpp.obj
 0001:00022bb0       ??$_Uninit_fill_n@PEAV?$_List_iterator@V?$_List_val@U?$pair@$$CBVSString@@PEAVRegionDefine@@@std@@V?$allocator@U?$pair@$$CBVSString@@PEAVRegionDefine@@@std@@@2@@std@@@std@@_KV12@V?$allocator@V?$_List_iterator@V?$_List_val@U?$pair@$$CBVSString@@PEAVRegionDefine@@@std@@V?$allocator@U?$pair@$$CBVSString@@PEAVRegionDefine@@@std@@@2@@std@@@std@@@2@V12@@std@@YAXPEAV?$_List_iterator@V?$_List_val@U?$pair@$$CBVSString@@PEAVRegionDefine@@@std@@V?$allocator@U?$pair@$$CBVSString@@PEAVRegionDefine@@@std@@@2@@std@@@0@_KPEBV10@AEAV?$allocator@V?$_List_iterator@V?$_List_val@U?$pair@$$CBVSString@@PEAVRegionDefine@@@std@@V?$allocator@U?$pair@$$CBVSString@@PEAVRegionDefine@@@std@@@2@@std@@@std@@@0@0U_Nonscalar_ptr_iterator_tag@0@@Z 0000000180023bb0 f i colorer_lib:StyledHRDMapper.cpp.obj
 0001:00022bb0       ??$_Uninit_fill_n@PEAV?$_List_iterator@V?$_List_val@U?$pair@$$CBVSString@@PEBVString@@@std@@V?$allocator@U?$pair@$$CBVSString@@PEBVString@@@std@@@2@@std@@@std@@_KV12@V?$allocator@V?$_List_iterator@V?$_List_val@U?$pair@$$CBVSString@@PEBVString@@@std@@V?$allocator@U?$pair@$$CBVSString@@PEBVString@@@std@@@2@@std@@@std@@@2@V12@@std@@YAXPEAV?$_List_iterator@V?$_List_val@U?$pair@$$CBVSString@@PEBVString@@@std@@V?$allocator@U?$pair@$$CBVSString@@PEBVString@@@std@@@2@@std@@@0@_KPEBV10@AEAV?$allocator@V?$_List_iterator@V?$_List_val@U?$pair@$$CBVSString@@PEBVString@@@std@@V?$allocator@U?$pair@$$CBVSString@@PEBVString@@@std@@@2@@std@@@std@@@0@0U_Nonscalar_ptr_iterator_tag@0@@Z 0000000180023bb0 f i colorer_lib:ParserFactory.cpp.obj
 0001:00022bb0       ??$_Uninit_fill_n@PEAV?$_List_iterator@V?$_List_val@U?$pair@$$CBVSString@@PEBVRegion@@@std@@V?$allocator@U?$pair@$$CBVSString@@PEBVRegion@@@std@@@2@@std@@@std@@_KV12@V?$allocator@V?$_List_iterator@V?$_List_val@U?$pair@$$CBVSString@@PEBVRegion@@@std@@V?$allocator@U?$pair@$$CBVSString@@PEBVRegion@@@std@@@2@@std@@@std@@@2@V12@@std@@YAXPEAV?$_List_iterator@V?$_List_val@U?$pair@$$CBVSString@@PEBVRegion@@@std@@V?$allocator@U?$pair@$$CBVSString@@PEBVRegion@@@std@@@2@@std@@@0@_KPEBV10@AEAV?$allocator@V?$_List_iterator@V?$_List_val@U?$pair@$$CBVSString@@PEBVRegion@@@std@@V?$allocator@U?$pair@$$CBVSString@@PEBVRegion@@@std@@@2@@std@@@std@@@0@0U_Nonscalar_ptr_iterator_tag@0@@Z 0000000180023bb0 f i colorer_lib:HRCParserImpl.cpp.obj
 0001:00022bb0       ??$_Uninit_fill_n@PEAV?$_List_iterator@V?$_List_val@U?$pair@$$CBVSString@@PEAVFarEditor@@@std@@V?$allocator@U?$pair@$$CBVSString@@PEAVFarEditor@@@std@@@2@@std@@@std@@_KV12@V?$allocator@V?$_List_iterator@V?$_List_val@U?$pair@$$CBVSString@@PEAVFarEditor@@@std@@V?$allocator@U?$pair@$$CBVSString@@PEAVFarEditor@@@std@@@2@@std@@@std@@@2@V12@@std@@YAXPEAV?$_List_iterator@V?$_List_val@U?$pair@$$CBVSString@@PEAVFarEditor@@@std@@V?$allocator@U?$pair@$$CBVSString@@PEAVFarEditor@@@std@@@2@@std@@@0@_KPEBV10@AEAV?$allocator@V?$_List_iterator@V?$_List_val@U?$pair@$$CBVSString@@PEAVFarEditor@@@std@@V?$allocator@U?$pair@$$CBVSString@@PEAVFarEditor@@@std@@@2@@std@@@std@@@0@0U_Nonscalar_ptr_iterator_tag@0@@Z 0000000180023bb0 f i FarEditorSet.cpp.obj
 0001:00022bb0       ??$_Uninit_fill_n@PEAV?$_List_iterator@V?$_List_val@U?$pair@$$CBVSString@@PEAVSharedXmlInputSource@@@std@@V?$allocator@U?$pair@$$CBVSString@@PEAVSharedXmlInputSource@@@std@@@2@@std@@@std@@_KV12@V?$allocator@V?$_List_iterator@V?$_List_val@U?$pair@$$CBVSString@@PEAVSharedXmlInputSource@@@std@@V?$allocator@U?$pair@$$CBVSString@@PEAVSharedXmlInputSource@@@std@@@2@@std@@@std@@@2@V12@@std@@YAXPEAV?$_List_iterator@V?$_List_val@U?$pair@$$CBVSString@@PEAVSharedXmlInputSource@@@std@@V?$allocator@U?$pair@$$CBVSString@@PEAVSharedXmlInputSource@@@std@@@2@@std@@@0@_KPEBV10@AEAV?$allocator@V?$_List_iterator@V?$_List_val@U?$pair@$$CBVSString@@PEAVSharedXmlInputSource@@@std@@V?$allocator@U?$pair@$$CBVSString@@PEAVSharedXmlInputSource@@@std@@@2@@std@@@std@@@0@0U_Nonscalar_ptr_iterator_tag@0@@Z 0000000180023bb0 f i colorer_lib:SharedXmlInputSource.cpp.obj
 0001:00022bb0       ??$_Uninit_fill_n@PEAV?$_List_iterator@V?$_List_val@U?$pair@$$CBVSString@@PEAVSchemeImpl@@@std@@V?$allocator@U?$pair@$$CBVSString@@PEAVSchemeImpl@@@std@@@2@@std@@@std@@_KV12@V?$allocator@V?$_List_iterator@V?$_List_val@U?$pair@$$CBVSString@@PEAVSchemeImpl@@@std@@V?$allocator@U?$pair@$$CBVSString@@PEAVSchemeImpl@@@std@@@2@@std@@@std@@@2@V12@@std@@YAXPEAV?$_List_iterator@V?$_List_val@U?$pair@$$CBVSString@@PEAVSchemeImpl@@@std@@V?$allocator@U?$pair@$$CBVSString@@PEAVSchemeImpl@@@std@@@2@@std@@@0@_KPEBV10@AEAV?$allocator@V?$_List_iterator@V?$_List_val@U?$pair@$$CBVSString@@PEAVSchemeImpl@@@std@@V?$allocator@U?$pair@$$CBVSString@@PEAVSchemeImpl@@@std@@@2@@std@@@std@@@0@0U_Nonscalar_ptr_iterator_tag@0@@Z 0000000180023bb0 f i colorer_lib:HRCParserImpl.cpp.obj
 0001:00022bb0       ??$_Uninit_fill_n@PEAV?$_List_iterator@V?$_List_val@U?$pair@$$CBVSString@@PEAVSharedInputSource@@@std@@V?$allocator@U?$pair@$$CBVSString@@PEAVSharedInputSource@@@std@@@2@@std@@@std@@_KV12@V?$allocator@V?$_List_iterator@V?$_List_val@U?$pair@$$CBVSString@@PEAVSharedInputSource@@@std@@V?$allocator@U?$pair@$$CBVSString@@PEAVSharedInputSource@@@std@@@2@@std@@@std@@@2@V12@@std@@YAXPEAV?$_List_iterator@V?$_List_val@U?$pair@$$CBVSString@@PEAVSharedInputSource@@@std@@V?$allocator@U?$pair@$$CBVSString@@PEAVSharedInputSource@@@std@@@2@@std@@@0@_KPEBV10@AEAV?$allocator@V?$_List_iterator@V?$_List_val@U?$pair@$$CBVSString@@PEAVSharedInputSource@@@std@@V?$allocator@U?$pair@$$CBVSString@@PEAVSharedInputSource@@@std@@@2@@std@@@std@@@0@0U_Nonscalar_ptr_iterator_tag@0@@Z 0000000180023bb0 f i colorer_lib:SharedInputSource.cpp.obj
 0001:00022bb0       ??$_Uninit_fill_n@PEAV?$_List_iterator@V?$_List_val@U?$pair@$$CBVSString@@PEAVFileTypeImpl@@@std@@V?$allocator@U?$pair@$$CBVSString@@PEAVFileTypeImpl@@@std@@@2@@std@@@std@@_KV12@V?$allocator@V?$_List_iterator@V?$_List_val@U?$pair@$$CBVSString@@PEAVFileTypeImpl@@@std@@V?$allocator@U?$pair@$$CBVSString@@PEAVFileTypeImpl@@@std@@@2@@std@@@std@@@2@V12@@std@@YAXPEAV?$_List_iterator@V?$_List_val@U?$pair@$$CBVSString@@PEAVFileTypeImpl@@@std@@V?$allocator@U?$pair@$$CBVSString@@PEAVFileTypeImpl@@@std@@@2@@std@@@0@_KPEBV10@AEAV?$allocator@V?$_List_iterator@V?$_List_val@U?$pair@$$CBVSString@@PEAVFileTypeImpl@@@std@@V?$allocator@U?$pair@$$CBVSString@@PEAVFileTypeImpl@@@std@@@2@@std@@@std@@@0@0U_Nonscalar_ptr_iterator_tag@0@@Z 0000000180023bb0 f i colorer_lib:HRCParserImpl.cpp.obj
 0001:00022bb0       ??$_Uninit_fill_n@PEAV?$_List_iterator@V?$_List_val@U?$pair@$$CBVSString@@PEAVTypeParameter@@@std@@V?$allocator@U?$pair@$$CBVSString@@PEAVTypeParameter@@@std@@@2@@std@@@std@@_KV12@V?$allocator@V?$_List_iterator@V?$_List_val@U?$pair@$$CBVSString@@PEAVTypeParameter@@@std@@V?$allocator@U?$pair@$$CBVSString@@PEAVTypeParameter@@@std@@@2@@std@@@std@@@2@V12@@std@@YAXPEAV?$_List_iterator@V?$_List_val@U?$pair@$$CBVSString@@PEAVTypeParameter@@@std@@V?$allocator@U?$pair@$$CBVSString@@PEAVTypeParameter@@@std@@@2@@std@@@0@_KPEBV10@AEAV?$allocator@V?$_List_iterator@V?$_List_val@U?$pair@$$CBVSString@@PEAVTypeParameter@@@std@@V?$allocator@U?$pair@$$CBVSString@@PEAVTypeParameter@@@std@@@2@@std@@@std@@@0@0U_Nonscalar_ptr_iterator_tag@0@@Z 0000000180023bb0 f i colorer_lib:FileTypeImpl.cpp.obj
 0001:00022bb0       ??$_Uninit_fill_n@PEAV?$_List_iterator@V?$_List_val@U?$pair@$$CBVSString@@PEAV?$unordered_map@VSString@@PEAV?$vector@PEBVString@@V?$allocator@PEBVString@@@std@@@std@@U?$hash@VSString@@@3@U?$equal_to@VSString@@@3@V?$allocator@U?$pair@$$CBVSString@@PEAV?$vector@PEBVString@@V?$allocator@PEBVString@@@std@@@std@@@std@@@3@@tr1@std@@@std@@V?$allocator@U?$pair@$$CBVSString@@PEAV?$unordered_map@VSString@@PEAV?$vector@PEBVString@@V?$allocator@PEBVString@@@std@@@std@@U?$hash@VSString@@@3@U?$equal_to@VSString@@@3@V?$allocator@U?$pair@$$CBVSString@@PEAV?$vector@PEBVString@@V?$allocator@PEBVString@@@std@@@std@@@std@@@3@@tr1@std@@@std@@@2@@std@@@std@@_KV12@V?$allocator@V?$_List_iterator@V?$_List_val@U?$pair@$$CBVSString@@PEAV?$unordered_map@VSString@@PEAV?$vector@PEBVString@@V?$allocator@PEBVString@@@std@@@std@@U?$hash@VSString@@@3@U?$equal_to@VSString@@@3@V?$allocator@U?$pair@$$CBVSString@@PEAV?$vector@PEBVString@@V?$allocator@PEBVString@@@std@@@std@@@std@@@3@@tr1@std@@@std@@V?$allocator@U?$pair@$$CBVSString@@PEAV?$unordered_map@VSString@@PEAV?$vector@PEBVString@@V?$allocator@PEBVString@@@std@@@std@@U?$hash@VSString@@@3@U?$equal_to@VSString@@@3@V?$allocator@U?$pair@$$CBVSString@@PEAV?$vector@PEBVString@@V?$allocator@PEBVString@@@std@@@std@@@std@@@3@@tr1@std@@@std@@@2@@std@@@std@@@2@V12@@std@@YAXPEAV?$_List_iterator@V?$_List_val@U?$pair@$$CBVSString@@PEAV?$unordered_map@VSString@@PEAV?$vector@PEBVString@@V?$allocator@PEBVString@@@std@@@std@@U?$hash@VSString@@@3@U?$equal_to@VSString@@@3@V?$allocator@U?$pair@$$CBVSString@@PEAV?$vector@PEBVString@@V?$allocator@PEBVString@@@std@@@std@@@std@@@3@@tr1@std@@@std@@V?$allocator@U?$pair@$$CBVSString@@PEAV?$unordered_map@VSString@@PEAV?$vector@PEBVString@@V?$allocator@PEBVString@@@std@@@std@@U?$hash@VSString@@@3@U?$equal_to@VSString@@@3@V?$allocator@U?$pair@$$CBVSString@@PEAV?$vector@PEBVString@@V?$allocator@PEBVString@@@std@@@std@@@std@@@3@@tr1@std@@@std@@@2@@std@@@0@_KPEBV10@AEAV?$allocator@V?$_List_iterator@V?$_List_val@U?$pair@$$CBVSString@@PEAV?$unordered_map@VSString@@PEAV?$vector@PEBVString@@V?$allocator@PEBVString@@@std@@@std@@U?$hash@VSString@@@3@U?$equal_to@VSString@@@3@V?$allocator@U?$pair@$$CBVSString@@PEAV?$vector@PEBVString@@V?$allocator@PEBVString@@@std@@@std@@@std@@@3@@tr1@std@@@std@@V?$allocator@U?$pair@$$CBVSString@@PEAV?$unordered_map@VSString@@PEAV?$vector@PEBVString@@V?$allocator@PEBVString@@@std@@@std@@U?$hash@VSString@@@3@U?$equal_to@VSString@@@3@V?$allocator@U?$pair@$$CBVSString@@PEAV?$vector@PEBVString@@V?$allocator@PEBVString@@@std@@@std@@@std@@@3@@tr1@std@@@std@@@2@@std@@@std@@@0@0U_Nonscalar_ptr_iterator_tag@0@@Z 0000000180023bb0 f i colorer_lib:ParserFactory.cpp.obj
 0001:00022bb0       ??$_Uninit_fill_n@PEAV?$_List_iterator@V?$_List_val@U?$pair@$$CBVSString@@H@std@@V?$allocator@U?$pair@$$CBVSString@@H@std@@@2@@std@@@std@@_KV12@V?$allocator@V?$_List_iterator@V?$_List_val@U?$pair@$$CBVSString@@H@std@@V?$allocator@U?$pair@$$CBVSString@@H@std@@@2@@std@@@std@@@2@V12@@std@@YAXPEAV?$_List_iterator@V?$_List_val@U?$pair@$$CBVSString@@H@std@@V?$allocator@U?$pair@$$CBVSString@@H@std@@@2@@std@@@0@_KPEBV10@AEAV?$allocator@V?$_List_iterator@V?$_List_val@U?$pair@$$CBVSString@@H@std@@V?$allocator@U?$pair@$$CBVSString@@H@std@@@2@@std@@@std@@@0@0U_Nonscalar_ptr_iterator_tag@0@@Z 0000000180023bb0 f i colorer_lib:HRCParserImpl.cpp.obj
 0001:00022be0       ??$_Buynode@AEAU?$pair@VSString@@PEAVSharedInputSource@@@std@@@?$_List_val@U?$pair@$$CBVSString@@PEAVSharedInputSource@@@std@@V?$allocator@U?$pair@$$CBVSString@@PEAVSharedInputSource@@@std@@@2@@std@@QEAAPEAU_Node@?$_List_nod@U?$pair@$$CBVSString@@PEAVSharedInputSource@@@std@@V?$allocator@U?$pair@$$CBVSString@@PEAVSharedInputSource@@@std@@@2@@1@PEAU231@0AEAU?$pair@VSString@@PEAVSharedInputSource@@@1@@Z 0000000180023be0 f i colorer_lib:SharedInputSource.cpp.obj
 0001:00022be0       ??$_Buynode@AEAU?$pair@VSString@@PEBVString@@@std@@@?$_List_val@U?$pair@$$CBVSString@@PEBVString@@@std@@V?$allocator@U?$pair@$$CBVSString@@PEBVString@@@std@@@2@@std@@QEAAPEAU_Node@?$_List_nod@U?$pair@$$CBVSString@@PEBVString@@@std@@V?$allocator@U?$pair@$$CBVSString@@PEBVString@@@std@@@2@@1@PEAU231@0AEAU?$pair@VSString@@PEBVString@@@1@@Z 0000000180023be0 f i colorer_lib:ParserFactory.cpp.obj
 0001:00022be0       ??$_Buynode@AEAU?$pair@VSString@@PEAV?$unordered_map@VSString@@PEAV?$vector@PEBVString@@V?$allocator@PEBVString@@@std@@@std@@U?$hash@VSString@@@3@U?$equal_to@VSString@@@3@V?$allocator@U?$pair@$$CBVSString@@PEAV?$vector@PEBVString@@V?$allocator@PEBVString@@@std@@@std@@@std@@@3@@tr1@std@@@std@@@?$_List_val@U?$pair@$$CBVSString@@PEAV?$unordered_map@VSString@@PEAV?$vector@PEBVString@@V?$allocator@PEBVString@@@std@@@std@@U?$hash@VSString@@@3@U?$equal_to@VSString@@@3@V?$allocator@U?$pair@$$CBVSString@@PEAV?$vector@PEBVString@@V?$allocator@PEBVString@@@std@@@std@@@std@@@3@@tr1@std@@@std@@V?$allocator@U?$pair@$$CBVSString@@PEAV?$unordered_map@VSString@@PEAV?$vector@PEBVString@@V?$allocator@PEBVString@@@std@@@std@@U?$hash@VSString@@@3@U?$equal_to@VSString@@@3@V?$allocator@U?$pair@$$CBVSString@@PEAV?$vector@PEBVString@@V?$allocator@PEBVString@@@std@@@std@@@std@@@3@@tr1@std@@@std@@@2@@std@@QEAAPEAU_Node@?$_List_nod@U?$pair@$$CBVSString@@PEAV?$unordered_map@VSString@@PEAV?$vector@PEBVString@@V?$allocator@PEBVString@@@std@@@std@@U?$hash@VSString@@@3@U?$equal_to@VSString@@@3@V?$allocator@U?$pair@$$CBVSString@@PEAV?$vector@PEBVString@@V?$allocator@PEBVString@@@std@@@std@@@std@@@3@@tr1@std@@@std@@V?$allocator@U?$pair@$$CBVSString@@PEAV?$unordered_map@VSString@@PEAV?$vector@PEBVString@@V?$allocator@PEBVString@@@std@@@std@@U?$hash@VSString@@@3@U?$equal_to@VSString@@@3@V?$allocator@U?$pair@$$CBVSString@@PEAV?$vector@PEBVString@@V?$allocator@PEBVString@@@std@@@std@@@std@@@3@@tr1@std@@@std@@@2@@1@PEAU231@0AEAU?$pair@VSString@@PEAV?$unordered_map@VSString@@PEAV?$vector@PEBVString@@V?$allocator@PEBVString@@@std@@@std@@U?$hash@VSString@@@3@U?$equal_to@VSString@@@3@V?$allocator@U?$pair@$$CBVSString@@PEAV?$vector@PEBVString@@V?$allocator@PEBVString@@@std@@@std@@@std@@@3@@tr1@std@@@1@@Z 0000000180023be0 f i colorer_lib:ParserFactory.cpp.obj
 0001:00022be0       ??$_Buynode@AEAU?$pair@VSString@@PEAVFarEditor@@@std@@@?$_List_val@U?$pair@$$CBVSString@@PEAVFarEditor@@@std@@V?$allocator@U?$pair@$$CBVSString@@PEAVFarEditor@@@std@@@2@@std@@QEAAPEAU_Node@?$_List_nod@U?$pair@$$CBVSString@@PEAVFarEditor@@@std@@V?$allocator@U?$pair@$$CBVSString@@PEAVFarEditor@@@std@@@2@@1@PEAU231@0AEAU?$pair@VSString@@PEAVFarEditor@@@1@@Z 0000000180023be0 f i FarEditorSet.cpp.obj
 0001:00022be0       ??$_Buynode@AEAU?$pair@VSString@@PEAVSharedXmlInputSource@@@std@@@?$_List_val@U?$pair@$$CBVSString@@PEAVSharedXmlInputSource@@@std@@V?$allocator@U?$pair@$$CBVSString@@PEAVSharedXmlInputSource@@@std@@@2@@std@@QEAAPEAU_Node@?$_List_nod@U?$pair@$$CBVSString@@PEAVSharedXmlInputSource@@@std@@V?$allocator@U?$pair@$$CBVSString@@PEAVSharedXmlInputSource@@@std@@@2@@1@PEAU231@0AEAU?$pair@VSString@@PEAVSharedXmlInputSource@@@1@@Z 0000000180023be0 f i colorer_lib:SharedXmlInputSource.cpp.obj
 0001:00022be0       ??$_Buynode@AEAU?$pair@VSString@@PEAVSchemeImpl@@@std@@@?$_List_val@U?$pair@$$CBVSString@@PEAVSchemeImpl@@@std@@V?$allocator@U?$pair@$$CBVSString@@PEAVSchemeImpl@@@std@@@2@@std@@QEAAPEAU_Node@?$_List_nod@U?$pair@$$CBVSString@@PEAVSchemeImpl@@@std@@V?$allocator@U?$pair@$$CBVSString@@PEAVSchemeImpl@@@std@@@2@@1@PEAU231@0AEAU?$pair@VSString@@PEAVSchemeImpl@@@1@@Z 0000000180023be0 f i colorer_lib:HRCParserImpl.cpp.obj
 0001:00022be0       ??$_Buynode@AEAU?$pair@VSString@@PEBVRegion@@@std@@@?$_List_val@U?$pair@$$CBVSString@@PEBVRegion@@@std@@V?$allocator@U?$pair@$$CBVSString@@PEBVRegion@@@std@@@2@@std@@QEAAPEAU_Node@?$_List_nod@U?$pair@$$CBVSString@@PEBVRegion@@@std@@V?$allocator@U?$pair@$$CBVSString@@PEBVRegion@@@std@@@2@@1@PEAU231@0AEAU?$pair@VSString@@PEBVRegion@@@1@@Z 0000000180023be0 f i colorer_lib:HRCParserImpl.cpp.obj
 0001:00022be0       ??$_Buynode@AEAU?$pair@VSString@@PEAVTypeParameter@@@std@@@?$_List_val@U?$pair@$$CBVSString@@PEAVTypeParameter@@@std@@V?$allocator@U?$pair@$$CBVSString@@PEAVTypeParameter@@@std@@@2@@std@@QEAAPEAU_Node@?$_List_nod@U?$pair@$$CBVSString@@PEAVTypeParameter@@@std@@V?$allocator@U?$pair@$$CBVSString@@PEAVTypeParameter@@@std@@@2@@1@PEAU231@0AEAU?$pair@VSString@@PEAVTypeParameter@@@1@@Z 0000000180023be0 f i colorer_lib:FileTypeImpl.cpp.obj
 0001:00022be0       ??$_Buynode@AEAU?$pair@VSString@@PEAVRegionDefine@@@std@@@?$_List_val@U?$pair@$$CBVSString@@PEAVRegionDefine@@@std@@V?$allocator@U?$pair@$$CBVSString@@PEAVRegionDefine@@@std@@@2@@std@@QEAAPEAU_Node@?$_List_nod@U?$pair@$$CBVSString@@PEAVRegionDefine@@@std@@V?$allocator@U?$pair@$$CBVSString@@PEAVRegionDefine@@@std@@@2@@1@PEAU231@0AEAU?$pair@VSString@@PEAVRegionDefine@@@1@@Z 0000000180023be0 f i colorer_lib:StyledHRDMapper.cpp.obj
 0001:00022be0       ??$_Buynode@AEAU?$pair@VSString@@PEAVFileTypeImpl@@@std@@@?$_List_val@U?$pair@$$CBVSString@@PEAVFileTypeImpl@@@std@@V?$allocator@U?$pair@$$CBVSString@@PEAVFileTypeImpl@@@std@@@2@@std@@QEAAPEAU_Node@?$_List_nod@U?$pair@$$CBVSString@@PEAVFileTypeImpl@@@std@@V?$allocator@U?$pair@$$CBVSString@@PEAVFileTypeImpl@@@std@@@2@@1@PEAU231@0AEAU?$pair@VSString@@PEAVFileTypeImpl@@@1@@Z 0000000180023be0 f i colorer_lib:HRCParserImpl.cpp.obj
 0001:00022be0       ??$_Buynode@AEAU?$pair@VSString@@PEAVString@@@std@@@?$_List_val@U?$pair@$$CBVSString@@PEAVString@@@std@@V?$allocator@U?$pair@$$CBVSString@@PEAVString@@@std@@@2@@std@@QEAAPEAU_Node@?$_List_nod@U?$pair@$$CBVSString@@PEAVString@@@std@@V?$allocator@U?$pair@$$CBVSString@@PEAVString@@@std@@@2@@1@PEAU231@0AEAU?$pair@VSString@@PEAVString@@@1@@Z 0000000180023be0 f i colorer_lib:HRCParserImpl.cpp.obj
 0001:00022be0       ??$_Buynode@AEAU?$pair@VSString@@PEAV?$vector@PEBVString@@V?$allocator@PEBVString@@@std@@@std@@@std@@@?$_List_val@U?$pair@$$CBVSString@@PEAV?$vector@PEBVString@@V?$allocator@PEBVString@@@std@@@std@@@std@@V?$allocator@U?$pair@$$CBVSString@@PEAV?$vector@PEBVString@@V?$allocator@PEBVString@@@std@@@std@@@std@@@2@@std@@QEAAPEAU_Node@?$_List_nod@U?$pair@$$CBVSString@@PEAV?$vector@PEBVString@@V?$allocator@PEBVString@@@std@@@std@@@std@@V?$allocator@U?$pair@$$CBVSString@@PEAV?$vector@PEBVString@@V?$allocator@PEBVString@@@std@@@std@@@std@@@2@@1@PEAU231@0AEAU?$pair@VSString@@PEAV?$vector@PEBVString@@V?$allocator@PEBVString@@@std@@@std@@@1@@Z 0000000180023be0 f i colorer_lib:ParserFactory.cpp.obj
 0001:00022cb0       ??0OutlineItem@@QEAA@_KHHPEAVString@@PEBVRegion@@@Z 0000000180023cb0 f i colorer_lib:Outliner.cpp.obj
 0001:00022e50       ??0Outliner@@QEAA@PEAVBaseEditor@@PEBVRegion@@@Z 0000000180023e50 f   colorer_lib:Outliner.cpp.obj
 0001:00022ee0       ??_GOutliner@@UEAAPEAXI@Z  0000000180023ee0 f i colorer_lib:Outliner.cpp.obj
 0001:00022ee0       ??_EOutliner@@UEAAPEAXI@Z  0000000180023ee0 f i  CIL library: CIL module
 0001:00022f20       ??1Outliner@@UEAA@XZ       0000000180023f20 f   colorer_lib:Outliner.cpp.obj
 0001:00023040       ?manageTree@Outliner@@SAHAEAV?$vector@HV?$allocator@H@std@@@std@@H@Z 0000000180024040 f   colorer_lib:Outliner.cpp.obj
 0001:00023150       ?modifyEvent@Outliner@@UEAAX_K@Z 0000000180024150 f   colorer_lib:Outliner.cpp.obj
 0001:000232d0       ?startParsing@Outliner@@UEAAX_K@Z 00000001800242d0 f   colorer_lib:Outliner.cpp.obj
 0001:000232e0       ?endParsing@Outliner@@UEAAX_K@Z 00000001800242e0 f   colorer_lib:Outliner.cpp.obj
 0001:00023300       ?clearLine@Outliner@@UEAAX_KPEAVString@@@Z 0000000180024300 f   colorer_lib:Outliner.cpp.obj
 0001:00023310       ?addRegion@Outliner@@UEAAX_KPEAVString@@HHPEBVRegion@@@Z 0000000180024310 f   colorer_lib:Outliner.cpp.obj
 0001:000234e0       ?enterScheme@Outliner@@UEAAX_KPEAVString@@HHPEBVRegion@@PEBVScheme@@@Z 00000001800244e0 f   colorer_lib:Outliner.cpp.obj
 0001:000234f0       ?leaveScheme@Outliner@@UEAAX_KPEAVString@@HHPEBVRegion@@PEBVScheme@@@Z 00000001800244f0 f   colorer_lib:Outliner.cpp.obj
 0001:00023500       ?_Reserve@?$vector@HV?$allocator@H@std@@@std@@IEAAX_K@Z 0000000180024500 f i colorer_lib:Outliner.cpp.obj
 0001:00023590       ?reserve@?$vector@HV?$allocator@H@std@@@std@@QEAAX_K@Z 0000000180024590 f i colorer_lib:Outliner.cpp.obj
 0001:00023650       ?allocate@?$allocator@H@std@@QEAAPEAH_K@Z 0000000180024650 f i colorer_lib:Outliner.cpp.obj
 0001:000236c0       ?toLowerCase@Character@@SA_W_W@Z 00000001800246c0 f   colorer_lib:Character.cpp.obj
 0001:00023720       ?toUpperCase@Character@@SA_W_W@Z 0000000180024720 f   colorer_lib:Character.cpp.obj
 0001:00023780       ?isWhitespace@Character@@SA_N_W@Z 0000000180024780 f   colorer_lib:Character.cpp.obj
 0001:000237f0       ??4RegionDefine@@UEAAAEAV0@AEBV0@@Z 00000001800247f0 f i colorer_lib:StyledHRDMapper.cpp.obj
 0001:00023810       ??1RegionDefine@@UEAA@XZ   0000000180024810 f i colorer_lib:StyledHRDMapper.cpp.obj
 0001:00023820       ??1RegionMapper@@UEAA@XZ   0000000180024820 f i colorer_lib:StyledHRDMapper.cpp.obj
 0001:00023830       ??_GRegionMapper@@UEAAPEAXI@Z 0000000180024830 f i colorer_lib:StyledHRDMapper.cpp.obj
 0001:00023830       ??_ERegionMapper@@UEAAPEAXI@Z 0000000180024830 f i  CIL library: CIL module
 0001:00023860       ??0RegionMapperImpl@@QEAA@XZ 0000000180024860 f i colorer_lib:StyledHRDMapper.cpp.obj
 0001:000238f0       ??1RegionMapperImpl@@UEAA@XZ 00000001800248f0 f i colorer_lib:StyledHRDMapper.cpp.obj
 0001:00023980       ??_GRegionMapperImpl@@UEAAPEAXI@Z 0000000180024980 f i colorer_lib:StyledHRDMapper.cpp.obj
 0001:00023980       ??_ERegionMapperImpl@@UEAAPEAXI@Z 0000000180024980 f i  CIL library: CIL module
 0001:000239c0       ?assignParent@StyledRegion@@UEAAXPEBVRegionDefine@@@Z 00000001800249c0 f i colorer_lib:StyledHRDMapper.cpp.obj
 0001:00023a10       ?setValues@StyledRegion@@UEAAXPEBVRegionDefine@@@Z 0000000180024a10 f i colorer_lib:StyledHRDMapper.cpp.obj
 0001:00023a50       ?clone@StyledRegion@@UEBAPEAVRegionDefine@@XZ 0000000180024a50 f i colorer_lib:StyledHRDMapper.cpp.obj
 0001:00023ae0       ??_EStyledRegion@@UEAAPEAXI@Z 0000000180024ae0 f i  CIL library: CIL module
 0001:00023ae0       ??_GRegionDefine@@UEAAPEAXI@Z 0000000180024ae0 f i colorer_lib:StyledHRDMapper.cpp.obj
 0001:00023ae0       ??_GStyledRegion@@UEAAPEAXI@Z 0000000180024ae0 f i colorer_lib:StyledHRDMapper.cpp.obj
 0001:00023ae0       ??_ERegionDefine@@UEAAPEAXI@Z 0000000180024ae0 f i  CIL library: CIL module
 0001:00023b10       ??_EStyledHRDMapper@@UEAAPEAXI@Z 0000000180024b10 f i  CIL library: CIL module
 0001:00023b10       ??_GStyledHRDMapper@@UEAAPEAXI@Z 0000000180024b10 f i colorer_lib:StyledHRDMapper.cpp.obj
 0001:00023b90       ?loadRegionMappings@StyledHRDMapper@@UEAAXPEAVXmlInputSource@@PEAVErrorHandler@colorer@@@Z 0000000180024b90 f   colorer_lib:StyledHRDMapper.cpp.obj
 0001:00024820       ?saveRegionMappings@StyledHRDMapper@@UEBAXPEAVWriter@@@Z 0000000180025820 f   colorer_lib:StyledHRDMapper.cpp.obj
 0001:00024df0       ?setRegionDefine@StyledHRDMapper@@UEAAXAEBVString@@PEBVRegionDefine@@@Z 0000000180025df0 f   colorer_lib:StyledHRDMapper.cpp.obj
 0001:00026d50       dlmalloc                   0000000180027d50 f   colorer_lib:dlmalloc.c.obj
 0001:000270b0       dlfree                     00000001800280b0 f   colorer_lib:dlmalloc.c.obj
 0001:00027810       ??1Writer@@UEAA@XZ         0000000180028810 f i colorer_lib:StreamWriter.cpp.obj
 0001:00027820       ??_GStreamWriter@@UEAAPEAXI@Z 0000000180028820 f i colorer_lib:StreamWriter.cpp.obj
 0001:00027820       ??_EStreamWriter@@UEAAPEAXI@Z 0000000180028820 f i  CIL library: CIL module
 0001:00027820       ??_EWriter@@UEAAPEAXI@Z    0000000180028820 f i  CIL library: CIL module
 0001:00027820       ??_GWriter@@UEAAPEAXI@Z    0000000180028820 f i colorer_lib:StreamWriter.cpp.obj
 0001:00027850       ?init@StreamWriter@@IEAAXPEAU_iobuf@@H_N@Z 0000000180028850 f   colorer_lib:StreamWriter.cpp.obj
 0001:000278f0       ?write@StreamWriter@@UEAAX_W@Z 00000001800288f0 f   colorer_lib:StreamWriter.cpp.obj
 0001:00027950       ??0ErrorHandlerWriter@@QEAA@PEAVWriter@@@Z 0000000180028950 f   colorer_lib:ErrorHandlerWriter.cpp.obj
 0001:00027af0       ??_GErrorHandlerWriter@@UEAAPEAXI@Z 0000000180028af0 f i colorer_lib:ErrorHandlerWriter.cpp.obj
 0001:00027af0       ??_EErrorHandlerWriter@@UEAAPEAXI@Z 0000000180028af0 f i  CIL library: CIL module
 0001:00027b30       ??1ErrorHandlerWriter@@UEAA@XZ 0000000180028b30 f   colorer_lib:ErrorHandlerWriter.cpp.obj
 0001:00027cc0       ?error@ErrorHandlerWriter@@UEAAXAEBVString@@@Z 0000000180028cc0 f   colorer_lib:ErrorHandlerWriter.cpp.obj
 0001:00027ec0       ?fatalError@ErrorHandlerWriter@@UEAAXAEBVString@@@Z 0000000180028ec0 f   colorer_lib:ErrorHandlerWriter.cpp.obj
 0001:000280c0       ?warning@ErrorHandlerWriter@@UEAAXAEBVString@@@Z 00000001800290c0 f   colorer_lib:ErrorHandlerWriter.cpp.obj
 0001:000282c0       ?getIssueFatalErrorIfNotFound@InputSource@xercesc_3_1@@UEBA_NXZ 00000001800292c0 f i colorer_lib:ZipXmlInputSource.cpp.obj
 0001:000282d0       ?setIssueFatalErrorIfNotFound@InputSource@xercesc_3_1@@UEAAX_N@Z 00000001800292d0 f i colorer_lib:ZipXmlInputSource.cpp.obj
 0001:000282e0       ??1XmlInputSource@@UEAA@XZ 00000001800292e0 f i colorer_lib:ZipXmlInputSource.cpp.obj
 0001:000282f0       ??_EXmlInputSource@@UEAAPEAXI@Z 00000001800292f0 f i  CIL library: CIL module
 0001:000282f0       ??_GXmlInputSource@@UEAAPEAXI@Z 00000001800292f0 f i colorer_lib:ZipXmlInputSource.cpp.obj
 0001:00028320       ?getShared@SharedXmlInputSource@@SAPEAV1@PEAVString@@@Z 0000000180029320 f i colorer_lib:ZipXmlInputSource.cpp.obj
 0001:00028630       ??_EZipXmlInputSource@@UEAAPEAXI@Z 0000000180029630 f i  CIL library: CIL module
 0001:00028630       ??_GZipXmlInputSource@@UEAAPEAXI@Z 0000000180029630 f i colorer_lib:ZipXmlInputSource.cpp.obj
 0001:00028670       ?create@ZipXmlInputSource@@AEAAXPEB_W0@Z 0000000180029670 f   colorer_lib:ZipXmlInputSource.cpp.obj
 0001:00028bd0       ??0ZipXmlInputSource@@QEAA@PEB_WPEAVXmlInputSource@@@Z 0000000180029bd0 f   colorer_lib:ZipXmlInputSource.cpp.obj
 0001:00028c60       ??1ZipXmlInputSource@@UEAA@XZ 0000000180029c60 f   colorer_lib:ZipXmlInputSource.cpp.obj
 0001:00028d00       ??0ZipXmlInputSource@@QEAA@PEB_W0_N@Z 0000000180029d00 f   colorer_lib:ZipXmlInputSource.cpp.obj
 0001:000294d0       ?createRelative@ZipXmlInputSource@@UEBAPEAV1@PEB_W@Z 000000018002a4d0 f   colorer_lib:ZipXmlInputSource.cpp.obj
 0001:00029550       ?getInputSource@ZipXmlInputSource@@UEAAPEAVInputSource@xercesc_3_1@@XZ 000000018002a550 f   colorer_lib:ZipXmlInputSource.cpp.obj
 0001:00029560       ?makeStream@ZipXmlInputSource@@UEBAPEAVBinInputStream@xercesc_3_1@@XZ 000000018002a560 f   colorer_lib:ZipXmlInputSource.cpp.obj
 0001:00029600       ??0UnZip@@QEAA@PEBE_KPEBVString@@@Z 000000018002a600 f   colorer_lib:ZipXmlInputSource.cpp.obj
 0001:00029be0       ??_EUnZip@@UEAAPEAXI@Z     000000018002abe0 f i  CIL library: CIL module
 0001:00029be0       ??_GUnZip@@UEAAPEAXI@Z     000000018002abe0 f i colorer_lib:ZipXmlInputSource.cpp.obj
 0001:00029c40       ?curPos@UnZip@@UEBA_KXZ    000000018002ac40 f   colorer_lib:ZipXmlInputSource.cpp.obj
 0001:00029c40       ?getDescription@FileTypeImpl@@UEBAPEBVString@@XZ 000000018002ac40 f   colorer_lib:FileTypeImpl.cpp.obj
 0001:00029c40       ?getSystemId@InputSource@xercesc_3_1@@UEBAPEB_WXZ 000000018002ac40 f   colorer_lib:ZipXmlInputSource.cpp.obj
 0001:00029c50       ?readBytes@UnZip@@UEAA_KQEAE_K@Z 000000018002ac50 f   colorer_lib:ZipXmlInputSource.cpp.obj
 0001:00029ca0       ??_EZipXmlInputSource@@W7EAAPEAXI@Z 000000018002aca0 f i colorer_lib:ZipXmlInputSource.cpp.obj
 0001:00029cb0       ??0LocalFileXmlInputSource@@QEAA@PEB_W0@Z 000000018002acb0 f   colorer_lib:LocalFileXmlInputSource.cpp.obj
 0001:00029dd0       ??_ELocalFileXmlInputSource@@UEAAPEAXI@Z 000000018002add0 f i  CIL library: CIL module
 0001:00029dd0       ??_GLocalFileXmlInputSource@@UEAAPEAXI@Z 000000018002add0 f i colorer_lib:LocalFileXmlInputSource.cpp.obj
 0001:00029e40       ?makeStream@LocalFileXmlInputSource@@UEBAPEAVBinInputStream@xercesc_3_1@@XZ 000000018002ae40 f   colorer_lib:LocalFileXmlInputSource.cpp.obj
 0001:0002a110       ?createRelative@LocalFileXmlInputSource@@UEBAPEAVXmlInputSource@@PEB_W@Z 000000018002b110 f   colorer_lib:LocalFileXmlInputSource.cpp.obj
 0001:0002a190       ?getInputSource@LocalFileXmlInputSource@@UEAAPEAVInputSource@xercesc_3_1@@XZ 000000018002b190 f   colorer_lib:LocalFileXmlInputSource.cpp.obj
 0001:0002a1a0       ??_ELocalFileXmlInputSource@@WDA@EAAPEAXI@Z 000000018002b1a0 f i colorer_lib:LocalFileXmlInputSource.cpp.obj
 0001:0002a1b0       ??_ELineRegionsCompactSupport@@UEAAPEAXI@Z 000000018002b1b0 f i  CIL library: CIL module
 0001:0002a1b0       ??_GLineRegionsCompactSupport@@UEAAPEAXI@Z 000000018002b1b0 f i colorer_lib:LineRegionsCompactSupport.cpp.obj
 0001:0002a1f0       ?addLineRegion@LineRegionsCompactSupport@@MEAAX_KPEAVLineRegion@@@Z 000000018002b1f0 f   colorer_lib:LineRegionsCompactSupport.cpp.obj
 0001:0002a560       ??_GLineRegionsSupport@@UEAAPEAXI@Z 000000018002b560 f i colorer_lib:LineRegionsSupport.cpp.obj
 0001:0002a560       ??_ELineRegionsSupport@@UEAAPEAXI@Z 000000018002b560 f i  CIL library: CIL module
 0001:0002a5a0       ??1LineRegionsSupport@@UEAA@XZ 000000018002b5a0 f   colorer_lib:LineRegionsSupport.cpp.obj
 0001:0002a680       ?clear@LineRegionsSupport@@QEAAXXZ 000000018002b680 f   colorer_lib:LineRegionsSupport.cpp.obj
 0001:0002a740       ?getLineRegions@LineRegionsSupport@@QEBAPEAVLineRegion@@_K@Z 000000018002b740 f   colorer_lib:LineRegionsSupport.cpp.obj
 0001:0002a7b0       ?startParsing@LineRegionsSupport@@UEAAX_K@Z 000000018002b7b0 f   colorer_lib:LineRegionsSupport.cpp.obj
 0001:0002a8a0       ?clearLine@LineRegionsSupport@@UEAAX_KPEAVString@@@Z 000000018002b8a0 f   colorer_lib:LineRegionsSupport.cpp.obj
 0001:0002aa10       ?addRegion@LineRegionsSupport@@UEAAX_KPEAVString@@HHPEBVRegion@@@Z 000000018002ba10 f   colorer_lib:LineRegionsSupport.cpp.obj
 0001:0002ab60       ?enterScheme@LineRegionsSupport@@UEAAX_KPEAVString@@HHPEBVRegion@@PEBVScheme@@@Z 000000018002bb60 f   colorer_lib:LineRegionsSupport.cpp.obj
 0001:0002ad40       ?leaveScheme@LineRegionsSupport@@UEAAX_KPEAVString@@HHPEBVRegion@@PEBVScheme@@@Z 000000018002bd40 f   colorer_lib:LineRegionsSupport.cpp.obj
 0001:0002ae00       ?addLineRegion@LineRegionsSupport@@MEAAX_KPEAVLineRegion@@@Z 000000018002be00 f   colorer_lib:LineRegionsSupport.cpp.obj
 0001:0002aeb0       ?_Reserve@?$vector@PEAVLineRegion@@V?$allocator@PEAVLineRegion@@@std@@@std@@IEAAX_K@Z 000000018002beb0 f i colorer_lib:LineRegionsSupport.cpp.obj
 0001:0002aeb0       ?_Reserve@?$vector@PEAVOutlineItem@@V?$allocator@PEAVOutlineItem@@@std@@@std@@IEAAX_K@Z 000000018002beb0 f i colorer_lib:Outliner.cpp.obj
 0001:0002af30       ??1SRegInfo@@QEAA@XZ       000000018002bf30 f   colorer_lib:cregexp.cpp.obj
 0001:0002afd0       ??_GCharacterClass@@QEAAPEAXI@Z 000000018002bfd0 f i colorer_lib:cregexp.cpp.obj
 0001:0002b000       ??0CRegExp@@QEAA@PEBVString@@@Z 000000018002c000 f   colorer_lib:cregexp.cpp.obj
 0001:0002b060       ??1CRegExp@@QEAA@XZ        000000018002c060 f   colorer_lib:cregexp.cpp.obj
 0001:0002b0d0       ?setRELow@CRegExp@@AEAA?AW4EError@@AEBVString@@@Z 000000018002c0d0 f   colorer_lib:cregexp.cpp.obj
 0001:0002b440       ?optimize@CRegExp@@AEAAXXZ 000000018002c440 f   colorer_lib:cregexp.cpp.obj
 0001:0002b4c0       ?setStructs@CRegExp@@AEAA?AW4EError@@AEAPEAVSRegInfo@@AEBVString@@AEAH@Z 000000018002c4c0 f   colorer_lib:cregexp.cpp.obj
 0001:0002c960       ?isWordBoundary@CRegExp@@AEAA_NAEAH@Z 000000018002d960 f   colorer_lib:cregexp.cpp.obj
 0001:0002ca80       ?checkMetaSymbol@CRegExp@@AEAA_NW4EMetaSymbols@@AEAH@Z 000000018002da80 f   colorer_lib:cregexp.cpp.obj
 0001:0002d090       ?insert_stack@CRegExp@@AEAAXPEAPEAVSRegInfo@@0PEAHPEA_NHH00H@Z 000000018002e090 f   colorer_lib:cregexp.cpp.obj
 0001:0002d210       ?lowParse@CRegExp@@AEAA_NPEAVSRegInfo@@0H@Z 000000018002e210 f   colorer_lib:cregexp.cpp.obj
 0001:0002df60       ?quickCheck@CRegExp@@AEAA_NH@Z 000000018002ef60 f i colorer_lib:cregexp.cpp.obj
 0001:0002dff0       ?parseRE@CRegExp@@AEAA_NH@Z 000000018002eff0 f i colorer_lib:cregexp.cpp.obj
 0001:0002e100       ?getBracketNo@CRegExp@@QEAAHPEBVString@@@Z 000000018002f100 f   colorer_lib:cregexp.cpp.obj
 0001:0002e320       ?getNumber@UnicodeTools@@SA_NPEBVString@@PEAN@Z 000000018002f320 f   colorer_lib:UnicodeTools.cpp.obj
 0001:0002e760       ?getNumber@UnicodeTools@@SAHPEBVString@@@Z 000000018002f760 f   colorer_lib:UnicodeTools.cpp.obj
 0001:0002e810       ?getHex@UnicodeTools@@SAH_W@Z 000000018002f810 f   colorer_lib:UnicodeTools.cpp.obj
 0001:0002e880       ?getHexNumber@UnicodeTools@@SAHPEBVString@@@Z 000000018002f880 f   colorer_lib:UnicodeTools.cpp.obj
 0001:0002e980       ?getCurlyContent@UnicodeTools@@SAPEAVDString@@AEBVString@@H@Z 000000018002f980 f   colorer_lib:UnicodeTools.cpp.obj
 0001:0002eb30       ?getEscapedChar@UnicodeTools@@SA_WAEBVString@@HAEAH@Z 000000018002fb30 f   colorer_lib:UnicodeTools.cpp.obj
 0001:0002ec90       ?getEncoding@InputSource@xercesc_3_1@@UEBAPEB_WXZ 000000018002fc90 f i colorer_lib:ZipXmlInputSource.cpp.obj
 0001:0002ec90       ?getName@FileTypeImpl@@UEBAPEBVString@@XZ 000000018002fc90 f i colorer_lib:FileTypeImpl.cpp.obj
 0001:0002ec90       ?getDescription@Region@@UEBAPEBVString@@XZ 000000018002fc90 f i colorer_lib:HRCParserImpl.cpp.obj
 0001:0002eca0       ??0Region@@QEAA@PEBVString@@0PEBV0@H@Z 000000018002fca0 f i colorer_lib:HRCParserImpl.cpp.obj
 0001:0002ef50       ??_ERegion@@UEAAPEAXI@Z    000000018002ff50 f i  CIL library: CIL module
 0001:0002ef50       ??_GRegion@@UEAAPEAXI@Z    000000018002ff50 f i colorer_lib:HRCParserImpl.cpp.obj
 0001:0002efc0       ??1Scheme@@MEAA@XZ         000000018002ffc0 f i colorer_lib:HRCParserImpl.cpp.obj
 0001:0002efd0       ??_EScheme@@MEAAPEAXI@Z    000000018002ffd0 f i  CIL library: CIL module
 0001:0002efd0       ??_GScheme@@MEAAPEAXI@Z    000000018002ffd0 f i colorer_lib:HRCParserImpl.cpp.obj
 0001:0002f000       ??0VirtualEntry@@QEAA@PEBVString@@0@Z 0000000180030000 f i colorer_lib:HRCParserImpl.cpp.obj
 0001:0002f280       ??3SchemeImpl@@SAXPEAX@Z   0000000180030280 f i colorer_lib:HRCParserImpl.cpp.obj
 0001:0002f280       ??3VirtualEntry@@SAXPEAX@Z 0000000180030280 f i colorer_lib:HRCParserImpl.cpp.obj
 0001:0002f280       ??3SchemeNode@@SAXPEAX@Z   0000000180030280 f i colorer_lib:HRCParserImpl.cpp.obj
 0001:0002f280       ??3KeywordList@@SAXPEAX@Z  0000000180030280 f i colorer_lib:HRCParserImpl.cpp.obj
 0001:0002f280       ??3CharacterClass@@SAXPEAX@Z 0000000180030280 f i colorer_lib:cregexp.cpp.obj
 0001:0002f290       ?getName@SchemeImpl@@UEBAPEBVString@@XZ 0000000180030290 f i colorer_lib:HRCParserImpl.cpp.obj
 0001:0002f290       ?getLocation@FileInputSource@@UEBAPEBVString@@XZ 0000000180030290 f i colorer_lib:FileInputSource.cpp.obj
 0001:0002f290       ?getLocation@JARInputSource@@UEBAPEBVString@@XZ 0000000180030290 f i colorer_lib:JARInputSource.cpp.obj
 0001:0002f290       ?getMessage@Exception@@UEBAPEBVString@@XZ 0000000180030290 f i colorer_lib:Exception.cpp.obj
 0001:0002f290       ?getName@Region@@UEBAPEBVString@@XZ 0000000180030290 f i colorer_lib:HRCParserImpl.cpp.obj
 0001:0002f2a0       ?getFileType@SchemeImpl@@UEBAPEAVFileType@@XZ 00000001800302a0 f i colorer_lib:HRCParserImpl.cpp.obj
 0001:0002f2b0       ??0SchemeImpl@@IEAA@PEBVString@@@Z 00000001800302b0 f i colorer_lib:HRCParserImpl.cpp.obj
 0001:0002f430       ??1SchemeImpl@@MEAA@XZ     0000000180030430 f i colorer_lib:HRCParserImpl.cpp.obj
 0001:0002f4c0       ??_ESchemeImpl@@MEAAPEAXI@Z 00000001800304c0 f i  CIL library: CIL module
 0001:0002f4c0       ??_GSchemeImpl@@MEAAPEAXI@Z 00000001800304c0 f i colorer_lib:HRCParserImpl.cpp.obj
 0001:0002f4f0       ??0HRCParserException@@QEAA@AEBVString@@@Z 00000001800304f0 f i colorer_lib:HRCParserImpl.cpp.obj
 0001:0002f620       ??1HRCParser@@UEAA@XZ      0000000180030620 f i colorer_lib:HRCParserImpl.cpp.obj
 0001:0002f630       ??_EHRCParser@@UEAAPEAXI@Z 0000000180030630 f i  CIL library: CIL module
 0001:0002f630       ??_GHRCParser@@UEAAPEAXI@Z 0000000180030630 f i colorer_lib:HRCParserImpl.cpp.obj
 0001:0002f660       ??0HRCParserImpl@@QEAA@XZ  0000000180030660 f   colorer_lib:HRCParserImpl.cpp.obj
 0001:0002f900       ??_GHRCParserImpl@@UEAAPEAXI@Z 0000000180030900 f i colorer_lib:HRCParserImpl.cpp.obj
 0001:0002f900       ??_EHRCParserImpl@@UEAAPEAXI@Z 0000000180030900 f i  CIL library: CIL module
 0001:0002f940       ??1?$unordered_map@VSString@@PEAVFarEditor@@U?$hash@VSString@@@std@@U?$equal_to@VSString@@@4@V?$allocator@U?$pair@$$CBVSString@@PEAVFarEditor@@@std@@@4@@tr1@std@@QEAA@XZ 0000000180030940 f i FarEditorSet.cpp.obj
 0001:0002f940       ??1?$unordered_map@VSString@@PEAVFileTypeImpl@@U?$hash@VSString@@@std@@U?$equal_to@VSString@@@4@V?$allocator@U?$pair@$$CBVSString@@PEAVFileTypeImpl@@@std@@@4@@tr1@std@@QEAA@XZ 0000000180030940 f i colorer_lib:HRCParserImpl.cpp.obj
 0001:0002f940       ??1?$unordered_map@VSString@@PEAV?$unordered_map@VSString@@PEAV?$vector@PEBVString@@V?$allocator@PEBVString@@@std@@@std@@U?$hash@VSString@@@3@U?$equal_to@VSString@@@3@V?$allocator@U?$pair@$$CBVSString@@PEAV?$vector@PEBVString@@V?$allocator@PEBVString@@@std@@@std@@@std@@@3@@tr1@std@@U?$hash@VSString@@@4@U?$equal_to@VSString@@@4@V?$allocator@U?$pair@$$CBVSString@@PEAV?$unordered_map@VSString@@PEAV?$vector@PEBVString@@V?$allocator@PEBVString@@@std@@@std@@U?$hash@VSString@@@3@U?$equal_to@VSString@@@3@V?$allocator@U?$pair@$$CBVSString@@PEAV?$vector@PEBVString@@V?$allocator@PEBVString@@@std@@@std@@@std@@@3@@tr1@std@@@std@@@4@@tr1@std@@QEAA@XZ 0000000180030940 f i colorer_lib:ParserFactory.cpp.obj
 0001:0002f940       ??1?$unordered_map@VSString@@PEAVSchemeImpl@@U?$hash@VSString@@@std@@U?$equal_to@VSString@@@4@V?$allocator@U?$pair@$$CBVSString@@PEAVSchemeImpl@@@std@@@4@@tr1@std@@QEAA@XZ 0000000180030940 f i colorer_lib:HRCParserImpl.cpp.obj
 0001:0002f940       ??1?$unordered_map@VSString@@HU?$hash@VSString@@@std@@U?$equal_to@VSString@@@3@V?$allocator@U?$pair@$$CBVSString@@H@std@@@3@@tr1@std@@QEAA@XZ 0000000180030940 f i colorer_lib:HRCParserImpl.cpp.obj
 0001:0002f940       ??1?$unordered_map@VSString@@PEAVTypeParameter@@U?$hash@VSString@@@std@@U?$equal_to@VSString@@@4@V?$allocator@U?$pair@$$CBVSString@@PEAVTypeParameter@@@std@@@4@@tr1@std@@QEAA@XZ 0000000180030940 f i colorer_lib:FileTypeImpl.cpp.obj
 0001:0002f940       ??1?$unordered_map@VSString@@PEBVRegion@@U?$hash@VSString@@@std@@U?$equal_to@VSString@@@4@V?$allocator@U?$pair@$$CBVSString@@PEBVRegion@@@std@@@4@@tr1@std@@QEAA@XZ 0000000180030940 f i colorer_lib:HRCParserImpl.cpp.obj
 0001:0002f940       ??1?$unordered_map@VSString@@PEBVString@@U?$hash@VSString@@@std@@U?$equal_to@VSString@@@4@V?$allocator@U?$pair@$$CBVSString@@PEBVString@@@std@@@4@@tr1@std@@QEAA@XZ 0000000180030940 f i colorer_lib:ParserFactory.cpp.obj
 0001:0002f940       ??1?$unordered_map@VSString@@PEAVString@@U?$hash@VSString@@@std@@U?$equal_to@VSString@@@4@V?$allocator@U?$pair@$$CBVSString@@PEAVString@@@std@@@4@@tr1@std@@QEAA@XZ 0000000180030940 f i colorer_lib:HRCParserImpl.cpp.obj
 0001:0002f990       ??1HRCParserImpl@@UEAA@XZ  0000000180030990 f   colorer_lib:HRCParserImpl.cpp.obj
 0001:0002fc30       ?setErrorHandler@HRCParserImpl@@UEAAXPEAVErrorHandler@colorer@@@Z 0000000180030c30 f   colorer_lib:HRCParserImpl.cpp.obj
 0001:0002fc40       ?loadSource@HRCParserImpl@@UEAAXPEAVXmlInputSource@@@Z 0000000180030c40 f   colorer_lib:HRCParserImpl.cpp.obj
 0001:0002fd10       ?unloadFileType@HRCParserImpl@@IEAAXPEAVFileTypeImpl@@@Z 0000000180030d10 f   colorer_lib:HRCParserImpl.cpp.obj
 0001:00030240       ?loadFileType@HRCParserImpl@@IEAAXPEAVFileType@@@Z 0000000180031240 f   colorer_lib:HRCParserImpl.cpp.obj
 0001:00030290       ?chooseFileType@HRCParserImpl@@UEAAPEAVFileType@@PEBVString@@0H@Z 0000000180031290 f   colorer_lib:HRCParserImpl.cpp.obj
 0001:000303a0       ?getFileType@HRCParserImpl@@UEAAPEAVFileType@@PEBVString@@@Z 00000001800313a0 f   colorer_lib:HRCParserImpl.cpp.obj
 0001:000306b0       ?enumerateFileTypes@HRCParserImpl@@UEAAPEAVFileType@@H@Z 00000001800316b0 f   colorer_lib:HRCParserImpl.cpp.obj
 0001:000306d0       ?getFileTypesCount@HRCParserImpl@@UEAA_KXZ 00000001800316d0 f   colorer_lib:HRCParserImpl.cpp.obj
 0001:000306e0       ?getRegionCount@HRCParserImpl@@UEAA_KXZ 00000001800316e0 f   colorer_lib:HRCParserImpl.cpp.obj
 0001:00030700       ?getRegion@HRCParserImpl@@UEAAPEBVRegion@@H@Z 0000000180031700 f   colorer_lib:HRCParserImpl.cpp.obj
 0001:00030730       ?getRegion@HRCParserImpl@@UEAAPEBVRegion@@PEBVString@@@Z 0000000180031730 f   colorer_lib:HRCParserImpl.cpp.obj
 0001:00030740       ?getVersion@HRCParserImpl@@UEAAPEBVString@@XZ 0000000180031740 f   colorer_lib:HRCParserImpl.cpp.obj
 0001:00030750       ?parseHRC@HRCParserImpl@@IEAAXPEAVXmlInputSource@@@Z 0000000180031750 f   colorer_lib:HRCParserImpl.cpp.obj
 0001:00030c20       ??0HRCParserException@@QEAA@AEBV0@@Z 0000000180031c20 f i colorer_lib:HRCParserImpl.cpp.obj
 0001:00030c50       ?parseHrcBlock@HRCParserImpl@@IEAAXPEBVDOMElement@xercesc_3_1@@@Z 0000000180031c50 f   colorer_lib:HRCParserImpl.cpp.obj
 0001:00030cf0       ?parseHrcBlockElements@HRCParserImpl@@IEAAXPEBVDOMElement@xercesc_3_1@@@Z 0000000180031cf0 f   colorer_lib:HRCParserImpl.cpp.obj
 0001:00031200       ?addPrototype@HRCParserImpl@@IEAAXPEBVDOMElement@xercesc_3_1@@@Z 0000000180032200 f   colorer_lib:HRCParserImpl.cpp.obj
 0001:00031f50       ?parsePrototypeBlock@HRCParserImpl@@IEAAXPEBVDOMElement@xercesc_3_1@@@Z 0000000180032f50 f   colorer_lib:HRCParserImpl.cpp.obj
 0001:00032150       ?addPrototypeLocation@HRCParserImpl@@IEAAXPEBVDOMElement@xercesc_3_1@@@Z 0000000180033150 f   colorer_lib:HRCParserImpl.cpp.obj
 0001:00032260       ?addPrototypeDetectParam@HRCParserImpl@@IEAAXPEBVDOMElement@xercesc_3_1@@@Z 0000000180033260 f   colorer_lib:HRCParserImpl.cpp.obj
 0001:00032820       ?addPrototypeParameters@HRCParserImpl@@IEAAXPEBVDOMElement@xercesc_3_1@@@Z 0000000180033820 f   colorer_lib:HRCParserImpl.cpp.obj
 0001:00033060       ?addType@HRCParserImpl@@IEAAXPEBVDOMElement@xercesc_3_1@@@Z 0000000180034060 f   colorer_lib:HRCParserImpl.cpp.obj
 0001:00033b50       ?parseTypeBlock@HRCParserImpl@@IEAAXPEBVDOMElement@xercesc_3_1@@@Z 0000000180034b50 f   colorer_lib:HRCParserImpl.cpp.obj
 0001:00033de0       ?addTypeRegion@HRCParserImpl@@IEAAXPEBVDOMElement@xercesc_3_1@@@Z 0000000180034de0 f   colorer_lib:HRCParserImpl.cpp.obj
 0001:00034830       ??1?$pair@VSString@@PEAVFileTypeImpl@@@std@@QEAA@XZ 0000000180035830 f i colorer_lib:HRCParserImpl.cpp.obj
 0001:00034830       ??1?$pair@VSString@@PEAV?$vector@PEBVString@@V?$allocator@PEBVString@@@std@@@std@@@std@@QEAA@XZ 0000000180035830 f i colorer_lib:ParserFactory.cpp.obj
 0001:00034830       ??1?$pair@VSString@@PEAVSharedXmlInputSource@@@std@@QEAA@XZ 0000000180035830 f i colorer_lib:SharedXmlInputSource.cpp.obj
 0001:00034830       ??1SString@@UEAA@XZ        0000000180035830 f i colorer_lib:SString.cpp.obj
 0001:00034830       ??1?$pair@VSString@@PEAVRegionDefine@@@std@@QEAA@XZ 0000000180035830 f i colorer_lib:StyledHRDMapper.cpp.obj
 0001:00034830       ??1?$pair@VSString@@PEBVString@@@std@@QEAA@XZ 0000000180035830 f i colorer_lib:ParserFactory.cpp.obj
 0001:00034830       ??1StringBuffer@@UEAA@XZ   0000000180035830 f i colorer_lib:StringBuffer.cpp.obj
 0001:00034830       ??1?$pair@VSString@@PEAVSharedInputSource@@@std@@QEAA@XZ 0000000180035830 f i colorer_lib:SharedInputSource.cpp.obj
 0001:00034830       ??1?$pair@VSString@@PEAVTypeParameter@@@std@@QEAA@XZ 0000000180035830 f i colorer_lib:FileTypeImpl.cpp.obj
 0001:00034830       ??1?$pair@VSString@@PEAV?$unordered_map@VSString@@PEAV?$vector@PEBVString@@V?$allocator@PEBVString@@@std@@@std@@U?$hash@VSString@@@3@U?$equal_to@VSString@@@3@V?$allocator@U?$pair@$$CBVSString@@PEAV?$vector@PEBVString@@V?$allocator@PEBVString@@@std@@@std@@@std@@@3@@tr1@std@@@std@@QEAA@XZ 0000000180035830 f i colorer_lib:ParserFactory.cpp.obj
 0001:00034830       ??1?$pair@VSString@@PEAVFarEditor@@@std@@QEAA@XZ 0000000180035830 f i FarEditorSet.cpp.obj
 0001:00034830       ??1?$pair@VSString@@PEAVString@@@std@@QEAA@XZ 0000000180035830 f i colorer_lib:HRCParserImpl.cpp.obj
 0001:00034830       ??1?$pair@VSString@@PEBVRegion@@@std@@QEAA@XZ 0000000180035830 f i colorer_lib:HRCParserImpl.cpp.obj
 0001:00034830       ??1?$pair@VSString@@PEAVSchemeImpl@@@std@@QEAA@XZ 0000000180035830 f i colorer_lib:HRCParserImpl.cpp.obj
 0001:00034890       ?addTypeEntity@HRCParserImpl@@IEAAXPEBVDOMElement@xercesc_3_1@@@Z 0000000180035890 f   colorer_lib:HRCParserImpl.cpp.obj
 0001:00034cb0       ?addTypeImport@HRCParserImpl@@IEAAXPEBVDOMElement@xercesc_3_1@@@Z 0000000180035cb0 f   colorer_lib:HRCParserImpl.cpp.obj
 0001:00035440       ?addScheme@HRCParserImpl@@IEAAXPEBVDOMElement@xercesc_3_1@@@Z 0000000180036440 f   colorer_lib:HRCParserImpl.cpp.obj
 0001:00036190       ?parseSchemeBlock@HRCParserImpl@@IEAAXPEAVSchemeImpl@@PEBVDOMElement@xercesc_3_1@@@Z 0000000180037190 f   colorer_lib:HRCParserImpl.cpp.obj
 0001:00036450       ?addSchemeInherit@HRCParserImpl@@IEAAXPEAVSchemeImpl@@PEBVDOMElement@xercesc_3_1@@@Z 0000000180037450 f   colorer_lib:HRCParserImpl.cpp.obj
 0001:00036f10       ?addSchemeRegexp@HRCParserImpl@@IEAAXPEAVSchemeImpl@@PEBVDOMElement@xercesc_3_1@@@Z 0000000180037f10 f   colorer_lib:HRCParserImpl.cpp.obj
 0001:00037790       ?addSchemeBlock@HRCParserImpl@@IEAAXPEAVSchemeImpl@@PEBVDOMElement@xercesc_3_1@@@Z 0000000180038790 f   colorer_lib:HRCParserImpl.cpp.obj
 0001:000389a0       ?addSchemeKeywords@HRCParserImpl@@IEAAXPEAVSchemeImpl@@PEBVDOMElement@xercesc_3_1@@@Z 00000001800399a0 f   colorer_lib:HRCParserImpl.cpp.obj
 0001:00039080       ?addKeyword@HRCParserImpl@@IEAAXPEAVSchemeNode@@PEBVRegion@@PEBVDOMElement@xercesc_3_1@@@Z 000000018003a080 f   colorer_lib:HRCParserImpl.cpp.obj
 0001:00039560       ?getSchemeKeywordsCount@HRCParserImpl@@IEAAHPEBVDOMElement@xercesc_3_1@@@Z 000000018003a560 f   colorer_lib:HRCParserImpl.cpp.obj
 0001:000396b0       ?loadRegions@HRCParserImpl@@IEAAXPEAVSchemeNode@@PEBVDOMElement@xercesc_3_1@@_N@Z 000000018003a6b0 f   colorer_lib:HRCParserImpl.cpp.obj
 0001:00039950       ?loadBlockRegions@HRCParserImpl@@IEAAXPEAVSchemeNode@@PEBVDOMElement@xercesc_3_1@@@Z 000000018003a950 f   colorer_lib:HRCParserImpl.cpp.obj
 0001:00039bb0       ?updateLinks@HRCParserImpl@@IEAAXXZ 000000018003abb0 f   colorer_lib:HRCParserImpl.cpp.obj
 0001:0003adc0       ?qualifyOwnName@HRCParserImpl@@IEAAPEAVString@@PEBV2@@Z 000000018003bdc0 f   colorer_lib:HRCParserImpl.cpp.obj
 0001:0003b230       ?checkNameExist@HRCParserImpl@@IEAA_NPEBVString@@PEAVFileTypeImpl@@W4QualifyNameType@1@_N@Z 000000018003c230 f   colorer_lib:HRCParserImpl.cpp.obj
 0001:0003bdc0       ?qualifyForeignName@HRCParserImpl@@IEAAPEAVString@@PEBV2@W4QualifyNameType@1@_N@Z 000000018003cdc0 f   colorer_lib:HRCParserImpl.cpp.obj
 0001:0003cd50       ?useEntities@HRCParserImpl@@IEAAPEAVString@@PEBV2@@Z 000000018003dd50 f   colorer_lib:HRCParserImpl.cpp.obj
 0001:0003d350       ?getNCRegion@HRCParserImpl@@IEAAPEBVRegion@@PEBVString@@_N@Z 000000018003e350 f   colorer_lib:HRCParserImpl.cpp.obj
 0001:0003d770       ?getNCRegion@HRCParserImpl@@IEAAPEBVRegion@@PEBVDOMElement@xercesc_3_1@@AEBVString@@@Z 000000018003e770 f   colorer_lib:HRCParserImpl.cpp.obj
 0001:0003d870       ?rehash@?$_Hash@V?$_Umap_traits@VSString@@PEAVSchemeImpl@@V?$_Hash_compare@VSString@@U?$hash@VSString@@@std@@U?$equal_to@VSString@@@3@@std@@V?$allocator@U?$pair@$$CBVSString@@PEAVSchemeImpl@@@std@@@4@$0A@@tr1@std@@@std@@QEAAX_K@Z 000000018003e870 f i colorer_lib:HRCParserImpl.cpp.obj
 0001:0003d870       ?rehash@?$_Hash@V?$_Umap_traits@VSString@@PEAVFileTypeImpl@@V?$_Hash_compare@VSString@@U?$hash@VSString@@@std@@U?$equal_to@VSString@@@3@@std@@V?$allocator@U?$pair@$$CBVSString@@PEAVFileTypeImpl@@@std@@@4@$0A@@tr1@std@@@std@@QEAAX_K@Z 000000018003e870 f i colorer_lib:HRCParserImpl.cpp.obj
 0001:0003d940       ??0?$unordered_map@VSString@@HU?$hash@VSString@@@std@@U?$equal_to@VSString@@@3@V?$allocator@U?$pair@$$CBVSString@@H@std@@@3@@tr1@std@@QEAA@XZ 000000018003e940 f i colorer_lib:HRCParserImpl.cpp.obj
 0001:0003d9f0       ?rehash@?$_Hash@V?$_Umap_traits@VSString@@PEBVRegion@@V?$_Hash_compare@VSString@@U?$hash@VSString@@@std@@U?$equal_to@VSString@@@3@@std@@V?$allocator@U?$pair@$$CBVSString@@PEBVRegion@@@std@@@4@$0A@@tr1@std@@@std@@QEAAX_K@Z 000000018003e9f0 f i colorer_lib:HRCParserImpl.cpp.obj
 0001:0003dac0       ?_Reinsert@?$_Hash@V?$_Umap_traits@VSString@@PEAVFileTypeImpl@@V?$_Hash_compare@VSString@@U?$hash@VSString@@@std@@U?$equal_to@VSString@@@3@@std@@V?$allocator@U?$pair@$$CBVSString@@PEAVFileTypeImpl@@@std@@@4@$0A@@tr1@std@@@std@@IEAAXV?$_List_iterator@V?$_List_val@U?$pair@$$CBVSString@@PEAVFileTypeImpl@@@std@@V?$allocator@U?$pair@$$CBVSString@@PEAVFileTypeImpl@@@std@@@2@@std@@@2@@Z 000000018003eac0 f i colorer_lib:HRCParserImpl.cpp.obj
 0001:0003dac0       ?_Reinsert@?$_Hash@V?$_Umap_traits@VSString@@PEAVSchemeImpl@@V?$_Hash_compare@VSString@@U?$hash@VSString@@@std@@U?$equal_to@VSString@@@3@@std@@V?$allocator@U?$pair@$$CBVSString@@PEAVSchemeImpl@@@std@@@4@$0A@@tr1@std@@@std@@IEAAXV?$_List_iterator@V?$_List_val@U?$pair@$$CBVSString@@PEAVSchemeImpl@@@std@@V?$allocator@U?$pair@$$CBVSString@@PEAVSchemeImpl@@@std@@@2@@std@@@2@@Z 000000018003eac0 f i colorer_lib:HRCParserImpl.cpp.obj
 0001:0003db30       ?_Reinsert@?$_Hash@V?$_Umap_traits@VSString@@PEBVRegion@@V?$_Hash_compare@VSString@@U?$hash@VSString@@@std@@U?$equal_to@VSString@@@3@@std@@V?$allocator@U?$pair@$$CBVSString@@PEBVRegion@@@std@@@4@$0A@@tr1@std@@@std@@IEAAXV?$_List_iterator@V?$_List_val@U?$pair@$$CBVSString@@PEBVRegion@@@std@@V?$allocator@U?$pair@$$CBVSString@@PEBVRegion@@@std@@@2@@std@@@2@@Z 000000018003eb30 f i colorer_lib:HRCParserImpl.cpp.obj
 0001:0003dba0       ??0?$list@U?$pair@$$CBVSString@@H@std@@V?$allocator@U?$pair@$$CBVSString@@H@std@@@2@@std@@QEAA@AEBV?$allocator@U?$pair@$$CBVSString@@H@std@@@1@@Z 000000018003eba0 f i colorer_lib:HRCParserImpl.cpp.obj
 0001:0003dba0       ??0?$list@U?$pair@$$CBVSString@@PEAVFileTypeImpl@@@std@@V?$allocator@U?$pair@$$CBVSString@@PEAVFileTypeImpl@@@std@@@2@@std@@QEAA@AEBV?$allocator@U?$pair@$$CBVSString@@PEAVFileTypeImpl@@@std@@@1@@Z 000000018003eba0 f i colorer_lib:HRCParserImpl.cpp.obj
 0001:0003dba0       ??0?$list@U?$pair@$$CBVSString@@PEBVString@@@std@@V?$allocator@U?$pair@$$CBVSString@@PEBVString@@@std@@@2@@std@@QEAA@AEBV?$allocator@U?$pair@$$CBVSString@@PEBVString@@@std@@@1@@Z 000000018003eba0 f i colorer_lib:ParserFactory.cpp.obj
 0001:0003dba0       ??0?$list@U?$pair@$$CBVSString@@PEAV?$vector@PEBVString@@V?$allocator@PEBVString@@@std@@@std@@@std@@V?$allocator@U?$pair@$$CBVSString@@PEAV?$vector@PEBVString@@V?$allocator@PEBVString@@@std@@@std@@@std@@@2@@std@@QEAA@AEBV?$allocator@U?$pair@$$CBVSString@@PEAV?$vector@PEBVString@@V?$allocator@PEBVString@@@std@@@std@@@std@@@1@@Z 000000018003eba0 f i colorer_lib:ParserFactory.cpp.obj
 0001:0003dba0       ??0?$list@U?$pair@$$CBVSString@@PEAVRegionDefine@@@std@@V?$allocator@U?$pair@$$CBVSString@@PEAVRegionDefine@@@std@@@2@@std@@QEAA@AEBV?$allocator@U?$pair@$$CBVSString@@PEAVRegionDefine@@@std@@@1@@Z 000000018003eba0 f i colorer_lib:StyledHRDMapper.cpp.obj
 0001:0003dba0       ??0?$list@U?$pair@$$CBVSString@@PEAVSharedInputSource@@@std@@V?$allocator@U?$pair@$$CBVSString@@PEAVSharedInputSource@@@std@@@2@@std@@QEAA@AEBV?$allocator@U?$pair@$$CBVSString@@PEAVSharedInputSource@@@std@@@1@@Z 000000018003eba0 f i colorer_lib:SharedInputSource.cpp.obj
 0001:0003dba0       ??0?$list@U?$pair@$$CBVSString@@PEAVString@@@std@@V?$allocator@U?$pair@$$CBVSString@@PEAVString@@@std@@@2@@std@@QEAA@AEBV?$allocator@U?$pair@$$CBVSString@@PEAVString@@@std@@@1@@Z 000000018003eba0 f i colorer_lib:HRCParserImpl.cpp.obj
 0001:0003dba0       ??0?$list@U?$pair@$$CBVSString@@PEBVRegion@@@std@@V?$allocator@U?$pair@$$CBVSString@@PEBVRegion@@@std@@@2@@std@@QEAA@AEBV?$allocator@U?$pair@$$CBVSString@@PEBVRegion@@@std@@@1@@Z 000000018003eba0 f i colorer_lib:HRCParserImpl.cpp.obj
 0001:0003dba0       ??0?$list@U?$pair@$$CBVSString@@PEAVTypeParameter@@@std@@V?$allocator@U?$pair@$$CBVSString@@PEAVTypeParameter@@@std@@@2@@std@@QEAA@AEBV?$allocator@U?$pair@$$CBVSString@@PEAVTypeParameter@@@std@@@1@@Z 000000018003eba0 f i colorer_lib:FileTypeImpl.cpp.obj
 0001:0003dba0       ??0?$list@U?$pair@$$CBVSString@@PEAVSharedXmlInputSource@@@std@@V?$allocator@U?$pair@$$CBVSString@@PEAVSharedXmlInputSource@@@std@@@2@@std@@QEAA@AEBV?$allocator@U?$pair@$$CBVSString@@PEAVSharedXmlInputSource@@@std@@@1@@Z 000000018003eba0 f i colorer_lib:SharedXmlInputSource.cpp.obj
 0001:0003dba0       ??0?$list@U?$pair@$$CBVSString@@PEAV?$unordered_map@VSString@@PEAV?$vector@PEBVString@@V?$allocator@PEBVString@@@std@@@std@@U?$hash@VSString@@@3@U?$equal_to@VSString@@@3@V?$allocator@U?$pair@$$CBVSString@@PEAV?$vector@PEBVString@@V?$allocator@PEBVString@@@std@@@std@@@std@@@3@@tr1@std@@@std@@V?$allocator@U?$pair@$$CBVSString@@PEAV?$unordered_map@VSString@@PEAV?$vector@PEBVString@@V?$allocator@PEBVString@@@std@@@std@@U?$hash@VSString@@@3@U?$equal_to@VSString@@@3@V?$allocator@U?$pair@$$CBVSString@@PEAV?$vector@PEBVString@@V?$allocator@PEBVString@@@std@@@std@@@std@@@3@@tr1@std@@@std@@@2@@std@@QEAA@AEBV?$allocator@U?$pair@$$CBVSString@@PEAV?$unordered_map@VSString@@PEAV?$vector@PEBVString@@V?$allocator@PEBVString@@@std@@@std@@U?$hash@VSString@@@3@U?$equal_to@VSString@@@3@V?$allocator@U?$pair@$$CBVSString@@PEAV?$vector@PEBVString@@V?$allocator@PEBVString@@@std@@@std@@@std@@@3@@tr1@std@@@std@@@1@@Z 000000018003eba0 f i colorer_lib:ParserFactory.cpp.obj
 0001:0003dba0       ??0?$list@U?$pair@$$CBVSString@@PEAVFarEditor@@@std@@V?$allocator@U?$pair@$$CBVSString@@PEAVFarEditor@@@std@@@2@@std@@QEAA@AEBV?$allocator@U?$pair@$$CBVSString@@PEAVFarEditor@@@std@@@1@@Z 000000018003eba0 f i FarEditorSet.cpp.obj
 0001:0003dba0       ??0?$list@U?$pair@$$CBVSString@@PEAVSchemeImpl@@@std@@V?$allocator@U?$pair@$$CBVSString@@PEAVSchemeImpl@@@std@@@2@@std@@QEAA@AEBV?$allocator@U?$pair@$$CBVSString@@PEAVSchemeImpl@@@std@@@1@@Z 000000018003eba0 f i colorer_lib:HRCParserImpl.cpp.obj
 0001:0003dc20       ?_Insert@?$_Hash@V?$_Umap_traits@VSString@@PEBVRegion@@V?$_Hash_compare@VSString@@U?$hash@VSString@@@std@@U?$equal_to@VSString@@@3@@std@@V?$allocator@U?$pair@$$CBVSString@@PEBVRegion@@@std@@@4@$0A@@tr1@std@@@std@@IEAA?AU?$pair@V?$_List_iterator@V?$_List_val@U?$pair@$$CBVSString@@PEBVRegion@@@std@@V?$allocator@U?$pair@$$CBVSString@@PEBVRegion@@@std@@@2@@std@@@std@@_N@2@AEBU?$pair@$$CBVSString@@PEBVRegion@@@2@V?$_List_iterator@V?$_List_val@U?$pair@$$CBVSString@@PEBVRegion@@@std@@V?$allocator@U?$pair@$$CBVSString@@PEBVRegion@@@std@@@2@@std@@@2@@Z 000000018003ec20 f i colorer_lib:HRCParserImpl.cpp.obj
 0001:0003de00       ?_Check_size@?$_Hash@V?$_Umap_traits@VSString@@PEBVRegion@@V?$_Hash_compare@VSString@@U?$hash@VSString@@@std@@U?$equal_to@VSString@@@3@@std@@V?$allocator@U?$pair@$$CBVSString@@PEBVRegion@@@std@@@4@$0A@@tr1@std@@@std@@IEAAXXZ 000000018003ee00 f i colorer_lib:HRCParserImpl.cpp.obj
 0001:0003df10       ?_Insert_n@?$vector@V?$_List_iterator@V?$_List_val@U?$pair@$$CBVSString@@H@std@@V?$allocator@U?$pair@$$CBVSString@@H@std@@@2@@std@@@std@@V?$allocator@V?$_List_iterator@V?$_List_val@U?$pair@$$CBVSString@@H@std@@V?$allocator@U?$pair@$$CBVSString@@H@std@@@2@@std@@@std@@@2@@std@@IEAAXV?$_Vector_const_iterator@V?$_Vector_val@V?$_List_iterator@V?$_List_val@U?$pair@$$CBVSString@@H@std@@V?$allocator@U?$pair@$$CBVSString@@H@std@@@2@@std@@@std@@V?$allocator@V?$_List_iterator@V?$_List_val@U?$pair@$$CBVSString@@H@std@@V?$allocator@U?$pair@$$CBVSString@@H@std@@@2@@std@@@std@@@2@@std@@@2@_KAEBV?$_List_iterator@V?$_List_val@U?$pair@$$CBVSString@@H@std@@V?$allocator@U?$pair@$$CBVSString@@H@std@@@2@@std@@@2@@Z 000000018003ef10 f i colorer_lib:HRCParserImpl.cpp.obj
 0001:0003e140       ??$?0AEAPEAVString@@AEAPEAVSchemeImpl@@@?$_Pair_base@VSString@@PEAVSchemeImpl@@@std@@QEAA@AEAPEAVString@@AEAPEAVSchemeImpl@@@Z 000000018003f140 f i colorer_lib:HRCParserImpl.cpp.obj
 0001:0003e140       ??$?0PEAVStringBuffer@@AEAPEBVString@@@?$_Pair_base@VSString@@PEBVString@@@std@@QEAA@$$QEAPEAVStringBuffer@@AEAPEBVString@@@Z 000000018003f140 f i colorer_lib:ParserFactory.cpp.obj
 0001:0003e140       ??$?0AEAPEAVString@@AEAPEAVFileTypeImpl@@@?$_Pair_base@VSString@@PEAVFileTypeImpl@@@std@@QEAA@AEAPEAVString@@AEAPEAVFileTypeImpl@@@Z 000000018003f140 f i colorer_lib:HRCParserImpl.cpp.obj
 0001:0003e280       ??$_Uninit_move@PEAV?$_List_iterator@V?$_List_val@U?$pair@$$CBVSString@@PEAVSharedInputSource@@@std@@V?$allocator@U?$pair@$$CBVSString@@PEAVSharedInputSource@@@std@@@2@@std@@@std@@PEAV12@V?$allocator@V?$_List_iterator@V?$_List_val@U?$pair@$$CBVSString@@PEAVSharedInputSource@@@std@@V?$allocator@U?$pair@$$CBVSString@@PEAVSharedInputSource@@@std@@@2@@std@@@std@@@2@V12@@std@@YAPEAV?$_List_iterator@V?$_List_val@U?$pair@$$CBVSString@@PEAVSharedInputSource@@@std@@V?$allocator@U?$pair@$$CBVSString@@PEAVSharedInputSource@@@std@@@2@@std@@@0@PEAV10@00AEAV?$allocator@V?$_List_iterator@V?$_List_val@U?$pair@$$CBVSString@@PEAVSharedInputSource@@@std@@V?$allocator@U?$pair@$$CBVSString@@PEAVSharedInputSource@@@std@@@2@@std@@@std@@@0@0U_Nonscalar_ptr_iterator_tag@0@@Z 000000018003f280 f i colorer_lib:SharedInputSource.cpp.obj
 0001:0003e280       ??$_Uninit_move@PEAV?$_List_iterator@V?$_List_val@U?$pair@$$CBVSString@@PEAV?$vector@PEBVString@@V?$allocator@PEBVString@@@std@@@std@@@std@@V?$allocator@U?$pair@$$CBVSString@@PEAV?$vector@PEBVString@@V?$allocator@PEBVString@@@std@@@std@@@std@@@2@@std@@@std@@PEAV12@V?$allocator@V?$_List_iterator@V?$_List_val@U?$pair@$$CBVSString@@PEAV?$vector@PEBVString@@V?$allocator@PEBVString@@@std@@@std@@@std@@V?$allocator@U?$pair@$$CBVSString@@PEAV?$vector@PEBVString@@V?$allocator@PEBVString@@@std@@@std@@@std@@@2@@std@@@std@@@2@V12@@std@@YAPEAV?$_List_iterator@V?$_List_val@U?$pair@$$CBVSString@@PEAV?$vector@PEBVString@@V?$allocator@PEBVString@@@std@@@std@@@std@@V?$allocator@U?$pair@$$CBVSString@@PEAV?$vector@PEBVString@@V?$allocator@PEBVString@@@std@@@std@@@std@@@2@@std@@@0@PEAV10@00AEAV?$allocator@V?$_List_iterator@V?$_List_val@U?$pair@$$CBVSString@@PEAV?$vector@PEBVString@@V?$allocator@PEBVString@@@std@@@std@@@std@@V?$allocator@U?$pair@$$CBVSString@@PEAV?$vector@PEBVString@@V?$allocator@PEBVString@@@std@@@std@@@std@@@2@@std@@@std@@@0@0U_Nonscalar_ptr_iterator_tag@0@@Z 000000018003f280 f i colorer_lib:ParserFactory.cpp.obj
 0001:0003e280       ??$_Uninit_move@PEAV?$_List_iterator@V?$_List_val@U?$pair@$$CBVSString@@PEBVRegion@@@std@@V?$allocator@U?$pair@$$CBVSString@@PEBVRegion@@@std@@@2@@std@@@std@@PEAV12@V?$allocator@V?$_List_iterator@V?$_List_val@U?$pair@$$CBVSString@@PEBVRegion@@@std@@V?$allocator@U?$pair@$$CBVSString@@PEBVRegion@@@std@@@2@@std@@@std@@@2@V12@@std@@YAPEAV?$_List_iterator@V?$_List_val@U?$pair@$$CBVSString@@PEBVRegion@@@std@@V?$allocator@U?$pair@$$CBVSString@@PEBVRegion@@@std@@@2@@std@@@0@PEAV10@00AEAV?$allocator@V?$_List_iterator@V?$_List_val@U?$pair@$$CBVSString@@PEBVRegion@@@std@@V?$allocator@U?$pair@$$CBVSString@@PEBVRegion@@@std@@@2@@std@@@std@@@0@0U_Nonscalar_ptr_iterator_tag@0@@Z 000000018003f280 f i colorer_lib:HRCParserImpl.cpp.obj
 0001:0003e280       ??$_Uninit_move@PEAV?$_List_iterator@V?$_List_val@U?$pair@$$CBVSString@@PEAVSchemeImpl@@@std@@V?$allocator@U?$pair@$$CBVSString@@PEAVSchemeImpl@@@std@@@2@@std@@@std@@PEAV12@V?$allocator@V?$_List_iterator@V?$_List_val@U?$pair@$$CBVSString@@PEAVSchemeImpl@@@std@@V?$allocator@U?$pair@$$CBVSString@@PEAVSchemeImpl@@@std@@@2@@std@@@std@@@2@V12@@std@@YAPEAV?$_List_iterator@V?$_List_val@U?$pair@$$CBVSString@@PEAVSchemeImpl@@@std@@V?$allocator@U?$pair@$$CBVSString@@PEAVSchemeImpl@@@std@@@2@@std@@@0@PEAV10@00AEAV?$allocator@V?$_List_iterator@V?$_List_val@U?$pair@$$CBVSString@@PEAVSchemeImpl@@@std@@V?$allocator@U?$pair@$$CBVSString@@PEAVSchemeImpl@@@std@@@2@@std@@@std@@@0@0U_Nonscalar_ptr_iterator_tag@0@@Z 000000018003f280 f i colorer_lib:HRCParserImpl.cpp.obj
 0001:0003e280       ??$_Uninit_move@PEAV?$_List_iterator@V?$_List_val@U?$pair@$$CBVSString@@PEAVString@@@std@@V?$allocator@U?$pair@$$CBVSString@@PEAVString@@@std@@@2@@std@@@std@@PEAV12@V?$allocator@V?$_List_iterator@V?$_List_val@U?$pair@$$CBVSString@@PEAVString@@@std@@V?$allocator@U?$pair@$$CBVSString@@PEAVString@@@std@@@2@@std@@@std@@@2@V12@@std@@YAPEAV?$_List_iterator@V?$_List_val@U?$pair@$$CBVSString@@PEAVString@@@std@@V?$allocator@U?$pair@$$CBVSString@@PEAVString@@@std@@@2@@std@@@0@PEAV10@00AEAV?$allocator@V?$_List_iterator@V?$_List_val@U?$pair@$$CBVSString@@PEAVString@@@std@@V?$allocator@U?$pair@$$CBVSString@@PEAVString@@@std@@@2@@std@@@std@@@0@0U_Nonscalar_ptr_iterator_tag@0@@Z 000000018003f280 f i colorer_lib:HRCParserImpl.cpp.obj
 0001:0003e280       ??$_Uninit_move@PEAV?$_List_iterator@V?$_List_val@U?$pair@$$CBVSString@@H@std@@V?$allocator@U?$pair@$$CBVSString@@H@std@@@2@@std@@@std@@PEAV12@V?$allocator@V?$_List_iterator@V?$_List_val@U?$pair@$$CBVSString@@H@std@@V?$allocator@U?$pair@$$CBVSString@@H@std@@@2@@std@@@std@@@2@V12@@std@@YAPEAV?$_List_iterator@V?$_List_val@U?$pair@$$CBVSString@@H@std@@V?$allocator@U?$pair@$$CBVSString@@H@std@@@2@@std@@@0@PEAV10@00AEAV?$allocator@V?$_List_iterator@V?$_List_val@U?$pair@$$CBVSString@@H@std@@V?$allocator@U?$pair@$$CBVSString@@H@std@@@2@@std@@@std@@@0@0U_Nonscalar_ptr_iterator_tag@0@@Z 000000018003f280 f i colorer_lib:HRCParserImpl.cpp.obj
 0001:0003e280       ??$_Uninit_move@PEAV?$_List_iterator@V?$_List_val@U?$pair@$$CBVSString@@PEAVFarEditor@@@std@@V?$allocator@U?$pair@$$CBVSString@@PEAVFarEditor@@@std@@@2@@std@@@std@@PEAV12@V?$allocator@V?$_List_iterator@V?$_List_val@U?$pair@$$CBVSString@@PEAVFarEditor@@@std@@V?$allocator@U?$pair@$$CBVSString@@PEAVFarEditor@@@std@@@2@@std@@@std@@@2@V12@@std@@YAPEAV?$_List_iterator@V?$_List_val@U?$pair@$$CBVSString@@PEAVFarEditor@@@std@@V?$allocator@U?$pair@$$CBVSString@@PEAVFarEditor@@@std@@@2@@std@@@0@PEAV10@00AEAV?$allocator@V?$_List_iterator@V?$_List_val@U?$pair@$$CBVSString@@PEAVFarEditor@@@std@@V?$allocator@U?$pair@$$CBVSString@@PEAVFarEditor@@@std@@@2@@std@@@std@@@0@0U_Nonscalar_ptr_iterator_tag@0@@Z 000000018003f280 f i FarEditorSet.cpp.obj
 0001:0003e280       ??$_Uninit_move@PEAV?$_List_iterator@V?$_List_val@U?$pair@$$CBVSString@@PEAVSharedXmlInputSource@@@std@@V?$allocator@U?$pair@$$CBVSString@@PEAVSharedXmlInputSource@@@std@@@2@@std@@@std@@PEAV12@V?$allocator@V?$_List_iterator@V?$_List_val@U?$pair@$$CBVSString@@PEAVSharedXmlInputSource@@@std@@V?$allocator@U?$pair@$$CBVSString@@PEAVSharedXmlInputSource@@@std@@@2@@std@@@std@@@2@V12@@std@@YAPEAV?$_List_iterator@V?$_List_val@U?$pair@$$CBVSString@@PEAVSharedXmlInputSource@@@std@@V?$allocator@U?$pair@$$CBVSString@@PEAVSharedXmlInputSource@@@std@@@2@@std@@@0@PEAV10@00AEAV?$allocator@V?$_List_iterator@V?$_List_val@U?$pair@$$CBVSString@@PEAVSharedXmlInputSource@@@std@@V?$allocator@U?$pair@$$CBVSString@@PEAVSharedXmlInputSource@@@std@@@2@@std@@@std@@@0@0U_Nonscalar_ptr_iterator_tag@0@@Z 000000018003f280 f i colorer_lib:SharedXmlInputSource.cpp.obj
 0001:0003e280       ??$_Uninit_move@PEAV?$_List_iterator@V?$_List_val@U?$pair@$$CBVSString@@PEAVTypeParameter@@@std@@V?$allocator@U?$pair@$$CBVSString@@PEAVTypeParameter@@@std@@@2@@std@@@std@@PEAV12@V?$allocator@V?$_List_iterator@V?$_List_val@U?$pair@$$CBVSString@@PEAVTypeParameter@@@std@@V?$allocator@U?$pair@$$CBVSString@@PEAVTypeParameter@@@std@@@2@@std@@@std@@@2@V12@@std@@YAPEAV?$_List_iterator@V?$_List_val@U?$pair@$$CBVSString@@PEAVTypeParameter@@@std@@V?$allocator@U?$pair@$$CBVSString@@PEAVTypeParameter@@@std@@@2@@std@@@0@PEAV10@00AEAV?$allocator@V?$_List_iterator@V?$_List_val@U?$pair@$$CBVSString@@PEAVTypeParameter@@@std@@V?$allocator@U?$pair@$$CBVSString@@PEAVTypeParameter@@@std@@@2@@std@@@std@@@0@0U_Nonscalar_ptr_iterator_tag@0@@Z 000000018003f280 f i colorer_lib:FileTypeImpl.cpp.obj
 0001:0003e280       ??$_Uninit_move@PEAV?$_List_iterator@V?$_List_val@U?$pair@$$CBVSString@@PEAV?$unordered_map@VSString@@PEAV?$vector@PEBVString@@V?$allocator@PEBVString@@@std@@@std@@U?$hash@VSString@@@3@U?$equal_to@VSString@@@3@V?$allocator@U?$pair@$$CBVSString@@PEAV?$vector@PEBVString@@V?$allocator@PEBVString@@@std@@@std@@@std@@@3@@tr1@std@@@std@@V?$allocator@U?$pair@$$CBVSString@@PEAV?$unordered_map@VSString@@PEAV?$vector@PEBVString@@V?$allocator@PEBVString@@@std@@@std@@U?$hash@VSString@@@3@U?$equal_to@VSString@@@3@V?$allocator@U?$pair@$$CBVSString@@PEAV?$vector@PEBVString@@V?$allocator@PEBVString@@@std@@@std@@@std@@@3@@tr1@std@@@std@@@2@@std@@@std@@PEAV12@V?$allocator@V?$_List_iterator@V?$_List_val@U?$pair@$$CBVSString@@PEAV?$unordered_map@VSString@@PEAV?$vector@PEBVString@@V?$allocator@PEBVString@@@std@@@std@@U?$hash@VSString@@@3@U?$equal_to@VSString@@@3@V?$allocator@U?$pair@$$CBVSString@@PEAV?$vector@PEBVString@@V?$allocator@PEBVString@@@std@@@std@@@std@@@3@@tr1@std@@@std@@V?$allocator@U?$pair@$$CBVSString@@PEAV?$unordered_map@VSString@@PEAV?$vector@PEBVString@@V?$allocator@PEBVString@@@std@@@std@@U?$hash@VSString@@@3@U?$equal_to@VSString@@@3@V?$allocator@U?$pair@$$CBVSString@@PEAV?$vector@PEBVString@@V?$allocator@PEBVString@@@std@@@std@@@std@@@3@@tr1@std@@@std@@@2@@std@@@std@@@2@V12@@std@@YAPEAV?$_List_iterator@V?$_List_val@U?$pair@$$CBVSString@@PEAV?$unordered_map@VSString@@PEAV?$vector@PEBVString@@V?$allocator@PEBVString@@@std@@@std@@U?$hash@VSString@@@3@U?$equal_to@VSString@@@3@V?$allocator@U?$pair@$$CBVSString@@PEAV?$vector@PEBVString@@V?$allocator@PEBVString@@@std@@@std@@@std@@@3@@tr1@std@@@std@@V?$allocator@U?$pair@$$CBVSString@@PEAV?$unordered_map@VSString@@PEAV?$vector@PEBVString@@V?$allocator@PEBVString@@@std@@@std@@U?$hash@VSString@@@3@U?$equal_to@VSString@@@3@V?$allocator@U?$pair@$$CBVSString@@PEAV?$vector@PEBVString@@V?$allocator@PEBVString@@@std@@@std@@@std@@@3@@tr1@std@@@std@@@2@@std@@@0@PEAV10@00AEAV?$allocator@V?$_List_iterator@V?$_List_val@U?$pair@$$CBVSString@@PEAV?$unordered_map@VSString@@PEAV?$vector@PEBVString@@V?$allocator@PEBVString@@@std@@@std@@U?$hash@VSString@@@3@U?$equal_to@VSString@@@3@V?$allocator@U?$pair@$$CBVSString@@PEAV?$vector@PEBVString@@V?$allocator@PEBVString@@@std@@@std@@@std@@@3@@tr1@std@@@std@@V?$allocator@U?$pair@$$CBVSString@@PEAV?$unordered_map@VSString@@PEAV?$vector@PEBVString@@V?$allocator@PEBVString@@@std@@@std@@U?$hash@VSString@@@3@U?$equal_to@VSString@@@3@V?$allocator@U?$pair@$$CBVSString@@PEAV?$vector@PEBVString@@V?$allocator@PEBVString@@@std@@@std@@@std@@@3@@tr1@std@@@std@@@2@@std@@@std@@@0@0U_Nonscalar_ptr_iterator_tag@0@@Z 000000018003f280 f i colorer_lib:ParserFactory.cpp.obj
 0001:0003e280       ??$_Uninit_move@PEAV?$_List_iterator@V?$_List_val@U?$pair@$$CBVSString@@PEBVString@@@std@@V?$allocator@U?$pair@$$CBVSString@@PEBVString@@@std@@@2@@std@@@std@@PEAV12@V?$allocator@V?$_List_iterator@V?$_List_val@U?$pair@$$CBVSString@@PEBVString@@@std@@V?$allocator@U?$pair@$$CBVSString@@PEBVString@@@std@@@2@@std@@@std@@@2@V12@@std@@YAPEAV?$_List_iterator@V?$_List_val@U?$pair@$$CBVSString@@PEBVString@@@std@@V?$allocator@U?$pair@$$CBVSString@@PEBVString@@@std@@@2@@std@@@0@PEAV10@00AEAV?$allocator@V?$_List_iterator@V?$_List_val@U?$pair@$$CBVSString@@PEBVString@@@std@@V?$allocator@U?$pair@$$CBVSString@@PEBVString@@@std@@@2@@std@@@std@@@0@0U_Nonscalar_ptr_iterator_tag@0@@Z 000000018003f280 f i colorer_lib:ParserFactory.cpp.obj
 0001:0003e280       ??$_Uninit_move@PEAV?$_List_iterator@V?$_List_val@U?$pair@$$CBVSString@@PEAVRegionDefine@@@std@@V?$allocator@U?$pair@$$CBVSString@@PEAVRegionDefine@@@std@@@2@@std@@@std@@PEAV12@V?$allocator@V?$_List_iterator@V?$_List_val@U?$pair@$$CBVSString@@PEAVRegionDefine@@@std@@V?$allocator@U?$pair@$$CBVSString@@PEAVRegionDefine@@@std@@@2@@std@@@std@@@2@V12@@std@@YAPEAV?$_List_iterator@V?$_List_val@U?$pair@$$CBVSString@@PEAVRegionDefine@@@std@@V?$allocator@U?$pair@$$CBVSString@@PEAVRegionDefine@@@std@@@2@@std@@@0@PEAV10@00AEAV?$allocator@V?$_List_iterator@V?$_List_val@U?$pair@$$CBVSString@@PEAVRegionDefine@@@std@@V?$allocator@U?$pair@$$CBVSString@@PEAVRegionDefine@@@std@@@2@@std@@@std@@@0@0U_Nonscalar_ptr_iterator_tag@0@@Z 000000018003f280 f i colorer_lib:StyledHRDMapper.cpp.obj
 0001:0003e280       ??$_Uninit_move@PEAV?$_List_iterator@V?$_List_val@U?$pair@$$CBVSString@@PEAVFileTypeImpl@@@std@@V?$allocator@U?$pair@$$CBVSString@@PEAVFileTypeImpl@@@std@@@2@@std@@@std@@PEAV12@V?$allocator@V?$_List_iterator@V?$_List_val@U?$pair@$$CBVSString@@PEAVFileTypeImpl@@@std@@V?$allocator@U?$pair@$$CBVSString@@PEAVFileTypeImpl@@@std@@@2@@std@@@std@@@2@V12@@std@@YAPEAV?$_List_iterator@V?$_List_val@U?$pair@$$CBVSString@@PEAVFileTypeImpl@@@std@@V?$allocator@U?$pair@$$CBVSString@@PEAVFileTypeImpl@@@std@@@2@@std@@@0@PEAV10@00AEAV?$allocator@V?$_List_iterator@V?$_List_val@U?$pair@$$CBVSString@@PEAVFileTypeImpl@@@std@@V?$allocator@U?$pair@$$CBVSString@@PEAVFileTypeImpl@@@std@@@2@@std@@@std@@@0@0U_Nonscalar_ptr_iterator_tag@0@@Z 000000018003f280 f i colorer_lib:HRCParserImpl.cpp.obj
 0001:0003e2c0       ?getAbsolutePath@XmlInputSource@@SAPEAVString@@PEBV2@0@Z 000000018003f2c0 f   colorer_lib:XmlInputSource.cpp.obj
 0001:0003e2c0       ?getAbsolutePath@InputSource@colorer@@SAPEAVString@@PEBV3@0@Z 000000018003f2c0 f   colorer_lib:InputSource.cpp.obj
 0001:0003e490       ?newInstance@InputSource@colorer@@SAPEAV12@PEBVString@@PEAV12@@Z 000000018003f490 f   colorer_lib:InputSource.cpp.obj
 0001:0003e6b0       ?isRelative@InputSource@colorer@@SA_NPEBVString@@@Z 000000018003f6b0 f   colorer_lib:InputSource.cpp.obj
 0001:0003e720       ??1TextParser@@UEAA@XZ     000000018003f720 f i colorer_lib:TextParserImpl.cpp.obj
 0001:0003e730       ??_GTextParser@@UEAAPEAXI@Z 000000018003f730 f i colorer_lib:TextParserImpl.cpp.obj
 0001:0003e730       ??_ETextParser@@UEAAPEAXI@Z 000000018003f730 f i  CIL library: CIL module
 0001:0003e760       ??0TextParserImpl@@QEAA@XZ 000000018003f760 f   colorer_lib:TextParserImpl.cpp.obj
 0001:0003e820       ??_GTextParserImpl@@UEAAPEAXI@Z 000000018003f820 f i colorer_lib:TextParserImpl.cpp.obj
 0001:0003e820       ??_ETextParserImpl@@UEAAPEAXI@Z 000000018003f820 f i  CIL library: CIL module
 0001:0003e8b0       ?setFileType@TextParserImpl@@UEAAXPEAVFileType@@@Z 000000018003f8b0 f   colorer_lib:TextParserImpl.cpp.obj
 0001:0003e8f0       ?setLineSource@TextParserImpl@@UEAAXPEAVLineSource@@@Z 000000018003f8f0 f   colorer_lib:TextParserImpl.cpp.obj
 0001:0003e900       ?setRegionHandler@TextParserImpl@@UEAAXPEAVRegionHandler@@@Z 000000018003f900 f   colorer_lib:TextParserImpl.cpp.obj
 0001:0003e910       ?parse@TextParserImpl@@UEAAHHHW4TextParseMode@@@Z 000000018003f910 f   colorer_lib:TextParserImpl.cpp.obj
 0001:0003ebf0       ??_GVTList@@QEAAPEAXI@Z    000000018003fbf0 f i colorer_lib:TextParserImpl.cpp.obj
 0001:0003ec30       ?clearCache@TextParserImpl@@UEAAXXZ 000000018003fc30 f   colorer_lib:TextParserImpl.cpp.obj
 0001:0003ed20       ?breakParse@TextParserImpl@@UEAAXXZ 000000018003fd20 f   colorer_lib:TextParserImpl.cpp.obj
 0001:0003ed30       ?addRegion@TextParserImpl@@AEAAXHHHPEBVRegion@@@Z 000000018003fd30 f   colorer_lib:TextParserImpl.cpp.obj
 0001:0003ed70       ?enterScheme@TextParserImpl@@AEAAXHPEAUSMatches@@PEBVSchemeNode@@@Z 000000018003fd70 f   colorer_lib:TextParserImpl.cpp.obj
 0001:0003eef0       ?leaveScheme@TextParserImpl@@AEAAXHPEAUSMatches@@PEBVSchemeNode@@@Z 000000018003fef0 f   colorer_lib:TextParserImpl.cpp.obj
 0001:0003f080       ?fillInvisibleSchemes@TextParserImpl@@AEAAXPEAVParseCache@@@Z 0000000180040080 f   colorer_lib:TextParserImpl.cpp.obj
 0001:0003f0f0       ?searchKW@TextParserImpl@@AEAAHPEBVSchemeNode@@HHH@Z 00000001800400f0 f   colorer_lib:TextParserImpl.cpp.obj
 0001:0003f490       ?searchRE@TextParserImpl@@AEAAHPEAVSchemeImpl@@HHH@Z 0000000180040490 f   colorer_lib:TextParserImpl.cpp.obj
 0001:0003fd70       ?colorize@TextParserImpl@@AEAA_NPEAVCRegExp@@_N@Z 0000000180040d70 f   colorer_lib:TextParserImpl.cpp.obj
 0001:00040240       ?resolveEntity@BaseEntityResolver@@UEAAPEAVInputSource@xercesc_3_1@@PEAVXMLResourceIdentifier@3@@Z 0000000180041240 f   colorer_lib:BaseEntityResolver.cpp.obj
 0001:00040310       ?getRegionDefine@RegionMapperImpl@@UEBAPEBVRegionDefine@@PEBVRegion@@@Z 0000000180041310 f   colorer_lib:RegionMapperImpl.cpp.obj
 0001:00040770       ?getRegionDefine@RegionMapperImpl@@UEBAPEBVRegionDefine@@AEBVString@@@Z 0000000180041770 f   colorer_lib:RegionMapperImpl.cpp.obj
 0001:000409c0       ?reserve@?$vector@PEBVRegionDefine@@V?$allocator@PEBVRegionDefine@@@std@@@std@@QEAAX_K@Z 00000001800419c0 f i colorer_lib:RegionMapperImpl.cpp.obj
 0001:000409c0       ?reserve@?$vector@PEAVRegionHandler@@V?$allocator@PEAVRegionHandler@@@std@@@std@@QEAAX_K@Z 00000001800419c0 f i colorer_lib:BaseEditor.cpp.obj
 0001:000409c0       ?reserve@?$vector@PEAVFileTypeImpl@@V?$allocator@PEAVFileTypeImpl@@@std@@@std@@QEAAX_K@Z 00000001800419c0 f i colorer_lib:HRCParserImpl.cpp.obj
 0001:000409c0       ?reserve@?$vector@PEAVSchemeNode@@V?$allocator@PEAVSchemeNode@@@std@@@std@@QEAAX_K@Z 00000001800419c0 f i colorer_lib:HRCParserImpl.cpp.obj
 0001:000409c0       ?reserve@?$vector@PEAVVirtualEntry@@V?$allocator@PEAVVirtualEntry@@@std@@@std@@QEAAX_K@Z 00000001800419c0 f i colorer_lib:HRCParserImpl.cpp.obj
 0001:000409c0       ?reserve@?$vector@PEBVRegion@@V?$allocator@PEBVRegion@@@std@@@std@@QEAAX_K@Z 00000001800419c0 f i colorer_lib:HRCParserImpl.cpp.obj
 0001:000409c0       ?reserve@?$vector@PEAEV?$allocator@PEAE@std@@@std@@QEAAX_K@Z 00000001800419c0 f i colorer_lib:MemoryChunks.cpp.obj
 0001:000409c0       ?reserve@?$vector@PEAVLineRegion@@V?$allocator@PEAVLineRegion@@@std@@@std@@QEAAX_K@Z 00000001800419c0 f i colorer_lib:LineRegionsSupport.cpp.obj
 0001:000409c0       ?reserve@?$vector@PEAVString@@V?$allocator@PEAVString@@@std@@@std@@QEAAX_K@Z 00000001800419c0 f i colorer_lib:TextLinesStore.cpp.obj
 0001:000409c0       ?reserve@?$vector@PEAVFileTypeChooser@@V?$allocator@PEAVFileTypeChooser@@@std@@@std@@QEAAX_K@Z 00000001800419c0 f i colorer_lib:HRCParserImpl.cpp.obj
 0001:000409c0       ?reserve@?$vector@PEBVString@@V?$allocator@PEBVString@@@std@@@std@@QEAAX_K@Z 00000001800419c0 f i colorer_lib:ParserFactory.cpp.obj
 0001:000409c0       ?reserve@?$vector@PEAVOutlineItem@@V?$allocator@PEAVOutlineItem@@@std@@@std@@QEAAX_K@Z 00000001800419c0 f i colorer_lib:Outliner.cpp.obj
 0001:000409c0       ?reserve@?$vector@PEAVEditorListener@@V?$allocator@PEAVEditorListener@@@std@@@std@@QEAAX_K@Z 00000001800419c0 f i colorer_lib:BaseEditor.cpp.obj
 0001:00040a80       ?resize@?$vector@PEBVRegionDefine@@V?$allocator@PEBVRegionDefine@@@std@@@std@@QEAAX_K@Z 0000000180041a80 f i colorer_lib:RegionMapperImpl.cpp.obj
 0001:00040a80       ?resize@?$vector@PEAVLineRegion@@V?$allocator@PEAVLineRegion@@@std@@@std@@QEAAX_K@Z 0000000180041a80 f i colorer_lib:LineRegionsSupport.cpp.obj
 0001:00040ba0       ?write@Writer@@UEAAXAEBVString@@@Z 0000000180041ba0 f   colorer_lib:Writer.cpp.obj
 0001:00040bf0       ?write@Writer@@UEAAXPEBVString@@@Z 0000000180041bf0 f   colorer_lib:Writer.cpp.obj
 0001:00040c00       ?write@Writer@@UEAAXAEBVString@@HH@Z 0000000180041c00 f   colorer_lib:Writer.cpp.obj
 0001:00040c70       ?write@Writer@@UEAAXPEBVString@@HH@Z 0000000180041c70 f   colorer_lib:Writer.cpp.obj
 0001:00041ca0       unzClose                   0000000180042ca0 f   colorer_lib:unzip.c.obj
 0001:000421a0       unzGetCurrentFileInfo      00000001800431a0 f   colorer_lib:unzip.c.obj
 0001:00042260       unzGoToFirstFile           0000000180043260 f   colorer_lib:unzip.c.obj
 0001:000422d0       unzGoToNextFile            00000001800432d0 f   colorer_lib:unzip.c.obj
 0001:00042380       unzLocateFile              0000000180043380 f   colorer_lib:unzip.c.obj
 0001:000427d0       unzOpenCurrentFile3        00000001800437d0 f   colorer_lib:unzip.c.obj
 0001:000429b0       unzReadCurrentFile         00000001800439b0 f   colorer_lib:unzip.c.obj
 0001:00042cc0       unzCloseCurrentFile        0000000180043cc0 f   colorer_lib:unzip.c.obj
 0001:00042dc0       ??_GSharedXmlInputSource@@EEAAPEAXI@Z 0000000180043dc0 f i colorer_lib:SharedXmlInputSource.cpp.obj
 0001:00042dc0       ??_ESharedXmlInputSource@@EEAAPEAXI@Z 0000000180043dc0 f i  CIL library: CIL module
 0001:00042e00       ??1SharedXmlInputSource@@EEAA@XZ 0000000180043e00 f   colorer_lib:SharedXmlInputSource.cpp.obj
 0001:000430e0       ?getSharedInputSource@SharedXmlInputSource@@SAPEAV1@PEB_W0@Z 00000001800440e0 f   colorer_lib:SharedXmlInputSource.cpp.obj
 0001:000437a0       ?openStream@SharedXmlInputSource@@QEAAXXZ 00000001800447a0 f   colorer_lib:SharedXmlInputSource.cpp.obj
 0001:00043820       ?mem_open_file_func@@YAPEAXPEAXPEBDH@Z 0000000180044820 f   colorer_lib:MemoryFile.cpp.obj
 0001:00043830       ?mem_read_file_func@@YAKPEAX00K@Z 0000000180044830 f   colorer_lib:MemoryFile.cpp.obj
 0001:00043880       ?mem_tell_file_func@@YAJPEAX0@Z 0000000180044880 f   colorer_lib:MemoryFile.cpp.obj
 0001:00043890       ?mem_seek_file_func@@YAJPEAX0KH@Z 0000000180044890 f   colorer_lib:MemoryFile.cpp.obj
 0001:000438e0       ?mem_error_file_func@@YAHPEAX0@Z 00000001800448e0 f   colorer_lib:MemoryFile.cpp.obj
 0001:000438f0       ??1CharacterClass@@QEAA@XZ 00000001800448f0 f   colorer_lib:CharacterClass.cpp.obj
 0001:00043920       ?createCharClass@CharacterClass@@SAPEAV1@AEBVString@@HPEAH@Z 0000000180044920 f   colorer_lib:CharacterClass.cpp.obj
 0001:00044480       ?addChar@CharacterClass@@QEAAX_W@Z 0000000180045480 f   colorer_lib:CharacterClass.cpp.obj
 0001:000444f0       ?addRange@CharacterClass@@QEAAX_W0@Z 00000001800454f0 f   colorer_lib:CharacterClass.cpp.obj
 0001:000445c0       ?addCategory@CharacterClass@@QEAAXW4ECharCategory@@@Z 00000001800455c0 f   colorer_lib:CharacterClass.cpp.obj
 0001:00044690       ?addCategory@CharacterClass@@QEAAXAEBVString@@@Z 0000000180045690 f   colorer_lib:CharacterClass.cpp.obj
 0001:00044880       ?addCategory@CharacterClass@@QEAAXPEBD@Z 0000000180045880 f   colorer_lib:CharacterClass.cpp.obj
 0001:00044940       ?clearCategory@CharacterClass@@QEAAXAEBVString@@@Z 0000000180045940 f   colorer_lib:CharacterClass.cpp.obj
 0001:00044aa0       ?clearCategory@CharacterClass@@QEAAXPEBD@Z 0000000180045aa0 f   colorer_lib:CharacterClass.cpp.obj
 0001:00044b60       ?addClass@CharacterClass@@QEAAXAEBV1@@Z 0000000180045b60 f   colorer_lib:CharacterClass.cpp.obj
 0001:00044c90       ?intersectClass@CharacterClass@@QEAAXAEBV1@@Z 0000000180045c90 f   colorer_lib:CharacterClass.cpp.obj
 0001:00044db0       ?clearClass@CharacterClass@@QEAAXAEBV1@@Z 0000000180045db0 f   colorer_lib:CharacterClass.cpp.obj
 0001:00044ee0       ?clear@CharacterClass@@QEAAXXZ 0000000180045ee0 f   colorer_lib:CharacterClass.cpp.obj
 0001:00044f60       ?fill@CharacterClass@@QEAAXXZ 0000000180045f60 f   colorer_lib:CharacterClass.cpp.obj
 0001:00045070       ?inClass@CharacterClass@@QEBA_N_W@Z 0000000180046070 f   colorer_lib:CharacterClass.cpp.obj
 0001:000450c0       ??0KeywordList@@QEAA@XZ    00000001800460c0 f   colorer_lib:HRCParserHelpers.cpp.obj
 0001:00045150       ?kwCompare@@YAHPEBX0@Z     0000000180046150 f   colorer_lib:HRCParserHelpers.cpp.obj
 0001:00045160       ?kwCompareI@@YAHPEBX0@Z    0000000180046160 f   colorer_lib:HRCParserHelpers.cpp.obj
 0001:00045170       ?substrIndex@KeywordList@@QEAAXXZ 0000000180046170 f   colorer_lib:HRCParserHelpers.cpp.obj
 0001:000453f0       ??0SchemeNode@@QEAA@XZ     00000001800463f0 f   colorer_lib:HRCParserHelpers.cpp.obj
 0001:000454b0       ?mem_close_file_func@@YAHPEAX0@Z 00000001800464b0 f i colorer_lib:MemoryFile.cpp.obj
 0001:000454b0       ?createRelative@InputSource@colorer@@UEAAPEAV12@PEBVString@@@Z 00000001800464b0 f i colorer_lib:JARInputSource.cpp.obj
 0001:000454b0       ?getInputSource@XmlInputSource@@UEAAPEAVInputSource@xercesc_3_1@@XZ 00000001800464b0 f i colorer_lib:ZipXmlInputSource.cpp.obj
 0001:000454b0       ?mem_write_file_func@@YAKPEAX0PEBXK@Z 00000001800464b0 f i colorer_lib:MemoryFile.cpp.obj
 0001:000454b0       ?getContentType@UnZip@@UEBAPEB_WXZ 00000001800464b0 f i colorer_lib:ZipXmlInputSource.cpp.obj
 0001:000454b0       ?createRelative@XmlInputSource@@UEBAPEAV1@PEB_W@Z 00000001800464b0 f i colorer_lib:ZipXmlInputSource.cpp.obj
 0001:000454c0       ??1InputSource@colorer@@UEAA@XZ 00000001800464c0 f i colorer_lib:JARInputSource.cpp.obj
 0001:000454d0       ??_GInputSource@colorer@@UEAAPEAXI@Z 00000001800464d0 f i colorer_lib:JARInputSource.cpp.obj
 0001:000454d0       ??_EInputSource@colorer@@UEAAPEAXI@Z 00000001800464d0 f i  CIL library: CIL module
 0001:00045500       ??0JARInputSource@@QEAA@PEBVString@@PEAVInputSource@colorer@@@Z 0000000180046500 f   colorer_lib:JARInputSource.cpp.obj
 0001:00045c00       ??_GJARInputSource@@UEAAPEAXI@Z 0000000180046c00 f i colorer_lib:JARInputSource.cpp.obj
 0001:00045c00       ??_EJARInputSource@@UEAAPEAXI@Z 0000000180046c00 f i  CIL library: CIL module
 0001:00045c40       ??1JARInputSource@@UEAA@XZ 0000000180046c40 f   colorer_lib:JARInputSource.cpp.obj
 0001:00045cc0       ??0JARInputSource@@IEAA@PEBVString@@PEAV0@_N@Z 0000000180046cc0 f   colorer_lib:JARInputSource.cpp.obj
 0001:000462a0       ?createRelative@JARInputSource@@MEAAPEAVInputSource@colorer@@PEBVString@@@Z 00000001800472a0 f   colorer_lib:JARInputSource.cpp.obj
 0001:00046300       ?openStream@JARInputSource@@UEAAPEBEXZ 0000000180047300 f   colorer_lib:JARInputSource.cpp.obj
 0001:00046900       ?closeStream@JARInputSource@@UEAAXXZ 0000000180047900 f   colorer_lib:JARInputSource.cpp.obj
 0001:00046b00       ?length@JARInputSource@@UEBAHXZ 0000000180047b00 f   colorer_lib:JARInputSource.cpp.obj
 0001:00046b80       ??0FileInputSource@@QEAA@PEBVString@@PEAV0@@Z 0000000180047b80 f   colorer_lib:FileInputSource.cpp.obj
 0001:000474e0       ??_EFileInputSource@@UEAAPEAXI@Z 00000001800484e0 f i  CIL library: CIL module
 0001:000474e0       ??_GFileInputSource@@UEAAPEAXI@Z 00000001800484e0 f i colorer_lib:FileInputSource.cpp.obj
 0001:00047560       ?createRelative@FileInputSource@@MEAAPEAVInputSource@colorer@@PEBVString@@@Z 0000000180048560 f   colorer_lib:FileInputSource.cpp.obj
 0001:000475c0       ?openStream@FileInputSource@@UEAAPEBEXZ 00000001800485c0 f   colorer_lib:FileInputSource.cpp.obj
 0001:000478b0       ?closeStream@FileInputSource@@UEAAXXZ 00000001800488b0 f   colorer_lib:FileInputSource.cpp.obj
 0001:00047ab0       ?length@FileInputSource@@UEBAHXZ 0000000180048ab0 f   colorer_lib:FileInputSource.cpp.obj
 0001:00047b30       ??1ParseCache@@QEAA@XZ     0000000180048b30 f   colorer_lib:TextParserHelpers.cpp.obj
 0001:00047c70       ?searchLine@ParseCache@@QEAAPEAV1@HPEAPEAV1@@Z 0000000180048c70 f   colorer_lib:TextParserHelpers.cpp.obj
 0001:00047d00       ?deltree@VTList@@QEAAXXZ   0000000180048d00 f   colorer_lib:TextParserHelpers.cpp.obj
 0001:00047d40       ?push@VTList@@QEAA_NPEAVSchemeNode@@@Z 0000000180048d40 f   colorer_lib:TextParserHelpers.cpp.obj
 0001:00047e10       ?pushvirt@VTList@@QEAAPEAVSchemeImpl@@PEAV2@@Z 0000000180048e10 f   colorer_lib:TextParserHelpers.cpp.obj
 0001:00047ef0       ?clear@VTList@@QEAAXXZ     0000000180048ef0 f   colorer_lib:TextParserHelpers.cpp.obj
 0001:00047f80       ?store@VTList@@QEAAPEAPEAV?$vector@PEAVVirtualEntry@@V?$allocator@PEAVVirtualEntry@@@std@@@std@@XZ 0000000180048f80 f   colorer_lib:TextParserHelpers.cpp.obj
 0001:00048030       ?restore@VTList@@QEAA_NPEAPEAV?$vector@PEAVVirtualEntry@@V?$allocator@PEAVVirtualEntry@@@std@@@std@@@Z 0000000180049030 f   colorer_lib:TextParserHelpers.cpp.obj
 0001:00048240       crc32                      0000000180049240 f   colorer_lib:crc32.c.obj
 0001:00048570       inflateResetKeep           0000000180049570 f   colorer_lib:inflate.c.obj
 0001:000485f0       inflateReset2              00000001800495f0 f   colorer_lib:inflate.c.obj
 0001:00048690       inflateInit2_              0000000180049690 f   colorer_lib:inflate.c.obj
 0001:00048850       inflate                    0000000180049850 f   colorer_lib:inflate.c.obj
 0001:00049f20       ?setBit@BitArray@@QEAAXH@Z 000000018004af20 f   colorer_lib:BitArray.cpp.obj
 0001:00049fb0       ?clearBit@BitArray@@QEAAXH@Z 000000018004afb0 f   colorer_lib:BitArray.cpp.obj
 0001:0004a040       ?addRange@BitArray@@QEAAXHH@Z 000000018004b040 f   colorer_lib:BitArray.cpp.obj
 0001:0004a180       ?addBitArray@BitArray@@QEAAXPEADH@Z 000000018004b180 f   colorer_lib:BitArray.cpp.obj
 0001:0004a220       ?clearBitArray@BitArray@@QEAAXPEADH@Z 000000018004b220 f   colorer_lib:BitArray.cpp.obj
 0001:0004a2c0       ?getLocation@SharedInputSource@@UEBAPEBVString@@XZ 000000018004b2c0 f i colorer_lib:SharedInputSource.cpp.obj
 0001:0004a2d0       ?openStream@SharedInputSource@@UEAAPEBEXZ 000000018004b2d0 f i colorer_lib:SharedInputSource.cpp.obj
 0001:0004a2d0       ?getInputSource@SharedXmlInputSource@@UEAAPEAVInputSource@xercesc_3_1@@XZ 000000018004b2d0 f i colorer_lib:SharedXmlInputSource.cpp.obj
 0001:0004a2e0       ?closeStream@SharedInputSource@@UEAAXXZ 000000018004b2e0 f i colorer_lib:SharedInputSource.cpp.obj
 0001:0004a2f0       ?length@SharedInputSource@@UEBAHXZ 000000018004b2f0 f i colorer_lib:SharedInputSource.cpp.obj
 0001:0004a300       ??_ESharedInputSource@@EEAAPEAXI@Z 000000018004b300 f i  CIL library: CIL module
 0001:0004a300       ??_GSharedInputSource@@EEAAPEAXI@Z 000000018004b300 f i colorer_lib:SharedInputSource.cpp.obj
 0001:0004a340       ??1SharedInputSource@@EEAA@XZ 000000018004b340 f   colorer_lib:SharedInputSource.cpp.obj
 0001:0004a590       ?getInputSource@SharedInputSource@@SAPEAV1@PEBVString@@PEAVInputSource@colorer@@@Z 000000018004b590 f   colorer_lib:SharedInputSource.cpp.obj
 0001:0004ab30       ?erase@?$list@U?$pair@$$CBVSString@@PEAVFileTypeImpl@@@std@@V?$allocator@U?$pair@$$CBVSString@@PEAVFileTypeImpl@@@std@@@2@@std@@QEAA?AV?$_List_iterator@V?$_List_val@U?$pair@$$CBVSString@@PEAVFileTypeImpl@@@std@@V?$allocator@U?$pair@$$CBVSString@@PEAVFileTypeImpl@@@std@@@2@@std@@@2@V?$_List_const_iterator@V?$_List_val@U?$pair@$$CBVSString@@PEAVFileTypeImpl@@@std@@V?$allocator@U?$pair@$$CBVSString@@PEAVFileTypeImpl@@@std@@@2@@std@@@2@@Z 000000018004bb30 f i colorer_lib:HRCParserImpl.cpp.obj
 0001:0004ab30       ?erase@?$list@U?$pair@$$CBVSString@@PEAVTypeParameter@@@std@@V?$allocator@U?$pair@$$CBVSString@@PEAVTypeParameter@@@std@@@2@@std@@QEAA?AV?$_List_iterator@V?$_List_val@U?$pair@$$CBVSString@@PEAVTypeParameter@@@std@@V?$allocator@U?$pair@$$CBVSString@@PEAVTypeParameter@@@std@@@2@@std@@@2@V?$_List_const_iterator@V?$_List_val@U?$pair@$$CBVSString@@PEAVTypeParameter@@@std@@V?$allocator@U?$pair@$$CBVSString@@PEAVTypeParameter@@@std@@@2@@std@@@2@@Z 000000018004bb30 f i colorer_lib:FileTypeImpl.cpp.obj
 0001:0004ab30       ?erase@?$list@U?$pair@$$CBVSString@@PEAVSharedXmlInputSource@@@std@@V?$allocator@U?$pair@$$CBVSString@@PEAVSharedXmlInputSource@@@std@@@2@@std@@QEAA?AV?$_List_iterator@V?$_List_val@U?$pair@$$CBVSString@@PEAVSharedXmlInputSource@@@std@@V?$allocator@U?$pair@$$CBVSString@@PEAVSharedXmlInputSource@@@std@@@2@@std@@@2@V?$_List_const_iterator@V?$_List_val@U?$pair@$$CBVSString@@PEAVSharedXmlInputSource@@@std@@V?$allocator@U?$pair@$$CBVSString@@PEAVSharedXmlInputSource@@@std@@@2@@std@@@2@@Z 000000018004bb30 f i colorer_lib:SharedXmlInputSource.cpp.obj
 0001:0004ab30       ?erase@?$list@U?$pair@$$CBVSString@@PEAVSharedInputSource@@@std@@V?$allocator@U?$pair@$$CBVSString@@PEAVSharedInputSource@@@std@@@2@@std@@QEAA?AV?$_List_iterator@V?$_List_val@U?$pair@$$CBVSString@@PEAVSharedInputSource@@@std@@V?$allocator@U?$pair@$$CBVSString@@PEAVSharedInputSource@@@std@@@2@@std@@@2@V?$_List_const_iterator@V?$_List_val@U?$pair@$$CBVSString@@PEAVSharedInputSource@@@std@@V?$allocator@U?$pair@$$CBVSString@@PEAVSharedInputSource@@@std@@@2@@std@@@2@@Z 000000018004bb30 f i colorer_lib:SharedInputSource.cpp.obj
 0001:0004ab30       ?erase@?$list@U?$pair@$$CBVSString@@PEAVFarEditor@@@std@@V?$allocator@U?$pair@$$CBVSString@@PEAVFarEditor@@@std@@@2@@std@@QEAA?AV?$_List_iterator@V?$_List_val@U?$pair@$$CBVSString@@PEAVFarEditor@@@std@@V?$allocator@U?$pair@$$CBVSString@@PEAVFarEditor@@@std@@@2@@std@@@2@V?$_List_const_iterator@V?$_List_val@U?$pair@$$CBVSString@@PEAVFarEditor@@@std@@V?$allocator@U?$pair@$$CBVSString@@PEAVFarEditor@@@std@@@2@@std@@@2@@Z 000000018004bb30 f i FarEditorSet.cpp.obj
 0001:0004ab30       ?erase@?$list@U?$pair@$$CBVSString@@PEAVSchemeImpl@@@std@@V?$allocator@U?$pair@$$CBVSString@@PEAVSchemeImpl@@@std@@@2@@std@@QEAA?AV?$_List_iterator@V?$_List_val@U?$pair@$$CBVSString@@PEAVSchemeImpl@@@std@@V?$allocator@U?$pair@$$CBVSString@@PEAVSchemeImpl@@@std@@@2@@std@@@2@V?$_List_const_iterator@V?$_List_val@U?$pair@$$CBVSString@@PEAVSchemeImpl@@@std@@V?$allocator@U?$pair@$$CBVSString@@PEAVSchemeImpl@@@std@@@2@@std@@@2@@Z 000000018004bb30 f i colorer_lib:HRCParserImpl.cpp.obj
 0001:0004ab30       ?erase@?$list@U?$pair@$$CBVSString@@PEAVRegionDefine@@@std@@V?$allocator@U?$pair@$$CBVSString@@PEAVRegionDefine@@@std@@@2@@std@@QEAA?AV?$_List_iterator@V?$_List_val@U?$pair@$$CBVSString@@PEAVRegionDefine@@@std@@V?$allocator@U?$pair@$$CBVSString@@PEAVRegionDefine@@@std@@@2@@std@@@2@V?$_List_const_iterator@V?$_List_val@U?$pair@$$CBVSString@@PEAVRegionDefine@@@std@@V?$allocator@U?$pair@$$CBVSString@@PEAVRegionDefine@@@std@@@2@@std@@@2@@Z 000000018004bb30 f i colorer_lib:StyledHRDMapper.cpp.obj
 0001:0004ac00       ?_Insert@?$_Hash@V?$_Umap_traits@VSString@@PEAVSharedXmlInputSource@@V?$_Hash_compare@VSString@@U?$hash@VSString@@@std@@U?$equal_to@VSString@@@3@@std@@V?$allocator@U?$pair@$$CBVSString@@PEAVSharedXmlInputSource@@@std@@@4@$0A@@tr1@std@@@std@@IEAA?AU?$pair@V?$_List_iterator@V?$_List_val@U?$pair@$$CBVSString@@PEAVSharedXmlInputSource@@@std@@V?$allocator@U?$pair@$$CBVSString@@PEAVSharedXmlInputSource@@@std@@@2@@std@@@std@@_N@2@AEBU?$pair@$$CBVSString@@PEAVSharedXmlInputSource@@@2@V?$_List_iterator@V?$_List_val@U?$pair@$$CBVSString@@PEAVSharedXmlInputSource@@@std@@V?$allocator@U?$pair@$$CBVSString@@PEAVSharedXmlInputSource@@@std@@@2@@std@@@2@@Z 000000018004bc00 f i colorer_lib:SharedXmlInputSource.cpp.obj
 0001:0004ac00       ?_Insert@?$_Hash@V?$_Umap_traits@VSString@@PEAVSharedInputSource@@V?$_Hash_compare@VSString@@U?$hash@VSString@@@std@@U?$equal_to@VSString@@@3@@std@@V?$allocator@U?$pair@$$CBVSString@@PEAVSharedInputSource@@@std@@@4@$0A@@tr1@std@@@std@@IEAA?AU?$pair@V?$_List_iterator@V?$_List_val@U?$pair@$$CBVSString@@PEAVSharedInputSource@@@std@@V?$allocator@U?$pair@$$CBVSString@@PEAVSharedInputSource@@@std@@@2@@std@@@std@@_N@2@AEBU?$pair@$$CBVSString@@PEAVSharedInputSource@@@2@V?$_List_iterator@V?$_List_val@U?$pair@$$CBVSString@@PEAVSharedInputSource@@@std@@V?$allocator@U?$pair@$$CBVSString@@PEAVSharedInputSource@@@std@@@2@@std@@@2@@Z 000000018004bc00 f i colorer_lib:SharedInputSource.cpp.obj
 0001:0004ac00       ?_Insert@?$_Hash@V?$_Umap_traits@VSString@@PEAVFarEditor@@V?$_Hash_compare@VSString@@U?$hash@VSString@@@std@@U?$equal_to@VSString@@@3@@std@@V?$allocator@U?$pair@$$CBVSString@@PEAVFarEditor@@@std@@@4@$0A@@tr1@std@@@std@@IEAA?AU?$pair@V?$_List_iterator@V?$_List_val@U?$pair@$$CBVSString@@PEAVFarEditor@@@std@@V?$allocator@U?$pair@$$CBVSString@@PEAVFarEditor@@@std@@@2@@std@@@std@@_N@2@AEBU?$pair@$$CBVSString@@PEAVFarEditor@@@2@V?$_List_iterator@V?$_List_val@U?$pair@$$CBVSString@@PEAVFarEditor@@@std@@V?$allocator@U?$pair@$$CBVSString@@PEAVFarEditor@@@std@@@2@@std@@@2@@Z 000000018004bc00 f i FarEditorSet.cpp.obj
 0001:0004ad60       ?_Check_size@?$_Hash@V?$_Umap_traits@VSString@@PEAVSharedInputSource@@V?$_Hash_compare@VSString@@U?$hash@VSString@@@std@@U?$equal_to@VSString@@@3@@std@@V?$allocator@U?$pair@$$CBVSString@@PEAVSharedInputSource@@@std@@@4@$0A@@tr1@std@@@std@@IEAAXXZ 000000018004bd60 f i colorer_lib:SharedInputSource.cpp.obj
 0001:0004ad60       ?_Check_size@?$_Hash@V?$_Umap_traits@VSString@@PEAVSharedXmlInputSource@@V?$_Hash_compare@VSString@@U?$hash@VSString@@@std@@U?$equal_to@VSString@@@3@@std@@V?$allocator@U?$pair@$$CBVSString@@PEAVSharedXmlInputSource@@@std@@@4@$0A@@tr1@std@@@std@@IEAAXXZ 000000018004bd60 f i colorer_lib:SharedXmlInputSource.cpp.obj
 0001:0004ad60       ?_Check_size@?$_Hash@V?$_Umap_traits@VSString@@PEAVFarEditor@@V?$_Hash_compare@VSString@@U?$hash@VSString@@@std@@U?$equal_to@VSString@@@3@@std@@V?$allocator@U?$pair@$$CBVSString@@PEAVFarEditor@@@std@@@4@$0A@@tr1@std@@@std@@IEAAXXZ 000000018004bd60 f i FarEditorSet.cpp.obj
 0001:0004ae40       ?_Reinsert@?$_Hash@V?$_Umap_traits@VSString@@PEAVSharedXmlInputSource@@V?$_Hash_compare@VSString@@U?$hash@VSString@@@std@@U?$equal_to@VSString@@@3@@std@@V?$allocator@U?$pair@$$CBVSString@@PEAVSharedXmlInputSource@@@std@@@4@$0A@@tr1@std@@@std@@IEAAXV?$_List_iterator@V?$_List_val@U?$pair@$$CBVSString@@PEAVSharedXmlInputSource@@@std@@V?$allocator@U?$pair@$$CBVSString@@PEAVSharedXmlInputSource@@@std@@@2@@std@@@2@@Z 000000018004be40 f i colorer_lib:SharedXmlInputSource.cpp.obj
 0001:0004ae40       ?_Reinsert@?$_Hash@V?$_Umap_traits@VSString@@PEAVSharedInputSource@@V?$_Hash_compare@VSString@@U?$hash@VSString@@@std@@U?$equal_to@VSString@@@3@@std@@V?$allocator@U?$pair@$$CBVSString@@PEAVSharedInputSource@@@std@@@4@$0A@@tr1@std@@@std@@IEAAXV?$_List_iterator@V?$_List_val@U?$pair@$$CBVSString@@PEAVSharedInputSource@@@std@@V?$allocator@U?$pair@$$CBVSString@@PEAVSharedInputSource@@@std@@@2@@std@@@2@@Z 000000018004be40 f i colorer_lib:SharedInputSource.cpp.obj
 0001:0004ae40       ?_Reinsert@?$_Hash@V?$_Umap_traits@VSString@@PEAVFarEditor@@V?$_Hash_compare@VSString@@U?$hash@VSString@@@std@@U?$equal_to@VSString@@@3@@std@@V?$allocator@U?$pair@$$CBVSString@@PEAVFarEditor@@@std@@@4@$0A@@tr1@std@@@std@@IEAAXV?$_List_iterator@V?$_List_val@U?$pair@$$CBVSString@@PEAVFarEditor@@@std@@V?$allocator@U?$pair@$$CBVSString@@PEAVFarEditor@@@std@@@2@@std@@@2@@Z 000000018004be40 f i FarEditorSet.cpp.obj
 0001:0004aeb0       adler32                    000000018004beb0 f   colorer_lib:adler32.c.obj
 0001:0004b1c0       inflate_fast               000000018004c1c0 f   colorer_lib:inffast.c.obj
 0001:0004b6b0       zcalloc                    000000018004c6b0 f   colorer_lib:zutil.c.obj
 0001:0004b6c0       zcfree                     000000018004c6c0 f   colorer_lib:zutil.c.obj
 0001:0004b6d0       inflate_table              000000018004c6d0 f   colorer_lib:inftrees.c.obj
 0001:0004bb30       ??_EPanicHandler@xercesc_3_1@@UEAAPEAXI@Z 000000018004cb30 f i  CIL library: CIL module
 0001:0004bb30       ??_GPanicHandler@xercesc_3_1@@UEAAPEAXI@Z 000000018004cb30 f i xerces-c_3_1:PlatformUtils.cpp.obj
 0001:0004bb5c       ??0XMLPlatformUtilsException@xercesc_3_1@@QEAA@AEBV01@@Z 000000018004cb5c f i xerces-c_3_1:PlatformUtils.cpp.obj
 0001:0004bb80       ??1XMLPlatformUtilsException@xercesc_3_1@@UEAA@XZ 000000018004cb80 f i xerces-c_3_1:PlatformUtils.cpp.obj
 0001:0004bb90       ?duplicate@XMLPlatformUtilsException@xercesc_3_1@@UEBAPEAVXMLException@2@XZ 000000018004cb90 f i xerces-c_3_1:PlatformUtils.cpp.obj
 0001:0004bbf4       ?getType@XMLPlatformUtilsException@xercesc_3_1@@UEBAPEB_WXZ 000000018004cbf4 f i xerces-c_3_1:PlatformUtils.cpp.obj
 0001:0004bbfc       ??_EXMLPlatformUtilsException@xercesc_3_1@@UEAAPEAXI@Z 000000018004cbfc f i  CIL library: CIL module
 0001:0004bbfc       ??_GXMLPlatformUtilsException@xercesc_3_1@@UEAAPEAXI@Z 000000018004cbfc f i xerces-c_3_1:PlatformUtils.cpp.obj
 0001:0004bc3c       ??_EMemoryManagerImpl@xercesc_3_1@@UEAAPEAXI@Z 000000018004cc3c f i  CIL library: CIL module
 0001:0004bc3c       ??_EMemoryManager@xercesc_3_1@@UEAAPEAXI@Z 000000018004cc3c f i  CIL library: CIL module
 0001:0004bc3c       ??_GMemoryManagerImpl@xercesc_3_1@@UEAAPEAXI@Z 000000018004cc3c f i xerces-c_3_1:PlatformUtils.cpp.obj
 0001:0004bc3c       ??_GMemoryManager@xercesc_3_1@@UEAAPEAXI@Z 000000018004cc3c f i xerces-c_3_1:PlatformUtils.cpp.obj
 0001:0004bc68       ??0RuntimeException@xercesc_3_1@@QEAA@AEBV01@@Z 000000018004cc68 f i xerces-c_3_1:PlatformUtils.cpp.obj
 0001:0004bc8c       ??1RuntimeException@xercesc_3_1@@UEAA@XZ 000000018004cc8c f i xerces-c_3_1:PlatformUtils.cpp.obj
 0001:0004bc9c       ?duplicate@RuntimeException@xercesc_3_1@@UEBAPEAVXMLException@2@XZ 000000018004cc9c f i xerces-c_3_1:PlatformUtils.cpp.obj
 0001:0004bd00       ?getType@RuntimeException@xercesc_3_1@@UEBAPEB_WXZ 000000018004cd00 f i xerces-c_3_1:PlatformUtils.cpp.obj
 0001:0004bd08       ??_ERuntimeException@xercesc_3_1@@UEAAPEAXI@Z 000000018004cd08 f i  CIL library: CIL module
 0001:0004bd08       ??_GRuntimeException@xercesc_3_1@@UEAAPEAXI@Z 000000018004cd08 f i xerces-c_3_1:PlatformUtils.cpp.obj
 0001:0004bd48       ??_EDefaultPanicHandler@xercesc_3_1@@UEAAPEAXI@Z 000000018004cd48 f i  CIL library: CIL module
 0001:0004bd48       ??_GDefaultPanicHandler@xercesc_3_1@@UEAAPEAXI@Z 000000018004cd48 f i xerces-c_3_1:PlatformUtils.cpp.obj
 0001:0004bd78       ?Initialize@XMLPlatformUtils@xercesc_3_1@@SAXQEBD0QEAVPanicHandler@2@QEAVMemoryManager@2@@Z 000000018004cd78 f   xerces-c_3_1:PlatformUtils.cpp.obj
 0001:0004c00c       ?Terminate@XMLPlatformUtils@xercesc_3_1@@SAXXZ 000000018004d00c f   xerces-c_3_1:PlatformUtils.cpp.obj
 0001:0004c1c4       ?loadAMsgSet@XMLPlatformUtils@xercesc_3_1@@CAPEAVXMLMsgLoader@2@QEB_W@Z 000000018004d1c4 f   xerces-c_3_1:PlatformUtils.cpp.obj
 0001:0004c21c       ?closeFile@XMLPlatformUtils@xercesc_3_1@@SAXPEAXQEAVMemoryManager@2@@Z 000000018004d21c f   xerces-c_3_1:PlatformUtils.cpp.obj
 0001:0004c294       ?writeBufferToFile@XMLPlatformUtils@xercesc_3_1@@SAXQEAX_KQEBEQEAVMemoryManager@2@@Z 000000018004d294 f   xerces-c_3_1:PlatformUtils.cpp.obj
 0001:0004c310       ?isRelative@XMLPlatformUtils@xercesc_3_1@@SA_NQEB_WQEAVMemoryManager@2@@Z 000000018004d310 f   xerces-c_3_1:PlatformUtils.cpp.obj
 0001:0004c388       ?weavePaths@XMLPlatformUtils@xercesc_3_1@@SAPEA_WQEB_W0QEAVMemoryManager@2@@Z 000000018004d388 f   xerces-c_3_1:PlatformUtils.cpp.obj
 0001:0004c50c       ?removeDotSlash@XMLPlatformUtils@xercesc_3_1@@SAXQEA_WQEAVMemoryManager@2@@Z 000000018004d50c f   xerces-c_3_1:PlatformUtils.cpp.obj
 0001:0004c660       ?removeDotDotSlash@XMLPlatformUtils@xercesc_3_1@@SAXQEA_WQEAVMemoryManager@2@@Z 000000018004d660 f   xerces-c_3_1:PlatformUtils.cpp.obj
 0001:0004c8ac       ??0SAXException@xercesc_3_1@@QEAA@AEBV01@@Z 000000018004d8ac f i xerces-c_3_1:XercesDOMParser.cpp.obj
 0001:0004c940       ??1SAXException@xercesc_3_1@@UEAA@XZ 000000018004d940 f i xerces-c_3_1:XercesDOMParser.cpp.obj
 0001:0004c95c       ??_GSAXException@xercesc_3_1@@UEAAPEAXI@Z 000000018004d95c f i xerces-c_3_1:XercesDOMParser.cpp.obj
 0001:0004c95c       ??_ESAXException@xercesc_3_1@@UEAAPEAXI@Z 000000018004d95c f i  CIL library: CIL module
 0001:0004c9a4       ??0IOException@xercesc_3_1@@QEAA@AEBV01@@Z 000000018004d9a4 f i xerces-c_3_1:XercesDOMParser.cpp.obj
 0001:0004c9c8       ??1IOException@xercesc_3_1@@UEAA@XZ 000000018004d9c8 f i xerces-c_3_1:XercesDOMParser.cpp.obj
 0001:0004c9d8       ?duplicate@IOException@xercesc_3_1@@UEBAPEAVXMLException@2@XZ 000000018004d9d8 f i xerces-c_3_1:XercesDOMParser.cpp.obj
 0001:0004ca3c       ?getType@IOException@xercesc_3_1@@UEBAPEB_WXZ 000000018004da3c f i xerces-c_3_1:XercesDOMParser.cpp.obj
 0001:0004ca44       ??_GIOException@xercesc_3_1@@UEAAPEAXI@Z 000000018004da44 f i xerces-c_3_1:XercesDOMParser.cpp.obj
 0001:0004ca44       ??_EIOException@xercesc_3_1@@UEAAPEAXI@Z 000000018004da44 f i  CIL library: CIL module
 0001:0004ca84       ??0XercesDOMParser@xercesc_3_1@@QEAA@QEAVXMLValidator@1@QEAVMemoryManager@1@QEAVXMLGrammarPool@1@@Z 000000018004da84 f   xerces-c_3_1:XercesDOMParser.cpp.obj
 0001:0004caec       ??_GXercesDOMParser@xercesc_3_1@@UEAAPEAXI@Z 000000018004daec f i xerces-c_3_1:XercesDOMParser.cpp.obj
 0001:0004caec       ??_EXercesDOMParser@xercesc_3_1@@UEAAPEAXI@Z 000000018004daec f i  CIL library: CIL module
 0001:0004cb28       ??1XercesDOMParser@xercesc_3_1@@UEAA@XZ 000000018004db28 f   xerces-c_3_1:XercesDOMParser.cpp.obj
 0001:0004cb64       ?setErrorHandler@XercesDOMParser@xercesc_3_1@@QEAAXQEAVErrorHandler@2@@Z 000000018004db64 f   xerces-c_3_1:XercesDOMParser.cpp.obj
 0001:0004cba0       ?error@XercesDOMParser@xercesc_3_1@@UEAAXIQEB_WW4ErrTypes@XMLErrorReporter@2@000_K2@Z 000000018004dba0 f   xerces-c_3_1:XercesDOMParser.cpp.obj
 0001:0004cc80       ?resolveEntity@XercesDOMParser@xercesc_3_1@@UEAAPEAVInputSource@2@PEAVXMLResourceIdentifier@2@@Z 000000018004dc80 f   xerces-c_3_1:XercesDOMParser.cpp.obj
 0001:0004ccbc       ??_EXercesDOMParser@xercesc_3_1@@WBI@EAAPEAXI@Z 000000018004dcbc f i xerces-c_3_1:XercesDOMParser.cpp.obj
 0001:0004ccc8       ??_EXercesDOMParser@xercesc_3_1@@WCA@EAAPEAXI@Z 000000018004dcc8 f i xerces-c_3_1:XercesDOMParser.cpp.obj
 0001:0004ccd4       ??_EXercesDOMParser@xercesc_3_1@@W7EAAPEAXI@Z 000000018004dcd4 f i xerces-c_3_1:XercesDOMParser.cpp.obj
 0001:0004cce0       ??_EXercesDOMParser@xercesc_3_1@@WBA@EAAPEAXI@Z 000000018004dce0 f i xerces-c_3_1:XercesDOMParser.cpp.obj
 0001:0004ccec       ??_GXMLErrorReporter@xercesc_3_1@@UEAAPEAXI@Z 000000018004dcec f i xerces-c_3_1:AbstractDOMParser.cpp.obj
 0001:0004ccec       ??_EXMLErrorReporter@xercesc_3_1@@UEAAPEAXI@Z 000000018004dcec f i  CIL library: CIL module
 0001:0004ccec       ??_EAnnotationErrorReporter@xercesc_3_1@@UEAAPEAXI@Z 000000018004dcec f i  CIL library: CIL module
 0001:0004ccec       ??_GAnnotationErrorReporter@xercesc_3_1@@UEAAPEAXI@Z 000000018004dcec f i xerces-c_3_1:TraverseSchema.cpp.obj
 0001:0004cd18       ??0ArrayIndexOutOfBoundsException@xercesc_3_1@@QEAA@AEBV01@@Z 000000018004dd18 f i xerces-c_3_1:AbstractDOMParser.cpp.obj
 0001:0004cd3c       ??1ArrayIndexOutOfBoundsException@xercesc_3_1@@UEAA@XZ 000000018004dd3c f i xerces-c_3_1:AbstractDOMParser.cpp.obj
 0001:0004cd4c       ?duplicate@ArrayIndexOutOfBoundsException@xercesc_3_1@@UEBAPEAVXMLException@2@XZ 000000018004dd4c f i xerces-c_3_1:AbstractDOMParser.cpp.obj
 0001:0004cdb0       ?getType@ArrayIndexOutOfBoundsException@xercesc_3_1@@UEBAPEB_WXZ 000000018004ddb0 f i xerces-c_3_1:AbstractDOMParser.cpp.obj
 0001:0004cdb8       ??_EArrayIndexOutOfBoundsException@xercesc_3_1@@UEAAPEAXI@Z 000000018004ddb8 f i  CIL library: CIL module
 0001:0004cdb8       ??_GArrayIndexOutOfBoundsException@xercesc_3_1@@UEAAPEAXI@Z 000000018004ddb8 f i xerces-c_3_1:AbstractDOMParser.cpp.obj
 0001:0004cdf8       ?append@XMLBuffer@xercesc_3_1@@QEAAXQEB_W@Z 000000018004ddf8 f i xerces-c_3_1:AbstractDOMParser.cpp.obj
 0001:0004ce68       ??1XMLDocumentHandler@xercesc_3_1@@UEAA@XZ 000000018004de68 f i xerces-c_3_1:AbstractDOMParser.cpp.obj
 0001:0004ce74       ??_EXMLDocumentHandler@xercesc_3_1@@UEAAPEAXI@Z 000000018004de74 f i  CIL library: CIL module
 0001:0004ce74       ??_GXMLDocumentHandler@xercesc_3_1@@UEAAPEAXI@Z 000000018004de74 f i xerces-c_3_1:AbstractDOMParser.cpp.obj
 0001:0004cea0       ??1XMLEntityHandler@xercesc_3_1@@UEAA@XZ 000000018004dea0 f i xerces-c_3_1:AbstractDOMParser.cpp.obj
 0001:0004ceac       ??_EXMLEntityHandler@xercesc_3_1@@UEAAPEAXI@Z 000000018004deac f i  CIL library: CIL module
 0001:0004ceac       ??_GXMLEntityHandler@xercesc_3_1@@UEAAPEAXI@Z 000000018004deac f i xerces-c_3_1:AbstractDOMParser.cpp.obj
 0001:0004ced8       ??1DocTypeHandler@xercesc_3_1@@UEAA@XZ 000000018004ded8 f i xerces-c_3_1:AbstractDOMParser.cpp.obj
 0001:0004cee4       ??_EDocTypeHandler@xercesc_3_1@@UEAAPEAXI@Z 000000018004dee4 f i  CIL library: CIL module
 0001:0004cee4       ??_GDocTypeHandler@xercesc_3_1@@UEAAPEAXI@Z 000000018004dee4 f i xerces-c_3_1:AbstractDOMParser.cpp.obj
 0001:0004cf10       ??1XMLBufBid@xercesc_3_1@@QEAA@XZ 000000018004df10 f i xerces-c_3_1:AbstractDOMParser.cpp.obj
 0001:0004cf1c       ??1PSVIHandler@xercesc_3_1@@UEAA@XZ 000000018004df1c f i xerces-c_3_1:AbstractDOMParser.cpp.obj
 0001:0004cf28       ??_GPSVIHandler@xercesc_3_1@@UEAAPEAXI@Z 000000018004df28 f i xerces-c_3_1:AbstractDOMParser.cpp.obj
 0001:0004cf28       ??_EPSVIHandler@xercesc_3_1@@UEAAPEAXI@Z 000000018004df28 f i  CIL library: CIL module
 0001:0004cf54       ?setExternalSchemaLocation@XMLScanner@xercesc_3_1@@QEAAXQEB_W@Z 000000018004df54 f i xerces-c_3_1:AbstractDOMParser.cpp.obj
 0001:0004cfe0       ?setExternalNoNamespaceSchemaLocation@XMLScanner@xercesc_3_1@@QEAAXQEB_W@Z 000000018004dfe0 f i xerces-c_3_1:AbstractDOMParser.cpp.obj
 0001:0004d06c       ?getPooledString@DOMDocumentImpl@xercesc_3_1@@QEAAPEB_WPEB_W@Z 000000018004e06c f i xerces-c_3_1:AbstractDOMParser.cpp.obj
 0001:0004d188       ??0AbstractDOMParser@xercesc_3_1@@IEAA@QEAVXMLValidator@1@QEAVMemoryManager@1@QEAVXMLGrammarPool@1@@Z 000000018004e188 f   xerces-c_3_1:AbstractDOMParser.cpp.obj
 0001:0004d314       ??_GAbstractDOMParser@xercesc_3_1@@UEAAPEAXI@Z 000000018004e314 f i xerces-c_3_1:AbstractDOMParser.cpp.obj
 0001:0004d314       ??_EAbstractDOMParser@xercesc_3_1@@UEAAPEAXI@Z 000000018004e314 f i  CIL library: CIL module
 0001:0004d350       ??1AbstractDOMParser@xercesc_3_1@@UEAA@XZ 000000018004e350 f   xerces-c_3_1:AbstractDOMParser.cpp.obj
 0001:0004d3ec       ?cleanUp@AbstractDOMParser@xercesc_3_1@@AEAAXXZ 000000018004e3ec f   xerces-c_3_1:AbstractDOMParser.cpp.obj
 0001:0004d474       ??_GGrammarResolver@xercesc_3_1@@QEAAPEAXI@Z 000000018004e474 f i xerces-c_3_1:AbstractDOMParser.cpp.obj
 0001:0004d56c       ?reset@AbstractDOMParser@xercesc_3_1@@QEAAXXZ 000000018004e56c f   xerces-c_3_1:AbstractDOMParser.cpp.obj
 0001:0004d678       ?resetInProgress@AbstractDOMParser@xercesc_3_1@@AEAAXXZ 000000018004e678 f   xerces-c_3_1:AbstractDOMParser.cpp.obj
 0001:0004d680       ?resetPool@AbstractDOMParser@xercesc_3_1@@IEAAXXZ 000000018004e680 f   xerces-c_3_1:AbstractDOMParser.cpp.obj
 0001:0004d71c       ?setPSVIHandler@AbstractDOMParser@xercesc_3_1@@UEAAXQEAVPSVIHandler@2@@Z 000000018004e71c f   xerces-c_3_1:AbstractDOMParser.cpp.obj
 0001:0004d74c       ?setValidationScheme@AbstractDOMParser@xercesc_3_1@@QEAAXW4ValSchemes@12@@Z 000000018004e74c f   xerces-c_3_1:AbstractDOMParser.cpp.obj
 0001:0004d780       ?parse@AbstractDOMParser@xercesc_3_1@@QEAAXAEBVInputSource@2@@Z 000000018004e780 f   xerces-c_3_1:AbstractDOMParser.cpp.obj
 0001:0004d868       ?parse@AbstractDOMParser@xercesc_3_1@@QEAAXQEB_W@Z 000000018004e868 f   xerces-c_3_1:AbstractDOMParser.cpp.obj
 0001:0004d950       ?parse@AbstractDOMParser@xercesc_3_1@@QEAAXQEBD@Z 000000018004e950 f   xerces-c_3_1:AbstractDOMParser.cpp.obj
 0001:0004da38       ?handleElementPSVI@AbstractDOMParser@xercesc_3_1@@UEAAXQEB_W0PEAVPSVIElement@2@@Z 000000018004ea38 f   xerces-c_3_1:AbstractDOMParser.cpp.obj
 0001:0004dd68       ?handlePartialElementPSVI@AbstractDOMParser@xercesc_3_1@@UEAAXQEB_W0PEAVPSVIElement@2@@Z 000000018004ed68 f   xerces-c_3_1:AbstractDOMParser.cpp.obj
 0001:0004dd88       ?handleAttributesPSVI@AbstractDOMParser@xercesc_3_1@@UEAAXQEB_W0PEAVPSVIAttributeList@2@@Z 000000018004ed88 f   xerces-c_3_1:AbstractDOMParser.cpp.obj
 0001:0004e12c       ?docCharacters@AbstractDOMParser@xercesc_3_1@@UEAAXQEB_W_K_N@Z 000000018004f12c f   xerces-c_3_1:AbstractDOMParser.cpp.obj
 0001:0004e1b0       ?docComment@AbstractDOMParser@xercesc_3_1@@UEAAXQEB_W@Z 000000018004f1b0 f   xerces-c_3_1:AbstractDOMParser.cpp.obj
 0001:0004e1f4       ?docPI@AbstractDOMParser@xercesc_3_1@@UEAAXQEB_W0@Z 000000018004f1f4 f   xerces-c_3_1:AbstractDOMParser.cpp.obj
 0001:0004e234       ?endEntityReference@AbstractDOMParser@xercesc_3_1@@UEAAXAEBVXMLEntityDecl@2@@Z 000000018004f234 f   xerces-c_3_1:AbstractDOMParser.cpp.obj
 0001:0004e2b0       ?endElement@AbstractDOMParser@xercesc_3_1@@UEAAXAEBVXMLElementDecl@2@I_NQEB_W@Z 000000018004f2b0 f   xerces-c_3_1:AbstractDOMParser.cpp.obj
 0001:0004e428       ?ignorableWhitespace@AbstractDOMParser@xercesc_3_1@@UEAAXQEB_W_K_N@Z 000000018004f428 f   xerces-c_3_1:AbstractDOMParser.cpp.obj
 0001:0004e4d8       ?resetDocument@AbstractDOMParser@xercesc_3_1@@UEAAXXZ 000000018004f4d8 f   xerces-c_3_1:AbstractDOMParser.cpp.obj
 0001:0004e4e0       ?startDocument@AbstractDOMParser@xercesc_3_1@@UEAAXXZ 000000018004f4e0 f   xerces-c_3_1:AbstractDOMParser.cpp.obj
 0001:0004e5d4       ?endDocument@AbstractDOMParser@xercesc_3_1@@UEAAXXZ 000000018004f5d4 f   xerces-c_3_1:AbstractDOMParser.cpp.obj
 0001:0004e60c       ?startElement@AbstractDOMParser@xercesc_3_1@@UEAAXAEBVXMLElementDecl@2@IQEB_WAEBV?$RefVectorOf@VXMLAttr@xercesc_3_1@@@2@_K_N4@Z 000000018004f60c f   xerces-c_3_1:AbstractDOMParser.cpp.obj
 0001:0004ee08       ?startEntityReference@AbstractDOMParser@xercesc_3_1@@UEAAXAEBVXMLEntityDecl@2@@Z 000000018004fe08 f   xerces-c_3_1:AbstractDOMParser.cpp.obj
 0001:0004eeec       ?XMLDecl@AbstractDOMParser@xercesc_3_1@@UEAAXQEB_W000@Z 000000018004feec f   xerces-c_3_1:AbstractDOMParser.cpp.obj
 0001:0004ef9c       ?attDef@AbstractDOMParser@xercesc_3_1@@UEAAXAEBVDTDElementDecl@2@AEBVDTDAttDef@2@_N@Z 000000018004ff9c f   xerces-c_3_1:AbstractDOMParser.cpp.obj
 0001:0004f450       ?doctypeComment@AbstractDOMParser@xercesc_3_1@@UEAAXQEB_W@Z 0000000180050450 f   xerces-c_3_1:AbstractDOMParser.cpp.obj
 0001:0004f5ac       ?doctypeDecl@AbstractDOMParser@xercesc_3_1@@UEAAXAEBVDTDElementDecl@2@QEB_W1_N2@Z 00000001800505ac f   xerces-c_3_1:AbstractDOMParser.cpp.obj
 0001:0004f608       ?doctypePI@AbstractDOMParser@xercesc_3_1@@UEAAXQEB_W0@Z 0000000180050608 f   xerces-c_3_1:AbstractDOMParser.cpp.obj
 0001:0004f75c       ?doctypeWhitespace@AbstractDOMParser@xercesc_3_1@@UEAAXQEB_W_K@Z 000000018005075c f   xerces-c_3_1:AbstractDOMParser.cpp.obj
 0001:0004f7d8       ?elementDecl@AbstractDOMParser@xercesc_3_1@@UEAAXAEBVDTDElementDecl@2@_N@Z 00000001800507d8 f   xerces-c_3_1:AbstractDOMParser.cpp.obj
 0001:0004f958       ?endAttList@AbstractDOMParser@xercesc_3_1@@UEAAXAEBVDTDElementDecl@2@@Z 0000000180050958 f   xerces-c_3_1:AbstractDOMParser.cpp.obj
 0001:0004fd08       ?endIntSubset@AbstractDOMParser@xercesc_3_1@@UEAAXXZ 0000000180050d08 f   xerces-c_3_1:AbstractDOMParser.cpp.obj
 0001:0004fd50       ?entityDecl@AbstractDOMParser@xercesc_3_1@@UEAAXAEBVDTDEntityDecl@2@_N1@Z 0000000180050d50 f   xerces-c_3_1:AbstractDOMParser.cpp.obj
 0001:00050200       ?resetDocType@AbstractDOMParser@xercesc_3_1@@UEAAXXZ 0000000180051200 f   xerces-c_3_1:AbstractDOMParser.cpp.obj
 0001:00050208       ?notationDecl@AbstractDOMParser@xercesc_3_1@@UEAAXAEBVXMLNotationDecl@2@_N@Z 0000000180051208 f   xerces-c_3_1:AbstractDOMParser.cpp.obj
 0001:00050580       ?startAttList@AbstractDOMParser@xercesc_3_1@@UEAAXAEBVDTDElementDecl@2@@Z 0000000180051580 f   xerces-c_3_1:AbstractDOMParser.cpp.obj
 0001:0005067c       ?startIntSubset@AbstractDOMParser@xercesc_3_1@@UEAAXXZ 000000018005167c f   xerces-c_3_1:AbstractDOMParser.cpp.obj
 0001:00050688       ?TextDecl@AbstractDOMParser@xercesc_3_1@@UEAAXQEB_W0@Z 0000000180051688 f   xerces-c_3_1:AbstractDOMParser.cpp.obj
 0001:000506fc       ?createCDATASection@AbstractDOMParser@xercesc_3_1@@MEAAPEAVDOMCDATASection@2@PEB_W_K@Z 00000001800516fc f   xerces-c_3_1:AbstractDOMParser.cpp.obj
 0001:000507ac       ?createText@AbstractDOMParser@xercesc_3_1@@MEAAPEAVDOMText@2@PEB_W_K@Z 00000001800517ac f   xerces-c_3_1:AbstractDOMParser.cpp.obj
 0001:0005085c       ?createElement@AbstractDOMParser@xercesc_3_1@@MEAAPEAVDOMElement@2@PEB_W@Z 000000018005185c f   xerces-c_3_1:AbstractDOMParser.cpp.obj
 0001:000508c4       ?createElementNS@AbstractDOMParser@xercesc_3_1@@MEAAPEAVDOMElement@2@PEB_W000@Z 00000001800518c4 f   xerces-c_3_1:AbstractDOMParser.cpp.obj
 0001:0005095c       ?createAttr@AbstractDOMParser@xercesc_3_1@@MEAAPEAVDOMAttr@2@PEB_W@Z 000000018005195c f   xerces-c_3_1:AbstractDOMParser.cpp.obj
 0001:000509c4       ?createAttrNS@AbstractDOMParser@xercesc_3_1@@MEAAPEAVDOMAttr@2@PEB_W000@Z 00000001800519c4 f   xerces-c_3_1:AbstractDOMParser.cpp.obj
 0001:00050a58       ??1?$BaseRefVectorOf@VDOMDocumentImpl@xercesc_3_1@@@xercesc_3_1@@UEAA@XZ 0000000180051a58 f i xerces-c_3_1:AbstractDOMParser.cpp.obj
 0001:00050a64       ??_E?$BaseRefVectorOf@VDOMDocumentImpl@xercesc_3_1@@@xercesc_3_1@@UEAAPEAXI@Z 0000000180051a64 f i  CIL library: CIL module
 0001:00050a64       ??_G?$BaseRefVectorOf@VDOMDocumentImpl@xercesc_3_1@@@xercesc_3_1@@UEAAPEAXI@Z 0000000180051a64 f i xerces-c_3_1:AbstractDOMParser.cpp.obj
 0001:00050a94       ??_G?$RefVectorOf@VDOMDocumentImpl@xercesc_3_1@@@xercesc_3_1@@UEAAPEAXI@Z 0000000180051a94 f i xerces-c_3_1:AbstractDOMParser.cpp.obj
 0001:00050a94       ??_E?$RefVectorOf@VDOMDocumentImpl@xercesc_3_1@@@xercesc_3_1@@UEAAPEAXI@Z 0000000180051a94 f i  CIL library: CIL module
 0001:00050b30       ??_EAbstractDOMParser@xercesc_3_1@@WBI@EAAPEAXI@Z 0000000180051b30 f i xerces-c_3_1:AbstractDOMParser.cpp.obj
 0001:00050b3c       ??_EAbstractDOMParser@xercesc_3_1@@WCA@EAAPEAXI@Z 0000000180051b3c f i xerces-c_3_1:AbstractDOMParser.cpp.obj
 0001:00050b48       ??_EAbstractDOMParser@xercesc_3_1@@W7EAAPEAXI@Z 0000000180051b48 f i xerces-c_3_1:AbstractDOMParser.cpp.obj
 0001:00050b54       ??_EAbstractDOMParser@xercesc_3_1@@WBA@EAAPEAXI@Z 0000000180051b54 f i xerces-c_3_1:AbstractDOMParser.cpp.obj
 0001:00050b60       ??0SAXException@xercesc_3_1@@QEAA@QEB_WQEAVMemoryManager@1@@Z 0000000180051b60 f i xerces-c_3_1:SAXParseException.cpp.obj
 0001:00050bf0       ??_GSAXParseException@xercesc_3_1@@UEAAPEAXI@Z 0000000180051bf0 f i xerces-c_3_1:SAXParseException.cpp.obj
 0001:00050bf0       ??_ESAXParseException@xercesc_3_1@@UEAAPEAXI@Z 0000000180051bf0 f i  CIL library: CIL module
 0001:00050c2c       ??0SAXParseException@xercesc_3_1@@QEAA@QEB_W00_K1QEAVMemoryManager@1@@Z 0000000180051c2c f   xerces-c_3_1:SAXParseException.cpp.obj
 0001:00050d28       ??0SAXParseException@xercesc_3_1@@QEAA@AEBV01@@Z 0000000180051d28 f   xerces-c_3_1:SAXParseException.cpp.obj
 0001:00050e24       ??1SAXParseException@xercesc_3_1@@UEAA@XZ 0000000180051e24 f   xerces-c_3_1:SAXParseException.cpp.obj
 0001:00050e80       ??0IllegalArgumentException@xercesc_3_1@@QEAA@AEBV01@@Z 0000000180051e80 f i xerces-c_3_1:XMLString.cpp.obj
 0001:00050ea4       ??1IllegalArgumentException@xercesc_3_1@@UEAA@XZ 0000000180051ea4 f i xerces-c_3_1:XMLString.cpp.obj
 0001:00050eb4       ?duplicate@IllegalArgumentException@xercesc_3_1@@UEBAPEAVXMLException@2@XZ 0000000180051eb4 f i xerces-c_3_1:XMLString.cpp.obj
 0001:00050f18       ?getType@IllegalArgumentException@xercesc_3_1@@UEBAPEB_WXZ 0000000180051f18 f i xerces-c_3_1:XMLString.cpp.obj
 0001:00050f20       ??_EIllegalArgumentException@xercesc_3_1@@UEAAPEAXI@Z 0000000180051f20 f i  CIL library: CIL module
 0001:00050f20       ??_GIllegalArgumentException@xercesc_3_1@@UEAAPEAXI@Z 0000000180051f20 f i xerces-c_3_1:XMLString.cpp.obj
 0001:00050f60       ??0NumberFormatException@xercesc_3_1@@QEAA@AEBV01@@Z 0000000180051f60 f i xerces-c_3_1:XMLString.cpp.obj
 0001:00050f84       ??1NumberFormatException@xercesc_3_1@@UEAA@XZ 0000000180051f84 f i xerces-c_3_1:XMLString.cpp.obj
 0001:00050f94       ?duplicate@NumberFormatException@xercesc_3_1@@UEBAPEAVXMLException@2@XZ 0000000180051f94 f i xerces-c_3_1:XMLString.cpp.obj
 0001:00050ff8       ?getType@NumberFormatException@xercesc_3_1@@UEBAPEB_WXZ 0000000180051ff8 f i xerces-c_3_1:XMLString.cpp.obj
 0001:00051000       ??_GNumberFormatException@xercesc_3_1@@UEAAPEAXI@Z 0000000180052000 f i xerces-c_3_1:XMLString.cpp.obj
 0001:00051000       ??_ENumberFormatException@xercesc_3_1@@UEAAPEAXI@Z 0000000180052000 f i  CIL library: CIL module
 0001:00051040       ?replaceTokens@XMLString@xercesc_3_1@@SA_KQEA_W_KQEB_W222QEAVMemoryManager@2@@Z 0000000180052040 f   xerces-c_3_1:XMLString.cpp.obj
 0001:000511bc       ?replicate@XMLString@xercesc_3_1@@SAPEADQEBDQEAVMemoryManager@2@@Z 00000001800521bc f   xerces-c_3_1:XMLString.cpp.obj
 0001:00051214       ?isValidNOTATION@XMLString@xercesc_3_1@@SA_NQEB_WQEAVMemoryManager@2@@Z 0000000180052214 f   xerces-c_3_1:XMLString.cpp.obj
 0001:0005136c       ?isValidEncName@XMLString@xercesc_3_1@@SA_NQEB_W@Z 000000018005236c f   xerces-c_3_1:XMLString.cpp.obj
 0001:000513d8       ?isAlphaNum@XMLString@xercesc_3_1@@SA_N_W@Z 00000001800523d8 f   xerces-c_3_1:XMLString.cpp.obj
 0001:00051400       ?isHex@XMLString@xercesc_3_1@@SA_N_W@Z 0000000180052400 f   xerces-c_3_1:XMLString.cpp.obj
 0001:0005142c       ?sizeToText@XMLString@xercesc_3_1@@SAX_KQEA_W0IQEAVMemoryManager@2@@Z 000000018005242c f   xerces-c_3_1:XMLString.cpp.obj
 0001:000515a8       ?binToText@XMLString@xercesc_3_1@@SAXKQEA_W_KIQEAVMemoryManager@2@@Z 00000001800525a8 f   xerces-c_3_1:XMLString.cpp.obj
 0001:0005179c       ?binToText@XMLString@xercesc_3_1@@SAXHQEA_W_KIQEAVMemoryManager@2@@Z 000000018005279c f   xerces-c_3_1:XMLString.cpp.obj
 0001:000517d0       ?catString@XMLString@xercesc_3_1@@SAXQEA_WQEB_W@Z 00000001800527d0 f   xerces-c_3_1:XMLString.cpp.obj
 0001:00051814       ?compareIStringASCII@XMLString@xercesc_3_1@@SAHQEB_W0@Z 0000000180052814 f   xerces-c_3_1:XMLString.cpp.obj
 0001:000518ac       ?compareNString@XMLString@xercesc_3_1@@SAHQEB_W0_K@Z 00000001800528ac f   xerces-c_3_1:XMLString.cpp.obj
 0001:000518ec       ?compareString@XMLString@xercesc_3_1@@SAHQEB_W0@Z 00000001800528ec f   xerces-c_3_1:XMLString.cpp.obj
 0001:00051964       ?regionMatches@XMLString@xercesc_3_1@@SA_NQEB_WH0H_K@Z 0000000180052964 f   xerces-c_3_1:XMLString.cpp.obj
 0001:00051a00       ?regionIMatches@XMLString@xercesc_3_1@@SA_NQEB_WH0H_K@Z 0000000180052a00 f   xerces-c_3_1:XMLString.cpp.obj
 0001:00051aa4       ?copyNString@XMLString@xercesc_3_1@@SA_NQEA_WQEB_W_K@Z 0000000180052aa4 f   xerces-c_3_1:XMLString.cpp.obj
 0001:00051b10       ?findAny@XMLString@xercesc_3_1@@SAPEB_WQEB_W0@Z 0000000180052b10 f   xerces-c_3_1:XMLString.cpp.obj
 0001:00051b10       ?findAny@XMLString@xercesc_3_1@@SAPEA_WQEA_WQEB_W@Z 0000000180052b10 f   xerces-c_3_1:XMLString.cpp.obj
 0001:00051b48       ?patternMatch@XMLString@xercesc_3_1@@SAHQEB_W0@Z 0000000180052b48 f   xerces-c_3_1:XMLString.cpp.obj
 0001:00051bc8       ?indexOf@XMLString@xercesc_3_1@@SAHQEB_W_W@Z 0000000180052bc8 f   xerces-c_3_1:XMLString.cpp.obj
 0001:00051bfc       ?indexOf@XMLString@xercesc_3_1@@SAHQEB_W_W_KQEAVMemoryManager@2@@Z 0000000180052bfc f   xerces-c_3_1:XMLString.cpp.obj
 0001:00051ca8       ?textToBin@XMLString@xercesc_3_1@@SA_NQEB_WAEAIQEAVMemoryManager@2@@Z 0000000180052ca8 f   xerces-c_3_1:XMLString.cpp.obj
 0001:00051e10       ?parseInt@XMLString@xercesc_3_1@@SAHQEB_WQEAVMemoryManager@2@@Z 0000000180052e10 f   xerces-c_3_1:XMLString.cpp.obj
 0001:00052060       ?trim@XMLString@xercesc_3_1@@SAXQEA_W@Z 0000000180053060 f   xerces-c_3_1:XMLString.cpp.obj
 0001:00052108       ?subString@XMLString@xercesc_3_1@@SAXQEA_WQEB_W_K2QEAVMemoryManager@2@@Z 0000000180053108 f   xerces-c_3_1:XMLString.cpp.obj
 0001:00052150       ?subString@XMLString@xercesc_3_1@@SAXQEA_WQEB_W_K22QEAVMemoryManager@2@@Z 0000000180053150 f   xerces-c_3_1:XMLString.cpp.obj
 0001:00052254       ?tokenizeString@XMLString@xercesc_3_1@@SAPEAV?$BaseRefVectorOf@_W@2@QEB_WQEAVMemoryManager@2@@Z 0000000180053254 f   xerces-c_3_1:XMLString.cpp.obj
 0001:000523ec       ?isInList@XMLString@xercesc_3_1@@SA_NQEB_W0@Z 00000001800533ec f   xerces-c_3_1:XMLString.cpp.obj
 0001:00052484       ?isWSReplaced@XMLString@xercesc_3_1@@SA_NQEB_W@Z 0000000180053484 f   xerces-c_3_1:XMLString.cpp.obj
 0001:000524b0       ?replaceWS@XMLString@xercesc_3_1@@SAXPEA_WQEAVMemoryManager@2@@Z 00000001800534b0 f   xerces-c_3_1:XMLString.cpp.obj
 0001:000524e0       ?isWSCollapsed@XMLString@xercesc_3_1@@SA_NQEB_W@Z 00000001800534e0 f   xerces-c_3_1:XMLString.cpp.obj
 0001:00052554       ?collapseWS@XMLString@xercesc_3_1@@SAXPEA_WQEAVMemoryManager@2@@Z 0000000180053554 f   xerces-c_3_1:XMLString.cpp.obj
 0001:00052644       ?removeChar@XMLString@xercesc_3_1@@SAXQEB_WAEB_WAEAVXMLBuffer@2@@Z 0000000180053644 f   xerces-c_3_1:XMLString.cpp.obj
 0001:000526c4       ?fixURI@XMLString@xercesc_3_1@@SAXQEB_WQEA_W@Z 00000001800536c4 f   xerces-c_3_1:XMLString.cpp.obj
 0001:00052840       ??1?$BaseRefVectorOf@_W@xercesc_3_1@@UEAA@XZ 0000000180053840 f i xerces-c_3_1:XMLString.cpp.obj
 0001:0005284c       ?setElementAt@?$BaseRefVectorOf@_W@xercesc_3_1@@UEAAXQEA_W_K@Z 000000018005384c f i xerces-c_3_1:XMLString.cpp.obj
 0001:000528f0       ?removeAllElements@?$BaseRefVectorOf@_W@xercesc_3_1@@UEAAXXZ 00000001800538f0 f i xerces-c_3_1:XMLString.cpp.obj
 0001:00052940       ?removeElementAt@?$BaseRefVectorOf@_W@xercesc_3_1@@UEAAX_K@Z 0000000180053940 f i xerces-c_3_1:XMLString.cpp.obj
 0001:00052a18       ?removeLastElement@?$BaseRefVectorOf@_W@xercesc_3_1@@UEAAXXZ 0000000180053a18 f i xerces-c_3_1:XMLString.cpp.obj
 0001:00052a4c       ?cleanup@?$BaseRefVectorOf@_W@xercesc_3_1@@UEAAXXZ 0000000180053a4c f i xerces-c_3_1:XMLString.cpp.obj
 0001:00052a9c       ?setElementAt@?$RefArrayVectorOf@_W@xercesc_3_1@@UEAAXQEA_W_K@Z 0000000180053a9c f i xerces-c_3_1:XMLString.cpp.obj
 0001:00052b40       ?removeAllElements@?$RefArrayVectorOf@_W@xercesc_3_1@@UEAAXXZ 0000000180053b40 f i xerces-c_3_1:XMLString.cpp.obj
 0001:00052b90       ?removeElementAt@?$RefArrayVectorOf@_W@xercesc_3_1@@UEAAX_K@Z 0000000180053b90 f i xerces-c_3_1:XMLString.cpp.obj
 0001:00052c64       ?removeLastElement@?$RefArrayVectorOf@_W@xercesc_3_1@@UEAAXXZ 0000000180053c64 f i xerces-c_3_1:XMLString.cpp.obj
 0001:00052c9c       ?cleanup@?$RefArrayVectorOf@_W@xercesc_3_1@@UEAAXXZ 0000000180053c9c f i xerces-c_3_1:XMLString.cpp.obj
 0001:00052cec       ??_E?$BaseRefVectorOf@_W@xercesc_3_1@@UEAAPEAXI@Z 0000000180053cec f i  CIL library: CIL module
 0001:00052cec       ??_G?$BaseRefVectorOf@_W@xercesc_3_1@@UEAAPEAXI@Z 0000000180053cec f i xerces-c_3_1:XMLString.cpp.obj
 0001:00052d1c       ??_E?$RefArrayVectorOf@_W@xercesc_3_1@@UEAAPEAXI@Z 0000000180053d1c f i  CIL library: CIL module
 0001:00052d1c       ??_G?$RefArrayVectorOf@_W@xercesc_3_1@@UEAAPEAXI@Z 0000000180053d1c f i xerces-c_3_1:XMLString.cpp.obj
 0001:00052db0       ??0?$BaseRefVectorOf@_W@xercesc_3_1@@QEAA@_K_NQEAVMemoryManager@1@@Z 0000000180053db0 f i xerces-c_3_1:XMLString.cpp.obj
 0001:00052e18       ??2XMemory@xercesc_3_1@@SAPEAX_K@Z 0000000180053e18 f   xerces-c_3_1:XMemory.cpp.obj
 0001:00052e44       ??3XMemory@xercesc_3_1@@SAXPEAX@Z 0000000180053e44 f   xerces-c_3_1:XMemory.cpp.obj
 0001:00052e44       ??3XMemory@xercesc_3_1@@SAXPEAXPEAVMemoryManager@1@@Z 0000000180053e44 f   xerces-c_3_1:XMemory.cpp.obj
 0001:00052e60       ??1BinInputStream@xercesc_3_1@@UEAA@XZ 0000000180053e60 f   xerces-c_3_1:BinInputStream.cpp.obj
 0001:00052e6c       ??_GBinInputStream@xercesc_3_1@@UEAAPEAXI@Z 0000000180053e6c f i xerces-c_3_1:BinInputStream.cpp.obj
 0001:00052e6c       ??_EBinInputStream@xercesc_3_1@@UEAAPEAXI@Z 0000000180053e6c f i  CIL library: CIL module
 0001:00052e9c       ??1InputSource@xercesc_3_1@@UEAA@XZ 0000000180053e9c f   xerces-c_3_1:InputSource.cpp.obj
 0001:00052ee0       ??_EInputSource@xercesc_3_1@@UEAAPEAXI@Z 0000000180053ee0 f i  CIL library: CIL module
 0001:00052ee0       ??_GInputSource@xercesc_3_1@@UEAAPEAXI@Z 0000000180053ee0 f i xerces-c_3_1:InputSource.cpp.obj
 0001:00052f1c       ?setEncoding@InputSource@xercesc_3_1@@UEAAXQEB_W@Z 0000000180053f1c f   xerces-c_3_1:InputSource.cpp.obj
 0001:00052f9c       ?setPublicId@InputSource@xercesc_3_1@@UEAAXQEB_W@Z 0000000180053f9c f   xerces-c_3_1:InputSource.cpp.obj
 0001:0005301c       ?setSystemId@InputSource@xercesc_3_1@@UEAAXQEB_W@Z 000000018005401c f   xerces-c_3_1:InputSource.cpp.obj
 0001:0005309c       ??0BinFileInputStream@xercesc_3_1@@QEAA@QEB_WQEAVMemoryManager@1@@Z 000000018005409c f   xerces-c_3_1:BinFileInputStream.cpp.obj
 0001:00053138       ??_EBinFileInputStream@xercesc_3_1@@UEAAPEAXI@Z 0000000180054138 f i  CIL library: CIL module
 0001:00053138       ??_GBinFileInputStream@xercesc_3_1@@UEAAPEAXI@Z 0000000180054138 f i xerces-c_3_1:BinFileInputStream.cpp.obj
 0001:00053174       ??1BinFileInputStream@xercesc_3_1@@UEAA@XZ 0000000180054174 f   xerces-c_3_1:BinFileInputStream.cpp.obj
 0001:000531c0       ?getSize@BinFileInputStream@xercesc_3_1@@QEBA_KXZ 00000001800541c0 f   xerces-c_3_1:BinFileInputStream.cpp.obj
 0001:00053238       ?curPos@BinFileInputStream@xercesc_3_1@@UEBA_KXZ 0000000180054238 f   xerces-c_3_1:BinFileInputStream.cpp.obj
 0001:000532b0       ?readBytes@BinFileInputStream@xercesc_3_1@@UEAA_KQEAE_K@Z 00000001800542b0 f   xerces-c_3_1:BinFileInputStream.cpp.obj
 0001:00053330       ??0LocalFileInputSource@xercesc_3_1@@QEAA@QEB_W0QEAVMemoryManager@1@@Z 0000000180054330 f   xerces-c_3_1:LocalFileInputSource.cpp.obj
 0001:00053424       ??_ELocalFileInputSource@xercesc_3_1@@UEAAPEAXI@Z 0000000180054424 f i  CIL library: CIL module
 0001:00053424       ??_GLocalFileInputSource@xercesc_3_1@@UEAAPEAXI@Z 0000000180054424 f i xerces-c_3_1:LocalFileInputSource.cpp.obj
 0001:00053464       ??0LocalFileInputSource@xercesc_3_1@@QEAA@QEB_WQEAVMemoryManager@1@@Z 0000000180054464 f   xerces-c_3_1:LocalFileInputSource.cpp.obj
 0001:00053688       ??1LocalFileInputSource@xercesc_3_1@@UEAA@XZ 0000000180054688 f   xerces-c_3_1:LocalFileInputSource.cpp.obj
 0001:00053698       ?makeStream@LocalFileInputSource@xercesc_3_1@@UEBAPEAVBinInputStream@2@XZ 0000000180054698 f   xerces-c_3_1:LocalFileInputSource.cpp.obj
 0001:0005372c       ?panic@DefaultPanicHandler@xercesc_3_1@@UEAAXW4PanicReasons@PanicHandler@2@@Z 000000018005472c f   xerces-c_3_1:DefaultPanicHandler.cpp.obj
 0001:000537c4       ??0OutOfMemoryException@xercesc_3_1@@QEAA@AEBV01@@Z 00000001800547c4 f i xerces-c_3_1:MemoryManagerImpl.cpp.obj
 0001:000537c4       ?getExceptionMemoryManager@MemoryManagerImpl@xercesc_3_1@@UEAAPEAVMemoryManager@2@XZ 00000001800547c4 f i xerces-c_3_1:MemoryManagerImpl.cpp.obj
 0001:000537c8       ?allocate@MemoryManagerImpl@xercesc_3_1@@UEAAPEAX_K@Z 00000001800547c8 f   xerces-c_3_1:MemoryManagerImpl.cpp.obj
 0001:00053814       ?deallocate@MemoryManagerImpl@xercesc_3_1@@UEAAXPEAX@Z 0000000180054814 f   xerces-c_3_1:MemoryManagerImpl.cpp.obj
 0001:00053830       ??0ENameMap@xercesc_3_1@@IEAA@QEB_W@Z 0000000180054830 f i xerces-c_3_1:TransService.cpp.obj
 0001:000538b0       ??0TranscodingException@xercesc_3_1@@QEAA@AEBV01@@Z 00000001800548b0 f i xerces-c_3_1:TransService.cpp.obj
 0001:000538d4       ??1TranscodingException@xercesc_3_1@@UEAA@XZ 00000001800548d4 f i xerces-c_3_1:TransService.cpp.obj
 0001:000538e4       ?duplicate@TranscodingException@xercesc_3_1@@UEBAPEAVXMLException@2@XZ 00000001800548e4 f i xerces-c_3_1:TransService.cpp.obj
 0001:00053948       ?getType@TranscodingException@xercesc_3_1@@UEBAPEB_WXZ 0000000180054948 f i xerces-c_3_1:TransService.cpp.obj
 0001:00053950       ??_ETranscodingException@xercesc_3_1@@UEAAPEAXI@Z 0000000180054950 f i  CIL library: CIL module
 0001:00053950       ??_GTranscodingException@xercesc_3_1@@UEAAPEAXI@Z 0000000180054950 f i xerces-c_3_1:TransService.cpp.obj
 0001:00053990       ?initializeTransService@XMLInitializer@xercesc_3_1@@KAXXZ 0000000180054990 f   xerces-c_3_1:TransService.cpp.obj
 0001:00053a90       ?terminateTransService@XMLInitializer@xercesc_3_1@@KAXXZ 0000000180054a90 f   xerces-c_3_1:TransService.cpp.obj
 0001:00053b74       ??_GXMLTransService@xercesc_3_1@@UEAAPEAXI@Z 0000000180054b74 f i xerces-c_3_1:TransService.cpp.obj
 0001:00053b74       ??_EXMLTransService@xercesc_3_1@@UEAAPEAXI@Z 0000000180054b74 f i  CIL library: CIL module
 0001:00053ba4       ??1XMLTransService@xercesc_3_1@@UEAA@XZ 0000000180054ba4 f   xerces-c_3_1:TransService.cpp.obj
 0001:00053bb0       ?makeNewTranscoderFor@XMLTransService@xercesc_3_1@@QEAAPEAVXMLTranscoder@2@QEB_WAEAW4Codes@12@_KQEAVMemoryManager@2@@Z 0000000180054bb0 f   xerces-c_3_1:TransService.cpp.obj
 0001:00053cd8       ?makeNewTranscoderFor@XMLTransService@xercesc_3_1@@QEAAPEAVXMLTranscoder@2@W4Encodings@XMLRecognizer@2@AEAW4Codes@12@_KQEAVMemoryManager@2@@Z 0000000180054cd8 f   xerces-c_3_1:TransService.cpp.obj
 0001:00053ddc       ?initTransService@XMLTransService@xercesc_3_1@@MEAAXXZ 0000000180054ddc f   xerces-c_3_1:TransService.cpp.obj
 0001:00054b1c       ??0XMLTranscoder@xercesc_3_1@@IEAA@QEB_W_KQEAVMemoryManager@1@@Z 0000000180055b1c f   xerces-c_3_1:TransService.cpp.obj
 0001:00054ba4       ?put@?$RefHashTableOf@VENameMap@xercesc_3_1@@UStringHasher@2@@xercesc_3_1@@QEAAXPEAXQEAVENameMap@2@@Z 0000000180055ba4 f i xerces-c_3_1:TransService.cpp.obj
 0001:00054c70       ??1?$BaseRefVectorOf@VENameMap@xercesc_3_1@@@xercesc_3_1@@UEAA@XZ 0000000180055c70 f i xerces-c_3_1:TransService.cpp.obj
 0001:00054c7c       ?makeNew@?$ENameMapFor@VXMLChTranscoder@xercesc_3_1@@@xercesc_3_1@@UEBAPEAVXMLTranscoder@2@_KQEAVMemoryManager@2@@Z 0000000180055c7c f i xerces-c_3_1:TransService.cpp.obj
 0001:00054cec       ?makeNew@?$ENameMapFor@VXMLASCIITranscoder@xercesc_3_1@@@xercesc_3_1@@UEBAPEAVXMLTranscoder@2@_KQEAVMemoryManager@2@@Z 0000000180055cec f i xerces-c_3_1:TransService.cpp.obj
 0001:00054d5c       ?makeNew@?$ENameMapFor@VXMLUTF8Transcoder@xercesc_3_1@@@xercesc_3_1@@UEBAPEAVXMLTranscoder@2@_KQEAVMemoryManager@2@@Z 0000000180055d5c f i xerces-c_3_1:TransService.cpp.obj
 0001:00054dcc       ?makeNew@?$ENameMapFor@VXML88591Transcoder@xercesc_3_1@@@xercesc_3_1@@UEBAPEAVXMLTranscoder@2@_KQEAVMemoryManager@2@@Z 0000000180055dcc f i xerces-c_3_1:TransService.cpp.obj
 0001:00054e3c       ??0?$EEndianNameMapFor@VXMLUTF16Transcoder@xercesc_3_1@@@xercesc_3_1@@QEAA@QEB_W_N@Z 0000000180055e3c f i xerces-c_3_1:TransService.cpp.obj
 0001:00054e70       ?makeNew@?$EEndianNameMapFor@VXMLUTF16Transcoder@xercesc_3_1@@@xercesc_3_1@@UEBAPEAVXMLTranscoder@2@_KQEAVMemoryManager@2@@Z 0000000180055e70 f i xerces-c_3_1:TransService.cpp.obj
 0001:00054ef0       ??0?$EEndianNameMapFor@VXMLUCS4Transcoder@xercesc_3_1@@@xercesc_3_1@@QEAA@QEB_W_N@Z 0000000180055ef0 f i xerces-c_3_1:TransService.cpp.obj
 0001:00054f24       ?makeNew@?$EEndianNameMapFor@VXMLUCS4Transcoder@xercesc_3_1@@@xercesc_3_1@@UEBAPEAVXMLTranscoder@2@_KQEAVMemoryManager@2@@Z 0000000180055f24 f i xerces-c_3_1:TransService.cpp.obj
 0001:00054fa4       ?makeNew@?$ENameMapFor@VXMLEBCDICTranscoder@xercesc_3_1@@@xercesc_3_1@@UEBAPEAVXMLTranscoder@2@_KQEAVMemoryManager@2@@Z 0000000180055fa4 f i xerces-c_3_1:TransService.cpp.obj
 0001:00055030       ?makeNew@?$ENameMapFor@VXMLIBM1047Transcoder@xercesc_3_1@@@xercesc_3_1@@UEBAPEAVXMLTranscoder@2@_KQEAVMemoryManager@2@@Z 0000000180056030 f i xerces-c_3_1:TransService.cpp.obj
 0001:000550bc       ?makeNew@?$ENameMapFor@VXMLIBM1140Transcoder@xercesc_3_1@@@xercesc_3_1@@UEBAPEAVXMLTranscoder@2@_KQEAVMemoryManager@2@@Z 00000001800560bc f i xerces-c_3_1:TransService.cpp.obj
 0001:00055148       ?makeNew@?$ENameMapFor@VXMLWin1252Transcoder@xercesc_3_1@@@xercesc_3_1@@UEBAPEAVXMLTranscoder@2@_KQEAVMemoryManager@2@@Z 0000000180056148 f i xerces-c_3_1:TransService.cpp.obj
 0001:000551d4       ??_G?$BaseRefVectorOf@VENameMap@xercesc_3_1@@@xercesc_3_1@@UEAAPEAXI@Z 00000001800561d4 f i xerces-c_3_1:TransService.cpp.obj
 0001:000551d4       ??_E?$BaseRefVectorOf@VENameMap@xercesc_3_1@@@xercesc_3_1@@UEAAPEAXI@Z 00000001800561d4 f i  CIL library: CIL module
 0001:00055204       ??_E?$RefVectorOf@VENameMap@xercesc_3_1@@@xercesc_3_1@@UEAAPEAXI@Z 0000000180056204 f i  CIL library: CIL module
 0001:00055204       ??_G?$RefVectorOf@VENameMap@xercesc_3_1@@@xercesc_3_1@@UEAAPEAXI@Z 0000000180056204 f i xerces-c_3_1:TransService.cpp.obj
 0001:000552a0       ??_G?$EEndianNameMapFor@VXMLUTF16Transcoder@xercesc_3_1@@@xercesc_3_1@@UEAAPEAXI@Z 00000001800562a0 f i xerces-c_3_1:TransService.cpp.obj
 0001:000552a0       ??_E?$ENameMapFor@VXMLIBM1140Transcoder@xercesc_3_1@@@xercesc_3_1@@UEAAPEAXI@Z 00000001800562a0 f i  CIL library: CIL module
 0001:000552a0       ??_E?$ENameMapFor@VXMLChTranscoder@xercesc_3_1@@@xercesc_3_1@@UEAAPEAXI@Z 00000001800562a0 f i  CIL library: CIL module
 0001:000552a0       ??_E?$EEndianNameMapFor@VXMLUTF16Transcoder@xercesc_3_1@@@xercesc_3_1@@UEAAPEAXI@Z 00000001800562a0 f i  CIL library: CIL module
 0001:000552a0       ??_G?$ENameMapFor@VXMLIBM1140Transcoder@xercesc_3_1@@@xercesc_3_1@@UEAAPEAXI@Z 00000001800562a0 f i xerces-c_3_1:TransService.cpp.obj
 0001:000552a0       ??_GENameMap@xercesc_3_1@@UEAAPEAXI@Z 00000001800562a0 f i xerces-c_3_1:TransService.cpp.obj
 0001:000552a0       ??_G?$ENameMapFor@VXMLUTF8Transcoder@xercesc_3_1@@@xercesc_3_1@@UEAAPEAXI@Z 00000001800562a0 f i xerces-c_3_1:TransService.cpp.obj
 0001:000552a0       ??_G?$ENameMapFor@VXMLASCIITranscoder@xercesc_3_1@@@xercesc_3_1@@UEAAPEAXI@Z 00000001800562a0 f i xerces-c_3_1:TransService.cpp.obj
 0001:000552a0       ??_E?$ENameMapFor@VXMLWin1252Transcoder@xercesc_3_1@@@xercesc_3_1@@UEAAPEAXI@Z 00000001800562a0 f i  CIL library: CIL module
 0001:000552a0       ??_G?$ENameMapFor@VXMLEBCDICTranscoder@xercesc_3_1@@@xercesc_3_1@@UEAAPEAXI@Z 00000001800562a0 f i xerces-c_3_1:TransService.cpp.obj
 0001:000552a0       ??_E?$EEndianNameMapFor@VXMLUCS4Transcoder@xercesc_3_1@@@xercesc_3_1@@UEAAPEAXI@Z 00000001800562a0 f i  CIL library: CIL module
 0001:000552a0       ??_E?$ENameMapFor@VXML88591Transcoder@xercesc_3_1@@@xercesc_3_1@@UEAAPEAXI@Z 00000001800562a0 f i  CIL library: CIL module
 0001:000552a0       ??_G?$EEndianNameMapFor@VXMLUCS4Transcoder@xercesc_3_1@@@xercesc_3_1@@UEAAPEAXI@Z 00000001800562a0 f i xerces-c_3_1:TransService.cpp.obj
 0001:000552a0       ??_EENameMap@xercesc_3_1@@UEAAPEAXI@Z 00000001800562a0 f i  CIL library: CIL module
 0001:000552a0       ??_G?$ENameMapFor@VXMLChTranscoder@xercesc_3_1@@@xercesc_3_1@@UEAAPEAXI@Z 00000001800562a0 f i xerces-c_3_1:TransService.cpp.obj
 0001:000552a0       ??_G?$ENameMapFor@VXML88591Transcoder@xercesc_3_1@@@xercesc_3_1@@UEAAPEAXI@Z 00000001800562a0 f i xerces-c_3_1:TransService.cpp.obj
 0001:000552a0       ??_E?$ENameMapFor@VXMLIBM1047Transcoder@xercesc_3_1@@@xercesc_3_1@@UEAAPEAXI@Z 00000001800562a0 f i  CIL library: CIL module
 0001:000552a0       ??_E?$ENameMapFor@VXMLUTF8Transcoder@xercesc_3_1@@@xercesc_3_1@@UEAAPEAXI@Z 00000001800562a0 f i  CIL library: CIL module
 0001:000552a0       ??_E?$ENameMapFor@VXMLEBCDICTranscoder@xercesc_3_1@@@xercesc_3_1@@UEAAPEAXI@Z 00000001800562a0 f i  CIL library: CIL module
 0001:000552a0       ??_G?$ENameMapFor@VXMLWin1252Transcoder@xercesc_3_1@@@xercesc_3_1@@UEAAPEAXI@Z 00000001800562a0 f i xerces-c_3_1:TransService.cpp.obj
 0001:000552a0       ??_E?$ENameMapFor@VXMLASCIITranscoder@xercesc_3_1@@@xercesc_3_1@@UEAAPEAXI@Z 00000001800562a0 f i  CIL library: CIL module
 0001:000552a0       ??_G?$ENameMapFor@VXMLIBM1047Transcoder@xercesc_3_1@@@xercesc_3_1@@UEAAPEAXI@Z 00000001800562a0 f i xerces-c_3_1:TransService.cpp.obj
 0001:000552ec       ?isAllSpaces@XMLChar1_0@xercesc_3_1@@SA_NQEB_W_K@Z 00000001800562ec f   xerces-c_3_1:XMLChar.cpp.obj
 0001:00055320       ?isValidNCName@XMLChar1_0@xercesc_3_1@@SA_NQEB_W_K@Z 0000000180056320 f   xerces-c_3_1:XMLChar.cpp.obj
 0001:00055360       ?isValidName@XMLChar1_0@xercesc_3_1@@SA_NQEB_W@Z 0000000180056360 f   xerces-c_3_1:XMLChar.cpp.obj
 0001:00055390       ?isValidQName@XMLChar1_0@xercesc_3_1@@SA_NQEB_W_K@Z 0000000180056390 f   xerces-c_3_1:XMLChar.cpp.obj
 0001:00055414       ?isValidName@XMLChar1_1@xercesc_3_1@@SA_NQEB_W@Z 0000000180056414 f   xerces-c_3_1:XMLChar.cpp.obj
 0001:000554d0       ??1XMLException@xercesc_3_1@@UEAA@XZ 00000001800564d0 f   xerces-c_3_1:XMLException.cpp.obj
 0001:00055508       ??_EXMLException@xercesc_3_1@@UEAAPEAXI@Z 0000000180056508 f i  CIL library: CIL module
 0001:00055508       ??_GXMLException@xercesc_3_1@@UEAAPEAXI@Z 0000000180056508 f i xerces-c_3_1:XMLException.cpp.obj
 0001:00055544       ??0XMLException@xercesc_3_1@@QEAA@QEBD_KQEAVMemoryManager@1@@Z 0000000180056544 f   xerces-c_3_1:XMLException.cpp.obj
 0001:000555b0       ??0XMLException@xercesc_3_1@@QEAA@AEBV01@@Z 00000001800565b0 f   xerces-c_3_1:XMLException.cpp.obj
 0001:0005566c       ?loadExceptText@XMLException@xercesc_3_1@@IEAAXW4Codes@XMLExcepts@2@@Z 000000018005666c f   xerces-c_3_1:XMLException.cpp.obj
 0001:00055734       ?loadExceptText@XMLException@xercesc_3_1@@IEAAXW4Codes@XMLExcepts@2@QEB_W111@Z 0000000180056734 f   xerces-c_3_1:XMLException.cpp.obj
 0001:00055824       ?loadExceptText@XMLException@xercesc_3_1@@IEAAXW4Codes@XMLExcepts@2@QEBD111@Z 0000000180056824 f   xerces-c_3_1:XMLException.cpp.obj
 0001:00055914       ?setLocale@XMLMsgLoader@xercesc_3_1@@SAXQEBD@Z 0000000180056914 f   xerces-c_3_1:XMLMsgLoader.cpp.obj
 0001:00055984       ??_GXMLFileMgr@xercesc_3_1@@UEAAPEAXI@Z 0000000180056984 f i xerces-c_3_1:WindowsFileMgr.cpp.obj
 0001:00055984       ??_EXMLFileMgr@xercesc_3_1@@UEAAPEAXI@Z 0000000180056984 f i  CIL library: CIL module
 0001:00055984       ??_GWindowsFileMgr@xercesc_3_1@@UEAAPEAXI@Z 0000000180056984 f i xerces-c_3_1:WindowsFileMgr.cpp.obj
 0001:00055984       ??_EWindowsFileMgr@xercesc_3_1@@UEAAPEAXI@Z 0000000180056984 f i  CIL library: CIL module
 0001:000559b4       ?fileOpen@WindowsFileMgr@xercesc_3_1@@UEAAPEAXPEB_W_NQEAVMemoryManager@2@@Z 00000001800569b4 f   xerces-c_3_1:WindowsFileMgr.cpp.obj
 0001:00055bfc       ?fileOpen@WindowsFileMgr@xercesc_3_1@@UEAAPEAXPEBD_NQEAVMemoryManager@2@@Z 0000000180056bfc f   xerces-c_3_1:WindowsFileMgr.cpp.obj
 0001:00055c6c       ?openStdIn@WindowsFileMgr@xercesc_3_1@@UEAAPEAXQEAVMemoryManager@2@@Z 0000000180056c6c f   xerces-c_3_1:WindowsFileMgr.cpp.obj
 0001:00055db0       ?fileClose@WindowsFileMgr@xercesc_3_1@@UEAAXPEAXQEAVMemoryManager@2@@Z 0000000180056db0 f   xerces-c_3_1:WindowsFileMgr.cpp.obj
 0001:00055e6c       ?fileReset@WindowsFileMgr@xercesc_3_1@@UEAAXPEAXQEAVMemoryManager@2@@Z 0000000180056e6c f   xerces-c_3_1:WindowsFileMgr.cpp.obj
 0001:00055f34       ?curPos@WindowsFileMgr@xercesc_3_1@@UEAA_KPEAXQEAVMemoryManager@2@@Z 0000000180056f34 f   xerces-c_3_1:WindowsFileMgr.cpp.obj
 0001:00056028       ?fileSize@WindowsFileMgr@xercesc_3_1@@UEAA_KPEAXQEAVMemoryManager@2@@Z 0000000180057028 f   xerces-c_3_1:WindowsFileMgr.cpp.obj
 0001:00056114       ?fileRead@WindowsFileMgr@xercesc_3_1@@UEAA_KPEAX_KPEAEQEAVMemoryManager@2@@Z 0000000180057114 f   xerces-c_3_1:WindowsFileMgr.cpp.obj
 0001:00056210       ?fileWrite@WindowsFileMgr@xercesc_3_1@@UEAAXPEAX_KPEBEQEAVMemoryManager@2@@Z 0000000180057210 f   xerces-c_3_1:WindowsFileMgr.cpp.obj
 0001:00056338       ?getFullPath@WindowsFileMgr@xercesc_3_1@@UEAAPEA_WQEB_WQEAVMemoryManager@2@@Z 0000000180057338 f   xerces-c_3_1:WindowsFileMgr.cpp.obj
 0001:0005645c       ?getCurrentDirectory@WindowsFileMgr@xercesc_3_1@@UEAAPEA_WQEAVMemoryManager@2@@Z 000000018005745c f   xerces-c_3_1:WindowsFileMgr.cpp.obj
 0001:00056520       ?isRelative@WindowsFileMgr@xercesc_3_1@@UEAA_NQEB_WQEAVMemoryManager@2@@Z 0000000180057520 f   xerces-c_3_1:WindowsFileMgr.cpp.obj
 0001:0005656c       ??0Win32TransService@xercesc_3_1@@QEAA@PEAVMemoryManager@1@@Z 000000018005756c f   xerces-c_3_1:Win32TransService.cpp.obj
 0001:00056bd4       ??_GWin32TransService@xercesc_3_1@@UEAAPEAXI@Z 0000000180057bd4 f i xerces-c_3_1:Win32TransService.cpp.obj
 0001:00056bd4       ??_EWin32TransService@xercesc_3_1@@UEAAPEAXI@Z 0000000180057bd4 f i  CIL library: CIL module
 0001:00056c10       ??1Win32TransService@xercesc_3_1@@UEAA@XZ 0000000180057c10 f   xerces-c_3_1:Win32TransService.cpp.obj
 0001:00056d0c       ?compareIString@Win32TransService@xercesc_3_1@@UEAAHQEB_W0@Z 0000000180057d0c f   xerces-c_3_1:Win32TransService.cpp.obj
 0001:00056d18       ?compareNIString@Win32TransService@xercesc_3_1@@UEAAHQEB_W0_K@Z 0000000180057d18 f   xerces-c_3_1:Win32TransService.cpp.obj
 0001:00056d2c       ?getId@Win32TransService@xercesc_3_1@@UEBAPEB_WXZ 0000000180057d2c f   xerces-c_3_1:Win32TransService.cpp.obj
 0001:00056d34       ?makeNewLCPTranscoder@Win32TransService@xercesc_3_1@@UEAAPEAVXMLLCPTranscoder@2@PEAVMemoryManager@2@@Z 0000000180057d34 f   xerces-c_3_1:Win32TransService.cpp.obj
 0001:00056d68       ?upperCase@Win32TransService@xercesc_3_1@@UEAAXQEA_W@Z 0000000180057d68 f   xerces-c_3_1:Win32TransService.cpp.obj
 0001:00056d70       ?lowerCase@Win32TransService@xercesc_3_1@@UEAAXQEA_W@Z 0000000180057d70 f   xerces-c_3_1:Win32TransService.cpp.obj
 0001:00056d78       ?makeNewXMLTranscoder@Win32TransService@xercesc_3_1@@MEAAPEAVXMLTranscoder@2@QEB_WAEAW4Codes@XMLTransService@2@_KQEAVMemoryManager@2@@Z 0000000180057d78 f   xerces-c_3_1:Win32TransService.cpp.obj
 0001:00056e50       ??0Win32Transcoder@xercesc_3_1@@QEAA@QEB_WI_KQEAVMemoryManager@1@@Z 0000000180057e50 f   xerces-c_3_1:Win32TransService.cpp.obj
 0001:00056f14       ?transcodeFrom@Win32Transcoder@xercesc_3_1@@UEAA_KQEBE_KQEA_W1AEA_KQEAE@Z 0000000180057f14 f   xerces-c_3_1:Win32TransService.cpp.obj
 0001:000570fc       ?transcodeTo@Win32Transcoder@xercesc_3_1@@UEAA_KQEB_W_KQEAE1AEA_KW4UnRepOpts@XMLTranscoder@2@@Z 00000001800580fc f   xerces-c_3_1:Win32TransService.cpp.obj
 0001:00057268       ?canTranscodeTo@Win32Transcoder@xercesc_3_1@@UEAA_NI@Z 0000000180058268 f   xerces-c_3_1:Win32TransService.cpp.obj
 0001:00057310       ??_EWin32LCPTranscoder@xercesc_3_1@@UEAAPEAXI@Z 0000000180058310 f i  CIL library: CIL module
 0001:00057310       ??_GWin32LCPTranscoder@xercesc_3_1@@UEAAPEAXI@Z 0000000180058310 f i xerces-c_3_1:Win32TransService.cpp.obj
 0001:00057310       ??_EXMLLCPTranscoder@xercesc_3_1@@UEAAPEAXI@Z 0000000180058310 f i  CIL library: CIL module
 0001:00057310       ??_GXMLLCPTranscoder@xercesc_3_1@@UEAAPEAXI@Z 0000000180058310 f i xerces-c_3_1:TransService.cpp.obj
 0001:00057340       ?calcRequiredSize@Win32LCPTranscoder@xercesc_3_1@@UEAA_KQEBDQEAVMemoryManager@2@@Z 0000000180058340 f   xerces-c_3_1:Win32TransService.cpp.obj
 0001:00057374       ?calcRequiredSize@Win32LCPTranscoder@xercesc_3_1@@UEAA_KQEB_WQEAVMemoryManager@2@@Z 0000000180058374 f   xerces-c_3_1:Win32TransService.cpp.obj
 0001:000573ac       ?transcode@Win32LCPTranscoder@xercesc_3_1@@UEAAPEADQEB_WQEAVMemoryManager@2@@Z 00000001800583ac f   xerces-c_3_1:Win32TransService.cpp.obj
 0001:0005744c       ?transcode@Win32LCPTranscoder@xercesc_3_1@@UEAAPEA_WQEBDQEAVMemoryManager@2@@Z 000000018005844c f   xerces-c_3_1:Win32TransService.cpp.obj
 0001:000574f4       ?transcode@Win32LCPTranscoder@xercesc_3_1@@UEAA_NQEBDQEA_W_KQEAVMemoryManager@2@@Z 00000001800584f4 f   xerces-c_3_1:Win32TransService.cpp.obj
 0001:0005753c       ?transcode@Win32LCPTranscoder@xercesc_3_1@@UEAA_NQEB_WQEAD_KQEAVMemoryManager@2@@Z 000000018005853c f   xerces-c_3_1:Win32TransService.cpp.obj
 0001:000575a8       ?put@?$RefHashTableOf@VCPMapEntry@xercesc_3_1@@UStringHasher@2@@xercesc_3_1@@QEAAXPEAXQEAVCPMapEntry@2@@Z 00000001800585a8 f i xerces-c_3_1:Win32TransService.cpp.obj
 0001:0005767c       ??0EmptyStackException@xercesc_3_1@@QEAA@AEBV01@@Z 000000018005867c f i xerces-c_3_1:DOMDocumentImpl.cpp.obj
 0001:000576a0       ??1EmptyStackException@xercesc_3_1@@UEAA@XZ 00000001800586a0 f i xerces-c_3_1:DOMDocumentImpl.cpp.obj
 0001:000576b0       ?duplicate@EmptyStackException@xercesc_3_1@@UEBAPEAVXMLException@2@XZ 00000001800586b0 f i xerces-c_3_1:DOMDocumentImpl.cpp.obj
 0001:00057714       ?getType@EmptyStackException@xercesc_3_1@@UEBAPEB_WXZ 0000000180058714 f i xerces-c_3_1:DOMDocumentImpl.cpp.obj
 0001:0005771c       ??_GEmptyStackException@xercesc_3_1@@UEAAPEAXI@Z 000000018005871c f i xerces-c_3_1:DOMDocumentImpl.cpp.obj
 0001:0005771c       ??_EEmptyStackException@xercesc_3_1@@UEAAPEAXI@Z 000000018005871c f i  CIL library: CIL module
 0001:0005775c       ??0NoSuchElementException@xercesc_3_1@@QEAA@AEBV01@@Z 000000018005875c f i xerces-c_3_1:DOMDocumentImpl.cpp.obj
 0001:00057780       ??1NoSuchElementException@xercesc_3_1@@UEAA@XZ 0000000180058780 f i xerces-c_3_1:DOMDocumentImpl.cpp.obj
 0001:00057790       ?duplicate@NoSuchElementException@xercesc_3_1@@UEBAPEAVXMLException@2@XZ 0000000180058790 f i xerces-c_3_1:DOMDocumentImpl.cpp.obj
 0001:000577f4       ?getType@NoSuchElementException@xercesc_3_1@@UEBAPEB_WXZ 00000001800587f4 f i xerces-c_3_1:DOMDocumentImpl.cpp.obj
 0001:000577fc       ??_ENoSuchElementException@xercesc_3_1@@UEAAPEAXI@Z 00000001800587fc f i  CIL library: CIL module
 0001:000577fc       ??_GNoSuchElementException@xercesc_3_1@@UEAAPEAXI@Z 00000001800587fc f i xerces-c_3_1:DOMDocumentImpl.cpp.obj
 0001:0005783c       ??0NullPointerException@xercesc_3_1@@QEAA@AEBV01@@Z 000000018005883c f i xerces-c_3_1:DOMDocumentImpl.cpp.obj
 0001:00057860       ??1NullPointerException@xercesc_3_1@@UEAA@XZ 0000000180058860 f i xerces-c_3_1:DOMDocumentImpl.cpp.obj
 0001:00057870       ?duplicate@NullPointerException@xercesc_3_1@@UEBAPEAVXMLException@2@XZ 0000000180058870 f i xerces-c_3_1:DOMDocumentImpl.cpp.obj
 0001:000578d4       ?getType@NullPointerException@xercesc_3_1@@UEBAPEB_WXZ 00000001800588d4 f i xerces-c_3_1:DOMDocumentImpl.cpp.obj
 0001:000578dc       ??_ENullPointerException@xercesc_3_1@@UEAAPEAXI@Z 00000001800588dc f i  CIL library: CIL module
 0001:000578dc       ??_GNullPointerException@xercesc_3_1@@UEAAPEAXI@Z 00000001800588dc f i xerces-c_3_1:DOMDocumentImpl.cpp.obj
 0001:0005791c       ??_EDOMDocumentRange@xercesc_3_1@@UEAAPEAXI@Z 000000018005891c f i  CIL library: CIL module
 0001:0005791c       ??_GDOMDocumentRange@xercesc_3_1@@UEAAPEAXI@Z 000000018005891c f i xerces-c_3_1:DOMDocumentImpl.cpp.obj
 0001:00057948       ??_EDOMDocumentTraversal@xercesc_3_1@@UEAAPEAXI@Z 0000000180058948 f i  CIL library: CIL module
 0001:00057948       ??_GDOMDocumentTraversal@xercesc_3_1@@UEAAPEAXI@Z 0000000180058948 f i xerces-c_3_1:DOMDocumentImpl.cpp.obj
 0001:00057974       ??_GDOMXPathEvaluator@xercesc_3_1@@UEAAPEAXI@Z 0000000180058974 f i xerces-c_3_1:DOMDocumentImpl.cpp.obj
 0001:00057974       ??_EDOMXPathEvaluator@xercesc_3_1@@UEAAPEAXI@Z 0000000180058974 f i  CIL library: CIL module
 0001:000579a0       ??1DOMDocument@xercesc_3_1@@UEAA@XZ 00000001800589a0 f i xerces-c_3_1:DOMDocumentImpl.cpp.obj
 0001:000579cc       ??_GDOMDocument@xercesc_3_1@@UEAAPEAXI@Z 00000001800589cc f i xerces-c_3_1:DOMDocumentImpl.cpp.obj
 0001:000579cc       ??_EDOMDocument@xercesc_3_1@@UEAAPEAXI@Z 00000001800589cc f i  CIL library: CIL module
 0001:00057a1c       ??1DOMMemoryManager@xercesc_3_1@@UEAA@XZ 0000000180058a1c f i xerces-c_3_1:DOMDocumentImpl.cpp.obj
 0001:00057a28       ??_GDOMMemoryManager@xercesc_3_1@@UEAAPEAXI@Z 0000000180058a28 f i xerces-c_3_1:DOMDocumentImpl.cpp.obj
 0001:00057a28       ??_EDOMMemoryManager@xercesc_3_1@@UEAAPEAXI@Z 0000000180058a28 f i  CIL library: CIL module
 0001:00057a54       ??0DOMDocumentImpl@xercesc_3_1@@QEAA@PEAVDOMImplementation@1@QEAVMemoryManager@1@@Z 0000000180058a54 f   xerces-c_3_1:DOMDocumentImpl.cpp.obj
 0001:00057c14       ??_GDOMDocumentImpl@xercesc_3_1@@UEAAPEAXI@Z 0000000180058c14 f i xerces-c_3_1:DOMDocumentImpl.cpp.obj
 0001:00057c14       ??_EDOMDocumentImpl@xercesc_3_1@@UEAAPEAXI@Z 0000000180058c14 f i  CIL library: CIL module
 0001:00057c50       ??1DOMParentNode@xercesc_3_1@@QEAA@XZ 0000000180058c50 f i xerces-c_3_1:DOMDocumentImpl.cpp.obj
 0001:00057c5c       ??0DOMDocumentImpl@xercesc_3_1@@QEAA@PEB_W0PEAVDOMDocumentType@1@PEAVDOMImplementation@1@QEAVMemoryManager@1@@Z 0000000180058c5c f   xerces-c_3_1:DOMDocumentImpl.cpp.obj
 0001:00057ea0       ?setDocumentType@DOMDocumentImpl@xercesc_3_1@@QEAAXPEAVDOMDocumentType@2@@Z 0000000180058ea0 f   xerces-c_3_1:DOMDocumentImpl.cpp.obj
 0001:00057f40       ??1DOMDocumentImpl@xercesc_3_1@@UEAA@XZ 0000000180058f40 f   xerces-c_3_1:DOMDocumentImpl.cpp.obj
 0001:00058138       ??_G?$RefHash2KeysTableOf@V?$KeyRefPair@XVDOMUserDataHandler@xercesc_3_1@@@xercesc_3_1@@UPtrHasher@2@@xercesc_3_1@@QEAAPEAXI@Z 0000000180059138 f i xerces-c_3_1:DOMDocumentImpl.cpp.obj
 0001:000581ec       ?cloneNode@DOMDocumentImpl@xercesc_3_1@@UEBAPEAVDOMNode@2@_N@Z 00000001800591ec f   xerces-c_3_1:DOMDocumentImpl.cpp.obj
 0001:00058318       ?getNodeName@DOMDocumentImpl@xercesc_3_1@@UEBAPEB_WXZ 0000000180059318 f   xerces-c_3_1:DOMDocumentImpl.cpp.obj
 0001:00058320       ?getNodeType@DOMDocumentImpl@xercesc_3_1@@UEBA?AW4NodeType@DOMNode@2@XZ 0000000180059320 f   xerces-c_3_1:DOMDocumentImpl.cpp.obj
 0001:00058328       ?createAttribute@DOMDocumentImpl@xercesc_3_1@@UEAAPEAVDOMAttr@2@PEB_W@Z 0000000180059328 f   xerces-c_3_1:DOMDocumentImpl.cpp.obj
 0001:000583e8       ?createCDATASection@DOMDocumentImpl@xercesc_3_1@@UEAAPEAVDOMCDATASection@2@PEB_W@Z 00000001800593e8 f   xerces-c_3_1:DOMDocumentImpl.cpp.obj
 0001:00058488       ?createComment@DOMDocumentImpl@xercesc_3_1@@UEAAPEAVDOMComment@2@PEB_W@Z 0000000180059488 f   xerces-c_3_1:DOMDocumentImpl.cpp.obj
 0001:00058528       ?createDocumentFragment@DOMDocumentImpl@xercesc_3_1@@UEAAPEAVDOMDocumentFragment@2@XZ 0000000180059528 f   xerces-c_3_1:DOMDocumentImpl.cpp.obj
 0001:000585b4       ?createDocumentType@DOMDocumentImpl@xercesc_3_1@@UEAAPEAVDOMDocumentType@2@PEB_W@Z 00000001800595b4 f   xerces-c_3_1:DOMDocumentImpl.cpp.obj
 0001:00058678       ?createDocumentType@DOMDocumentImpl@xercesc_3_1@@UEAAPEAVDOMDocumentType@2@PEB_W00@Z 0000000180059678 f   xerces-c_3_1:DOMDocumentImpl.cpp.obj
 0001:00058758       ?createElement@DOMDocumentImpl@xercesc_3_1@@UEAAPEAVDOMElement@2@PEB_W@Z 0000000180059758 f   xerces-c_3_1:DOMDocumentImpl.cpp.obj
 0001:00058818       ?createElementNoCheck@DOMDocumentImpl@xercesc_3_1@@UEAAPEAVDOMElement@2@PEB_W@Z 0000000180059818 f   xerces-c_3_1:DOMDocumentImpl.cpp.obj
 0001:0005886c       ?createEntity@DOMDocumentImpl@xercesc_3_1@@UEAAPEAVDOMEntity@2@PEB_W@Z 000000018005986c f   xerces-c_3_1:DOMDocumentImpl.cpp.obj
 0001:00058930       ?createEntityReference@DOMDocumentImpl@xercesc_3_1@@UEAAPEAVDOMEntityReference@2@PEB_W@Z 0000000180059930 f   xerces-c_3_1:DOMDocumentImpl.cpp.obj
 0001:000589f0       ?createEntityReferenceByParser@DOMDocumentImpl@xercesc_3_1@@QEAAPEAVDOMEntityReference@2@PEB_W@Z 00000001800599f0 f   xerces-c_3_1:DOMDocumentImpl.cpp.obj
 0001:00058aac       ?createNotation@DOMDocumentImpl@xercesc_3_1@@UEAAPEAVDOMNotation@2@PEB_W@Z 0000000180059aac f   xerces-c_3_1:DOMDocumentImpl.cpp.obj
 0001:00058bc8       ?createProcessingInstruction@DOMDocumentImpl@xercesc_3_1@@UEAAPEAVDOMProcessingInstruction@2@PEB_W0@Z 0000000180059bc8 f   xerces-c_3_1:DOMDocumentImpl.cpp.obj
 0001:00058cf4       ?createTextNode@DOMDocumentImpl@xercesc_3_1@@UEAAPEAVDOMText@2@PEB_W@Z 0000000180059cf4 f   xerces-c_3_1:DOMDocumentImpl.cpp.obj
 0001:00058d94       ?createNodeIterator@DOMDocumentImpl@xercesc_3_1@@UEAAPEAVDOMNodeIterator@2@PEAVDOMNode@2@KPEAVDOMNodeFilter@2@_N@Z 0000000180059d94 f   xerces-c_3_1:DOMDocumentImpl.cpp.obj
 0001:00058ef0       ?getNodeIterators@DOMDocumentImpl@xercesc_3_1@@UEBAPEAV?$RefVectorOf@VDOMNodeIteratorImpl@xercesc_3_1@@@2@XZ 0000000180059ef0 f   xerces-c_3_1:DOMDocumentImpl.cpp.obj
 0001:00058ef8       ?removeNodeIterator@DOMDocumentImpl@xercesc_3_1@@UEAAXPEAVDOMNodeIteratorImpl@2@@Z 0000000180059ef8 f   xerces-c_3_1:DOMDocumentImpl.cpp.obj
 0001:00058f6c       ?createExpression@DOMDocumentImpl@xercesc_3_1@@UEAAPEAVDOMXPathExpression@2@PEB_WPEBVDOMXPathNSResolver@2@@Z 0000000180059f6c f   xerces-c_3_1:DOMDocumentImpl.cpp.obj
 0001:00058fd8       ?createNSResolver@DOMDocumentImpl@xercesc_3_1@@UEAAPEAVDOMXPathNSResolver@2@PEBVDOMNode@2@@Z 0000000180059fd8 f   xerces-c_3_1:DOMDocumentImpl.cpp.obj
 0001:00059044       ?evaluate@DOMDocumentImpl@xercesc_3_1@@UEAAPEAVDOMXPathResult@2@PEB_WPEBVDOMNode@2@PEBVDOMXPathNSResolver@2@W4ResultType@32@PEAV32@@Z 000000018005a044 f   xerces-c_3_1:DOMDocumentImpl.cpp.obj
 0001:000590b8       ?createTreeWalker@DOMDocumentImpl@xercesc_3_1@@UEAAPEAVDOMTreeWalker@2@PEAVDOMNode@2@KPEAVDOMNodeFilter@2@_N@Z 000000018005a0b8 f   xerces-c_3_1:DOMDocumentImpl.cpp.obj
 0001:00059154       ?getDoctype@DOMDocumentImpl@xercesc_3_1@@UEBAPEAVDOMDocumentType@2@XZ 000000018005a154 f   xerces-c_3_1:DOMDocumentImpl.cpp.obj
 0001:0005915c       ?getDocumentElement@DOMDocumentImpl@xercesc_3_1@@UEBAPEAVDOMElement@2@XZ 000000018005a15c f   xerces-c_3_1:DOMDocumentImpl.cpp.obj
 0001:00059164       ?getElementsByTagName@DOMDocumentImpl@xercesc_3_1@@UEBAPEAVDOMNodeList@2@PEB_W@Z 000000018005a164 f   xerces-c_3_1:DOMDocumentImpl.cpp.obj
 0001:00059180       ?getImplementation@DOMDocumentImpl@xercesc_3_1@@UEBAPEAVDOMImplementation@2@XZ 000000018005a180 f   xerces-c_3_1:DOMDocumentImpl.cpp.obj
 0001:00059188       ?insertBefore@DOMDocumentImpl@xercesc_3_1@@UEAAPEAVDOMNode@2@PEAV32@0@Z 000000018005a188 f   xerces-c_3_1:DOMDocumentImpl.cpp.obj
 0001:0005928c       ?replaceChild@DOMDocumentImpl@xercesc_3_1@@UEAAPEAVDOMNode@2@PEAV32@0@Z 000000018005a28c f   xerces-c_3_1:DOMDocumentImpl.cpp.obj
 0001:00059340       ?removeChild@DOMDocumentImpl@xercesc_3_1@@UEAAPEAVDOMNode@2@PEAV32@@Z 000000018005a340 f   xerces-c_3_1:DOMDocumentImpl.cpp.obj
 0001:00059398       ?importNode@DOMDocumentImpl@xercesc_3_1@@UEAAPEAVDOMNode@2@PEBV32@_N@Z 000000018005a398 f   xerces-c_3_1:DOMDocumentImpl.cpp.obj
 0001:000593a8       ?createElementNS@DOMDocumentImpl@xercesc_3_1@@UEAAPEAVDOMElement@2@PEB_W0@Z 000000018005a3a8 f   xerces-c_3_1:DOMDocumentImpl.cpp.obj
 0001:0005947c       ?createElementNS@DOMDocumentImpl@xercesc_3_1@@UEAAPEAVDOMElement@2@PEB_W0_K1@Z 000000018005a47c f   xerces-c_3_1:DOMDocumentImpl.cpp.obj
 0001:00059574       ?createAttributeNS@DOMDocumentImpl@xercesc_3_1@@UEAAPEAVDOMAttr@2@PEB_W0@Z 000000018005a574 f   xerces-c_3_1:DOMDocumentImpl.cpp.obj
 0001:00059660       ?getElementsByTagNameNS@DOMDocumentImpl@xercesc_3_1@@UEBAPEAVDOMNodeList@2@PEB_W0@Z 000000018005a660 f   xerces-c_3_1:DOMDocumentImpl.cpp.obj
 0001:00059680       ?getElementById@DOMDocumentImpl@xercesc_3_1@@UEBAPEAVDOMElement@2@PEB_W@Z 000000018005a680 f   xerces-c_3_1:DOMDocumentImpl.cpp.obj
 0001:000596b0       ?createRange@DOMDocumentImpl@xercesc_3_1@@UEAAPEAVDOMRange@2@XZ 000000018005a6b0 f   xerces-c_3_1:DOMDocumentImpl.cpp.obj
 0001:00059874       ?getRanges@DOMDocumentImpl@xercesc_3_1@@UEBAPEAV?$RefVectorOf@VDOMRangeImpl@xercesc_3_1@@@2@XZ 000000018005a874 f   xerces-c_3_1:DOMDocumentImpl.cpp.obj
 0001:0005987c       ?removeRange@DOMDocumentImpl@xercesc_3_1@@UEAAXPEAVDOMRangeImpl@2@@Z 000000018005a87c f   xerces-c_3_1:DOMDocumentImpl.cpp.obj
 0001:000598f0       ?isKidOK@DOMDocumentImpl@xercesc_3_1@@SA_NPEAVDOMNode@2@0@Z 000000018005a8f0 f   xerces-c_3_1:DOMDocumentImpl.cpp.obj
 0001:00059ab0       ?changed@DOMDocumentImpl@xercesc_3_1@@UEAAXXZ 000000018005aab0 f   xerces-c_3_1:DOMDocumentImpl.cpp.obj
 0001:00059ab8       ?changes@DOMDocumentImpl@xercesc_3_1@@UEBAHXZ 000000018005aab8 f   xerces-c_3_1:DOMDocumentImpl.cpp.obj
 0001:00059ac0       ?appendChild@DOMDocumentImpl@xercesc_3_1@@UEAAPEAVDOMNode@2@PEAV32@@Z 000000018005aac0 f   xerces-c_3_1:DOMDocumentImpl.cpp.obj
 0001:00059acc       ?cloneString@DOMDocumentImpl@xercesc_3_1@@UEAAPEA_WPEB_W@Z 000000018005aacc f   xerces-c_3_1:DOMDocumentImpl.cpp.obj
 0001:00059b40       ?getMemoryAllocationBlockSize@DOMDocumentImpl@xercesc_3_1@@UEBA_KXZ 000000018005ab40 f   xerces-c_3_1:DOMDocumentImpl.cpp.obj
 0001:00059b48       ?setMemoryAllocationBlockSize@DOMDocumentImpl@xercesc_3_1@@UEAAX_K@Z 000000018005ab48 f   xerces-c_3_1:DOMDocumentImpl.cpp.obj
 0001:00059b5c       ?allocate@DOMDocumentImpl@xercesc_3_1@@UEAAPEAX_K@Z 000000018005ab5c f   xerces-c_3_1:DOMDocumentImpl.cpp.obj
 0001:00059c5c       ?deleteHeap@DOMDocumentImpl@xercesc_3_1@@QEAAXXZ 000000018005ac5c f   xerces-c_3_1:DOMDocumentImpl.cpp.obj
 0001:00059ca4       ?getDeepNodeList@DOMDocumentImpl@xercesc_3_1@@QEAAPEAVDOMNodeList@2@PEBVDOMNode@2@PEB_W@Z 000000018005aca4 f   xerces-c_3_1:DOMDocumentImpl.cpp.obj
 0001:00059d84       ?getDeepNodeList@DOMDocumentImpl@xercesc_3_1@@QEAAPEAVDOMNodeList@2@PEBVDOMNode@2@PEB_W1@Z 000000018005ad84 f   xerces-c_3_1:DOMDocumentImpl.cpp.obj
 0001:00059e78       ?getTagName@DOMElementImpl@xercesc_3_1@@UEBAPEB_WXZ 000000018005ae78 f   xerces-c_3_1:DOMElementImpl.cpp.obj
 0001:00059e78       ?getPrefix@DOMAttrNSImpl@xercesc_3_1@@UEBAPEB_WXZ 000000018005ae78 f   xerces-c_3_1:DOMAttrNSImpl.cpp.obj
 0001:00059e78       ?getInputEncoding@DOMDocumentImpl@xercesc_3_1@@UEBAPEB_WXZ 000000018005ae78 f   xerces-c_3_1:DOMDocumentImpl.cpp.obj
 0001:00059e78       ?getEntityRef@DOMEntityImpl@xercesc_3_1@@UEBAPEAVDOMEntityReference@2@XZ 000000018005ae78 f   xerces-c_3_1:DOMEntityImpl.cpp.obj
 0001:00059e78       ?getNotations@DOMDocumentTypeImpl@xercesc_3_1@@UEBAPEAVDOMNamedNodeMap@2@XZ 000000018005ae78 f   xerces-c_3_1:DOMDocumentTypeImpl.cpp.obj
 0001:00059e78       ?getNodeName@DOMElementImpl@xercesc_3_1@@UEBAPEB_WXZ 000000018005ae78 f   xerces-c_3_1:DOMElementImpl.cpp.obj
 0001:00059e80       ?getXmlStandalone@DOMDocumentImpl@xercesc_3_1@@UEBA_NXZ 000000018005ae80 f   xerces-c_3_1:DOMDocumentImpl.cpp.obj
 0001:00059e84       ?setXmlStandalone@DOMDocumentImpl@xercesc_3_1@@UEAAX_N@Z 000000018005ae84 f   xerces-c_3_1:DOMDocumentImpl.cpp.obj
 0001:00059e88       ?getPrefix@DOMElementNSImpl@xercesc_3_1@@UEBAPEB_WXZ 000000018005ae88 f   xerces-c_3_1:DOMElementNSImpl.cpp.obj
 0001:00059e88       ?getXmlVersion@DOMEntityImpl@xercesc_3_1@@UEBAPEB_WXZ 000000018005ae88 f   xerces-c_3_1:DOMEntityImpl.cpp.obj
 0001:00059e88       ?getContentLeafNameTypeVector@DFAContentModel@xercesc_3_1@@UEBAPEAVContentLeafNameTypeVector@2@XZ 000000018005ae88 f   xerces-c_3_1:DFAContentModel.cpp.obj
 0001:00059e88       ?getXmlVersion@DOMDocumentImpl@xercesc_3_1@@UEBAPEB_WXZ 000000018005ae88 f   xerces-c_3_1:DOMDocumentImpl.cpp.obj
 0001:00059e88       ?getSystemId@DOMDocumentTypeImpl@xercesc_3_1@@UEBAPEB_WXZ 000000018005ae88 f   xerces-c_3_1:DOMDocumentTypeImpl.cpp.obj
 0001:00059e90       ?setXmlVersion@DOMDocumentImpl@xercesc_3_1@@UEAAXPEB_W@Z 000000018005ae90 f   xerces-c_3_1:DOMDocumentImpl.cpp.obj
 0001:00059f6c       ?getDocumentURI@DOMDocumentImpl@xercesc_3_1@@UEBAPEB_WXZ 000000018005af6c f   xerces-c_3_1:DOMDocumentImpl.cpp.obj
 0001:00059f6c       ?getBaseURI@DOMEntityImpl@xercesc_3_1@@UEBAPEB_WXZ 000000018005af6c f   xerces-c_3_1:DOMEntityImpl.cpp.obj
 0001:00059f6c       ?getInternalSubset@DOMDocumentTypeImpl@xercesc_3_1@@UEBAPEB_WXZ 000000018005af6c f   xerces-c_3_1:DOMDocumentTypeImpl.cpp.obj
 0001:00059f74       ?setDocumentURI@DOMDocumentImpl@xercesc_3_1@@UEAAXPEB_W@Z 000000018005af74 f   xerces-c_3_1:DOMDocumentImpl.cpp.obj
 0001:00059fe4       ?getStrictErrorChecking@DOMDocumentImpl@xercesc_3_1@@UEBA_NXZ 000000018005afe4 f   xerces-c_3_1:DOMDocumentImpl.cpp.obj
 0001:00059fec       ?setStrictErrorChecking@DOMDocumentImpl@xercesc_3_1@@UEAAX_N@Z 000000018005afec f   xerces-c_3_1:DOMDocumentImpl.cpp.obj
 0001:00059ff4       ?adoptNode@DOMDocumentImpl@xercesc_3_1@@UEAAPEAVDOMNode@2@PEAV32@@Z 000000018005aff4 f   xerces-c_3_1:DOMDocumentImpl.cpp.obj
 0001:0005a0cc       ?normalizeDocument@DOMDocumentImpl@xercesc_3_1@@UEAAXXZ 000000018005b0cc f   xerces-c_3_1:DOMDocumentImpl.cpp.obj
 0001:0005a200       ?getDOMConfig@DOMDocumentImpl@xercesc_3_1@@UEBAPEAVDOMConfiguration@2@XZ 000000018005b200 f   xerces-c_3_1:DOMDocumentImpl.cpp.obj
 0001:0005a268       ?importNode@DOMDocumentImpl@xercesc_3_1@@MEAAPEAVDOMNode@2@PEBV32@_N1@Z 000000018005b268 f   xerces-c_3_1:DOMDocumentImpl.cpp.obj
 0001:0005ac14       ?setUserData@DOMDocumentImpl@xercesc_3_1@@QEAAPEAXPEAVDOMNodeImpl@2@PEB_WPEAXPEAVDOMUserDataHandler@2@@Z 000000018005bc14 f   xerces-c_3_1:DOMDocumentImpl.cpp.obj
 0001:0005adcc       ?callUserDataHandlers@DOMDocumentImpl@xercesc_3_1@@QEBAXPEBVDOMNodeImpl@2@W4DOMOperationType@DOMUserDataHandler@2@PEBVDOMNode@2@PEAV62@@Z 000000018005bdcc f   xerces-c_3_1:DOMDocumentImpl.cpp.obj
 0001:0005aff4       ?renameNode@DOMDocumentImpl@xercesc_3_1@@UEAAPEAVDOMNode@2@PEAV32@PEB_W1@Z 000000018005bff4 f   xerces-c_3_1:DOMDocumentImpl.cpp.obj
 0001:0005b0dc       ?release@DOMDocumentImpl@xercesc_3_1@@UEAAXXZ 000000018005c0dc f   xerces-c_3_1:DOMDocumentImpl.cpp.obj
 0001:0005b17c       ?releaseDocNotifyUserData@DOMDocumentImpl@xercesc_3_1@@QEAAXPEAVDOMNode@2@@Z 000000018005c17c f   xerces-c_3_1:DOMDocumentImpl.cpp.obj
 0001:0005b240       ?release@DOMDocumentImpl@xercesc_3_1@@UEAAXPEAVDOMNode@2@W4NodeObjectType@DOMMemoryManager@2@@Z 000000018005c240 f   xerces-c_3_1:DOMDocumentImpl.cpp.obj
 0001:0005b360       ?popBuffer@DOMDocumentImpl@xercesc_3_1@@QEAAPEAVDOMBuffer@2@_K@Z 000000018005c360 f   xerces-c_3_1:DOMDocumentImpl.cpp.obj
 0001:0005b4bc       ?allocate@DOMDocumentImpl@xercesc_3_1@@UEAAPEAX_KW4NodeObjectType@DOMMemoryManager@2@@Z 000000018005c4bc f   xerces-c_3_1:DOMDocumentImpl.cpp.obj
 0001:0005b51c       ?isSupported@DOMDocumentImpl@xercesc_3_1@@UEBA_NPEB_W0@Z 000000018005c51c f   xerces-c_3_1:DOMDocumentImpl.cpp.obj
 0001:0005b610       ?getFeature@DOMDocumentImpl@xercesc_3_1@@UEBAPEAXPEB_W0@Z 000000018005c610 f   xerces-c_3_1:DOMDocumentImpl.cpp.obj
 0001:0005b698       ??1?$XMLEnumerator@V?$KeyRefPair@XVDOMUserDataHandler@xercesc_3_1@@@xercesc_3_1@@@xercesc_3_1@@UEAA@XZ 000000018005c698 f i xerces-c_3_1:DOMDocumentImpl.cpp.obj
 0001:0005b6a4       ??1?$XMLEnumerator@H@xercesc_3_1@@UEAA@XZ 000000018005c6a4 f i xerces-c_3_1:DOMDocumentImpl.cpp.obj
 0001:0005b6b0       ??_E?$XMLEnumerator@V?$KeyRefPair@XVDOMUserDataHandler@xercesc_3_1@@@xercesc_3_1@@@xercesc_3_1@@UEAAPEAXI@Z 000000018005c6b0 f i  CIL library: CIL module
 0001:0005b6b0       ??_G?$XMLEnumerator@V?$KeyRefPair@XVDOMUserDataHandler@xercesc_3_1@@@xercesc_3_1@@@xercesc_3_1@@UEAAPEAXI@Z 000000018005c6b0 f i xerces-c_3_1:DOMDocumentImpl.cpp.obj
 0001:0005b6dc       ??_G?$XMLEnumerator@H@xercesc_3_1@@UEAAPEAXI@Z 000000018005c6dc f i xerces-c_3_1:DOMDocumentImpl.cpp.obj
 0001:0005b6dc       ??_E?$XMLEnumerator@H@xercesc_3_1@@UEAAPEAXI@Z 000000018005c6dc f i  CIL library: CIL module
 0001:0005b708       ??0?$DOMDeepNodeListPool@VDOMDeepNodeListImpl@xercesc_3_1@@UPtrHasher@2@@xercesc_3_1@@QEAA@_K_N0@Z 000000018005c708 f i xerces-c_3_1:DOMDocumentImpl.cpp.obj
 0001:0005b7a0       ?cleanup@?$DOMDeepNodeListPool@VDOMDeepNodeListImpl@xercesc_3_1@@UPtrHasher@2@@xercesc_3_1@@QEAAXXZ 000000018005c7a0 f i xerces-c_3_1:DOMDocumentImpl.cpp.obj
 0001:0005b868       ?getById@?$DOMDeepNodeListPool@VDOMDeepNodeListImpl@xercesc_3_1@@UPtrHasher@2@@xercesc_3_1@@QEAAPEAVDOMDeepNodeListImpl@2@_K@Z 000000018005c868 f i xerces-c_3_1:DOMDocumentImpl.cpp.obj
 0001:0005b8dc       ?put@?$DOMDeepNodeListPool@VDOMDeepNodeListImpl@xercesc_3_1@@UPtrHasher@2@@xercesc_3_1@@QEAA_KPEAXPEA_W1QEAVDOMDeepNodeListImpl@2@@Z 000000018005c8dc f i xerces-c_3_1:DOMDocumentImpl.cpp.obj
 0001:0005bbbc       ??1?$BaseRefVectorOf@VDOMRangeImpl@xercesc_3_1@@@xercesc_3_1@@UEAA@XZ 000000018005cbbc f i xerces-c_3_1:DOMDocumentImpl.cpp.obj
 0001:0005bbc8       ??1?$BaseRefVectorOf@VDOMNodeIteratorImpl@xercesc_3_1@@@xercesc_3_1@@UEAA@XZ 000000018005cbc8 f i xerces-c_3_1:DOMDocumentImpl.cpp.obj
 0001:0005bbd4       ?removeKey@?$RefHash2KeysTableOf@V?$KeyRefPair@XVDOMUserDataHandler@xercesc_3_1@@@xercesc_3_1@@UPtrHasher@2@@xercesc_3_1@@QEAAXQEBX@Z 000000018005cbd4 f i xerces-c_3_1:DOMDocumentImpl.cpp.obj
 0001:0005bc80       ?removeKey@?$RefHash2KeysTableOf@V?$KeyRefPair@XVDOMUserDataHandler@xercesc_3_1@@@xercesc_3_1@@UPtrHasher@2@@xercesc_3_1@@QEAAXQEBXH@Z 000000018005cc80 f i xerces-c_3_1:DOMDocumentImpl.cpp.obj
 0001:0005bd5c       ?transferElement@?$RefHash2KeysTableOf@V?$KeyRefPair@XVDOMUserDataHandler@xercesc_3_1@@@xercesc_3_1@@UPtrHasher@2@@xercesc_3_1@@QEAAXQEBXPEAX@Z 000000018005cd5c f i xerces-c_3_1:DOMDocumentImpl.cpp.obj
 0001:0005beac       ?put@?$RefHash2KeysTableOf@V?$KeyRefPair@XVDOMUserDataHandler@xercesc_3_1@@@xercesc_3_1@@UPtrHasher@2@@xercesc_3_1@@QEAAXPEAXHQEAV?$KeyRefPair@XVDOMUserDataHandler@xercesc_3_1@@@2@@Z 000000018005ceac f i xerces-c_3_1:DOMDocumentImpl.cpp.obj
 0001:0005bf90       ??A?$RefArrayOf@V?$RefStackOf@VDOMNode@xercesc_3_1@@@xercesc_3_1@@@xercesc_3_1@@QEAAAEAPEAV?$RefStackOf@VDOMNode@xercesc_3_1@@@1@_K@Z 000000018005cf90 f i xerces-c_3_1:DOMDocumentImpl.cpp.obj
 0001:0005bffc       ??1?$BaseRefVectorOf@VDOMBuffer@xercesc_3_1@@@xercesc_3_1@@UEAA@XZ 000000018005cffc f i xerces-c_3_1:DOMDocumentImpl.cpp.obj
 0001:0005c008       ?setElementAt@?$BaseRefVectorOf@VDOMBuffer@xercesc_3_1@@@xercesc_3_1@@UEAAXQEAVDOMBuffer@2@_K@Z 000000018005d008 f i xerces-c_3_1:DOMDocumentImpl.cpp.obj
 0001:0005c0b0       ?removeAllElements@?$BaseRefVectorOf@VDOMBuffer@xercesc_3_1@@@xercesc_3_1@@UEAAXXZ 000000018005d0b0 f i xerces-c_3_1:DOMDocumentImpl.cpp.obj
 0001:0005c108       ?removeElementAt@?$BaseRefVectorOf@VDOMBuffer@xercesc_3_1@@@xercesc_3_1@@UEAAX_K@Z 000000018005d108 f i xerces-c_3_1:DOMDocumentImpl.cpp.obj
 0001:0005c1e4       ?removeLastElement@?$BaseRefVectorOf@VDOMBuffer@xercesc_3_1@@@xercesc_3_1@@UEAAXXZ 000000018005d1e4 f i xerces-c_3_1:DOMDocumentImpl.cpp.obj
 0001:0005c21c       ?cleanup@?$BaseRefVectorOf@VDOMBuffer@xercesc_3_1@@@xercesc_3_1@@UEAAXXZ 000000018005d21c f i xerces-c_3_1:DOMDocumentImpl.cpp.obj
 0001:0005c274       ??1?$RefVectorOf@VDOMBuffer@xercesc_3_1@@@xercesc_3_1@@UEAA@XZ 000000018005d274 f i xerces-c_3_1:DOMDocumentImpl.cpp.obj
 0001:0005c2ec       ??0?$RefHash2KeysTableOfEnumerator@V?$KeyRefPair@XVDOMUserDataHandler@xercesc_3_1@@@xercesc_3_1@@UPtrHasher@2@@xercesc_3_1@@QEAA@QEAV?$RefHash2KeysTableOf@V?$KeyRefPair@XVDOMUserDataHandler@xercesc_3_1@@@xercesc_3_1@@UPtrHasher@2@@1@_NQEAVMemoryManager@1@@Z 000000018005d2ec f i xerces-c_3_1:DOMDocumentImpl.cpp.obj
 0001:0005c384       ??1?$RefHash2KeysTableOfEnumerator@V?$KeyRefPair@XVDOMUserDataHandler@xercesc_3_1@@@xercesc_3_1@@UPtrHasher@2@@xercesc_3_1@@UEAA@XZ 000000018005d384 f i xerces-c_3_1:DOMDocumentImpl.cpp.obj
 0001:0005c3cc       ?nextElement@?$RefHash2KeysTableOfEnumerator@V?$KeyRefPair@XVDOMUserDataHandler@xercesc_3_1@@@xercesc_3_1@@UPtrHasher@2@@xercesc_3_1@@UEAAAEAV?$KeyRefPair@XVDOMUserDataHandler@xercesc_3_1@@@2@XZ 000000018005d3cc f i xerces-c_3_1:DOMDocumentImpl.cpp.obj
 0001:0005c454       ?Reset@?$RefHash2KeysTableOfEnumerator@V?$KeyRefPair@XVDOMUserDataHandler@xercesc_3_1@@@xercesc_3_1@@UPtrHasher@2@@xercesc_3_1@@UEAAXXZ 000000018005d454 f i xerces-c_3_1:DOMDocumentImpl.cpp.obj
 0001:0005c47c       ??0?$ValueVectorOf@I@xercesc_3_1@@QEAA@_KQEAVMemoryManager@1@_N@Z 000000018005d47c f i xerces-c_3_1:XTemplateSerializer.cpp.obj
 0001:0005c47c       ??0?$ValueVectorOf@H@xercesc_3_1@@QEAA@_KQEAVMemoryManager@1@_N@Z 000000018005d47c f i xerces-c_3_1:DOMDocumentImpl.cpp.obj
 0001:0005c4c8       ??1?$ValueVectorEnumerator@H@xercesc_3_1@@UEAA@XZ 000000018005d4c8 f i xerces-c_3_1:DOMDocumentImpl.cpp.obj
 0001:0005c530       ?hasMoreElements@?$ValueVectorEnumerator@H@xercesc_3_1@@UEBA_NXZ 000000018005d530 f i xerces-c_3_1:DOMDocumentImpl.cpp.obj
 0001:0005c540       ?nextElement@?$ValueVectorEnumerator@H@xercesc_3_1@@UEAAAEAHXZ 000000018005d540 f i xerces-c_3_1:DOMDocumentImpl.cpp.obj
 0001:0005c568       ?Reset@?$ValueVectorEnumerator@H@xercesc_3_1@@UEAAXXZ 000000018005d568 f i xerces-c_3_1:DOMDocumentImpl.cpp.obj
 0001:0005c568       ?Reset@?$BaseRefVectorEnumerator@VSchemaInfo@xercesc_3_1@@@xercesc_3_1@@UEAAXXZ 000000018005d568 f i xerces-c_3_1:TraverseSchema.cpp.obj
 0001:0005c570       ??1?$BaseRefVectorOf@VDOMNode@xercesc_3_1@@@xercesc_3_1@@UEAA@XZ 000000018005d570 f i xerces-c_3_1:DOMDocumentImpl.cpp.obj
 0001:0005c57c       ?removeAllElements@?$BaseRefVectorOf@VXSAttributeUse@xercesc_3_1@@@xercesc_3_1@@UEAAXXZ 000000018005d57c f i xerces-c_3_1:XSObjectFactory.cpp.obj
 0001:0005c57c       ?removeAllElements@?$BaseRefVectorOf@VXMLNumber@xercesc_3_1@@@xercesc_3_1@@UEAAXXZ 000000018005d57c f i xerces-c_3_1:XTemplateSerializer.cpp.obj
 0001:0005c57c       ?removeAllElements@?$BaseRefVectorOf@VXercesLocationPath@xercesc_3_1@@@xercesc_3_1@@UEAAXXZ 000000018005d57c f i xerces-c_3_1:XercesXPath.cpp.obj
 0001:0005c57c       ?removeAllElements@?$BaseRefVectorOf@VSchemaElementDecl@xercesc_3_1@@@xercesc_3_1@@UEAAXXZ 000000018005d57c f i xerces-c_3_1:XTemplateSerializer.cpp.obj
 0001:0005c57c       ?removeAllElements@?$BaseRefVectorOf@VDOMRangeImpl@xercesc_3_1@@@xercesc_3_1@@UEAAXXZ 000000018005d57c f i xerces-c_3_1:DOMDocumentImpl.cpp.obj
 0001:0005c57c       ?removeAllElements@?$BaseRefVectorOf@VOp@xercesc_3_1@@@xercesc_3_1@@UEAAXXZ 000000018005d57c f i xerces-c_3_1:OpFactory.cpp.obj
 0001:0005c57c       ?removeAllElements@?$BaseRefVectorOf@VToken@xercesc_3_1@@@xercesc_3_1@@UEAAXXZ 000000018005d57c f i xerces-c_3_1:TokenFactory.cpp.obj
 0001:0005c57c       ?removeAllElements@?$BaseRefVectorOf@VDOMNode@xercesc_3_1@@@xercesc_3_1@@UEAAXXZ 000000018005d57c f i xerces-c_3_1:DOMDocumentImpl.cpp.obj
 0001:0005c57c       ?removeAllElements@?$BaseRefVectorOf@VDOMNodeIteratorImpl@xercesc_3_1@@@xercesc_3_1@@UEAAXXZ 000000018005d57c f i xerces-c_3_1:DOMDocumentImpl.cpp.obj
 0001:0005c57c       ?removeAllElements@?$BaseRefVectorOf@VIdentityConstraint@xercesc_3_1@@@xercesc_3_1@@UEAAXXZ 000000018005d57c f i xerces-c_3_1:XTemplateSerializer.cpp.obj
 0001:0005c57c       ?removeAllElements@?$BaseRefVectorOf@VXSObject@xercesc_3_1@@@xercesc_3_1@@UEAAXXZ 000000018005d57c f i xerces-c_3_1:XSModel.cpp.obj
 0001:0005c57c       ?removeAllElements@?$BaseRefVectorOf@VENameMap@xercesc_3_1@@@xercesc_3_1@@UEAAXXZ 000000018005d57c f i xerces-c_3_1:TransService.cpp.obj
 0001:0005c57c       ?removeAllElements@?$BaseRefVectorOf@VXPathMatcher@xercesc_3_1@@@xercesc_3_1@@UEAAXXZ 000000018005d57c f i xerces-c_3_1:XPathMatcherStack.cpp.obj
 0001:0005c57c       ?removeAllElements@?$BaseRefVectorOf@VXSParticle@xercesc_3_1@@@xercesc_3_1@@UEAAXXZ 000000018005d57c f i xerces-c_3_1:XSObjectFactory.cpp.obj
 0001:0005c57c       ?removeAllElements@?$BaseRefVectorOf@VXSFacet@xercesc_3_1@@@xercesc_3_1@@UEAAXXZ 000000018005d57c f i xerces-c_3_1:XSObjectFactory.cpp.obj
 0001:0005c57c       ?removeAllElements@?$BaseRefVectorOf@VSchemaAttDef@xercesc_3_1@@@xercesc_3_1@@UEAAXXZ 000000018005d57c f i xerces-c_3_1:XTemplateSerializer.cpp.obj
 0001:0005c57c       ?removeAllElements@?$BaseRefVectorOf@VDOMImplementationSource@xercesc_3_1@@@xercesc_3_1@@UEAAXXZ 000000018005d57c f i xerces-c_3_1:DOMImplementationRegistry.cpp.obj
 0001:0005c57c       ?removeAllElements@?$BaseRefVectorOf@VDatatypeValidator@xercesc_3_1@@@xercesc_3_1@@UEAAXXZ 000000018005d57c f i xerces-c_3_1:XTemplateSerializer.cpp.obj
 0001:0005c57c       ?removeAllElements@?$BaseRefVectorOf@VXMLElementDecl@xercesc_3_1@@@xercesc_3_1@@UEAAXXZ 000000018005d57c f i xerces-c_3_1:WFXMLScanner.cpp.obj
 0001:0005c57c       ?removeAllElements@?$BaseRefVectorOf@VXMLEntityDecl@xercesc_3_1@@@xercesc_3_1@@UEAAXXZ 000000018005d57c f i xerces-c_3_1:ReaderMgr.cpp.obj
 0001:0005c57c       ?removeAllElements@?$BaseRefVectorOf@VKVStringPair@xercesc_3_1@@@xercesc_3_1@@UEAAXXZ 000000018005d57c f i xerces-c_3_1:IGXMLScanner.cpp.obj
 0001:0005c57c       ?removeAllElements@?$BaseRefVectorOf@VXSAnnotation@xercesc_3_1@@@xercesc_3_1@@UEAAXXZ 000000018005d57c f i xerces-c_3_1:XSModel.cpp.obj
 0001:0005c57c       ?removeAllElements@?$BaseRefVectorOf@VDOMImplementation@xercesc_3_1@@@xercesc_3_1@@UEAAXXZ 000000018005d57c f i xerces-c_3_1:DOMImplementationListImpl.cpp.obj
 0001:0005c57c       ?removeAllElements@?$BaseRefVectorOf@VXSMultiValueFacet@xercesc_3_1@@@xercesc_3_1@@UEAAXXZ 000000018005d57c f i xerces-c_3_1:XSObjectFactory.cpp.obj
 0001:0005c57c       ?removeAllElements@?$BaseRefVectorOf@VIC_Field@xercesc_3_1@@@xercesc_3_1@@UEAAXXZ 000000018005d57c f i xerces-c_3_1:XTemplateSerializer.cpp.obj
 0001:0005c57c       ?removeAllElements@?$BaseRefVectorOf@VXSSimpleTypeDefinition@xercesc_3_1@@@xercesc_3_1@@UEAAXXZ 000000018005d57c f i xerces-c_3_1:XSObjectFactory.cpp.obj
 0001:0005c57c       ?removeAllElements@?$BaseRefVectorOf@VDOMDocumentImpl@xercesc_3_1@@@xercesc_3_1@@UEAAXXZ 000000018005d57c f i xerces-c_3_1:AbstractDOMParser.cpp.obj
 0001:0005c57c       ?removeAllElements@?$BaseRefVectorOf@VXSIDCDefinition@xercesc_3_1@@@xercesc_3_1@@UEAAXXZ 000000018005d57c f i xerces-c_3_1:XSObjectFactory.cpp.obj
 0001:0005c57c       ?removeAllElements@?$BaseRefVectorOf@VXercesStep@xercesc_3_1@@@xercesc_3_1@@UEAAXXZ 000000018005d57c f i xerces-c_3_1:XercesXPath.cpp.obj
 0001:0005c5d0       ??1?$RefVectorOf@VDOMNode@xercesc_3_1@@@xercesc_3_1@@UEAA@XZ 000000018005d5d0 f i xerces-c_3_1:DOMDocumentImpl.cpp.obj
 0001:0005c648       ??_E?$BaseRefVectorOf@VDOMRangeImpl@xercesc_3_1@@@xercesc_3_1@@UEAAPEAXI@Z 000000018005d648 f i  CIL library: CIL module
 0001:0005c648       ??_G?$BaseRefVectorOf@VDOMRangeImpl@xercesc_3_1@@@xercesc_3_1@@UEAAPEAXI@Z 000000018005d648 f i xerces-c_3_1:DOMDocumentImpl.cpp.obj
 0001:0005c678       ??_G?$RefVectorOf@VDOMRangeImpl@xercesc_3_1@@@xercesc_3_1@@UEAAPEAXI@Z 000000018005d678 f i xerces-c_3_1:DOMDocumentImpl.cpp.obj
 0001:0005c678       ??_E?$RefVectorOf@VDOMRangeImpl@xercesc_3_1@@@xercesc_3_1@@UEAAPEAXI@Z 000000018005d678 f i  CIL library: CIL module
 0001:0005c714       ??_E?$BaseRefVectorOf@VDOMNodeIteratorImpl@xercesc_3_1@@@xercesc_3_1@@UEAAPEAXI@Z 000000018005d714 f i  CIL library: CIL module
 0001:0005c714       ??_G?$BaseRefVectorOf@VDOMNodeIteratorImpl@xercesc_3_1@@@xercesc_3_1@@UEAAPEAXI@Z 000000018005d714 f i xerces-c_3_1:DOMDocumentImpl.cpp.obj
 0001:0005c744       ??_E?$RefVectorOf@VDOMNodeIteratorImpl@xercesc_3_1@@@xercesc_3_1@@UEAAPEAXI@Z 000000018005d744 f i  CIL library: CIL module
 0001:0005c744       ??_G?$RefVectorOf@VDOMNodeIteratorImpl@xercesc_3_1@@@xercesc_3_1@@UEAAPEAXI@Z 000000018005d744 f i xerces-c_3_1:DOMDocumentImpl.cpp.obj
 0001:0005c7e0       ??_G?$BaseRefVectorOf@VDOMBuffer@xercesc_3_1@@@xercesc_3_1@@UEAAPEAXI@Z 000000018005d7e0 f i xerces-c_3_1:DOMDocumentImpl.cpp.obj
 0001:0005c7e0       ??_E?$BaseRefVectorOf@VDOMBuffer@xercesc_3_1@@@xercesc_3_1@@UEAAPEAXI@Z 000000018005d7e0 f i  CIL library: CIL module
 0001:0005c810       ??_E?$RefVectorOf@VDOMBuffer@xercesc_3_1@@@xercesc_3_1@@UEAAPEAXI@Z 000000018005d810 f i  CIL library: CIL module
 0001:0005c810       ??_G?$RefVectorOf@VDOMBuffer@xercesc_3_1@@@xercesc_3_1@@UEAAPEAXI@Z 000000018005d810 f i xerces-c_3_1:DOMDocumentImpl.cpp.obj
 0001:0005c84c       ??_G?$RefHash2KeysTableOfEnumerator@V?$KeyRefPair@XVDOMUserDataHandler@xercesc_3_1@@@xercesc_3_1@@UPtrHasher@2@@xercesc_3_1@@UEAAPEAXI@Z 000000018005d84c f i xerces-c_3_1:DOMDocumentImpl.cpp.obj
 0001:0005c84c       ??_E?$RefHash2KeysTableOfEnumerator@V?$KeyRefPair@XVDOMUserDataHandler@xercesc_3_1@@@xercesc_3_1@@UPtrHasher@2@@xercesc_3_1@@UEAAPEAXI@Z 000000018005d84c f i  CIL library: CIL module
 0001:0005c888       ??_E?$ValueVectorEnumerator@H@xercesc_3_1@@UEAAPEAXI@Z 000000018005d888 f i  CIL library: CIL module
 0001:0005c888       ??_G?$ValueVectorEnumerator@H@xercesc_3_1@@UEAAPEAXI@Z 000000018005d888 f i xerces-c_3_1:DOMDocumentImpl.cpp.obj
 0001:0005c8c4       ??_G?$BaseRefVectorOf@VDOMNode@xercesc_3_1@@@xercesc_3_1@@UEAAPEAXI@Z 000000018005d8c4 f i xerces-c_3_1:DOMDocumentImpl.cpp.obj
 0001:0005c8c4       ??_E?$BaseRefVectorOf@VDOMNode@xercesc_3_1@@@xercesc_3_1@@UEAAPEAXI@Z 000000018005d8c4 f i  CIL library: CIL module
 0001:0005c8f4       ??_G?$RefVectorOf@VDOMNode@xercesc_3_1@@@xercesc_3_1@@UEAAPEAXI@Z 000000018005d8f4 f i xerces-c_3_1:DOMDocumentImpl.cpp.obj
 0001:0005c8f4       ??_E?$RefVectorOf@VDOMNode@xercesc_3_1@@@xercesc_3_1@@UEAAPEAXI@Z 000000018005d8f4 f i  CIL library: CIL module
 0001:0005c930       ?findBucketElem@?$DOMDeepNodeListPool@VDOMDeepNodeListImpl@xercesc_3_1@@UPtrHasher@2@@xercesc_3_1@@AEAAPEAU?$DOMDeepNodeListPoolTableBucketElem@VDOMDeepNodeListImpl@xercesc_3_1@@@2@QEBXQEB_W1AEA_K@Z 000000018005d930 f i xerces-c_3_1:DOMDocumentImpl.cpp.obj
 0001:0005ca78       ?rehash@?$RefHash2KeysTableOf@V?$KeyRefPair@XVDOMUserDataHandler@xercesc_3_1@@@xercesc_3_1@@UPtrHasher@2@@xercesc_3_1@@AEAAXXZ 000000018005da78 f i xerces-c_3_1:DOMDocumentImpl.cpp.obj
 0001:0005cb44       ?findNext@?$RefHash2KeysTableOfEnumerator@V?$KeyRefPair@XVDOMUserDataHandler@xercesc_3_1@@@xercesc_3_1@@UPtrHasher@2@@xercesc_3_1@@AEAAXXZ 000000018005db44 f i xerces-c_3_1:DOMDocumentImpl.cpp.obj
 0001:0005cbec       ??0?$RefVectorOf@VDOMNode@xercesc_3_1@@@xercesc_3_1@@QEAA@_K_NQEAVMemoryManager@1@@Z 000000018005dbec f i xerces-c_3_1:DOMDocumentImpl.cpp.obj
 0001:0005cc60       ??_EDOMDocumentImpl@xercesc_3_1@@WBI@EAAPEAXI@Z 000000018005dc60 f i xerces-c_3_1:DOMDocumentImpl.cpp.obj
 0001:0005cc6c       ??_EDOMDocument@xercesc_3_1@@WBI@EAAPEAXI@Z 000000018005dc6c f i xerces-c_3_1:DOMDocumentImpl.cpp.obj
 0001:0005cc78       ??_EDOMDocumentImpl@xercesc_3_1@@WCA@EAAPEAXI@Z 000000018005dc78 f i xerces-c_3_1:DOMDocumentImpl.cpp.obj
 0001:0005cc84       ??_9DOMXPathExpression@xercesc_3_1@@$BBA@AA 000000018005dc84 f i xerces-c_3_1:DOMDocumentImpl.cpp.obj
 0001:0005cc8c       ??_EDOMDocumentImpl@xercesc_3_1@@W7EAAPEAXI@Z 000000018005dc8c f i xerces-c_3_1:DOMDocumentImpl.cpp.obj
 0001:0005cc98       ??_EDOMDocument@xercesc_3_1@@W7EAAPEAXI@Z 000000018005dc98 f i xerces-c_3_1:DOMDocumentImpl.cpp.obj
 0001:0005cca4       ??_EDOMDocumentImpl@xercesc_3_1@@WBA@EAAPEAXI@Z 000000018005dca4 f i xerces-c_3_1:DOMDocumentImpl.cpp.obj
 0001:0005ccb0       ??_EDOMDocument@xercesc_3_1@@WBA@EAAPEAXI@Z 000000018005dcb0 f i xerces-c_3_1:DOMDocumentImpl.cpp.obj
 0001:0005ccbc       ?initializeStaticData@XMLInitializer@xercesc_3_1@@KAXXZ 000000018005dcbc f   xerces-c_3_1:XMLInitializer.cpp.obj
 0001:0005d188       ?terminateStaticData@XMLInitializer@xercesc_3_1@@KAXXZ 000000018005e188 f   xerces-c_3_1:XMLInitializer.cpp.obj
 0001:0005d648       ??1XMLMsgLoader@xercesc_3_1@@UEAA@XZ 000000018005e648 f i xerces-c_3_1:InMemMsgLoader.cpp.obj
 0001:0005d654       ??_GXMLMsgLoader@xercesc_3_1@@UEAAPEAXI@Z 000000018005e654 f i xerces-c_3_1:InMemMsgLoader.cpp.obj
 0001:0005d654       ??_EXMLMsgLoader@xercesc_3_1@@UEAAPEAXI@Z 000000018005e654 f i  CIL library: CIL module
 0001:0005d684       ??0InMemMsgLoader@xercesc_3_1@@QEAA@QEB_W@Z 000000018005e684 f   xerces-c_3_1:InMemMsgLoader.cpp.obj
 0001:0005d83c       ??_EInMemMsgLoader@xercesc_3_1@@UEAAPEAXI@Z 000000018005e83c f i  CIL library: CIL module
 0001:0005d83c       ??_GInMemMsgLoader@xercesc_3_1@@UEAAPEAXI@Z 000000018005e83c f i xerces-c_3_1:InMemMsgLoader.cpp.obj
 0001:0005d8a0       ?loadMsg@InMemMsgLoader@xercesc_3_1@@UEAA_NIQEA_W_K@Z 000000018005e8a0 f   xerces-c_3_1:InMemMsgLoader.cpp.obj
 0001:0005da40       ?loadMsg@InMemMsgLoader@xercesc_3_1@@UEAA_NIQEA_W_KQEB_W222QEAVMemoryManager@2@@Z 000000018005ea40 f   xerces-c_3_1:InMemMsgLoader.cpp.obj
 0001:0005daa4       ?loadMsg@InMemMsgLoader@xercesc_3_1@@UEAA_NIQEA_W_KQEBD222QEAVMemoryManager@2@@Z 000000018005eaa4 f   xerces-c_3_1:InMemMsgLoader.cpp.obj
 0001:0005dbfc       ??0XMLMutex@xercesc_3_1@@QEAA@QEAVMemoryManager@1@@Z 000000018005ebfc f   xerces-c_3_1:Mutexes.cpp.obj
 0001:0005dc60       ??1XMLMutex@xercesc_3_1@@QEAA@XZ 000000018005ec60 f   xerces-c_3_1:Mutexes.cpp.obj
 0001:0005dcd0       ??0XMLMutexLock@xercesc_3_1@@QEAA@QEAVXMLMutex@1@@Z 000000018005ecd0 f   xerces-c_3_1:Mutexes.cpp.obj
 0001:0005dd2c       ??1XMLMutexLock@xercesc_3_1@@QEAA@XZ 000000018005ed2c f   xerces-c_3_1:Mutexes.cpp.obj
 0001:0005dd78       ??_EXMLMutexMgr@xercesc_3_1@@UEAAPEAXI@Z 000000018005ed78 f i  CIL library: CIL module
 0001:0005dd78       ??_GWindowsMutexMgr@xercesc_3_1@@UEAAPEAXI@Z 000000018005ed78 f i xerces-c_3_1:WindowsMutexMgr.cpp.obj
 0001:0005dd78       ??_GXMLMutexMgr@xercesc_3_1@@UEAAPEAXI@Z 000000018005ed78 f i xerces-c_3_1:WindowsMutexMgr.cpp.obj
 0001:0005dd78       ??_EWindowsMutexMgr@xercesc_3_1@@UEAAPEAXI@Z 000000018005ed78 f i  CIL library: CIL module
 0001:0005dda8       ?create@WindowsMutexMgr@xercesc_3_1@@UEAAPEAXQEAVMemoryManager@2@@Z 000000018005eda8 f   xerces-c_3_1:WindowsMutexMgr.cpp.obj
 0001:0005ddd4       ?destroy@WindowsMutexMgr@xercesc_3_1@@UEAAXPEAXQEAVMemoryManager@2@@Z 000000018005edd4 f   xerces-c_3_1:WindowsMutexMgr.cpp.obj
 0001:0005de04       ?lock@WindowsMutexMgr@xercesc_3_1@@UEAAXPEAX@Z 000000018005ee04 f   xerces-c_3_1:WindowsMutexMgr.cpp.obj
 0001:0005de10       ?unlock@WindowsMutexMgr@xercesc_3_1@@UEAAXPEAX@Z 000000018005ee10 f   xerces-c_3_1:WindowsMutexMgr.cpp.obj
 0001:0005de1c       ??1XMLBuffer@xercesc_3_1@@QEAA@XZ 000000018005ee1c f i xerces-c_3_1:XMLScanner.cpp.obj
 0001:0005de2c       ??1XMLBufferFullHandler@xercesc_3_1@@UEAA@XZ 000000018005ee2c f i xerces-c_3_1:XMLScanner.cpp.obj
 0001:0005de38       ??_EXMLBufferFullHandler@xercesc_3_1@@UEAAPEAXI@Z 000000018005ee38 f i  CIL library: CIL module
 0001:0005de38       ??_GXMLBufferFullHandler@xercesc_3_1@@UEAAPEAXI@Z 000000018005ee38 f i xerces-c_3_1:XMLScanner.cpp.obj
 0001:0005de64       ?skippedString@ReaderMgr@xercesc_3_1@@QEAA_NQEB_W@Z 000000018005ee64 f i xerces-c_3_1:XMLScanner.cpp.obj
 0001:0005df1c       ?peekString@ReaderMgr@xercesc_3_1@@QEAA_NQEB_W@Z 000000018005ef1c f i xerces-c_3_1:XMLScanner.cpp.obj
 0001:0005dfcc       ??1ThrowEOEJanitor@xercesc_3_1@@QEAA@XZ 000000018005efcc f i xerces-c_3_1:XMLScanner.cpp.obj
 0001:0005dfd8       ?bufferFull@XMLScanner@xercesc_3_1@@UEAA_NAEAVXMLBuffer@2@@Z 000000018005efd8 f i xerces-c_3_1:XMLScanner.cpp.obj
 0001:0005dfec       ??0UnexpectedEOFException@xercesc_3_1@@QEAA@AEBV01@@Z 000000018005efec f i xerces-c_3_1:XMLScanner.cpp.obj
 0001:0005e010       ??1UnexpectedEOFException@xercesc_3_1@@UEAA@XZ 000000018005f010 f i xerces-c_3_1:XMLScanner.cpp.obj
 0001:0005e020       ?duplicate@UnexpectedEOFException@xercesc_3_1@@UEBAPEAVXMLException@2@XZ 000000018005f020 f i xerces-c_3_1:XMLScanner.cpp.obj
 0001:0005e084       ?getType@UnexpectedEOFException@xercesc_3_1@@UEBAPEB_WXZ 000000018005f084 f i xerces-c_3_1:XMLScanner.cpp.obj
 0001:0005e08c       ??_EUnexpectedEOFException@xercesc_3_1@@UEAAPEAXI@Z 000000018005f08c f i  CIL library: CIL module
 0001:0005e08c       ??_GUnexpectedEOFException@xercesc_3_1@@UEAAPEAXI@Z 000000018005f08c f i xerces-c_3_1:XMLScanner.cpp.obj
 0001:0005e0cc       ??0MalformedURLException@xercesc_3_1@@QEAA@AEBV01@@Z 000000018005f0cc f i xerces-c_3_1:XMLScanner.cpp.obj
 0001:0005e0f0       ??1MalformedURLException@xercesc_3_1@@UEAA@XZ 000000018005f0f0 f i xerces-c_3_1:XMLScanner.cpp.obj
 0001:0005e100       ?duplicate@MalformedURLException@xercesc_3_1@@UEBAPEAVXMLException@2@XZ 000000018005f100 f i xerces-c_3_1:XMLScanner.cpp.obj
 0001:0005e164       ?getType@MalformedURLException@xercesc_3_1@@UEBAPEB_WXZ 000000018005f164 f i xerces-c_3_1:XMLScanner.cpp.obj
 0001:0005e16c       ??_EMalformedURLException@xercesc_3_1@@UEAAPEAXI@Z 000000018005f16c f i  CIL library: CIL module
 0001:0005e16c       ??_GMalformedURLException@xercesc_3_1@@UEAAPEAXI@Z 000000018005f16c f i xerces-c_3_1:XMLScanner.cpp.obj
 0001:0005e1ac       ??0XMLScanner@xercesc_3_1@@QEAA@QEAVXMLValidator@1@QEAVGrammarResolver@1@QEAVMemoryManager@1@@Z 000000018005f1ac f   xerces-c_3_1:XMLScanner.cpp.obj
 0001:0005e5a0       ??_EXMLScanner@xercesc_3_1@@UEAAPEAXI@Z 000000018005f5a0 f i  CIL library: CIL module
 0001:0005e5a0       ??_GXMLScanner@xercesc_3_1@@UEAAPEAXI@Z 000000018005f5a0 f i xerces-c_3_1:XMLScanner.cpp.obj
 0001:0005e5dc       ??1XMLScanner@xercesc_3_1@@UEAA@XZ 000000018005f5dc f   xerces-c_3_1:XMLScanner.cpp.obj
 0001:0005e6cc       ?scanDocument@XMLScanner@xercesc_3_1@@QEAAXQEB_W@Z 000000018005f6cc f   xerces-c_3_1:XMLScanner.cpp.obj
 0001:0005ea1c       ?scanDocument@XMLScanner@xercesc_3_1@@QEAAXQEBD@Z 000000018005fa1c f   xerces-c_3_1:XMLScanner.cpp.obj
 0001:0005ea70       ?setParseSettings@XMLScanner@xercesc_3_1@@QEAAXQEAV12@@Z 000000018005fa70 f   xerces-c_3_1:XMLScanner.cpp.obj
 0001:0005eb90       ?commonInit@XMLScanner@xercesc_3_1@@AEAAXXZ 000000018005fb90 f   xerces-c_3_1:XMLScanner.cpp.obj
 0001:0005ed54       ?cleanUp@XMLScanner@xercesc_3_1@@AEAAXXZ 000000018005fd54 f   xerces-c_3_1:XMLScanner.cpp.obj
 0001:0005ee4c       ?emitError@XMLScanner@xercesc_3_1@@QEAAXW4Codes@XMLErrs@2@@Z 000000018005fe4c f   xerces-c_3_1:XMLScanner.cpp.obj
 0001:0005ef74       ?emitError@XMLScanner@xercesc_3_1@@QEAAXW4Codes@XMLErrs@2@QEB_W111@Z 000000018005ff74 f   xerces-c_3_1:XMLScanner.cpp.obj
 0001:0005f0c8       ?emitError@XMLScanner@xercesc_3_1@@QEAAXW4Codes@XMLErrs@2@QEBD111@Z 00000001800600c8 f   xerces-c_3_1:XMLScanner.cpp.obj
 0001:0005f1cc       ?emitError@XMLScanner@xercesc_3_1@@QEAAXW4Codes@XMLErrs@2@W43XMLExcepts@2@QEB_W222@Z 00000001800601cc f   xerces-c_3_1:XMLScanner.cpp.obj
 0001:0005f330       ?scanMiscellaneous@XMLScanner@xercesc_3_1@@IEAAXXZ 0000000180060330 f   xerces-c_3_1:XMLScanner.cpp.obj
 0001:0005f4fc       ?scanPI@XMLScanner@xercesc_3_1@@IEAAXXZ 00000001800604fc f   xerces-c_3_1:XMLScanner.cpp.obj
 0001:0005f934       ?scanProlog@XMLScanner@xercesc_3_1@@IEAAXXZ 0000000180060934 f   xerces-c_3_1:XMLScanner.cpp.obj
 0001:0005fb70       ?scanXMLDecl@XMLScanner@xercesc_3_1@@IEAAXW4DeclTypes@12@@Z 0000000180060b70 f   xerces-c_3_1:XMLScanner.cpp.obj
 0001:000604d4       ?getURIText@XMLScanner@xercesc_3_1@@QEBAPEB_WI@Z 00000001800614d4 f   xerces-c_3_1:XMLScanner.cpp.obj
 0001:0006051c       ?getURIText@XMLScanner@xercesc_3_1@@QEBA_NIAEAVXMLBuffer@2@@Z 000000018006151c f   xerces-c_3_1:XMLScanner.cpp.obj
 0001:00060590       ?checkXMLDecl@XMLScanner@xercesc_3_1@@QEAA_N_N@Z 0000000180061590 f   xerces-c_3_1:XMLScanner.cpp.obj
 0001:0006074c       ?loadGrammar@XMLScanner@xercesc_3_1@@QEAAPEAVGrammar@2@QEB_WF_N@Z 000000018006174c f   xerces-c_3_1:XMLScanner.cpp.obj
 0001:00060b60       ?loadGrammar@XMLScanner@xercesc_3_1@@QEAAPEAVGrammar@2@QEBDF_N@Z 0000000180061b60 f   xerces-c_3_1:XMLScanner.cpp.obj
 0001:00060bdc       ?setURIStringPool@XMLScanner@xercesc_3_1@@QEAAXQEAVXMLStringPool@2@@Z 0000000180061bdc f   xerces-c_3_1:XMLScanner.cpp.obj
 0001:00060c50       ?checkInternalDTD@XMLScanner@xercesc_3_1@@IEAAX_NQEB_W1@Z 0000000180061c50 f   xerces-c_3_1:XMLScanner.cpp.obj
 0001:00060d7c       ?checkIDRefs@XMLScanner@xercesc_3_1@@IEAAXXZ 0000000180061d7c f   xerces-c_3_1:XMLScanner.cpp.obj
 0001:00060e14       ?senseNextToken@XMLScanner@xercesc_3_1@@IEAA?AW4XMLTokens@12@AEA_K@Z 0000000180061e14 f   xerces-c_3_1:XMLScanner.cpp.obj
 0001:00060f4c       ?scanCharRef@XMLScanner@xercesc_3_1@@IEAA_NAEA_W0@Z 0000000180061f4c f   xerces-c_3_1:XMLScanner.cpp.obj
 0001:000611b0       ?scanComment@XMLScanner@xercesc_3_1@@IEAAXXZ 00000001800621b0 f   xerces-c_3_1:XMLScanner.cpp.obj
 0001:00061468       ?scanEq@XMLScanner@xercesc_3_1@@IEAA_N_N@Z 0000000180062468 f   xerces-c_3_1:XMLScanner.cpp.obj
 0001:000614ec       ?getNewUIntPtr@XMLScanner@xercesc_3_1@@IEAAPEAIXZ 00000001800624ec f   xerces-c_3_1:XMLScanner.cpp.obj
 0001:000615ec       ?resetUIntPool@XMLScanner@xercesc_3_1@@IEAAXXZ 00000001800625ec f   xerces-c_3_1:XMLScanner.cpp.obj
 0001:00061634       ?recreateUIntPool@XMLScanner@xercesc_3_1@@IEAAXXZ 0000000180062634 f   xerces-c_3_1:XMLScanner.cpp.obj
 0001:000616ec       ?resolvePrefix@XMLScanner@xercesc_3_1@@IEAAIQEB_WW4MapModes@ElemStack@2@@Z 00000001800626ec f   xerces-c_3_1:XMLScanner.cpp.obj
 0001:0006181c       ?resolveQName@XMLScanner@xercesc_3_1@@QEAAIQEB_WAEAVXMLBuffer@2@W4MapModes@ElemStack@2@AEAH@Z 000000018006281c f   xerces-c_3_1:XMLScanner.cpp.obj
 0001:00061874       ?resolveQNameWithColon@XMLScanner@xercesc_3_1@@IEAAIQEB_WAEAVXMLBuffer@2@W4MapModes@ElemStack@2@H@Z 0000000180062874 f   xerces-c_3_1:XMLScanner.cpp.obj
 0001:00061924       ??1?$XMLEnumerator@VXMLRefInfo@xercesc_3_1@@@xercesc_3_1@@UEAA@XZ 0000000180062924 f i xerces-c_3_1:XMLScanner.cpp.obj
 0001:00061930       ??_G?$XMLEnumerator@VXMLRefInfo@xercesc_3_1@@@xercesc_3_1@@UEAAPEAXI@Z 0000000180062930 f i xerces-c_3_1:XMLScanner.cpp.obj
 0001:00061930       ??_E?$XMLEnumerator@VXMLRefInfo@xercesc_3_1@@@xercesc_3_1@@UEAAPEAXI@Z 0000000180062930 f i  CIL library: CIL module
 0001:0006195c       ?removeAll@?$RefHash2KeysTableOf@VXMLAttr@xercesc_3_1@@UStringHasher@2@@xercesc_3_1@@QEAAXXZ 000000018006295c f i xerces-c_3_1:XMLScanner.cpp.obj
 0001:00061a04       ??1?$BaseRefVectorOf@VXMLAttr@xercesc_3_1@@@xercesc_3_1@@UEAA@XZ 0000000180062a04 f i xerces-c_3_1:XMLScanner.cpp.obj
 0001:00061a10       ?setElementAt@?$BaseRefVectorOf@VXMLAttr@xercesc_3_1@@@xercesc_3_1@@UEAAXQEAVXMLAttr@2@_K@Z 0000000180062a10 f i xerces-c_3_1:XMLScanner.cpp.obj
 0001:00061acc       ?removeAllElements@?$BaseRefVectorOf@VXMLAttr@xercesc_3_1@@@xercesc_3_1@@UEAAXXZ 0000000180062acc f i xerces-c_3_1:XMLScanner.cpp.obj
 0001:00061b38       ?removeElementAt@?$BaseRefVectorOf@VXMLAttr@xercesc_3_1@@@xercesc_3_1@@UEAAX_K@Z 0000000180062b38 f i xerces-c_3_1:XMLScanner.cpp.obj
 0001:00061c28       ?removeLastElement@?$BaseRefVectorOf@VXMLAttr@xercesc_3_1@@@xercesc_3_1@@UEAAXXZ 0000000180062c28 f i xerces-c_3_1:XMLScanner.cpp.obj
 0001:00061c70       ?cleanup@?$BaseRefVectorOf@VXMLAttr@xercesc_3_1@@@xercesc_3_1@@UEAAXXZ 0000000180062c70 f i xerces-c_3_1:XMLScanner.cpp.obj
 0001:00061cdc       ??0?$RefVectorOf@VXMLAttr@xercesc_3_1@@@xercesc_3_1@@QEAA@_K_NQEAVMemoryManager@1@@Z 0000000180062cdc f i xerces-c_3_1:XMLScanner.cpp.obj
 0001:00061d50       ??1?$RefVectorOf@VXMLAttr@xercesc_3_1@@@xercesc_3_1@@UEAA@XZ 0000000180062d50 f i xerces-c_3_1:XMLScanner.cpp.obj
 0001:00061ddc       ??0?$RefHashTableOfEnumerator@VXMLRefInfo@xercesc_3_1@@UStringHasher@2@@xercesc_3_1@@QEAA@QEAV?$RefHashTableOf@VXMLRefInfo@xercesc_3_1@@UStringHasher@2@@1@_NQEAVMemoryManager@1@@Z 0000000180062ddc f i xerces-c_3_1:XMLScanner.cpp.obj
 0001:00061e70       ??1?$RefHashTableOfEnumerator@VXMLRefInfo@xercesc_3_1@@UStringHasher@2@@xercesc_3_1@@UEAA@XZ 0000000180062e70 f i xerces-c_3_1:XMLScanner.cpp.obj
 0001:00061ee4       ??_G?$BaseRefVectorOf@VXMLAttr@xercesc_3_1@@@xercesc_3_1@@UEAAPEAXI@Z 0000000180062ee4 f i xerces-c_3_1:XMLScanner.cpp.obj
 0001:00061ee4       ??_E?$BaseRefVectorOf@VXMLAttr@xercesc_3_1@@@xercesc_3_1@@UEAAPEAXI@Z 0000000180062ee4 f i  CIL library: CIL module
 0001:00061f14       ??_E?$RefVectorOf@VXMLAttr@xercesc_3_1@@@xercesc_3_1@@UEAAPEAXI@Z 0000000180062f14 f i  CIL library: CIL module
 0001:00061f14       ??_G?$RefVectorOf@VXMLAttr@xercesc_3_1@@@xercesc_3_1@@UEAAPEAXI@Z 0000000180062f14 f i xerces-c_3_1:XMLScanner.cpp.obj
 0001:00061f50       ??_G?$RefHashTableOfEnumerator@VXMLRefInfo@xercesc_3_1@@UStringHasher@2@@xercesc_3_1@@UEAAPEAXI@Z 0000000180062f50 f i xerces-c_3_1:XMLScanner.cpp.obj
 0001:00061f50       ??_E?$RefHashTableOfEnumerator@VXMLRefInfo@xercesc_3_1@@UStringHasher@2@@xercesc_3_1@@UEAAPEAXI@Z 0000000180062f50 f i  CIL library: CIL module
 0001:00061f8c       ?removeAll@?$RefHashTableOf@VGrammar@xercesc_3_1@@UStringHasher@2@@xercesc_3_1@@QEAAXXZ 0000000180062f8c f i xerces-c_3_1:GrammarResolver.cpp.obj
 0001:00061f8c       ?removeAll@?$RefHashTableOf@VXMLElementDecl@xercesc_3_1@@UStringHasher@2@@xercesc_3_1@@QEAAXXZ 0000000180062f8c f i xerces-c_3_1:WFXMLScanner.cpp.obj
 0001:00061f8c       ?removeAll@?$RefHashTableOf@VDTDElementDecl@xercesc_3_1@@UStringHasher@2@@xercesc_3_1@@QEAAXXZ 0000000180062f8c f i xerces-c_3_1:DTDGrammar.cpp.obj
 0001:00061f8c       ?removeAll@?$RefHashTableOf@VXSAnnotation@xercesc_3_1@@UPtrHasher@2@@xercesc_3_1@@QEAAXXZ 0000000180062f8c f i xerces-c_3_1:XTemplateSerializer.cpp.obj
 0001:00061f8c       ?removeAll@?$RefHashTableOf@VDTDEntityDecl@xercesc_3_1@@UStringHasher@2@@xercesc_3_1@@QEAAXXZ 0000000180062f8c f i xerces-c_3_1:DTDGrammar.cpp.obj
 0001:00061f8c       ?removeAll@?$RefHashTableOf@VXMLRefInfo@xercesc_3_1@@UStringHasher@2@@xercesc_3_1@@QEAAXXZ 0000000180062f8c f i xerces-c_3_1:XMLScanner.cpp.obj
 0001:00061f8c       ?removeAll@?$RefHashTableOf@VDatatypeValidator@xercesc_3_1@@UStringHasher@2@@xercesc_3_1@@QEAAXXZ 0000000180062f8c f i xerces-c_3_1:DatatypeValidatorFactory.cpp.obj
 0001:00061f8c       ?removeAll@?$RefHashTableOf@VXMLNotationDecl@xercesc_3_1@@UStringHasher@2@@xercesc_3_1@@QEAAXXZ 0000000180062f8c f i xerces-c_3_1:DTDGrammar.cpp.obj
 0001:0006201c       ??0XMLReader@xercesc_3_1@@QEAA@QEB_W0QEAVBinInputStream@1@W4RefFrom@01@W4Types@01@W4Sources@01@_N5_KW4XMLVersion@01@QEAVMemoryManager@1@@Z 000000018006301c f   xerces-c_3_1:XMLReader.cpp.obj
 0001:00062474       ??0XMLReader@xercesc_3_1@@QEAA@QEB_W0QEAVBinInputStream@1@0W4RefFrom@01@W4Types@01@W4Sources@01@_N5_KW4XMLVersion@01@QEAVMemoryManager@1@@Z 0000000180063474 f   xerces-c_3_1:XMLReader.cpp.obj
 0001:00062960       ??0XMLReader@xercesc_3_1@@QEAA@QEB_W0QEAVBinInputStream@1@W4Encodings@XMLRecognizer@1@W4RefFrom@01@W4Types@01@W4Sources@01@_N6_KW4XMLVersion@01@QEAVMemoryManager@1@@Z 0000000180063960 f   xerces-c_3_1:XMLReader.cpp.obj
 0001:00062cb8       ?getSrcOffset@XMLReader@xercesc_3_1@@QEBA_KXZ 0000000180063cb8 f   xerces-c_3_1:XMLReader.cpp.obj
 0001:00062d70       ?refreshCharBuffer@XMLReader@xercesc_3_1@@QEAA_NXZ 0000000180063d70 f   xerces-c_3_1:XMLReader.cpp.obj
 0001:0006309c       ?getName@XMLReader@xercesc_3_1@@QEAA_NAEAVXMLBuffer@2@_N@Z 000000018006409c f   xerces-c_3_1:XMLReader.cpp.obj
 0001:0006329c       ?getNCName@XMLReader@xercesc_3_1@@QEAA_NAEAVXMLBuffer@2@@Z 000000018006429c f   xerces-c_3_1:XMLReader.cpp.obj
 0001:000634b0       ?skipSpaces@XMLReader@xercesc_3_1@@QEAA_NAEA_N_N@Z 00000001800644b0 f   xerces-c_3_1:XMLReader.cpp.obj
 0001:00063538       ?setEncoding@XMLReader@xercesc_3_1@@QEAA_NQEB_W@Z 0000000180064538 f   xerces-c_3_1:XMLReader.cpp.obj
 0001:00063ba0       ?doInitDecode@XMLReader@xercesc_3_1@@AEAAXXZ 0000000180064ba0 f   xerces-c_3_1:XMLReader.cpp.obj
 0001:00064268       ?refreshRawBuffer@XMLReader@xercesc_3_1@@AEAAXXZ 0000000180065268 f   xerces-c_3_1:XMLReader.cpp.obj
 0001:0006435c       ?handleEOL@XMLReader@xercesc_3_1@@AEAAXAEA_W_N@Z 000000018006535c f   xerces-c_3_1:XMLReader.cpp.obj
 0001:000644cc       ?getDatatypeValidator@DatatypeValidatorFactory@xercesc_3_1@@QEBAPEAVDatatypeValidator@2@QEB_W@Z 00000001800654cc f i xerces-c_3_1:GrammarResolver.cpp.obj
 0001:00064550       ??0GrammarResolver@xercesc_3_1@@QEAA@QEAVXMLGrammarPool@1@QEAVMemoryManager@1@@Z 0000000180065550 f   xerces-c_3_1:GrammarResolver.cpp.obj
 0001:000646d0       ??_GXSModel@xercesc_3_1@@QEAAPEAXI@Z 00000001800656d0 f i xerces-c_3_1:GrammarResolver.cpp.obj
 0001:0006470c       ?getDatatypeValidator@GrammarResolver@xercesc_3_1@@QEAAPEAVDatatypeValidator@2@QEB_W0@Z 000000018006570c f   xerces-c_3_1:GrammarResolver.cpp.obj
 0001:000648d4       ?getGrammar@GrammarResolver@xercesc_3_1@@QEAAPEAVGrammar@2@QEB_W@Z 00000001800658d4 f   xerces-c_3_1:GrammarResolver.cpp.obj
 0001:000649bc       ?getGrammar@GrammarResolver@xercesc_3_1@@QEAAPEAVGrammar@2@QEAVXMLGrammarDescription@2@@Z 00000001800659bc f   xerces-c_3_1:GrammarResolver.cpp.obj
 0001:00064a6c       ?getGrammarEnumerator@GrammarResolver@xercesc_3_1@@QEBA?AV?$RefHashTableOfEnumerator@VGrammar@xercesc_3_1@@UStringHasher@2@@2@XZ 0000000180065a6c f   xerces-c_3_1:GrammarResolver.cpp.obj
 0001:00064a94       ?putGrammar@GrammarResolver@xercesc_3_1@@QEAAXQEAVGrammar@2@@Z 0000000180065a94 f   xerces-c_3_1:GrammarResolver.cpp.obj
 0001:00064b10       ?cacheGrammars@GrammarResolver@xercesc_3_1@@QEAAXXZ 0000000180065b10 f   xerces-c_3_1:GrammarResolver.cpp.obj
 0001:00064c58       ?cacheGrammarFromParse@GrammarResolver@xercesc_3_1@@QEAAX_N@Z 0000000180065c58 f   xerces-c_3_1:GrammarResolver.cpp.obj
 0001:00064cb8       ?orphanGrammar@GrammarResolver@xercesc_3_1@@QEAAPEAVGrammar@2@QEB_W@Z 0000000180065cb8 f   xerces-c_3_1:GrammarResolver.cpp.obj
 0001:00064d3c       ?getXSModel@GrammarResolver@xercesc_3_1@@QEAAPEAVXSModel@2@XZ 0000000180065d3c f   xerces-c_3_1:GrammarResolver.cpp.obj
 0001:0006500c       ??1?$XMLEnumerator@VGrammar@xercesc_3_1@@@xercesc_3_1@@UEAA@XZ 000000018006600c f i xerces-c_3_1:GrammarResolver.cpp.obj
 0001:00065018       ??_E?$XMLEnumerator@VGrammar@xercesc_3_1@@@xercesc_3_1@@UEAAPEAXI@Z 0000000180066018 f i  CIL library: CIL module
 0001:00065018       ??_G?$XMLEnumerator@VGrammar@xercesc_3_1@@@xercesc_3_1@@UEAAPEAXI@Z 0000000180066018 f i xerces-c_3_1:GrammarResolver.cpp.obj
 0001:00065044       ??0?$RefHashTableOf@VGrammar@xercesc_3_1@@UStringHasher@2@@xercesc_3_1@@QEAA@_K_NQEAVMemoryManager@1@@Z 0000000180066044 f i xerces-c_3_1:GrammarResolver.cpp.obj
 0001:000650ec       ?removeKey@?$RefHashTableOf@VGrammar@xercesc_3_1@@UStringHasher@2@@xercesc_3_1@@QEAAXQEBX@Z 00000001800660ec f i xerces-c_3_1:GrammarResolver.cpp.obj
 0001:00065248       ?orphanKey@?$RefHashTableOf@VGrammar@xercesc_3_1@@UStringHasher@2@@xercesc_3_1@@QEAAPEAVGrammar@2@QEBX@Z 0000000180066248 f i xerces-c_3_1:GrammarResolver.cpp.obj
 0001:000653ac       ??0?$RefHashTableOfEnumerator@VGrammar@xercesc_3_1@@UStringHasher@2@@xercesc_3_1@@QEAA@QEAV?$RefHashTableOf@VGrammar@xercesc_3_1@@UStringHasher@2@@1@_NQEAVMemoryManager@1@@Z 00000001800663ac f i xerces-c_3_1:GrammarResolver.cpp.obj
 0001:00065440       ??1?$RefHashTableOfEnumerator@VGrammar@xercesc_3_1@@UStringHasher@2@@xercesc_3_1@@UEAA@XZ 0000000180066440 f i xerces-c_3_1:GrammarResolver.cpp.obj
 0001:000654b4       ??_E?$RefHashTableOfEnumerator@VGrammar@xercesc_3_1@@UStringHasher@2@@xercesc_3_1@@UEAAPEAXI@Z 00000001800664b4 f i  CIL library: CIL module
 0001:000654b4       ??_G?$RefHashTableOfEnumerator@VGrammar@xercesc_3_1@@UStringHasher@2@@xercesc_3_1@@UEAAPEAXI@Z 00000001800664b4 f i xerces-c_3_1:GrammarResolver.cpp.obj
 0001:000654f0       ??1DOMTypeInfo@xercesc_3_1@@UEAA@XZ 00000001800664f0 f i xerces-c_3_1:DOMTypeInfoImpl.cpp.obj
 0001:000654fc       ??_EDOMTypeInfo@xercesc_3_1@@UEAAPEAXI@Z 00000001800664fc f i  CIL library: CIL module
 0001:000654fc       ??_GDOMTypeInfo@xercesc_3_1@@UEAAPEAXI@Z 00000001800664fc f i xerces-c_3_1:DOMTypeInfoImpl.cpp.obj
 0001:00065528       ??1DOMPSVITypeInfo@xercesc_3_1@@UEAA@XZ 0000000180066528 f i xerces-c_3_1:DOMTypeInfoImpl.cpp.obj
 0001:00065534       ??_EDOMPSVITypeInfo@xercesc_3_1@@UEAAPEAXI@Z 0000000180066534 f i  CIL library: CIL module
 0001:00065534       ??_GDOMPSVITypeInfo@xercesc_3_1@@UEAAPEAXI@Z 0000000180066534 f i xerces-c_3_1:DOMTypeInfoImpl.cpp.obj
 0001:00065560       ??_EDOMTypeInfoImpl@xercesc_3_1@@UEAAPEAXI@Z 0000000180066560 f i  CIL library: CIL module
 0001:00065560       ??_GDOMTypeInfoImpl@xercesc_3_1@@UEAAPEAXI@Z 0000000180066560 f i xerces-c_3_1:DOMTypeInfoImpl.cpp.obj
 0001:00065598       ??0DOMTypeInfoImpl@xercesc_3_1@@QEAA@PEAVDOMDocumentImpl@1@PEBVDOMPSVITypeInfo@1@@Z 0000000180066598 f   xerces-c_3_1:DOMTypeInfoImpl.cpp.obj
 0001:00065760       ?getTypeName@DOMTypeInfoImpl@xercesc_3_1@@UEBAPEB_WXZ 0000000180066760 f   xerces-c_3_1:DOMTypeInfoImpl.cpp.obj
 0001:000657ac       ?getTypeNamespace@DOMTypeInfoImpl@xercesc_3_1@@UEBAPEB_WXZ 00000001800667ac f   xerces-c_3_1:DOMTypeInfoImpl.cpp.obj
 0001:000657fc       ?isDerivedFrom@DOMTypeInfoImpl@xercesc_3_1@@UEBA_NPEB_W0W4DerivationMethods@DOMTypeInfo@2@@Z 00000001800667fc f   xerces-c_3_1:DOMTypeInfoImpl.cpp.obj
 0001:000658f8       ?getStringProperty@DOMTypeInfoImpl@xercesc_3_1@@UEBAPEB_WW4PSVIProperty@DOMPSVITypeInfo@2@@Z 00000001800668f8 f   xerces-c_3_1:DOMTypeInfoImpl.cpp.obj
 0001:00065934       ?getNumericProperty@DOMTypeInfoImpl@xercesc_3_1@@UEBAHW4PSVIProperty@DOMPSVITypeInfo@2@@Z 0000000180066934 f   xerces-c_3_1:DOMTypeInfoImpl.cpp.obj
 0001:00065994       ?setStringProperty@DOMTypeInfoImpl@xercesc_3_1@@UEAAXW4PSVIProperty@DOMPSVITypeInfo@2@PEB_W@Z 0000000180066994 f   xerces-c_3_1:DOMTypeInfoImpl.cpp.obj
 0001:000659d0       ?setNumericProperty@DOMTypeInfoImpl@xercesc_3_1@@UEAAXW4PSVIProperty@DOMPSVITypeInfo@2@H@Z 00000001800669d0 f   xerces-c_3_1:DOMTypeInfoImpl.cpp.obj
 0001:00065a44       ??_EDOMTypeInfoImpl@xercesc_3_1@@W7EAAPEAXI@Z 0000000180066a44 f i xerces-c_3_1:DOMTypeInfoImpl.cpp.obj
 0001:00065a50       ?cloneNode@DOMTextImpl@xercesc_3_1@@UEBAPEAVDOMNode@2@_N@Z 0000000180066a50 f   xerces-c_3_1:DOMTextImpl.cpp.obj
 0001:00065b14       ?getNodeName@DOMTextImpl@xercesc_3_1@@UEBAPEB_WXZ 0000000180066b14 f   xerces-c_3_1:DOMTextImpl.cpp.obj
 0001:00065b1c       ?getNodeType@DOMTextImpl@xercesc_3_1@@UEBA?AW4NodeType@DOMNode@2@XZ 0000000180066b1c f   xerces-c_3_1:DOMTextImpl.cpp.obj
 0001:00065b24       ?splitText@DOMTextImpl@xercesc_3_1@@UEAAPEAVDOMText@2@_K@Z 0000000180066b24 f   xerces-c_3_1:DOMTextImpl.cpp.obj
 0001:00065cf0       ?isIgnorableWhitespace@DOMTextImpl@xercesc_3_1@@UEBA_NXZ 0000000180066cf0 f   xerces-c_3_1:DOMTextImpl.cpp.obj
 0001:00065cf0       ?isIgnorableWhitespace@DOMCDATASectionImpl@xercesc_3_1@@UEBA_NXZ 0000000180066cf0 f   xerces-c_3_1:DOMCDATASectionImpl.cpp.obj
 0001:00065cfc       ?setIgnorableWhitespace@DOMTextImpl@xercesc_3_1@@MEAAX_N@Z 0000000180066cfc f   xerces-c_3_1:DOMTextImpl.cpp.obj
 0001:00065d14       ?replaceWholeText@DOMTextImpl@xercesc_3_1@@UEAAPEAVDOMText@2@PEB_W@Z 0000000180066d14 f   xerces-c_3_1:DOMTextImpl.cpp.obj
 0001:00065d14       ?replaceWholeText@DOMCDATASectionImpl@xercesc_3_1@@UEAAPEAVDOMText@2@PEB_W@Z 0000000180066d14 f   xerces-c_3_1:DOMCDATASectionImpl.cpp.obj
 0001:00066054       ?release@DOMTextImpl@xercesc_3_1@@UEAAXXZ 0000000180067054 f   xerces-c_3_1:DOMTextImpl.cpp.obj
 0001:0006619c       ?lookupNamespaceURI@DOMProcessingInstructionImpl@xercesc_3_1@@UEBAPEB_WPEB_W@Z 000000018006719c f   xerces-c_3_1:DOMProcessingInstructionImpl.cpp.obj
 0001:0006619c       ?lookupNamespaceURI@DOMEntityReferenceImpl@xercesc_3_1@@UEBAPEB_WPEB_W@Z 000000018006719c f   xerces-c_3_1:DOMEntityReferenceImpl.cpp.obj
 0001:0006619c       ?lookupNamespaceURI@DOMEntityImpl@xercesc_3_1@@UEBAPEB_WPEB_W@Z 000000018006719c f   xerces-c_3_1:DOMEntityImpl.cpp.obj
 0001:0006619c       ?lookupNamespaceURI@DOMTextImpl@xercesc_3_1@@UEBAPEB_WPEB_W@Z 000000018006719c f   xerces-c_3_1:DOMTextImpl.cpp.obj
 0001:0006619c       ?lookupNamespaceURI@DOMAttrImpl@xercesc_3_1@@UEBAPEB_WPEB_W@Z 000000018006719c f   xerces-c_3_1:DOMAttrImpl.cpp.obj
 0001:0006619c       ?lookupNamespaceURI@DOMCommentImpl@xercesc_3_1@@UEBAPEB_WPEB_W@Z 000000018006719c f   xerces-c_3_1:DOMCommentImpl.cpp.obj
 0001:0006619c       ?lookupNamespaceURI@DOMDocumentFragmentImpl@xercesc_3_1@@UEBAPEB_WPEB_W@Z 000000018006719c f   xerces-c_3_1:DOMDocumentFragmentImpl.cpp.obj
 0001:0006619c       ?lookupNamespaceURI@DOMNotationImpl@xercesc_3_1@@UEBAPEB_WPEB_W@Z 000000018006719c f   xerces-c_3_1:DOMNotationImpl.cpp.obj
 0001:0006619c       ?lookupNamespaceURI@DOMElementImpl@xercesc_3_1@@UEBAPEB_WPEB_W@Z 000000018006719c f   xerces-c_3_1:DOMElementImpl.cpp.obj
 0001:0006619c       ?lookupNamespaceURI@DOMDocumentImpl@xercesc_3_1@@UEBAPEB_WPEB_W@Z 000000018006719c f   xerces-c_3_1:DOMDocumentImpl.cpp.obj
 0001:0006619c       ?lookupNamespaceURI@DOMCDATASectionImpl@xercesc_3_1@@UEBAPEB_WPEB_W@Z 000000018006719c f   xerces-c_3_1:DOMCDATASectionImpl.cpp.obj
 0001:0006619c       ?lookupNamespaceURI@DOMDocumentTypeImpl@xercesc_3_1@@UEBAPEB_WPEB_W@Z 000000018006719c f   xerces-c_3_1:DOMDocumentTypeImpl.cpp.obj
 0001:000661a8       ?insertData@DOMCDATASectionImpl@xercesc_3_1@@UEAAX_KPEB_W@Z 00000001800671a8 f   xerces-c_3_1:DOMCDATASectionImpl.cpp.obj
 0001:000661a8       ?insertData@DOMCommentImpl@xercesc_3_1@@UEAAX_KPEB_W@Z 00000001800671a8 f   xerces-c_3_1:DOMCommentImpl.cpp.obj
 0001:000661a8       ?insertData@DOMTextImpl@xercesc_3_1@@UEAAX_KPEB_W@Z 00000001800671a8 f   xerces-c_3_1:DOMTextImpl.cpp.obj
 0001:000661c0       ?appendData@DOMTextImpl@xercesc_3_1@@UEAAXPEB_W_K@Z 00000001800671c0 f   xerces-c_3_1:DOMTextImpl.cpp.obj
 0001:0006626c       ?getPooledNString@DOMDocumentImpl@xercesc_3_1@@QEAAPEB_WPEB_W_K@Z 000000018006726c f i xerces-c_3_1:DOMAttrNSImpl.cpp.obj
 0001:000663b4       ?removeAttrFromIDNodeMap@DOMAttrImpl@xercesc_3_1@@UEAAXXZ 00000001800673b4 f i xerces-c_3_1:DOMAttrNSImpl.cpp.obj
 0001:000663f0       ?addAttrToIDNodeMap@DOMAttrImpl@xercesc_3_1@@UEAAXXZ 00000001800673f0 f i xerces-c_3_1:DOMAttrNSImpl.cpp.obj
 0001:00066484       ??0DOMAttrNSImpl@xercesc_3_1@@QEAA@PEAVDOMDocument@1@PEB_W111@Z 0000000180067484 f   xerces-c_3_1:DOMAttrNSImpl.cpp.obj
 0001:00066558       ?cloneNode@DOMAttrNSImpl@xercesc_3_1@@UEBAPEAVDOMNode@2@_N@Z 0000000180067558 f   xerces-c_3_1:DOMAttrNSImpl.cpp.obj
 0001:00066604       ?getRawData@XMLDateTime@xercesc_3_1@@UEBAPEA_WXZ 0000000180067604 f   xerces-c_3_1:XMLDateTime.cpp.obj
 0001:00066604       ?getLocalName@DOMAttrNSImpl@xercesc_3_1@@UEBAPEB_WXZ 0000000180067604 f   xerces-c_3_1:DOMAttrNSImpl.cpp.obj
 0001:00066604       ?getNotationName@DOMEntityImpl@xercesc_3_1@@UEBAPEB_WXZ 0000000180067604 f   xerces-c_3_1:DOMEntityImpl.cpp.obj
 0001:00066604       ?getDefaultAttributes@DOMElementImpl@xercesc_3_1@@UEBAPEAVDOMAttrMapImpl@2@XZ 0000000180067604 f   xerces-c_3_1:DOMElementImpl.cpp.obj
 0001:00066604       ?getBaseURI@DOMEntityReferenceImpl@xercesc_3_1@@UEBAPEB_WXZ 0000000180067604 f   xerces-c_3_1:DOMEntityReferenceImpl.cpp.obj
 0001:00066604       ?getEntities@DOMDocumentTypeImpl@xercesc_3_1@@UEBAPEAVDOMNamedNodeMap@2@XZ 0000000180067604 f   xerces-c_3_1:DOMDocumentTypeImpl.cpp.obj
 0001:0006660c       ?setPrefix@DOMAttrNSImpl@xercesc_3_1@@UEAAXPEB_W@Z 000000018006760c f   xerces-c_3_1:DOMAttrNSImpl.cpp.obj
 0001:00066acc       ?release@DOMAttrNSImpl@xercesc_3_1@@UEAAXXZ 0000000180067acc f   xerces-c_3_1:DOMAttrNSImpl.cpp.obj
 0001:00066c10       ?rename@DOMAttrNSImpl@xercesc_3_1@@UEAAPEAVDOMNode@2@PEB_W0@Z 0000000180067c10 f   xerces-c_3_1:DOMAttrNSImpl.cpp.obj
 0001:00066c88       ?setName@DOMAttrNSImpl@xercesc_3_1@@QEAAXPEB_W0@Z 0000000180067c88 f   xerces-c_3_1:DOMAttrNSImpl.cpp.obj
 0001:00066fb8       ??0DOMEntityImpl@xercesc_3_1@@QEAA@PEAVDOMDocument@1@PEB_W@Z 0000000180067fb8 f   xerces-c_3_1:DOMEntityImpl.cpp.obj
 0001:00067074       ??0DOMEntityImpl@xercesc_3_1@@QEAA@AEBV01@_N@Z 0000000180068074 f   xerces-c_3_1:DOMEntityImpl.cpp.obj
 0001:00067168       ?cloneNode@DOMEntityImpl@xercesc_3_1@@UEBAPEAVDOMNode@2@_N@Z 0000000180068168 f   xerces-c_3_1:DOMEntityImpl.cpp.obj
 0001:00067204       ?getNodeType@DOMEntityImpl@xercesc_3_1@@UEBA?AW4NodeType@DOMNode@2@XZ 0000000180068204 f   xerces-c_3_1:DOMEntityImpl.cpp.obj
 0001:0006720c       ?setNotationName@DOMEntityImpl@xercesc_3_1@@UEAAXPEB_W@Z 000000018006820c f   xerces-c_3_1:DOMEntityImpl.cpp.obj
 0001:00067234       ?setPublicId@DOMEntityImpl@xercesc_3_1@@UEAAXPEB_W@Z 0000000180068234 f   xerces-c_3_1:DOMEntityImpl.cpp.obj
 0001:0006725c       ?setSystemId@DOMEntityImpl@xercesc_3_1@@UEAAXPEB_W@Z 000000018006825c f   xerces-c_3_1:DOMEntityImpl.cpp.obj
 0001:00067284       ?setBaseURI@DOMEntityImpl@xercesc_3_1@@UEAAXPEB_W@Z 0000000180068284 f   xerces-c_3_1:DOMEntityImpl.cpp.obj
 0001:00067304       ?setEntityRef@DOMEntityImpl@xercesc_3_1@@UEAAXPEAVDOMEntityReference@2@@Z 0000000180068304 f   xerces-c_3_1:DOMEntityImpl.cpp.obj
 0001:0006730c       ?cloneEntityRefTree@DOMEntityImpl@xercesc_3_1@@IEBAXXZ 000000018006830c f   xerces-c_3_1:DOMEntityImpl.cpp.obj
 0001:0006736c       ?getFirstChild@DOMEntityImpl@xercesc_3_1@@UEBAPEAVDOMNode@2@XZ 000000018006836c f   xerces-c_3_1:DOMEntityImpl.cpp.obj
 0001:00067384       ?getLastChild@DOMEntityImpl@xercesc_3_1@@UEBAPEAVDOMNode@2@XZ 0000000180068384 f   xerces-c_3_1:DOMEntityImpl.cpp.obj
 0001:000673bc       ?getChildNodes@DOMEntityImpl@xercesc_3_1@@UEBAPEAVDOMNodeList@2@XZ 00000001800683bc f   xerces-c_3_1:DOMEntityImpl.cpp.obj
 0001:000673d4       ?hasChildNodes@DOMEntityImpl@xercesc_3_1@@UEBA_NXZ 00000001800683d4 f   xerces-c_3_1:DOMEntityImpl.cpp.obj
 0001:000673f4       ?release@DOMEntityImpl@xercesc_3_1@@UEAAXXZ 00000001800683f4 f   xerces-c_3_1:DOMEntityImpl.cpp.obj
 0001:00067538       ?appendChild@DOMEntityImpl@xercesc_3_1@@UEAAPEAVDOMNode@2@PEAV32@@Z 0000000180068538 f   xerces-c_3_1:DOMEntityImpl.cpp.obj
 0001:00067568       ?insertBefore@DOMEntityImpl@xercesc_3_1@@UEAAPEAVDOMNode@2@PEAV32@0@Z 0000000180068568 f   xerces-c_3_1:DOMEntityImpl.cpp.obj
 0001:000675a4       ?normalize@DOMEntityImpl@xercesc_3_1@@UEAAXXZ 00000001800685a4 f   xerces-c_3_1:DOMEntityImpl.cpp.obj
 0001:000675c0       ?removeChild@DOMEntityImpl@xercesc_3_1@@UEAAPEAVDOMNode@2@PEAV32@@Z 00000001800685c0 f   xerces-c_3_1:DOMEntityImpl.cpp.obj
 0001:000675ec       ?replaceChild@DOMEntityImpl@xercesc_3_1@@UEAAPEAVDOMNode@2@PEAV32@0@Z 00000001800685ec f   xerces-c_3_1:DOMEntityImpl.cpp.obj
 0001:00067634       ?isEqualNode@DOMEntityImpl@xercesc_3_1@@UEBA_NPEBVDOMNode@2@@Z 0000000180068634 f   xerces-c_3_1:DOMEntityImpl.cpp.obj
 0001:00067660       ?getUserData@DOMCDATASectionImpl@xercesc_3_1@@UEBAPEAXPEB_W@Z 0000000180068660 f   xerces-c_3_1:DOMCDATASectionImpl.cpp.obj
 0001:00067660       ?getUserData@DOMTextImpl@xercesc_3_1@@UEBAPEAXPEB_W@Z 0000000180068660 f   xerces-c_3_1:DOMTextImpl.cpp.obj
 0001:00067660       ?getUserData@DOMDocumentImpl@xercesc_3_1@@UEBAPEAXPEB_W@Z 0000000180068660 f   xerces-c_3_1:DOMDocumentImpl.cpp.obj
 0001:00067660       ?getUserData@DOMCommentImpl@xercesc_3_1@@UEBAPEAXPEB_W@Z 0000000180068660 f   xerces-c_3_1:DOMCommentImpl.cpp.obj
 0001:00067660       ?getUserData@DOMProcessingInstructionImpl@xercesc_3_1@@UEBAPEAXPEB_W@Z 0000000180068660 f   xerces-c_3_1:DOMProcessingInstructionImpl.cpp.obj
 0001:00067660       ?getUserData@DOMEntityImpl@xercesc_3_1@@UEBAPEAXPEB_W@Z 0000000180068660 f   xerces-c_3_1:DOMEntityImpl.cpp.obj
 0001:00067660       ?getUserData@DOMDocumentTypeImpl@xercesc_3_1@@UEBAPEAXPEB_W@Z 0000000180068660 f   xerces-c_3_1:DOMDocumentTypeImpl.cpp.obj
 0001:00067660       ?getUserData@DOMEntityReferenceImpl@xercesc_3_1@@UEBAPEAXPEB_W@Z 0000000180068660 f   xerces-c_3_1:DOMEntityReferenceImpl.cpp.obj
 0001:00067660       ?getUserData@DOMNotationImpl@xercesc_3_1@@UEBAPEAXPEB_W@Z 0000000180068660 f   xerces-c_3_1:DOMNotationImpl.cpp.obj
 0001:00067660       ?getUserData@DOMAttrImpl@xercesc_3_1@@UEBAPEAXPEB_W@Z 0000000180068660 f   xerces-c_3_1:DOMAttrImpl.cpp.obj
 0001:00067660       ?getUserData@DOMDocumentFragmentImpl@xercesc_3_1@@UEBAPEAXPEB_W@Z 0000000180068660 f   xerces-c_3_1:DOMDocumentFragmentImpl.cpp.obj
 0001:00067660       ?getUserData@DOMElementImpl@xercesc_3_1@@UEBAPEAXPEB_W@Z 0000000180068660 f   xerces-c_3_1:DOMElementImpl.cpp.obj
 0001:0006766c       ?getEnumString@UnionDatatypeValidator@xercesc_3_1@@UEBAPEBV?$RefArrayVectorOf@_W@2@XZ 000000018006866c f   xerces-c_3_1:UnionDatatypeValidator.cpp.obj
 0001:0006766c       ?getLocalName@DOMElementNSImpl@xercesc_3_1@@UEBAPEB_WXZ 000000018006866c f   xerces-c_3_1:DOMElementNSImpl.cpp.obj
 0001:0006766c       ?getPublicId@DOMDocumentTypeImpl@xercesc_3_1@@UEBAPEB_WXZ 000000018006866c f   xerces-c_3_1:DOMDocumentTypeImpl.cpp.obj
 0001:0006766c       ?getXmlEncoding@DOMEntityImpl@xercesc_3_1@@UEBAPEB_WXZ 000000018006866c f   xerces-c_3_1:DOMEntityImpl.cpp.obj
 0001:00067674       ??1XMLInternalErrorHandler@xercesc_3_1@@UEAA@XZ 0000000180068674 f i xerces-c_3_1:XIncludeUtils.cpp.obj
 0001:00067680       ??_EXMLInternalErrorHandler@xercesc_3_1@@UEAAPEAXI@Z 0000000180068680 f i  CIL library: CIL module
 0001:00067680       ??_GXMLInternalErrorHandler@xercesc_3_1@@UEAAPEAXI@Z 0000000180068680 f i xerces-c_3_1:XIncludeUtils.cpp.obj
 0001:000676ac       ?warning@XMLInternalErrorHandler@xercesc_3_1@@UEAAXAEBVSAXParseException@2@@Z 00000001800686ac f i xerces-c_3_1:XIncludeUtils.cpp.obj
 0001:000676c8       ?error@XMLInternalErrorHandler@xercesc_3_1@@UEAAXAEBVSAXParseException@2@@Z 00000001800686c8 f i xerces-c_3_1:XIncludeUtils.cpp.obj
 0001:000676e4       ?fatalError@XMLInternalErrorHandler@xercesc_3_1@@UEAAXAEBVSAXParseException@2@@Z 00000001800686e4 f i xerces-c_3_1:XIncludeUtils.cpp.obj
 0001:00067700       ?resetErrors@XMLInternalErrorHandler@xercesc_3_1@@UEAAXXZ 0000000180068700 f i xerces-c_3_1:XIncludeUtils.cpp.obj
 0001:0006770c       ??1XIncludeUtils@xercesc_3_1@@AEAA@XZ 000000018006870c f   xerces-c_3_1:XIncludeUtils.cpp.obj
 0001:0006776c       ?parseDOMNodeDoingXInclude@XIncludeUtils@xercesc_3_1@@AEAA_NPEAVDOMNode@2@PEAVDOMDocument@2@PEAVXMLEntityHandler@2@@Z 000000018006876c f   xerces-c_3_1:XIncludeUtils.cpp.obj
 0001:000679c0       ?doDOMNodeXInclude@XIncludeUtils@xercesc_3_1@@AEAA_NPEAVDOMNode@2@PEAVDOMDocument@2@PEAVXMLEntityHandler@2@@Z 00000001800689c0 f   xerces-c_3_1:XIncludeUtils.cpp.obj
 0001:00068c54       ?doXIncludeXMLFileDOM@XIncludeUtils@xercesc_3_1@@AEAAPEAVDOMDocument@2@PEB_W0PEAVDOMNode@2@PEAV32@PEAVXMLEntityHandler@2@@Z 0000000180069c54 f   xerces-c_3_1:XIncludeUtils.cpp.obj
 0001:000690a8       ?doXIncludeTEXTFileDOM@XIncludeUtils@xercesc_3_1@@AEAAPEAVDOMText@2@PEB_W00PEAVDOMNode@2@PEAVDOMDocument@2@PEAVXMLEntityHandler@2@@Z 000000018006a0a8 f   xerces-c_3_1:XIncludeUtils.cpp.obj
 0001:000694f0       ?isXIIncludeDOMNode@XIncludeUtils@xercesc_3_1@@CA_NPEAVDOMNode@2@@Z 000000018006a4f0 f   xerces-c_3_1:XIncludeUtils.cpp.obj
 0001:0006959c       ?isXIFallbackDOMNode@XIncludeUtils@xercesc_3_1@@CA_NPEAVDOMNode@2@@Z 000000018006a59c f   xerces-c_3_1:XIncludeUtils.cpp.obj
 0001:00069648       ?reportError@XIncludeUtils@xercesc_3_1@@AEAA_NQEBVDOMNode@2@W4Codes@XMLErrs@2@QEB_W2@Z 000000018006a648 f   xerces-c_3_1:XIncludeUtils.cpp.obj
 0001:00069770       ?elementAt@?$BaseRefVectorOf@VDOMNode@xercesc_3_1@@@xercesc_3_1@@QEAAPEAVDOMNode@2@_K@Z 000000018006a770 f i xerces-c_3_1:XIncludeUtils.cpp.obj
 0001:00069770       ?elementAt@?$BaseRefVectorOf@VXercesStep@xercesc_3_1@@@xercesc_3_1@@QEAAPEAVXercesStep@2@_K@Z 000000018006a770 f i xerces-c_3_1:XPathMatcher.cpp.obj
 0001:00069770       ?elementAt@?$BaseRefVectorOf@_W@xercesc_3_1@@QEAAPEA_W_K@Z 000000018006a770 f i xerces-c_3_1:SGXMLScanner.cpp.obj
 0001:000697c8       ??0DOMElementNSImpl@xercesc_3_1@@QEAA@PEAVDOMDocument@1@PEB_W1@Z 000000018006a7c8 f   xerces-c_3_1:DOMElementNSImpl.cpp.obj
 0001:0006982c       ??0DOMElementNSImpl@xercesc_3_1@@QEAA@PEAVDOMDocument@1@PEB_W111@Z 000000018006a82c f   xerces-c_3_1:DOMElementNSImpl.cpp.obj
 0001:00069908       ??0DOMElementNSImpl@xercesc_3_1@@QEAA@AEBV01@_N@Z 000000018006a908 f   xerces-c_3_1:DOMElementNSImpl.cpp.obj
 0001:0006995c       ?cloneNode@DOMElementNSImpl@xercesc_3_1@@UEBAPEAVDOMNode@2@_N@Z 000000018006a95c f   xerces-c_3_1:DOMElementNSImpl.cpp.obj
 0001:000699f8       ?setPrefix@DOMElementNSImpl@xercesc_3_1@@UEAAXPEB_W@Z 000000018006a9f8 f   xerces-c_3_1:DOMElementNSImpl.cpp.obj
 0001:00069e04       ?release@DOMElementNSImpl@xercesc_3_1@@UEAAXXZ 000000018006ae04 f   xerces-c_3_1:DOMElementNSImpl.cpp.obj
 0001:00069f48       ?rename@DOMElementNSImpl@xercesc_3_1@@UEAAPEAVDOMNode@2@PEB_W0@Z 000000018006af48 f   xerces-c_3_1:DOMElementNSImpl.cpp.obj
 0001:00069f8c       ?setName@DOMElementNSImpl@xercesc_3_1@@QEAAXPEB_W0@Z 000000018006af8c f   xerces-c_3_1:DOMElementNSImpl.cpp.obj
 0001:0006a1b8       ?getSchemaTypeInfo@DOMElementNSImpl@xercesc_3_1@@UEBAPEBVDOMTypeInfo@2@XZ 000000018006b1b8 f   xerces-c_3_1:DOMElementNSImpl.cpp.obj
 0001:0006a1cc       ?setSchemaTypeInfo@DOMElementNSImpl@xercesc_3_1@@UEAAXPEBVDOMTypeInfoImpl@2@@Z 000000018006b1cc f   xerces-c_3_1:DOMElementNSImpl.cpp.obj
 0001:0006a1d4       ?getFeature@DOMElementNSImpl@xercesc_3_1@@UEBAPEAXPEB_W0@Z 000000018006b1d4 f   xerces-c_3_1:DOMElementNSImpl.cpp.obj
 0001:0006a22c       ??1XSerializable@xercesc_3_1@@UEAA@XZ 000000018006b22c f i xerces-c_3_1:QName.cpp.obj
 0001:0006a22c       ??1XMLAttDefList@xercesc_3_1@@UEAA@XZ 000000018006b22c f i xerces-c_3_1:SchemaAttDefList.cpp.obj
 0001:0006a22c       ??1Grammar@xercesc_3_1@@UEAA@XZ 000000018006b22c f i xerces-c_3_1:DTDGrammar.cpp.obj
 0001:0006a22c       ??1XMLNumber@xercesc_3_1@@UEAA@XZ 000000018006b22c f i xerces-c_3_1:XMLNumber.cpp.obj
 0001:0006a22c       ??1XMLDTDDescription@xercesc_3_1@@UEAA@XZ 000000018006b22c f i xerces-c_3_1:XMLDTDDescription.cpp.obj
 0001:0006a22c       ??1XMLSchemaDescription@xercesc_3_1@@UEAA@XZ 000000018006b22c f i xerces-c_3_1:XMLSchemaDescription.cpp.obj
 0001:0006a238       ??_EXSerializable@xercesc_3_1@@UEAAPEAXI@Z 000000018006b238 f i  CIL library: CIL module
 0001:0006a238       ??_GXSerializable@xercesc_3_1@@UEAAPEAXI@Z 000000018006b238 f i xerces-c_3_1:QName.cpp.obj
 0001:0006a264       ??_GQName@xercesc_3_1@@UEAAPEAXI@Z 000000018006b264 f i xerces-c_3_1:QName.cpp.obj
 0001:0006a264       ??_EQName@xercesc_3_1@@UEAAPEAXI@Z 000000018006b264 f i  CIL library: CIL module
 0001:0006a2a0       ??0QName@xercesc_3_1@@QEAA@QEB_W0IQEAVMemoryManager@1@@Z 000000018006b2a0 f   xerces-c_3_1:QName.cpp.obj
 0001:0006a31c       ??0QName@xercesc_3_1@@QEAA@QEB_WIQEAVMemoryManager@1@@Z 000000018006b31c f   xerces-c_3_1:QName.cpp.obj
 0001:0006a390       ??1QName@xercesc_3_1@@UEAA@XZ 000000018006b390 f   xerces-c_3_1:QName.cpp.obj
 0001:0006a3c8       ??0QName@xercesc_3_1@@QEAA@AEBV01@@Z 000000018006b3c8 f   xerces-c_3_1:QName.cpp.obj
 0001:0006a4e0       ?getRawName@QName@xercesc_3_1@@QEAAPEA_WXZ 000000018006b4e0 f   xerces-c_3_1:QName.cpp.obj
 0001:0006a4e0       ?getRawName@QName@xercesc_3_1@@QEBAPEB_WXZ 000000018006b4e0 f   xerces-c_3_1:QName.cpp.obj
 0001:0006a5e0       ?setName@QName@xercesc_3_1@@QEAAXQEB_W0I@Z 000000018006b5e0 f   xerces-c_3_1:QName.cpp.obj
 0001:0006a67c       ?setName@QName@xercesc_3_1@@QEAAXQEB_WI@Z 000000018006b67c f   xerces-c_3_1:QName.cpp.obj
 0001:0006a788       ?setNPrefix@QName@xercesc_3_1@@QEAAXPEB_W_K@Z 000000018006b788 f   xerces-c_3_1:QName.cpp.obj
 0001:0006a810       ?setNLocalPart@QName@xercesc_3_1@@QEAAXPEB_W_K@Z 000000018006b810 f   xerces-c_3_1:QName.cpp.obj
 0001:0006a898       ?setValues@QName@xercesc_3_1@@QEAAXAEBV12@@Z 000000018006b898 f   xerces-c_3_1:QName.cpp.obj
 0001:0006a924       ??8QName@xercesc_3_1@@QEBA_NAEBV01@@Z 000000018006b924 f   xerces-c_3_1:QName.cpp.obj
 0001:0006aa3c       ?cleanUp@QName@xercesc_3_1@@QEAAXXZ 000000018006ba3c f   xerces-c_3_1:QName.cpp.obj
 0001:0006aa84       ?createObject@QName@xercesc_3_1@@SAPEAVXSerializable@2@PEAVMemoryManager@2@@Z 000000018006ba84 f   xerces-c_3_1:QName.cpp.obj
 0001:0006aad8       ?getProtoType@QName@xercesc_3_1@@UEBAPEAVXProtoType@2@XZ 000000018006bad8 f   xerces-c_3_1:QName.cpp.obj
 0001:0006aae0       ?serialize@QName@xercesc_3_1@@UEAAXAEAVXSerializeEngine@2@@Z 000000018006bae0 f   xerces-c_3_1:QName.cpp.obj
 0001:0006ab8c       ??1DOMNamedNodeMap@xercesc_3_1@@UEAA@XZ 000000018006bb8c f i xerces-c_3_1:DOMAttrMapImpl.cpp.obj
 0001:0006ab98       ?hasDefaults@DOMAttrMapImpl@xercesc_3_1@@UEAA_NXZ 000000018006bb98 f i xerces-c_3_1:DOMAttrMapImpl.cpp.obj
 0001:0006ab9c       ?hasDefaults@DOMAttrMapImpl@xercesc_3_1@@UEAAX_N@Z 000000018006bb9c f i xerces-c_3_1:DOMAttrMapImpl.cpp.obj
 0001:0006aba0       ??0DOMAttrMapImpl@xercesc_3_1@@QEAA@PEAVDOMNode@1@PEBV01@@Z 000000018006bba0 f   xerces-c_3_1:DOMAttrMapImpl.cpp.obj
 0001:0006ac08       ?cloneContent@DOMAttrMapImpl@xercesc_3_1@@MEAAXPEBV12@@Z 000000018006bc08 f   xerces-c_3_1:DOMAttrMapImpl.cpp.obj
 0001:0006ad30       ?cloneAttrMap@DOMAttrMapImpl@xercesc_3_1@@UEAAPEAV12@PEAVDOMNode@2@@Z 000000018006bd30 f   xerces-c_3_1:DOMAttrMapImpl.cpp.obj
 0001:0006adbc       ?setReadOnly@DOMAttrMapImpl@xercesc_3_1@@UEAAX_N0@Z 000000018006bdbc f   xerces-c_3_1:DOMAttrMapImpl.cpp.obj
 0001:0006ae40       ?findNamePoint@DOMAttrMapImpl@xercesc_3_1@@UEBAHPEB_W@Z 000000018006be40 f   xerces-c_3_1:DOMAttrMapImpl.cpp.obj
 0001:0006aee4       ?getNamedItem@DOMAttrMapImpl@xercesc_3_1@@UEBAPEAVDOMNode@2@PEB_W@Z 000000018006bee4 f   xerces-c_3_1:DOMAttrMapImpl.cpp.obj
 0001:0006af14       ?setNamedItem@DOMAttrMapImpl@xercesc_3_1@@UEAAPEAVDOMNode@2@PEAV32@@Z 000000018006bf14 f   xerces-c_3_1:DOMAttrMapImpl.cpp.obj
 0001:0006b220       ?findNamePoint@DOMAttrMapImpl@xercesc_3_1@@UEBAHPEB_W0@Z 000000018006c220 f   xerces-c_3_1:DOMAttrMapImpl.cpp.obj
 0001:0006b3e8       ?getNamedItemNS@DOMAttrMapImpl@xercesc_3_1@@UEBAPEAVDOMNode@2@PEB_W0@Z 000000018006c3e8 f   xerces-c_3_1:DOMAttrMapImpl.cpp.obj
 0001:0006b418       ?setNamedItemNS@DOMAttrMapImpl@xercesc_3_1@@UEAAPEAVDOMNode@2@PEAV32@@Z 000000018006c418 f   xerces-c_3_1:DOMAttrMapImpl.cpp.obj
 0001:0006b73c       ?removeNamedItem@DOMAttrMapImpl@xercesc_3_1@@UEAAPEAVDOMNode@2@PEB_W@Z 000000018006c73c f   xerces-c_3_1:DOMAttrMapImpl.cpp.obj
 0001:0006b8fc       ?removeNamedItemNS@DOMAttrMapImpl@xercesc_3_1@@UEAAPEAVDOMNode@2@PEB_W0@Z 000000018006c8fc f   xerces-c_3_1:DOMAttrMapImpl.cpp.obj
 0001:0006bad0       ?removeNamedItemAt@DOMAttrMapImpl@xercesc_3_1@@UEAAPEAVDOMNode@2@_K@Z 000000018006cad0 f   xerces-c_3_1:DOMAttrMapImpl.cpp.obj
 0001:0006bcc4       ?reconcileDefaultAttributes@DOMAttrMapImpl@xercesc_3_1@@QEAAXPEBV12@@Z 000000018006ccc4 f   xerces-c_3_1:DOMAttrMapImpl.cpp.obj
 0001:0006bdc4       ?getLength@DOMAttrMapImpl@xercesc_3_1@@UEBA_KXZ 000000018006cdc4 f   xerces-c_3_1:DOMAttrMapImpl.cpp.obj
 0001:0006bdd4       ?item@DOMAttrMapImpl@xercesc_3_1@@UEBAPEAVDOMNode@2@_K@Z 000000018006cdd4 f   xerces-c_3_1:DOMAttrMapImpl.cpp.obj
 0001:0006bdf0       ??0DOMAttrImpl@xercesc_3_1@@QEAA@PEAVDOMDocument@1@PEB_W@Z 000000018006cdf0 f   xerces-c_3_1:DOMAttrImpl.cpp.obj
 0001:0006be78       ??0DOMAttrImpl@xercesc_3_1@@QEAA@AEBV01@_N@Z 000000018006ce78 f   xerces-c_3_1:DOMAttrImpl.cpp.obj
 0001:0006bf5c       ?cloneNode@DOMAttrImpl@xercesc_3_1@@UEBAPEAVDOMNode@2@_N@Z 000000018006cf5c f   xerces-c_3_1:DOMAttrImpl.cpp.obj
 0001:0006bfe8       ?getNodeName@DOMAttrImpl@xercesc_3_1@@UEBAPEB_WXZ 000000018006cfe8 f   xerces-c_3_1:DOMAttrImpl.cpp.obj
 0001:0006bfe8       ?getTypeDefinition@PSVIElement@xercesc_3_1@@UEAAPEAVXSTypeDefinition@2@XZ 000000018006cfe8 f   xerces-c_3_1:PSVIElement.cpp.obj
 0001:0006bfe8       ?getFullName@DTDAttDef@xercesc_3_1@@UEBAPEB_WXZ 000000018006cfe8 f   xerces-c_3_1:DTDAttDef.cpp.obj
 0001:0006bfe8       ?getTypeDefinition@PSVIAttribute@xercesc_3_1@@UEAAPEAVXSTypeDefinition@2@XZ 000000018006cfe8 f   xerces-c_3_1:PSVIAttribute.cpp.obj
 0001:0006bfe8       ?getName@DOMAttrImpl@xercesc_3_1@@UEBAPEB_WXZ 000000018006cfe8 f   xerces-c_3_1:DOMAttrImpl.cpp.obj
 0001:0006bfe8       ?getNodeName@DOMEntityImpl@xercesc_3_1@@UEBAPEB_WXZ 000000018006cfe8 f   xerces-c_3_1:DOMEntityImpl.cpp.obj
 0001:0006bff0       ?getNodeValue@DOMAttrImpl@xercesc_3_1@@UEBAPEB_WXZ 000000018006cff0 f   xerces-c_3_1:DOMAttrImpl.cpp.obj
 0001:0006bffc       ?getSpecified@DOMAttrImpl@xercesc_3_1@@UEBA_NXZ 000000018006cffc f   xerces-c_3_1:DOMAttrImpl.cpp.obj
 0001:0006c008       ?getValue@DOMAttrImpl@xercesc_3_1@@UEBAPEB_WXZ 000000018006d008 f   xerces-c_3_1:DOMAttrImpl.cpp.obj
 0001:0006c14c       ?getTextValue@DOMAttrImpl@xercesc_3_1@@IEBAXPEAVDOMNode@2@AEAVXMLBuffer@2@@Z 000000018006d14c f   xerces-c_3_1:DOMAttrImpl.cpp.obj
 0001:0006c1e4       ?setNodeValue@DOMAttrImpl@xercesc_3_1@@UEAAXPEB_W@Z 000000018006d1e4 f   xerces-c_3_1:DOMAttrImpl.cpp.obj
 0001:0006c1f0       ?setSpecified@DOMAttrImpl@xercesc_3_1@@UEAAX_N@Z 000000018006d1f0 f   xerces-c_3_1:DOMAttrImpl.cpp.obj
 0001:0006c208       ?setValue@DOMAttrImpl@xercesc_3_1@@UEAAXPEB_W@Z 000000018006d208 f   xerces-c_3_1:DOMAttrImpl.cpp.obj
 0001:0006c34c       ?setValueFast@DOMAttrImpl@xercesc_3_1@@UEAAXPEB_W@Z 000000018006d34c f   xerces-c_3_1:DOMAttrImpl.cpp.obj
 0001:0006c398       ?release@DOMAttrImpl@xercesc_3_1@@UEAAXXZ 000000018006d398 f   xerces-c_3_1:DOMAttrImpl.cpp.obj
 0001:0006c4d8       ?isId@DOMAttrImpl@xercesc_3_1@@UEBA_NXZ 000000018006d4d8 f   xerces-c_3_1:DOMAttrImpl.cpp.obj
 0001:0006c4e4       ?rename@DOMAttrImpl@xercesc_3_1@@UEAAPEAVDOMNode@2@PEB_W0@Z 000000018006d4e4 f   xerces-c_3_1:DOMAttrImpl.cpp.obj
 0001:0006c65c       ?getSchemaTypeInfo@DOMAttrImpl@xercesc_3_1@@UEBAPEBVDOMTypeInfo@2@XZ 000000018006d65c f   xerces-c_3_1:DOMAttrImpl.cpp.obj
 0001:0006c670       ?setSchemaTypeInfo@DOMAttrImpl@xercesc_3_1@@UEAAXPEBVDOMTypeInfoImpl@2@@Z 000000018006d670 f   xerces-c_3_1:DOMAttrImpl.cpp.obj
 0001:0006c678       ?isSupported@DOMElementNSImpl@xercesc_3_1@@UEBA_NPEB_W0@Z 000000018006d678 f   xerces-c_3_1:DOMElementNSImpl.cpp.obj
 0001:0006c678       ?isSupported@DOMAttrImpl@xercesc_3_1@@UEBA_NPEB_W0@Z 000000018006d678 f   xerces-c_3_1:DOMAttrImpl.cpp.obj
 0001:0006c6dc       ?getFeature@DOMAttrImpl@xercesc_3_1@@UEBAPEAXPEB_W0@Z 000000018006d6dc f   xerces-c_3_1:DOMAttrImpl.cpp.obj
 0001:0006c730       ?appendChild@DOMElementImpl@xercesc_3_1@@UEAAPEAVDOMNode@2@PEAV32@@Z 000000018006d730 f   xerces-c_3_1:DOMElementImpl.cpp.obj
 0001:0006c730       ?appendChild@DOMDocumentFragmentImpl@xercesc_3_1@@UEAAPEAVDOMNode@2@PEAV32@@Z 000000018006d730 f   xerces-c_3_1:DOMDocumentFragmentImpl.cpp.obj
 0001:0006c730       ?appendChild@DOMEntityReferenceImpl@xercesc_3_1@@UEAAPEAVDOMNode@2@PEAV32@@Z 000000018006d730 f   xerces-c_3_1:DOMEntityReferenceImpl.cpp.obj
 0001:0006c730       ?appendChild@DOMAttrImpl@xercesc_3_1@@UEAAPEAVDOMNode@2@PEAV32@@Z 000000018006d730 f   xerces-c_3_1:DOMAttrImpl.cpp.obj
 0001:0006c730       ?appendChild@DOMDocumentTypeImpl@xercesc_3_1@@UEAAPEAVDOMNode@2@PEAV32@@Z 000000018006d730 f   xerces-c_3_1:DOMDocumentTypeImpl.cpp.obj
 0001:0006c73c       ?getLastChild@DOMDocumentTypeImpl@xercesc_3_1@@UEBAPEAVDOMNode@2@XZ 000000018006d73c f   xerces-c_3_1:DOMDocumentTypeImpl.cpp.obj
 0001:0006c73c       ?getLastChild@DOMDocumentImpl@xercesc_3_1@@UEBAPEAVDOMNode@2@XZ 000000018006d73c f   xerces-c_3_1:DOMDocumentImpl.cpp.obj
 0001:0006c73c       ?getLastChild@DOMDocumentFragmentImpl@xercesc_3_1@@UEBAPEAVDOMNode@2@XZ 000000018006d73c f   xerces-c_3_1:DOMDocumentFragmentImpl.cpp.obj
 0001:0006c73c       ?getLastChild@DOMAttrImpl@xercesc_3_1@@UEBAPEAVDOMNode@2@XZ 000000018006d73c f   xerces-c_3_1:DOMAttrImpl.cpp.obj
 0001:0006c73c       ?getLastChild@DOMEntityReferenceImpl@xercesc_3_1@@UEBAPEAVDOMNode@2@XZ 000000018006d73c f   xerces-c_3_1:DOMEntityReferenceImpl.cpp.obj
 0001:0006c73c       ?getLastChild@DOMElementImpl@xercesc_3_1@@UEBAPEAVDOMNode@2@XZ 000000018006d73c f   xerces-c_3_1:DOMElementImpl.cpp.obj
 0001:0006c764       ?getPublicId@DOMNotationImpl@xercesc_3_1@@UEBAPEB_WXZ 000000018006d764 f   xerces-c_3_1:DOMNotationImpl.cpp.obj
 0001:0006c764       ?getRawData@XMLBigDecimal@xercesc_3_1@@UEBAPEA_WXZ 000000018006d764 f   xerces-c_3_1:XMLBigDecimal.cpp.obj
 0001:0006c764       ?getChild@ChildOp@xercesc_3_1@@UEBAPEBVOp@2@XZ 000000018006d764 f   xerces-c_3_1:Op.cpp.obj
 0001:0006c764       ?getChild@ClosureToken@xercesc_3_1@@UEBAPEAVToken@2@_K@Z 000000018006d764 f   xerces-c_3_1:ClosureToken.cpp.obj
 0001:0006c764       ?getOwnerDocument@DOMAttrImpl@xercesc_3_1@@UEBAPEAVDOMDocument@2@XZ 000000018006d764 f   xerces-c_3_1:DOMAttrImpl.cpp.obj
 0001:0006c764       ?getOwnerDocument@DOMDocumentTypeImpl@xercesc_3_1@@UEBAPEAVDOMDocument@2@XZ 000000018006d764 f   xerces-c_3_1:DOMDocumentTypeImpl.cpp.obj
 0001:0006c764       ?getType@DOMErrorImpl@xercesc_3_1@@UEBAPEB_WXZ 000000018006d764 f   xerces-c_3_1:DOMErrorImpl.cpp.obj
 0001:0006c764       ?getOwnerDocument@DOMEntityImpl@xercesc_3_1@@UEBAPEAVDOMDocument@2@XZ 000000018006d764 f   xerces-c_3_1:DOMEntityImpl.cpp.obj
 0001:0006c764       ?getNextSibling@DOMProcessingInstructionImpl@xercesc_3_1@@UEBAPEAVDOMNode@2@XZ 000000018006d764 f   xerces-c_3_1:DOMProcessingInstructionImpl.cpp.obj
 0001:0006c764       ?getToken@RangeOp@xercesc_3_1@@UEBAPEBVToken@2@XZ 000000018006d764 f   xerces-c_3_1:Op.cpp.obj
 0001:0006c764       ?getNextSibling@DOMCDATASectionImpl@xercesc_3_1@@UEBAPEAVDOMNode@2@XZ 000000018006d764 f   xerces-c_3_1:DOMCDATASectionImpl.cpp.obj
 0001:0006c764       ?getLocationHints@XMLSchemaDescriptionImpl@xercesc_3_1@@UEBAPEBV?$RefArrayVectorOf@_W@2@XZ 000000018006d764 f   xerces-c_3_1:XMLSchemaDescriptionImpl.cpp.obj
 0001:0006c764       ?getLiteral@StringOp@xercesc_3_1@@UEBAPEB_WXZ 000000018006d764 f   xerces-c_3_1:Op.cpp.obj
 0001:0006c764       ?getRawData@XMLAbstractDoubleFloat@xercesc_3_1@@UEBAPEA_WXZ 000000018006d764 f   xerces-c_3_1:XMLAbstractDoubleFloat.cpp.obj
 0001:0006c764       ?getOwnerDocument@DOMElementImpl@xercesc_3_1@@UEBAPEAVDOMDocument@2@XZ 000000018006d764 f   xerces-c_3_1:DOMElementImpl.cpp.obj
 0001:0006c764       ?getNextSibling@DOMCommentImpl@xercesc_3_1@@UEBAPEAVDOMNode@2@XZ 000000018006d764 f   xerces-c_3_1:DOMCommentImpl.cpp.obj
 0001:0006c764       ?curPos@BinMemInputStream@xercesc_3_1@@UEBA_KXZ 000000018006d764 f   xerces-c_3_1:BinMemInputStream.cpp.obj
 0001:0006c764       ?getRoot@DOMTreeWalkerImpl@xercesc_3_1@@UEAAPEAVDOMNode@2@XZ 000000018006d764 f   xerces-c_3_1:DOMTreeWalkerImpl.cpp.obj
 0001:0006c764       ?getNextSibling@DOMTextImpl@xercesc_3_1@@UEBAPEAVDOMNode@2@XZ 000000018006d764 f   xerces-c_3_1:DOMTextImpl.cpp.obj
 0001:0006c764       ?getPublicId@DOMLSInputImpl@xercesc_3_1@@UEBAPEB_WXZ 000000018006d764 f   xerces-c_3_1:DOMLSInputImpl.cpp.obj
 0001:0006c764       ?getPublicId@XSDLocator@xercesc_3_1@@UEBAPEB_WXZ 000000018006d764 f   xerces-c_3_1:XSDDOMParser.cpp.obj
 0001:0006c764       ?getString@StringToken@xercesc_3_1@@UEBAPEB_WXZ 000000018006d764 f   xerces-c_3_1:StringToken.cpp.obj
 0001:0006c764       ?getOwnerDocument@DOMDocumentFragmentImpl@xercesc_3_1@@UEBAPEAVDOMDocument@2@XZ 000000018006d764 f   xerces-c_3_1:DOMDocumentFragmentImpl.cpp.obj
 0001:0006c764       ?getOwnerDocument@DOMEntityReferenceImpl@xercesc_3_1@@UEBAPEAVDOMDocument@2@XZ 000000018006d764 f   xerces-c_3_1:DOMEntityReferenceImpl.cpp.obj
 0001:0006c764       ?getFormattedString@XMLBigDecimal@xercesc_3_1@@UEBAPEB_WXZ 000000018006d764 f   xerces-c_3_1:XMLBigDecimal.cpp.obj
 0001:0006c764       ?getUtf16Offset@DOMLocatorImpl@xercesc_3_1@@UEBA_KXZ 000000018006d764 f   xerces-c_3_1:DOMLocatorImpl.cpp.obj
 0001:0006c764       ?getChild@ParenToken@xercesc_3_1@@UEBAPEAVToken@2@_K@Z 000000018006d764 f   xerces-c_3_1:ParenToken.cpp.obj
 0001:0006c764       ?getFilter@DOMNodeIteratorImpl@xercesc_3_1@@UEAAPEAVDOMNodeFilter@2@XZ 000000018006d764 f   xerces-c_3_1:DOMNodeIteratorImpl.cpp.obj
 0001:0006c764       ?getId@XSObject@xercesc_3_1@@UEBA_KXZ 000000018006d764 f   xerces-c_3_1:XSObject.cpp.obj
 0001:0006c76c       ?insertBefore@DOMAttrImpl@xercesc_3_1@@UEAAPEAVDOMNode@2@PEAV32@0@Z 000000018006d76c f   xerces-c_3_1:DOMAttrImpl.cpp.obj
 0001:0006c76c       ?insertBefore@DOMDocumentFragmentImpl@xercesc_3_1@@UEAAPEAVDOMNode@2@PEAV32@0@Z 000000018006d76c f   xerces-c_3_1:DOMDocumentFragmentImpl.cpp.obj
 0001:0006c76c       ?insertBefore@DOMEntityReferenceImpl@xercesc_3_1@@UEAAPEAVDOMNode@2@PEAV32@0@Z 000000018006d76c f   xerces-c_3_1:DOMEntityReferenceImpl.cpp.obj
 0001:0006c76c       ?insertBefore@DOMElementImpl@xercesc_3_1@@UEAAPEAVDOMNode@2@PEAV32@0@Z 000000018006d76c f   xerces-c_3_1:DOMElementImpl.cpp.obj
 0001:0006c76c       ?insertBefore@DOMDocumentTypeImpl@xercesc_3_1@@UEAAPEAVDOMNode@2@PEAV32@0@Z 000000018006d76c f   xerces-c_3_1:DOMDocumentTypeImpl.cpp.obj
 0001:0006c778       ?normalize@DOMDocumentImpl@xercesc_3_1@@UEAAXXZ 000000018006d778 f   xerces-c_3_1:DOMDocumentImpl.cpp.obj
 0001:0006c778       ?normalize@DOMElementImpl@xercesc_3_1@@UEAAXXZ 000000018006d778 f   xerces-c_3_1:DOMElementImpl.cpp.obj
 0001:0006c778       ?normalize@DOMAttrImpl@xercesc_3_1@@UEAAXXZ 000000018006d778 f   xerces-c_3_1:DOMAttrImpl.cpp.obj
 0001:0006c778       ?normalize@DOMDocumentTypeImpl@xercesc_3_1@@UEAAXXZ 000000018006d778 f   xerces-c_3_1:DOMDocumentTypeImpl.cpp.obj
 0001:0006c778       ?normalize@DOMDocumentFragmentImpl@xercesc_3_1@@UEAAXXZ 000000018006d778 f   xerces-c_3_1:DOMDocumentFragmentImpl.cpp.obj
 0001:0006c778       ?normalize@DOMEntityReferenceImpl@xercesc_3_1@@UEAAXXZ 000000018006d778 f   xerces-c_3_1:DOMEntityReferenceImpl.cpp.obj
 0001:0006c784       ?removeChild@DOMDocumentFragmentImpl@xercesc_3_1@@UEAAPEAVDOMNode@2@PEAV32@@Z 000000018006d784 f   xerces-c_3_1:DOMDocumentFragmentImpl.cpp.obj
 0001:0006c784       ?removeChild@DOMAttrImpl@xercesc_3_1@@UEAAPEAVDOMNode@2@PEAV32@@Z 000000018006d784 f   xerces-c_3_1:DOMAttrImpl.cpp.obj
 0001:0006c784       ?removeChild@DOMElementImpl@xercesc_3_1@@UEAAPEAVDOMNode@2@PEAV32@@Z 000000018006d784 f   xerces-c_3_1:DOMElementImpl.cpp.obj
 0001:0006c784       ?removeChild@DOMEntityReferenceImpl@xercesc_3_1@@UEAAPEAVDOMNode@2@PEAV32@@Z 000000018006d784 f   xerces-c_3_1:DOMEntityReferenceImpl.cpp.obj
 0001:0006c784       ?removeChild@DOMDocumentTypeImpl@xercesc_3_1@@UEAAPEAVDOMNode@2@PEAV32@@Z 000000018006d784 f   xerces-c_3_1:DOMDocumentTypeImpl.cpp.obj
 0001:0006c790       ?replaceChild@DOMEntityReferenceImpl@xercesc_3_1@@UEAAPEAVDOMNode@2@PEAV32@0@Z 000000018006d790 f   xerces-c_3_1:DOMEntityReferenceImpl.cpp.obj
 0001:0006c790       ?replaceChild@DOMDocumentFragmentImpl@xercesc_3_1@@UEAAPEAVDOMNode@2@PEAV32@0@Z 000000018006d790 f   xerces-c_3_1:DOMDocumentFragmentImpl.cpp.obj
 0001:0006c790       ?replaceChild@DOMDocumentTypeImpl@xercesc_3_1@@UEAAPEAVDOMNode@2@PEAV32@0@Z 000000018006d790 f   xerces-c_3_1:DOMDocumentTypeImpl.cpp.obj
 0001:0006c790       ?replaceChild@DOMAttrImpl@xercesc_3_1@@UEAAPEAVDOMNode@2@PEAV32@0@Z 000000018006d790 f   xerces-c_3_1:DOMAttrImpl.cpp.obj
 0001:0006c790       ?replaceChild@DOMElementImpl@xercesc_3_1@@UEAAPEAVDOMNode@2@PEAV32@0@Z 000000018006d790 f   xerces-c_3_1:DOMElementImpl.cpp.obj
 0001:0006c7c0       ?isEqualNode@DOMEntityReferenceImpl@xercesc_3_1@@UEBA_NPEBVDOMNode@2@@Z 000000018006d7c0 f   xerces-c_3_1:DOMEntityReferenceImpl.cpp.obj
 0001:0006c7c0       ?isEqualNode@DOMAttrImpl@xercesc_3_1@@UEBA_NPEBVDOMNode@2@@Z 000000018006d7c0 f   xerces-c_3_1:DOMAttrImpl.cpp.obj
 0001:0006c7c0       ?isEqualNode@DOMDocumentFragmentImpl@xercesc_3_1@@UEBA_NPEBVDOMNode@2@@Z 000000018006d7c0 f   xerces-c_3_1:DOMDocumentFragmentImpl.cpp.obj
 0001:0006c7c0       ?isEqualNode@DOMDocumentImpl@xercesc_3_1@@UEBA_NPEBVDOMNode@2@@Z 000000018006d7c0 f   xerces-c_3_1:DOMDocumentImpl.cpp.obj
 0001:0006c7cc       ?getTextContent@DOMDocumentImpl@xercesc_3_1@@UEBAPEB_WXZ 000000018006d7cc f   xerces-c_3_1:DOMDocumentImpl.cpp.obj
 0001:0006c7cc       ?getTextContent@DOMCommentImpl@xercesc_3_1@@UEBAPEB_WXZ 000000018006d7cc f   xerces-c_3_1:DOMCommentImpl.cpp.obj
 0001:0006c7cc       ?getTextContent@DOMCDATASectionImpl@xercesc_3_1@@UEBAPEB_WXZ 000000018006d7cc f   xerces-c_3_1:DOMCDATASectionImpl.cpp.obj
 0001:0006c7cc       ?getTextContent@DOMDocumentTypeImpl@xercesc_3_1@@UEBAPEB_WXZ 000000018006d7cc f   xerces-c_3_1:DOMDocumentTypeImpl.cpp.obj
 0001:0006c7cc       ?getTextContent@DOMEntityReferenceImpl@xercesc_3_1@@UEBAPEB_WXZ 000000018006d7cc f   xerces-c_3_1:DOMEntityReferenceImpl.cpp.obj
 0001:0006c7cc       ?getTextContent@DOMEntityImpl@xercesc_3_1@@UEBAPEB_WXZ 000000018006d7cc f   xerces-c_3_1:DOMEntityImpl.cpp.obj
 0001:0006c7cc       ?getTextContent@DOMNotationImpl@xercesc_3_1@@UEBAPEB_WXZ 000000018006d7cc f   xerces-c_3_1:DOMNotationImpl.cpp.obj
 0001:0006c7cc       ?getTextContent@DOMProcessingInstructionImpl@xercesc_3_1@@UEBAPEB_WXZ 000000018006d7cc f   xerces-c_3_1:DOMProcessingInstructionImpl.cpp.obj
 0001:0006c7cc       ?getTextContent@DOMAttrImpl@xercesc_3_1@@UEBAPEB_WXZ 000000018006d7cc f   xerces-c_3_1:DOMAttrImpl.cpp.obj
 0001:0006c7cc       ?getTextContent@DOMTextImpl@xercesc_3_1@@UEBAPEB_WXZ 000000018006d7cc f   xerces-c_3_1:DOMTextImpl.cpp.obj
 0001:0006c7cc       ?getTextContent@DOMDocumentFragmentImpl@xercesc_3_1@@UEBAPEB_WXZ 000000018006d7cc f   xerces-c_3_1:DOMDocumentFragmentImpl.cpp.obj
 0001:0006c7cc       ?getTextContent@DOMElementImpl@xercesc_3_1@@UEBAPEB_WXZ 000000018006d7cc f   xerces-c_3_1:DOMElementImpl.cpp.obj
 0001:0006c7d8       ??_GXSElementDeclaration@xercesc_3_1@@UEAAPEAXI@Z 000000018006d7d8 f i xerces-c_3_1:XSElementDeclaration.cpp.obj
 0001:0006c7d8       ??_EXSElementDeclaration@xercesc_3_1@@UEAAPEAXI@Z 000000018006d7d8 f i  CIL library: CIL module
 0001:0006c83c       ?getName@XSElementDeclaration@xercesc_3_1@@UEBAPEB_WXZ 000000018006d83c f   xerces-c_3_1:XSElementDeclaration.cpp.obj
 0001:0006c84c       ?getNamespace@XSElementDeclaration@xercesc_3_1@@UEAAPEB_WXZ 000000018006d84c f   xerces-c_3_1:XSElementDeclaration.cpp.obj
 0001:0006c86c       ??_GDOMImplementationLS@xercesc_3_1@@UEAAPEAXI@Z 000000018006d86c f i xerces-c_3_1:DOMImplementationImpl.cpp.obj
 0001:0006c86c       ??_EDOMImplementationLS@xercesc_3_1@@UEAAPEAXI@Z 000000018006d86c f i  CIL library: CIL module
 0001:0006c898       ??_GDOMImplementationSource@xercesc_3_1@@UEAAPEAXI@Z 000000018006d898 f i xerces-c_3_1:DOMImplementationImpl.cpp.obj
 0001:0006c898       ??_EDOMImplementationSource@xercesc_3_1@@UEAAPEAXI@Z 000000018006d898 f i  CIL library: CIL module
 0001:0006c8c4       ??_GDOMImplementationImpl@xercesc_3_1@@UEAAPEAXI@Z 000000018006d8c4 f i xerces-c_3_1:DOMImplementationImpl.cpp.obj
 0001:0006c8c4       ??_EDOMImplementationImpl@xercesc_3_1@@UEAAPEAXI@Z 000000018006d8c4 f i  CIL library: CIL module
 0001:0006c900       ?hasFeature@DOMImplementationImpl@xercesc_3_1@@UEBA_NPEB_W0@Z 000000018006d900 f   xerces-c_3_1:DOMImplementationImpl.cpp.obj
 0001:0006caf8       ?createDocumentType@DOMImplementationImpl@xercesc_3_1@@UEAAPEAVDOMDocumentType@2@PEB_W00@Z 000000018006daf8 f   xerces-c_3_1:DOMImplementationImpl.cpp.obj
 0001:0006cbac       ?createDocument@DOMImplementationImpl@xercesc_3_1@@UEAAPEAVDOMDocument@2@PEB_W0PEAVDOMDocumentType@2@QEAVMemoryManager@2@@Z 000000018006dbac f   xerces-c_3_1:DOMImplementationImpl.cpp.obj
 0001:0006cc40       ?createDocument@DOMImplementationImpl@xercesc_3_1@@UEAAPEAVDOMDocument@2@QEAVMemoryManager@2@@Z 000000018006dc40 f   xerces-c_3_1:DOMImplementationImpl.cpp.obj
 0001:0006ccb0       ?createLSParser@DOMImplementationImpl@xercesc_3_1@@UEAAPEAVDOMLSParser@2@W4DOMImplementationLSMode@DOMImplementationLS@2@QEB_WQEAVMemoryManager@2@QEAVXMLGrammarPool@2@@Z 000000018006dcb0 f   xerces-c_3_1:DOMImplementationImpl.cpp.obj
 0001:0006cd44       ?createLSSerializer@DOMImplementationImpl@xercesc_3_1@@UEAAPEAVDOMLSSerializer@2@QEAVMemoryManager@2@@Z 000000018006dd44 f   xerces-c_3_1:DOMImplementationImpl.cpp.obj
 0001:0006cd8c       ?createLSInput@DOMImplementationImpl@xercesc_3_1@@UEAAPEAVDOMLSInput@2@QEAVMemoryManager@2@@Z 000000018006dd8c f   xerces-c_3_1:DOMImplementationImpl.cpp.obj
 0001:0006cde4       ?createLSOutput@DOMImplementationImpl@xercesc_3_1@@UEAAPEAVDOMLSOutput@2@QEAVMemoryManager@2@@Z 000000018006dde4 f   xerces-c_3_1:DOMImplementationImpl.cpp.obj
 0001:0006ce2c       ?getDOMImplementation@DOMImplementationImpl@xercesc_3_1@@UEBAPEAVDOMImplementation@2@PEB_W@Z 000000018006de2c f   xerces-c_3_1:DOMImplementationImpl.cpp.obj
 0001:0006cf14       ?getDOMImplementationList@DOMImplementationImpl@xercesc_3_1@@UEBAPEAVDOMImplementationList@2@PEB_W@Z 000000018006df14 f   xerces-c_3_1:DOMImplementationImpl.cpp.obj
 0001:0006cf94       ??_EDOMImplementationImpl@xercesc_3_1@@W7EAAPEAXI@Z 000000018006df94 f i xerces-c_3_1:DOMImplementationImpl.cpp.obj
 0001:0006cfa0       ??0XMLAttr@xercesc_3_1@@QEAA@QEAVMemoryManager@1@@Z 000000018006dfa0 f   xerces-c_3_1:XMLAttr.cpp.obj
 0001:0006d030       ??0XMLAttr@xercesc_3_1@@QEAA@IQEB_W00W4AttTypes@XMLAttDef@1@_NQEAVMemoryManager@1@PEAVDatatypeValidator@1@2@Z 000000018006e030 f   xerces-c_3_1:XMLAttr.cpp.obj
 0001:0006d10c       ??0XMLAttr@xercesc_3_1@@QEAA@IQEB_W0W4AttTypes@XMLAttDef@1@_NQEAVMemoryManager@1@PEAVDatatypeValidator@1@2@Z 000000018006e10c f   xerces-c_3_1:XMLAttr.cpp.obj
 0001:0006d1dc       ?setValue@XMLAttr@xercesc_3_1@@QEAAXQEB_W@Z 000000018006e1dc f   xerces-c_3_1:XMLAttr.cpp.obj
 0001:0006d278       ?cleanUp@XMLAttr@xercesc_3_1@@AEAAXXZ 000000018006e278 f   xerces-c_3_1:XMLAttr.cpp.obj
 0001:0006d2a8       ??0DOMNodeImpl@xercesc_3_1@@QEAA@AEBV01@@Z 000000018006e2a8 f   xerces-c_3_1:DOMNodeImpl.cpp.obj
 0001:0006d2e8       ?getOwnerDocument@DOMNodeImpl@xercesc_3_1@@QEBAPEAVDOMDocument@2@XZ 000000018006e2e8 f   xerces-c_3_1:DOMNodeImpl.cpp.obj
 0001:0006d33c       ?insertBefore@DOMNodeImpl@xercesc_3_1@@QEAAPEAVDOMNode@2@PEAV32@0@Z 000000018006e33c f   xerces-c_3_1:DOMNodeImpl.cpp.obj
 0001:0006d33c       ?replaceChild@DOMNodeImpl@xercesc_3_1@@QEAAPEAVDOMNode@2@PEAV32@0@Z 000000018006e33c f   xerces-c_3_1:DOMNodeImpl.cpp.obj
 0001:0006d33c       ?appendChild@DOMNodeImpl@xercesc_3_1@@QEAAPEAVDOMNode@2@PEAV32@@Z 000000018006e33c f   xerces-c_3_1:DOMNodeImpl.cpp.obj
 0001:0006d3ac       ?removeChild@DOMNodeImpl@xercesc_3_1@@QEAAPEAVDOMNode@2@PEAV32@@Z 000000018006e3ac f   xerces-c_3_1:DOMNodeImpl.cpp.obj
 0001:0006d41c       ?setReadOnly@DOMNodeImpl@xercesc_3_1@@QEAAX_N0@Z 000000018006e41c f   xerces-c_3_1:DOMNodeImpl.cpp.obj
 0001:0006d4b8       ?setPrefix@DOMNodeImpl@xercesc_3_1@@QEAAXPEB_W@Z 000000018006e4b8 f   xerces-c_3_1:DOMNodeImpl.cpp.obj
 0001:0006d528       ?mapPrefix@DOMNodeImpl@xercesc_3_1@@SAPEB_WPEB_W0F@Z 000000018006e528 f   xerces-c_3_1:DOMNodeImpl.cpp.obj
 0001:0006d6dc       ?setUserData@DOMNodeImpl@xercesc_3_1@@QEAAPEAXPEB_WPEAXPEAVDOMUserDataHandler@2@@Z 000000018006e6dc f   xerces-c_3_1:DOMNodeImpl.cpp.obj
 0001:0006d764       ?getUserData@DOMNodeImpl@xercesc_3_1@@QEBAPEAXPEB_W@Z 000000018006e764 f   xerces-c_3_1:DOMNodeImpl.cpp.obj
 0001:0006d81c       ?callUserDataHandlers@DOMNodeImpl@xercesc_3_1@@QEBAXW4DOMOperationType@DOMUserDataHandler@2@PEBVDOMNode@2@PEAV52@@Z 000000018006e81c f   xerces-c_3_1:DOMNodeImpl.cpp.obj
 0001:0006d87c       ?isEqualNode@DOMNodeImpl@xercesc_3_1@@QEBA_NPEBVDOMNode@2@@Z 000000018006e87c f   xerces-c_3_1:DOMNodeImpl.cpp.obj
 0001:0006db24       ?lookupPrefix@DOMNodeImpl@xercesc_3_1@@QEBAPEB_WPEB_W@Z 000000018006eb24 f   xerces-c_3_1:DOMNodeImpl.cpp.obj
 0001:0006dbd8       ?getElementAncestor@DOMNodeImpl@xercesc_3_1@@QEBAPEAVDOMNode@2@PEBV32@@Z 000000018006ebd8 f   xerces-c_3_1:DOMNodeImpl.cpp.obj
 0001:0006dc14       ?lookupPrefix@DOMNodeImpl@xercesc_3_1@@QEBAPEB_WQEB_WPEAVDOMElement@2@@Z 000000018006ec14 f   xerces-c_3_1:DOMNodeImpl.cpp.obj
 0001:0006df48       ?lookupNamespaceURI@DOMNodeImpl@xercesc_3_1@@QEBAPEB_WPEB_W@Z 000000018006ef48 f   xerces-c_3_1:DOMNodeImpl.cpp.obj
 0001:0006e268       ?getBaseURI@DOMNodeImpl@xercesc_3_1@@QEBAPEB_WXZ 000000018006f268 f   xerces-c_3_1:DOMNodeImpl.cpp.obj
 0001:0006e294       ?getTreeParentNode@DOMNodeImpl@xercesc_3_1@@QEBAPEBVDOMNode@2@PEBV32@@Z 000000018006f294 f   xerces-c_3_1:DOMNodeImpl.cpp.obj
 0001:0006e2f8       ?compareDocumentPosition@DOMNodeImpl@xercesc_3_1@@QEBAFPEBVDOMNode@2@@Z 000000018006f2f8 f   xerces-c_3_1:DOMNodeImpl.cpp.obj
 0001:0006e530       ?getTextContent@DOMNodeImpl@xercesc_3_1@@QEBAPEB_WXZ 000000018006f530 f   xerces-c_3_1:DOMNodeImpl.cpp.obj
 0001:0006e5a8       ?getTextContent@DOMNodeImpl@xercesc_3_1@@QEBAPEB_WPEA_WAEA_K@Z 000000018006f5a8 f   xerces-c_3_1:DOMNodeImpl.cpp.obj
 0001:0006e6ec       ?setTextContent@DOMNodeImpl@xercesc_3_1@@QEAAXPEB_W@Z 000000018006f6ec f   xerces-c_3_1:DOMNodeImpl.cpp.obj
 0001:0006e934       ?isDefaultNamespace@DOMNodeImpl@xercesc_3_1@@QEBA_NPEB_W@Z 000000018006f934 f   xerces-c_3_1:DOMNodeImpl.cpp.obj
 0001:0006eae0       ??0EndOfEntityException@xercesc_3_1@@QEAA@AEBV01@@Z 000000018006fae0 f i xerces-c_3_1:ReaderMgr.cpp.obj
 0001:0006eaf4       ??1Locator@xercesc_3_1@@UEAA@XZ 000000018006faf4 f i xerces-c_3_1:ReaderMgr.cpp.obj
 0001:0006eaf4       ??1XSDLocator@xercesc_3_1@@UEAA@XZ 000000018006faf4 f i xerces-c_3_1:XSDDOMParser.cpp.obj
 0001:0006eb00       ??_GLocator@xercesc_3_1@@UEAAPEAXI@Z 000000018006fb00 f i xerces-c_3_1:ReaderMgr.cpp.obj
 0001:0006eb00       ??_ELocator@xercesc_3_1@@UEAAPEAXI@Z 000000018006fb00 f i  CIL library: CIL module
 0001:0006eb2c       ??_EReaderMgr@xercesc_3_1@@UEAAPEAXI@Z 000000018006fb2c f i  CIL library: CIL module
 0001:0006eb2c       ??_GReaderMgr@xercesc_3_1@@UEAAPEAXI@Z 000000018006fb2c f i xerces-c_3_1:ReaderMgr.cpp.obj
 0001:0006eb68       ??1ReaderMgr@xercesc_3_1@@UEAA@XZ 000000018006fb68 f   xerces-c_3_1:ReaderMgr.cpp.obj
 0001:0006ebf0       ??_GXMLReader@xercesc_3_1@@QEAAPEAXI@Z 000000018006fbf0 f i xerces-c_3_1:ReaderMgr.cpp.obj
 0001:0006ec78       ?getNextChar@ReaderMgr@xercesc_3_1@@QEAA_WXZ 000000018006fc78 f   xerces-c_3_1:ReaderMgr.cpp.obj
 0001:0006ed38       ?getSpaces@ReaderMgr@xercesc_3_1@@QEAAXAEAVXMLBuffer@2@@Z 000000018006fd38 f   xerces-c_3_1:ReaderMgr.cpp.obj
 0001:0006ee04       ?peekNextChar@ReaderMgr@xercesc_3_1@@QEAA_WXZ 000000018006fe04 f   xerces-c_3_1:ReaderMgr.cpp.obj
 0001:0006eeac       ?skippedChar@ReaderMgr@xercesc_3_1@@QEAA_N_W@Z 000000018006feac f   xerces-c_3_1:ReaderMgr.cpp.obj
 0001:0006ef20       ?skippedSpace@ReaderMgr@xercesc_3_1@@QEAA_NXZ 000000018006ff20 f   xerces-c_3_1:ReaderMgr.cpp.obj
 0001:0006efb0       ?skipIfQuote@ReaderMgr@xercesc_3_1@@QEAA_NAEA_W@Z 000000018006ffb0 f   xerces-c_3_1:ReaderMgr.cpp.obj
 0001:0006f034       ?skipPastSpaces@ReaderMgr@xercesc_3_1@@QEAAXAEA_N_N@Z 0000000180070034 f   xerces-c_3_1:ReaderMgr.cpp.obj
 0001:0006f084       ?skipPastSpaces@ReaderMgr@xercesc_3_1@@QEAAXXZ 0000000180070084 f   xerces-c_3_1:ReaderMgr.cpp.obj
 0001:0006f0bc       ?skipQuotedString@ReaderMgr@xercesc_3_1@@QEAAX_W@Z 00000001800700bc f   xerces-c_3_1:ReaderMgr.cpp.obj
 0001:0006f0ec       ?skipUntilInOrWS@ReaderMgr@xercesc_3_1@@QEAA_WQEB_W@Z 00000001800700ec f   xerces-c_3_1:ReaderMgr.cpp.obj
 0001:0006f14c       ?cleanStackBackTo@ReaderMgr@xercesc_3_1@@QEAAX_K@Z 000000018007014c f   xerces-c_3_1:ReaderMgr.cpp.obj
 0001:0006f210       ?createReader@ReaderMgr@xercesc_3_1@@QEAAPEAVXMLReader@2@AEBVInputSource@2@_NW4RefFrom@32@W4Types@32@W4Sources@32@1_K@Z 0000000180070210 f   xerces-c_3_1:ReaderMgr.cpp.obj
 0001:0006f39c       ?createReader@ReaderMgr@xercesc_3_1@@QEAAPEAVXMLReader@2@QEB_W0_NW4RefFrom@32@W4Types@32@W4Sources@32@AEAPEAVInputSource@2@1_K1@Z 000000018007039c f   xerces-c_3_1:ReaderMgr.cpp.obj
 0001:0006f850       ?createReader@ReaderMgr@xercesc_3_1@@QEAAPEAVXMLReader@2@QEB_W00_NW4RefFrom@32@W4Types@32@W4Sources@32@AEAPEAVInputSource@2@1_K1@Z 0000000180070850 f   xerces-c_3_1:ReaderMgr.cpp.obj
 0001:0006fd10       ?createIntEntReader@ReaderMgr@xercesc_3_1@@QEAAPEAVXMLReader@2@QEB_WW4RefFrom@32@W4Types@32@0_K_N4_K@Z 0000000180070d10 f   xerces-c_3_1:ReaderMgr.cpp.obj
 0001:0006fe28       ?getLastExtEntityInfo@ReaderMgr@xercesc_3_1@@QEBAXAEAULastExtEntityInfo@12@@Z 0000000180070e28 f   xerces-c_3_1:ReaderMgr.cpp.obj
 0001:0006fea4       ?pushReader@ReaderMgr@xercesc_3_1@@QEAA_NQEAVXMLReader@2@QEAVXMLEntityDecl@2@@Z 0000000180070ea4 f   xerces-c_3_1:ReaderMgr.cpp.obj
 0001:000701e4       ?reset@ReaderMgr@xercesc_3_1@@QEAAXXZ 00000001800711e4 f   xerces-c_3_1:ReaderMgr.cpp.obj
 0001:00070230       ?getPublicId@ReaderMgr@xercesc_3_1@@UEBAPEB_WXZ 0000000180071230 f   xerces-c_3_1:ReaderMgr.cpp.obj
 0001:00070270       ?getSystemId@ReaderMgr@xercesc_3_1@@UEBAPEB_WXZ 0000000180071270 f   xerces-c_3_1:ReaderMgr.cpp.obj
 0001:000702b0       ?getColumnNumber@ReaderMgr@xercesc_3_1@@UEBA_KXZ 00000001800712b0 f   xerces-c_3_1:ReaderMgr.cpp.obj
 0001:000702ec       ?getLineNumber@ReaderMgr@xercesc_3_1@@UEBA_KXZ 00000001800712ec f   xerces-c_3_1:ReaderMgr.cpp.obj
 0001:00070328       ?getLastExtEntity@ReaderMgr@xercesc_3_1@@AEBAPEBVXMLReader@2@AEAPEBVXMLEntityDecl@2@@Z 0000000180071328 f   xerces-c_3_1:ReaderMgr.cpp.obj
 0001:000703bc       ?popReader@ReaderMgr@xercesc_3_1@@AEAA_NXZ 00000001800713bc f   xerces-c_3_1:ReaderMgr.cpp.obj
 0001:000704c4       ??1?$BaseRefVectorOf@VXMLReader@xercesc_3_1@@@xercesc_3_1@@UEAA@XZ 00000001800714c4 f i xerces-c_3_1:ReaderMgr.cpp.obj
 0001:000704d0       ?setElementAt@?$BaseRefVectorOf@VXMLReader@xercesc_3_1@@@xercesc_3_1@@UEAAXQEAVXMLReader@2@_K@Z 00000001800714d0 f i xerces-c_3_1:ReaderMgr.cpp.obj
 0001:00070574       ?removeAllElements@?$BaseRefVectorOf@VXMLReader@xercesc_3_1@@@xercesc_3_1@@UEAAXXZ 0000000180071574 f i xerces-c_3_1:ReaderMgr.cpp.obj
 0001:000705c4       ?removeElementAt@?$BaseRefVectorOf@VXMLReader@xercesc_3_1@@@xercesc_3_1@@UEAAX_K@Z 00000001800715c4 f i xerces-c_3_1:ReaderMgr.cpp.obj
 0001:00070698       ?removeLastElement@?$BaseRefVectorOf@VXMLReader@xercesc_3_1@@@xercesc_3_1@@UEAAXXZ 0000000180071698 f i xerces-c_3_1:ReaderMgr.cpp.obj
 0001:000706cc       ?cleanup@?$BaseRefVectorOf@VXMLReader@xercesc_3_1@@@xercesc_3_1@@UEAAXXZ 00000001800716cc f i xerces-c_3_1:ReaderMgr.cpp.obj
 0001:0007071c       ??1?$RefVectorOf@VXMLReader@xercesc_3_1@@@xercesc_3_1@@UEAA@XZ 000000018007171c f i xerces-c_3_1:ReaderMgr.cpp.obj
 0001:00070790       ?elementAt@?$RefStackOf@VXMLEntityDecl@xercesc_3_1@@@xercesc_3_1@@QEBAPEBVXMLEntityDecl@2@_K@Z 0000000180071790 f i xerces-c_3_1:ReaderMgr.cpp.obj
 0001:00070790       ?elementAt@?$RefStackOf@VXMLReader@xercesc_3_1@@@xercesc_3_1@@QEBAPEBVXMLReader@2@_K@Z 0000000180071790 f i xerces-c_3_1:ReaderMgr.cpp.obj
 0001:000707fc       ??1?$BaseRefVectorOf@VXMLEntityDecl@xercesc_3_1@@@xercesc_3_1@@UEAA@XZ 00000001800717fc f i xerces-c_3_1:ReaderMgr.cpp.obj
 0001:00070808       ??1?$RefVectorOf@VXMLEntityDecl@xercesc_3_1@@@xercesc_3_1@@UEAA@XZ 0000000180071808 f i xerces-c_3_1:ReaderMgr.cpp.obj
 0001:00070880       ?pop@?$RefStackOf@VXMLReader@xercesc_3_1@@@xercesc_3_1@@QEAAPEAVXMLReader@2@XZ 0000000180071880 f i xerces-c_3_1:ReaderMgr.cpp.obj
 0001:00070880       ?pop@?$RefStackOf@VXMLEntityDecl@xercesc_3_1@@@xercesc_3_1@@QEAAPEAVXMLEntityDecl@2@XZ 0000000180071880 f i xerces-c_3_1:ReaderMgr.cpp.obj
 0001:000708ec       ??_G?$BaseRefVectorOf@VXMLReader@xercesc_3_1@@@xercesc_3_1@@UEAAPEAXI@Z 00000001800718ec f i xerces-c_3_1:ReaderMgr.cpp.obj
 0001:000708ec       ??_E?$BaseRefVectorOf@VXMLReader@xercesc_3_1@@@xercesc_3_1@@UEAAPEAXI@Z 00000001800718ec f i  CIL library: CIL module
 0001:0007091c       ??_G?$RefVectorOf@VXMLReader@xercesc_3_1@@@xercesc_3_1@@UEAAPEAXI@Z 000000018007191c f i xerces-c_3_1:ReaderMgr.cpp.obj
 0001:0007091c       ??_E?$RefVectorOf@VXMLReader@xercesc_3_1@@@xercesc_3_1@@UEAAPEAXI@Z 000000018007191c f i  CIL library: CIL module
 0001:00070958       ??_G?$BaseRefVectorOf@VXMLEntityDecl@xercesc_3_1@@@xercesc_3_1@@UEAAPEAXI@Z 0000000180071958 f i xerces-c_3_1:ReaderMgr.cpp.obj
 0001:00070958       ??_E?$BaseRefVectorOf@VXMLEntityDecl@xercesc_3_1@@@xercesc_3_1@@UEAAPEAXI@Z 0000000180071958 f i  CIL library: CIL module
 0001:00070988       ??_E?$RefVectorOf@VXMLEntityDecl@xercesc_3_1@@@xercesc_3_1@@UEAAPEAXI@Z 0000000180071988 f i  CIL library: CIL module
 0001:00070988       ??_G?$RefVectorOf@VXMLEntityDecl@xercesc_3_1@@@xercesc_3_1@@UEAAPEAXI@Z 0000000180071988 f i xerces-c_3_1:ReaderMgr.cpp.obj
 0001:000709c4       ?cloneNode@DOMCDATASectionImpl@xercesc_3_1@@UEBAPEAVDOMNode@2@_N@Z 00000001800719c4 f   xerces-c_3_1:DOMCDATASectionImpl.cpp.obj
 0001:00070a74       ?getNodeName@DOMCDATASectionImpl@xercesc_3_1@@UEBAPEB_WXZ 0000000180071a74 f   xerces-c_3_1:DOMCDATASectionImpl.cpp.obj
 0001:00070a7c       ?acceptNode@__AbortFilter@xercesc_3_1@@UEAA?AW4FilterAction@DOMLSParserFilter@2@PEAVDOMNode@2@@Z 0000000180071a7c f   xerces-c_3_1:DOMLSParserImpl.cpp.obj
 0001:00070a7c       ?getNodeType@DOMCDATASectionImpl@xercesc_3_1@@UEBA?AW4NodeType@DOMNode@2@XZ 0000000180071a7c f   xerces-c_3_1:DOMCDATASectionImpl.cpp.obj
 0001:00070a7c       ?startElement@__AbortFilter@xercesc_3_1@@UEAA?AW4FilterAction@DOMLSParserFilter@2@PEAVDOMElement@2@@Z 0000000180071a7c f   xerces-c_3_1:DOMLSParserImpl.cpp.obj
 0001:00070a84       ?splitText@DOMCDATASectionImpl@xercesc_3_1@@UEAAPEAVDOMText@2@_K@Z 0000000180071a84 f   xerces-c_3_1:DOMCDATASectionImpl.cpp.obj
 0001:00070c50       ?getIsElementContentWhitespace@DOMTextImpl@xercesc_3_1@@UEBA_NXZ 0000000180071c50 f   xerces-c_3_1:DOMTextImpl.cpp.obj
 0001:00070c50       ?getIsElementContentWhitespace@DOMCDATASectionImpl@xercesc_3_1@@UEBA_NXZ 0000000180071c50 f   xerces-c_3_1:DOMCDATASectionImpl.cpp.obj
 0001:00070c5c       ?getWholeText@DOMCDATASectionImpl@xercesc_3_1@@UEBAPEB_WXZ 0000000180071c5c f   xerces-c_3_1:DOMCDATASectionImpl.cpp.obj
 0001:00070c5c       ?getWholeText@DOMTextImpl@xercesc_3_1@@UEBAPEB_WXZ 0000000180071c5c f   xerces-c_3_1:DOMTextImpl.cpp.obj
 0001:00070ed8       ?release@DOMCDATASectionImpl@xercesc_3_1@@UEAAXXZ 0000000180071ed8 f   xerces-c_3_1:DOMCDATASectionImpl.cpp.obj
 0001:00071020       ?getChildNodes@DOMProcessingInstructionImpl@xercesc_3_1@@UEBAPEAVDOMNodeList@2@XZ 0000000180072020 f   xerces-c_3_1:DOMProcessingInstructionImpl.cpp.obj
 0001:00071020       ?getChildNodes@DOMNotationImpl@xercesc_3_1@@UEBAPEAVDOMNodeList@2@XZ 0000000180072020 f   xerces-c_3_1:DOMNotationImpl.cpp.obj
 0001:00071020       ?getChildNodes@DOMTextImpl@xercesc_3_1@@UEBAPEAVDOMNodeList@2@XZ 0000000180072020 f   xerces-c_3_1:DOMTextImpl.cpp.obj
 0001:00071020       ?getChildNodes@DOMCDATASectionImpl@xercesc_3_1@@UEBAPEAVDOMNodeList@2@XZ 0000000180072020 f   xerces-c_3_1:DOMCDATASectionImpl.cpp.obj
 0001:00071020       ?getChildNodes@DOMCommentImpl@xercesc_3_1@@UEBAPEAVDOMNodeList@2@XZ 0000000180072020 f   xerces-c_3_1:DOMCommentImpl.cpp.obj
 0001:00071028       ?getParentNode@DOMDocumentTypeImpl@xercesc_3_1@@UEBAPEAVDOMNode@2@XZ 0000000180072028 f   xerces-c_3_1:DOMDocumentTypeImpl.cpp.obj
 0001:00071028       ?getParentNode@DOMEntityReferenceImpl@xercesc_3_1@@UEBAPEAVDOMNode@2@XZ 0000000180072028 f   xerces-c_3_1:DOMEntityReferenceImpl.cpp.obj
 0001:00071028       ?getOwnerElement@DOMAttrImpl@xercesc_3_1@@UEBAPEAVDOMElement@2@XZ 0000000180072028 f   xerces-c_3_1:DOMAttrImpl.cpp.obj
 0001:00071028       ?getParentNode@DOMElementImpl@xercesc_3_1@@UEBAPEAVDOMNode@2@XZ 0000000180072028 f   xerces-c_3_1:DOMElementImpl.cpp.obj
 0001:00071028       ?getParentNode@DOMCommentImpl@xercesc_3_1@@UEBAPEAVDOMNode@2@XZ 0000000180072028 f   xerces-c_3_1:DOMCommentImpl.cpp.obj
 0001:00071028       ?getParentNode@DOMCDATASectionImpl@xercesc_3_1@@UEBAPEAVDOMNode@2@XZ 0000000180072028 f   xerces-c_3_1:DOMCDATASectionImpl.cpp.obj
 0001:00071028       ?getParentNode@DOMProcessingInstructionImpl@xercesc_3_1@@UEBAPEAVDOMNode@2@XZ 0000000180072028 f   xerces-c_3_1:DOMProcessingInstructionImpl.cpp.obj
 0001:00071028       ?getParentNode@DOMTextImpl@xercesc_3_1@@UEBAPEAVDOMNode@2@XZ 0000000180072028 f   xerces-c_3_1:DOMTextImpl.cpp.obj
 0001:0007103c       ?isSupported@DOMNotationImpl@xercesc_3_1@@UEBA_NPEB_W0@Z 000000018007203c f   xerces-c_3_1:DOMNotationImpl.cpp.obj
 0001:0007103c       ?isSupported@DOMElementImpl@xercesc_3_1@@UEBA_NPEB_W0@Z 000000018007203c f   xerces-c_3_1:DOMElementImpl.cpp.obj
 0001:0007103c       ?isSupported@DOMCommentImpl@xercesc_3_1@@UEBA_NPEB_W0@Z 000000018007203c f   xerces-c_3_1:DOMCommentImpl.cpp.obj
 0001:0007103c       ?isSupported@DOMEntityImpl@xercesc_3_1@@UEBA_NPEB_W0@Z 000000018007203c f   xerces-c_3_1:DOMEntityImpl.cpp.obj
 0001:0007103c       ?isSupported@DOMDocumentFragmentImpl@xercesc_3_1@@UEBA_NPEB_W0@Z 000000018007203c f   xerces-c_3_1:DOMDocumentFragmentImpl.cpp.obj
 0001:0007103c       ?isSupported@DOMEntityReferenceImpl@xercesc_3_1@@UEBA_NPEB_W0@Z 000000018007203c f   xerces-c_3_1:DOMEntityReferenceImpl.cpp.obj
 0001:0007103c       ?isSupported@DOMProcessingInstructionImpl@xercesc_3_1@@UEBA_NPEB_W0@Z 000000018007203c f   xerces-c_3_1:DOMProcessingInstructionImpl.cpp.obj
 0001:0007103c       ?isSupported@DOMCDATASectionImpl@xercesc_3_1@@UEBA_NPEB_W0@Z 000000018007203c f   xerces-c_3_1:DOMCDATASectionImpl.cpp.obj
 0001:0007103c       ?isSupported@DOMTextImpl@xercesc_3_1@@UEBA_NPEB_W0@Z 000000018007203c f   xerces-c_3_1:DOMTextImpl.cpp.obj
 0001:0007104c       ?isSameNode@DOMElementImpl@xercesc_3_1@@UEBA_NPEBVDOMNode@2@@Z 000000018007204c f   xerces-c_3_1:DOMElementImpl.cpp.obj
 0001:0007104c       ?isSameNode@DOMDocumentTypeImpl@xercesc_3_1@@UEBA_NPEBVDOMNode@2@@Z 000000018007204c f   xerces-c_3_1:DOMDocumentTypeImpl.cpp.obj
 0001:0007104c       ?isSameNode@DOMDocumentImpl@xercesc_3_1@@UEBA_NPEBVDOMNode@2@@Z 000000018007204c f   xerces-c_3_1:DOMDocumentImpl.cpp.obj
 0001:0007104c       ?isSameNode@DOMCDATASectionImpl@xercesc_3_1@@UEBA_NPEBVDOMNode@2@@Z 000000018007204c f   xerces-c_3_1:DOMCDATASectionImpl.cpp.obj
 0001:0007104c       ?isSameNode@DOMCommentImpl@xercesc_3_1@@UEBA_NPEBVDOMNode@2@@Z 000000018007204c f   xerces-c_3_1:DOMCommentImpl.cpp.obj
 0001:0007104c       ?isSameNode@DOMDocumentFragmentImpl@xercesc_3_1@@UEBA_NPEBVDOMNode@2@@Z 000000018007204c f   xerces-c_3_1:DOMDocumentFragmentImpl.cpp.obj
 0001:0007104c       ?isSameNode@DOMTextImpl@xercesc_3_1@@UEBA_NPEBVDOMNode@2@@Z 000000018007204c f   xerces-c_3_1:DOMTextImpl.cpp.obj
 0001:0007104c       ?isSameNode@DOMEntityReferenceImpl@xercesc_3_1@@UEBA_NPEBVDOMNode@2@@Z 000000018007204c f   xerces-c_3_1:DOMEntityReferenceImpl.cpp.obj
 0001:0007104c       ?isSameNode@DOMAttrImpl@xercesc_3_1@@UEBA_NPEBVDOMNode@2@@Z 000000018007204c f   xerces-c_3_1:DOMAttrImpl.cpp.obj
 0001:0007104c       ?isSameNode@DOMProcessingInstructionImpl@xercesc_3_1@@UEBA_NPEBVDOMNode@2@@Z 000000018007204c f   xerces-c_3_1:DOMProcessingInstructionImpl.cpp.obj
 0001:0007104c       ?isSameNode@DOMEntityImpl@xercesc_3_1@@UEBA_NPEBVDOMNode@2@@Z 000000018007204c f   xerces-c_3_1:DOMEntityImpl.cpp.obj
 0001:0007104c       ?isSameNode@DOMNotationImpl@xercesc_3_1@@UEBA_NPEBVDOMNode@2@@Z 000000018007204c f   xerces-c_3_1:DOMNotationImpl.cpp.obj
 0001:00071054       ?isEqualNode@DOMTextImpl@xercesc_3_1@@UEBA_NPEBVDOMNode@2@@Z 0000000180072054 f   xerces-c_3_1:DOMTextImpl.cpp.obj
 0001:00071054       ?isEqualNode@DOMProcessingInstructionImpl@xercesc_3_1@@UEBA_NPEBVDOMNode@2@@Z 0000000180072054 f   xerces-c_3_1:DOMProcessingInstructionImpl.cpp.obj
 0001:00071054       ?isEqualNode@DOMCommentImpl@xercesc_3_1@@UEBA_NPEBVDOMNode@2@@Z 0000000180072054 f   xerces-c_3_1:DOMCommentImpl.cpp.obj
 0001:00071054       ?isEqualNode@DOMCDATASectionImpl@xercesc_3_1@@UEBA_NPEBVDOMNode@2@@Z 0000000180072054 f   xerces-c_3_1:DOMCDATASectionImpl.cpp.obj
 0001:00071054       ?isEqualNode@DOMNotationImpl@xercesc_3_1@@UEBA_NPEBVDOMNode@2@@Z 0000000180072054 f   xerces-c_3_1:DOMNotationImpl.cpp.obj
 0001:00071060       ?lookupPrefix@DOMDocumentImpl@xercesc_3_1@@UEBAPEB_WPEB_W@Z 0000000180072060 f   xerces-c_3_1:DOMDocumentImpl.cpp.obj
 0001:00071060       ?lookupPrefix@DOMEntityImpl@xercesc_3_1@@UEBAPEB_WPEB_W@Z 0000000180072060 f   xerces-c_3_1:DOMEntityImpl.cpp.obj
 0001:00071060       ?lookupPrefix@DOMNotationImpl@xercesc_3_1@@UEBAPEB_WPEB_W@Z 0000000180072060 f   xerces-c_3_1:DOMNotationImpl.cpp.obj
 0001:00071060       ?lookupPrefix@DOMAttrImpl@xercesc_3_1@@UEBAPEB_WPEB_W@Z 0000000180072060 f   xerces-c_3_1:DOMAttrImpl.cpp.obj
 0001:00071060       ?lookupPrefix@DOMDocumentTypeImpl@xercesc_3_1@@UEBAPEB_WPEB_W@Z 0000000180072060 f   xerces-c_3_1:DOMDocumentTypeImpl.cpp.obj
 0001:00071060       ?lookupPrefix@DOMElementImpl@xercesc_3_1@@UEBAPEB_WPEB_W@Z 0000000180072060 f   xerces-c_3_1:DOMElementImpl.cpp.obj
 0001:00071060       ?lookupPrefix@DOMCDATASectionImpl@xercesc_3_1@@UEBAPEB_WPEB_W@Z 0000000180072060 f   xerces-c_3_1:DOMCDATASectionImpl.cpp.obj
 0001:00071060       ?lookupPrefix@DOMDocumentFragmentImpl@xercesc_3_1@@UEBAPEB_WPEB_W@Z 0000000180072060 f   xerces-c_3_1:DOMDocumentFragmentImpl.cpp.obj
 0001:00071060       ?lookupPrefix@DOMProcessingInstructionImpl@xercesc_3_1@@UEBAPEB_WPEB_W@Z 0000000180072060 f   xerces-c_3_1:DOMProcessingInstructionImpl.cpp.obj
 0001:00071060       ?lookupPrefix@DOMCommentImpl@xercesc_3_1@@UEBAPEB_WPEB_W@Z 0000000180072060 f   xerces-c_3_1:DOMCommentImpl.cpp.obj
 0001:00071060       ?lookupPrefix@DOMTextImpl@xercesc_3_1@@UEBAPEB_WPEB_W@Z 0000000180072060 f   xerces-c_3_1:DOMTextImpl.cpp.obj
 0001:00071060       ?lookupPrefix@DOMEntityReferenceImpl@xercesc_3_1@@UEBAPEB_WPEB_W@Z 0000000180072060 f   xerces-c_3_1:DOMEntityReferenceImpl.cpp.obj
 0001:0007106c       ?deleteData@DOMCDATASectionImpl@xercesc_3_1@@UEAAX_K0@Z 000000018007206c f   xerces-c_3_1:DOMCDATASectionImpl.cpp.obj
 0001:0007106c       ?deleteData@DOMTextImpl@xercesc_3_1@@UEAAX_K0@Z 000000018007206c f   xerces-c_3_1:DOMTextImpl.cpp.obj
 0001:0007106c       ?deleteData@DOMCommentImpl@xercesc_3_1@@UEAAX_K0@Z 000000018007206c f   xerces-c_3_1:DOMCommentImpl.cpp.obj
 0001:00071084       ?replaceData@DOMCommentImpl@xercesc_3_1@@UEAAX_K0PEB_W@Z 0000000180072084 f   xerces-c_3_1:DOMCommentImpl.cpp.obj
 0001:00071084       ?replaceData@DOMCDATASectionImpl@xercesc_3_1@@UEAAX_K0PEB_W@Z 0000000180072084 f   xerces-c_3_1:DOMCDATASectionImpl.cpp.obj
 0001:00071084       ?replaceData@DOMTextImpl@xercesc_3_1@@UEAAX_K0PEB_W@Z 0000000180072084 f   xerces-c_3_1:DOMTextImpl.cpp.obj
 0001:000710a8       ?getDefaultScanner@XMLScannerResolver@xercesc_3_1@@SAPEAVXMLScanner@2@QEAVXMLValidator@2@QEAVGrammarResolver@2@QEAVMemoryManager@2@@Z 00000001800720a8 f   xerces-c_3_1:XMLScannerResolver.cpp.obj
 0001:00071110       ?resolveScanner@XMLScannerResolver@xercesc_3_1@@SAPEAVXMLScanner@2@QEB_WQEAVXMLValidator@2@QEAVGrammarResolver@2@QEAVMemoryManager@2@@Z 0000000180072110 f   xerces-c_3_1:XMLScannerResolver.cpp.obj
 0001:00071320       ??0DOMElementImpl@xercesc_3_1@@QEAA@PEAVDOMDocument@1@PEB_W@Z 0000000180072320 f   xerces-c_3_1:DOMElementImpl.cpp.obj
 0001:00071458       ??_GDOMEntityReferenceImpl@xercesc_3_1@@UEAAPEAXI@Z 0000000180072458 f i xerces-c_3_1:DOMEntityReferenceImpl.cpp.obj
 0001:00071458       ??_GDOMDocumentTypeImpl@xercesc_3_1@@UEAAPEAXI@Z 0000000180072458 f i xerces-c_3_1:DOMDocumentTypeImpl.cpp.obj
 0001:00071458       ??_GDOMDocumentFragmentImpl@xercesc_3_1@@UEAAPEAXI@Z 0000000180072458 f i xerces-c_3_1:DOMDocumentFragmentImpl.cpp.obj
 0001:00071458       ??_GDOMAttrImpl@xercesc_3_1@@UEAAPEAXI@Z 0000000180072458 f i xerces-c_3_1:DOMAttrImpl.cpp.obj
 0001:00071458       ??_GXSDElementNSImpl@xercesc_3_1@@UEAAPEAXI@Z 0000000180072458 f i xerces-c_3_1:XSDElementNSImpl.cpp.obj
 0001:00071458       ??_EDOMAttrImpl@xercesc_3_1@@UEAAPEAXI@Z 0000000180072458 f i  CIL library: CIL module
 0001:00071458       ??_EDOMEntityImpl@xercesc_3_1@@UEAAPEAXI@Z 0000000180072458 f i  CIL library: CIL module
 0001:00071458       ??_EDOMDocumentFragmentImpl@xercesc_3_1@@UEAAPEAXI@Z 0000000180072458 f i  CIL library: CIL module
 0001:00071458       ??_EXSDElementNSImpl@xercesc_3_1@@UEAAPEAXI@Z 0000000180072458 f i  CIL library: CIL module
 0001:00071458       ??_EDOMElementNSImpl@xercesc_3_1@@UEAAPEAXI@Z 0000000180072458 f i  CIL library: CIL module
 0001:00071458       ??_GDOMEntityImpl@xercesc_3_1@@UEAAPEAXI@Z 0000000180072458 f i xerces-c_3_1:DOMEntityImpl.cpp.obj
 0001:00071458       ??_EDOMDocumentTypeImpl@xercesc_3_1@@UEAAPEAXI@Z 0000000180072458 f i  CIL library: CIL module
 0001:00071458       ??_GDOMElementImpl@xercesc_3_1@@UEAAPEAXI@Z 0000000180072458 f i xerces-c_3_1:DOMElementImpl.cpp.obj
 0001:00071458       ??_GDOMAttrNSImpl@xercesc_3_1@@UEAAPEAXI@Z 0000000180072458 f i xerces-c_3_1:DOMAttrNSImpl.cpp.obj
 0001:00071458       ??_EDOMEntityReferenceImpl@xercesc_3_1@@UEAAPEAXI@Z 0000000180072458 f i  CIL library: CIL module
 0001:00071458       ??_GDOMElementNSImpl@xercesc_3_1@@UEAAPEAXI@Z 0000000180072458 f i xerces-c_3_1:DOMElementNSImpl.cpp.obj
 0001:00071458       ??_EDOMAttrNSImpl@xercesc_3_1@@UEAAPEAXI@Z 0000000180072458 f i  CIL library: CIL module
 0001:00071458       ??_EDOMElementImpl@xercesc_3_1@@UEAAPEAXI@Z 0000000180072458 f i  CIL library: CIL module
 0001:00071490       ??0DOMElementImpl@xercesc_3_1@@QEAA@AEBV01@_N@Z 0000000180072490 f   xerces-c_3_1:DOMElementImpl.cpp.obj
 0001:00071688       ??1DOMElementImpl@xercesc_3_1@@UEAA@XZ 0000000180072688 f   xerces-c_3_1:DOMElementImpl.cpp.obj
 0001:00071688       ??1DOMAttrImpl@xercesc_3_1@@UEAA@XZ 0000000180072688 f   xerces-c_3_1:DOMAttrImpl.cpp.obj
 0001:000716a0       ?cloneNode@DOMElementImpl@xercesc_3_1@@UEBAPEAVDOMNode@2@_N@Z 00000001800726a0 f   xerces-c_3_1:DOMElementImpl.cpp.obj
 0001:0007173c       ?getAttribute@DOMElementImpl@xercesc_3_1@@UEBAPEB_WPEB_W@Z 000000018007273c f   xerces-c_3_1:DOMElementImpl.cpp.obj
 0001:0007176c       ?getAttributeNode@DOMElementImpl@xercesc_3_1@@UEBAPEAVDOMAttr@2@PEB_W@Z 000000018007276c f   xerces-c_3_1:DOMElementImpl.cpp.obj
 0001:00071778       ?getElementsByTagName@DOMElementImpl@xercesc_3_1@@UEBAPEAVDOMNodeList@2@PEB_W@Z 0000000180072778 f   xerces-c_3_1:DOMElementImpl.cpp.obj
 0001:00071794       ?removeAttribute@DOMElementImpl@xercesc_3_1@@UEAAXPEB_W@Z 0000000180072794 f   xerces-c_3_1:DOMElementImpl.cpp.obj
 0001:0007184c       ?removeAttributeNode@DOMElementImpl@xercesc_3_1@@UEAAPEAVDOMAttr@2@PEAV32@@Z 000000018007284c f   xerces-c_3_1:DOMElementImpl.cpp.obj
 0001:00071a44       ?setAttribute@DOMElementImpl@xercesc_3_1@@UEAAXPEB_W0@Z 0000000180072a44 f   xerces-c_3_1:DOMElementImpl.cpp.obj
 0001:00071b24       ?setIdAttribute@DOMElementImpl@xercesc_3_1@@UEAAXPEB_W_N@Z 0000000180072b24 f   xerces-c_3_1:DOMElementImpl.cpp.obj
 0001:00071c38       ?setIdAttributeNS@DOMElementImpl@xercesc_3_1@@UEAAXPEB_W0_N@Z 0000000180072c38 f   xerces-c_3_1:DOMElementImpl.cpp.obj
 0001:00071d4c       ?setIdAttributeNode@DOMElementImpl@xercesc_3_1@@UEAAXPEBVDOMAttr@2@_N@Z 0000000180072d4c f   xerces-c_3_1:DOMElementImpl.cpp.obj
 0001:00071ecc       ?setAttributeNode@DOMElementImpl@xercesc_3_1@@UEAAPEAVDOMAttr@2@PEAV32@@Z 0000000180072ecc f   xerces-c_3_1:DOMElementImpl.cpp.obj
 0001:00071fcc       ?setReadOnly@DOMElementImpl@xercesc_3_1@@UEAAX_N0@Z 0000000180072fcc f   xerces-c_3_1:DOMElementImpl.cpp.obj
 0001:00072004       ?getAttributeNS@DOMElementImpl@xercesc_3_1@@UEBAPEB_WPEB_W0@Z 0000000180073004 f   xerces-c_3_1:DOMElementImpl.cpp.obj
 0001:00072034       ?setAttributeNS@DOMElementImpl@xercesc_3_1@@UEAAXPEB_W00@Z 0000000180073034 f   xerces-c_3_1:DOMElementImpl.cpp.obj
 0001:000721e0       ?removeAttributeNS@DOMElementImpl@xercesc_3_1@@UEAAXPEB_W0@Z 00000001800731e0 f   xerces-c_3_1:DOMElementImpl.cpp.obj
 0001:00072288       ?getAttributeNodeNS@DOMElementImpl@xercesc_3_1@@UEBAPEAVDOMAttr@2@PEB_W0@Z 0000000180073288 f   xerces-c_3_1:DOMElementImpl.cpp.obj
 0001:00072294       ?setAttributeNodeNS@DOMElementImpl@xercesc_3_1@@UEAAPEAVDOMAttr@2@PEAV32@@Z 0000000180073294 f   xerces-c_3_1:DOMElementImpl.cpp.obj
 0001:00072394       ?getElementsByTagNameNS@DOMElementImpl@xercesc_3_1@@UEBAPEAVDOMNodeList@2@PEB_W0@Z 0000000180073394 f   xerces-c_3_1:DOMElementImpl.cpp.obj
 0001:000723b4       ?hasAttributes@DOMElementImpl@xercesc_3_1@@UEBA_NXZ 00000001800733b4 f   xerces-c_3_1:DOMElementImpl.cpp.obj
 0001:000723e0       ?hasAttribute@DOMElementImpl@xercesc_3_1@@UEBA_NPEB_W@Z 00000001800733e0 f   xerces-c_3_1:DOMElementImpl.cpp.obj
 0001:000723f8       ?hasAttributeNS@DOMElementImpl@xercesc_3_1@@UEBA_NPEB_W0@Z 00000001800733f8 f   xerces-c_3_1:DOMElementImpl.cpp.obj
 0001:00072410       ?setupDefaultAttributes@DOMElementImpl@xercesc_3_1@@MEAAXXZ 0000000180073410 f   xerces-c_3_1:DOMElementImpl.cpp.obj
 0001:00072504       ?setDefaultAttributeNode@DOMElementImpl@xercesc_3_1@@UEAAPEAVDOMAttr@2@PEAV32@@Z 0000000180073504 f   xerces-c_3_1:DOMElementImpl.cpp.obj
 0001:00072618       ?setDefaultAttributeNodeNS@DOMElementImpl@xercesc_3_1@@UEAAPEAVDOMAttr@2@PEAV32@@Z 0000000180073618 f   xerces-c_3_1:DOMElementImpl.cpp.obj
 0001:0007272c       ?release@DOMElementImpl@xercesc_3_1@@UEAAXXZ 000000018007372c f   xerces-c_3_1:DOMElementImpl.cpp.obj
 0001:000728a8       ?getBaseURI@DOMElementImpl@xercesc_3_1@@UEBAPEB_WXZ 00000001800738a8 f   xerces-c_3_1:DOMElementImpl.cpp.obj
 0001:00072a50       ?getContentSpec@DTDElementDecl@xercesc_3_1@@UEAAPEAVContentSpecNode@2@XZ 0000000180073a50 f   xerces-c_3_1:DTDElementDecl.cpp.obj
 0001:00072a50       ?getContentSpec@DTDElementDecl@xercesc_3_1@@UEBAPEBVContentSpecNode@2@XZ 0000000180073a50 f   xerces-c_3_1:DTDElementDecl.cpp.obj
 0001:00072a50       ?getPublicId@DOMEntityImpl@xercesc_3_1@@UEBAPEB_WXZ 0000000180073a50 f   xerces-c_3_1:DOMEntityImpl.cpp.obj
 0001:00072a50       ?getMemberTypeDefinition@PSVIElement@xercesc_3_1@@UEAAPEAVXSSimpleTypeDefinition@2@XZ 0000000180073a50 f   xerces-c_3_1:PSVIElement.cpp.obj
 0001:00072a50       ?getMemberTypeDefinition@PSVIAttribute@xercesc_3_1@@UEAAPEAVXSSimpleTypeDefinition@2@XZ 0000000180073a50 f   xerces-c_3_1:PSVIAttribute.cpp.obj
 0001:00072a50       ?getNextSibling@DOMDocumentTypeImpl@xercesc_3_1@@UEBAPEAVDOMNode@2@XZ 0000000180073a50 f   xerces-c_3_1:DOMDocumentTypeImpl.cpp.obj
 0001:00072a50       ?getNextSibling@DOMEntityReferenceImpl@xercesc_3_1@@UEBAPEAVDOMNode@2@XZ 0000000180073a50 f   xerces-c_3_1:DOMEntityReferenceImpl.cpp.obj
 0001:00072a50       ?getNextSibling@DOMElementImpl@xercesc_3_1@@UEBAPEAVDOMNode@2@XZ 0000000180073a50 f   xerces-c_3_1:DOMElementImpl.cpp.obj
 0001:00072a58       ?compareDocumentPosition@DOMCommentImpl@xercesc_3_1@@UEBAFPEBVDOMNode@2@@Z 0000000180073a58 f   xerces-c_3_1:DOMCommentImpl.cpp.obj
 0001:00072a58       ?compareDocumentPosition@DOMEntityImpl@xercesc_3_1@@UEBAFPEBVDOMNode@2@@Z 0000000180073a58 f   xerces-c_3_1:DOMEntityImpl.cpp.obj
 0001:00072a58       ?compareDocumentPosition@DOMDocumentTypeImpl@xercesc_3_1@@UEBAFPEBVDOMNode@2@@Z 0000000180073a58 f   xerces-c_3_1:DOMDocumentTypeImpl.cpp.obj
 0001:00072a58       ?compareDocumentPosition@DOMElementImpl@xercesc_3_1@@UEBAFPEBVDOMNode@2@@Z 0000000180073a58 f   xerces-c_3_1:DOMElementImpl.cpp.obj
 0001:00072a58       ?compareDocumentPosition@DOMTextImpl@xercesc_3_1@@UEBAFPEBVDOMNode@2@@Z 0000000180073a58 f   xerces-c_3_1:DOMTextImpl.cpp.obj
 0001:00072a58       ?compareDocumentPosition@DOMDocumentFragmentImpl@xercesc_3_1@@UEBAFPEBVDOMNode@2@@Z 0000000180073a58 f   xerces-c_3_1:DOMDocumentFragmentImpl.cpp.obj
 0001:00072a58       ?compareDocumentPosition@DOMCDATASectionImpl@xercesc_3_1@@UEBAFPEBVDOMNode@2@@Z 0000000180073a58 f   xerces-c_3_1:DOMCDATASectionImpl.cpp.obj
 0001:00072a58       ?compareDocumentPosition@DOMEntityReferenceImpl@xercesc_3_1@@UEBAFPEBVDOMNode@2@@Z 0000000180073a58 f   xerces-c_3_1:DOMEntityReferenceImpl.cpp.obj
 0001:00072a58       ?compareDocumentPosition@DOMAttrImpl@xercesc_3_1@@UEBAFPEBVDOMNode@2@@Z 0000000180073a58 f   xerces-c_3_1:DOMAttrImpl.cpp.obj
 0001:00072a58       ?compareDocumentPosition@DOMProcessingInstructionImpl@xercesc_3_1@@UEBAFPEBVDOMNode@2@@Z 0000000180073a58 f   xerces-c_3_1:DOMProcessingInstructionImpl.cpp.obj
 0001:00072a58       ?compareDocumentPosition@DOMDocumentImpl@xercesc_3_1@@UEBAFPEBVDOMNode@2@@Z 0000000180073a58 f   xerces-c_3_1:DOMDocumentImpl.cpp.obj
 0001:00072a58       ?compareDocumentPosition@DOMNotationImpl@xercesc_3_1@@UEBAFPEBVDOMNode@2@@Z 0000000180073a58 f   xerces-c_3_1:DOMNotationImpl.cpp.obj
 0001:00072a64       ?isEqualNode@DOMElementImpl@xercesc_3_1@@UEBA_NPEBVDOMNode@2@@Z 0000000180073a64 f   xerces-c_3_1:DOMElementImpl.cpp.obj
 0001:00072bdc       ?rename@DOMElementImpl@xercesc_3_1@@UEAAPEAVDOMNode@2@PEB_W0@Z 0000000180073bdc f   xerces-c_3_1:DOMElementImpl.cpp.obj
 0001:00072dc4       ?getSchemaTypeInfo@DOMElementImpl@xercesc_3_1@@UEBAPEBVDOMTypeInfo@2@XZ 0000000180073dc4 f   xerces-c_3_1:DOMElementImpl.cpp.obj
 0001:00072dcc       ?getFirstElementChild@DOMElementImpl@xercesc_3_1@@UEBAPEAVDOMElement@2@XZ 0000000180073dcc f   xerces-c_3_1:DOMElementImpl.cpp.obj
 0001:00072e18       ?getLastElementChild@DOMElementImpl@xercesc_3_1@@UEBAPEAVDOMElement@2@XZ 0000000180073e18 f   xerces-c_3_1:DOMElementImpl.cpp.obj
 0001:00072e64       ?getNextElementSibling@DOMElementImpl@xercesc_3_1@@UEBAPEAVDOMElement@2@XZ 0000000180073e64 f   xerces-c_3_1:DOMElementImpl.cpp.obj
 0001:00072ea8       ?getPreviousElementSibling@DOMElementImpl@xercesc_3_1@@UEBAPEAVDOMElement@2@XZ 0000000180073ea8 f   xerces-c_3_1:DOMElementImpl.cpp.obj
 0001:00072eec       ?getChildElementCount@DOMElementImpl@xercesc_3_1@@UEBA_KXZ 0000000180073eec f   xerces-c_3_1:DOMElementImpl.cpp.obj
 0001:00072f1c       ?getFirstElementChild@DOMElementImpl@xercesc_3_1@@IEBAPEAVDOMElement@2@PEBVDOMNode@2@@Z 0000000180073f1c f   xerces-c_3_1:DOMElementImpl.cpp.obj
 0001:00072fa0       ?getLastElementChild@DOMElementImpl@xercesc_3_1@@IEBAPEAVDOMElement@2@PEBVDOMNode@2@@Z 0000000180073fa0 f   xerces-c_3_1:DOMElementImpl.cpp.obj
 0001:00073024       ?getNextLogicalSibling@DOMElementImpl@xercesc_3_1@@IEBAPEAVDOMNode@2@PEBV32@@Z 0000000180074024 f   xerces-c_3_1:DOMElementImpl.cpp.obj
 0001:00073088       ?getPreviousLogicalSibling@DOMElementImpl@xercesc_3_1@@IEBAPEAVDOMNode@2@PEBV32@@Z 0000000180074088 f   xerces-c_3_1:DOMElementImpl.cpp.obj
 0001:000730ec       ??0DOMDocumentTypeImpl@xercesc_3_1@@QEAA@PEAVDOMDocument@1@PEB_W_N@Z 00000001800740ec f   xerces-c_3_1:DOMDocumentTypeImpl.cpp.obj
 0001:00073384       ??0DOMDocumentTypeImpl@xercesc_3_1@@QEAA@PEAVDOMDocument@1@PEB_W11_N@Z 0000000180074384 f   xerces-c_3_1:DOMDocumentTypeImpl.cpp.obj
 0001:000738bc       ??0DOMDocumentTypeImpl@xercesc_3_1@@QEAA@AEBV01@_N1@Z 00000001800748bc f   xerces-c_3_1:DOMDocumentTypeImpl.cpp.obj
 0001:00073a00       ?cloneNode@DOMDocumentTypeImpl@xercesc_3_1@@UEBAPEAVDOMNode@2@_N@Z 0000000180074a00 f   xerces-c_3_1:DOMDocumentTypeImpl.cpp.obj
 0001:00073b18       ?setOwnerDocument@DOMDocumentTypeImpl@xercesc_3_1@@UEAAXPEAVDOMDocument@2@@Z 0000000180074b18 f   xerces-c_3_1:DOMDocumentTypeImpl.cpp.obj
 0001:00073c24       ?getNamespaceURI@DOMAttrNSImpl@xercesc_3_1@@UEBAPEB_WXZ 0000000180074c24 f   xerces-c_3_1:DOMAttrNSImpl.cpp.obj
 0001:00073c24       ?getAttributes@DOMElementImpl@xercesc_3_1@@UEBAPEAVDOMNamedNodeMap@2@XZ 0000000180074c24 f   xerces-c_3_1:DOMElementImpl.cpp.obj
 0001:00073c24       ?getSystemId@DOMEntityImpl@xercesc_3_1@@UEBAPEB_WXZ 0000000180074c24 f   xerces-c_3_1:DOMEntityImpl.cpp.obj
 0001:00073c24       ?getNodeName@DOMDocumentTypeImpl@xercesc_3_1@@UEBAPEB_WXZ 0000000180074c24 f   xerces-c_3_1:DOMDocumentTypeImpl.cpp.obj
 0001:00073c24       ?getNodeName@DOMEntityReferenceImpl@xercesc_3_1@@UEBAPEB_WXZ 0000000180074c24 f   xerces-c_3_1:DOMEntityReferenceImpl.cpp.obj
 0001:00073c24       ?getName@DOMDocumentTypeImpl@xercesc_3_1@@UEBAPEB_WXZ 0000000180074c24 f   xerces-c_3_1:DOMDocumentTypeImpl.cpp.obj
 0001:00073c2c       ?getNodeType@DOMDocumentTypeImpl@xercesc_3_1@@UEBA?AW4NodeType@DOMNode@2@XZ 0000000180074c2c f   xerces-c_3_1:DOMDocumentTypeImpl.cpp.obj
 0001:00073c34       ?getElements@DOMDocumentTypeImpl@xercesc_3_1@@UEBAPEAVDOMNamedNodeMap@2@XZ 0000000180074c34 f   xerces-c_3_1:DOMDocumentTypeImpl.cpp.obj
 0001:00073c34       ?getNamespaceURI@DOMElementNSImpl@xercesc_3_1@@UEBAPEB_WXZ 0000000180074c34 f   xerces-c_3_1:DOMElementNSImpl.cpp.obj
 0001:00073c34       ?getGrammarDescription@SchemaGrammar@xercesc_3_1@@UEBAPEAVXMLGrammarDescription@2@XZ 0000000180074c34 f   xerces-c_3_1:SchemaGrammar.cpp.obj
 0001:00073c34       ?getInputEncoding@DOMEntityImpl@xercesc_3_1@@UEBAPEB_WXZ 0000000180074c34 f   xerces-c_3_1:DOMEntityImpl.cpp.obj
 0001:00073c34       ?getXmlEncoding@DOMDocumentImpl@xercesc_3_1@@UEBAPEB_WXZ 0000000180074c34 f   xerces-c_3_1:DOMDocumentImpl.cpp.obj
 0001:00073c34       ?getBaseURI@DOMDocumentImpl@xercesc_3_1@@UEBAPEB_WXZ 0000000180074c34 f   xerces-c_3_1:DOMDocumentImpl.cpp.obj
 0001:00073c3c       ?setReadOnly@DOMDocumentTypeImpl@xercesc_3_1@@UEAAX_N0@Z 0000000180074c3c f   xerces-c_3_1:DOMDocumentTypeImpl.cpp.obj
 0001:00073c90       ?setPublicId@DOMDocumentTypeImpl@xercesc_3_1@@MEAAXPEB_W@Z 0000000180074c90 f   xerces-c_3_1:DOMDocumentTypeImpl.cpp.obj
 0001:00073d30       ?setSystemId@DOMDocumentTypeImpl@xercesc_3_1@@MEAAXPEB_W@Z 0000000180074d30 f   xerces-c_3_1:DOMDocumentTypeImpl.cpp.obj
 0001:00073dc8       ?setInternalSubset@DOMDocumentTypeImpl@xercesc_3_1@@MEAAXPEB_W@Z 0000000180074dc8 f   xerces-c_3_1:DOMDocumentTypeImpl.cpp.obj
 0001:00073e64       ?release@DOMDocumentTypeImpl@xercesc_3_1@@UEAAXXZ 0000000180074e64 f   xerces-c_3_1:DOMDocumentTypeImpl.cpp.obj
 0001:00073ff0       ?getPreviousSibling@DOMEntityReferenceImpl@xercesc_3_1@@UEBAPEAVDOMNode@2@XZ 0000000180074ff0 f   xerces-c_3_1:DOMEntityReferenceImpl.cpp.obj
 0001:00073ff0       ?getPreviousSibling@DOMDocumentTypeImpl@xercesc_3_1@@UEBAPEAVDOMNode@2@XZ 0000000180074ff0 f   xerces-c_3_1:DOMDocumentTypeImpl.cpp.obj
 0001:00073ff0       ?getPreviousSibling@DOMElementImpl@xercesc_3_1@@UEBAPEAVDOMNode@2@XZ 0000000180074ff0 f   xerces-c_3_1:DOMElementImpl.cpp.obj
 0001:00074004       ?getBaseURI@DOMCommentImpl@xercesc_3_1@@UEBAPEB_WXZ 0000000180075004 f   xerces-c_3_1:DOMCommentImpl.cpp.obj
 0001:00074004       ?getBaseURI@DOMDocumentTypeImpl@xercesc_3_1@@UEBAPEB_WXZ 0000000180075004 f   xerces-c_3_1:DOMDocumentTypeImpl.cpp.obj
 0001:00074004       ?getBaseURI@DOMTextImpl@xercesc_3_1@@UEBAPEB_WXZ 0000000180075004 f   xerces-c_3_1:DOMTextImpl.cpp.obj
 0001:00074004       ?getBaseURI@DOMAttrImpl@xercesc_3_1@@UEBAPEB_WXZ 0000000180075004 f   xerces-c_3_1:DOMAttrImpl.cpp.obj
 0001:00074004       ?getBaseURI@DOMDocumentFragmentImpl@xercesc_3_1@@UEBAPEB_WXZ 0000000180075004 f   xerces-c_3_1:DOMDocumentFragmentImpl.cpp.obj
 0001:00074004       ?getBaseURI@DOMCDATASectionImpl@xercesc_3_1@@UEBAPEB_WXZ 0000000180075004 f   xerces-c_3_1:DOMCDATASectionImpl.cpp.obj
 0001:00074010       ?isEqualNode@DOMDocumentTypeImpl@xercesc_3_1@@UEBA_NPEBVDOMNode@2@@Z 0000000180075010 f   xerces-c_3_1:DOMDocumentTypeImpl.cpp.obj
 0001:000743f0       ?isSupported@DOMDocumentTypeImpl@xercesc_3_1@@UEBA_NPEB_W0@Z 00000001800753f0 f   xerces-c_3_1:DOMDocumentTypeImpl.cpp.obj
 0001:0007449c       ?getFeature@DOMDocumentTypeImpl@xercesc_3_1@@UEBAPEAXPEB_W0@Z 000000018007549c f   xerces-c_3_1:DOMDocumentTypeImpl.cpp.obj
 0001:000744e4       ??0DOMNodeIDMap@xercesc_3_1@@QEAA@_KPEAVDOMDocument@1@@Z 00000001800754e4 f   xerces-c_3_1:DOMNodeIDMap.cpp.obj
 0001:00074590       ?add@DOMNodeIDMap@xercesc_3_1@@QEAAXPEAVDOMAttr@2@@Z 0000000180075590 f   xerces-c_3_1:DOMNodeIDMap.cpp.obj
 0001:00074658       ?remove@DOMNodeIDMap@xercesc_3_1@@QEAAXPEAVDOMAttr@2@@Z 0000000180075658 f   xerces-c_3_1:DOMNodeIDMap.cpp.obj
 0001:00074708       ?find@DOMNodeIDMap@xercesc_3_1@@QEAAPEAVDOMAttr@2@PEB_W@Z 0000000180075708 f   xerces-c_3_1:DOMNodeIDMap.cpp.obj
 0001:00074840       ?growTable@DOMNodeIDMap@xercesc_3_1@@AEAAXXZ 0000000180075840 f   xerces-c_3_1:DOMNodeIDMap.cpp.obj
 0001:000749b8       ?ensureCapacity@XMLBuffer@xercesc_3_1@@AEAAX_K@Z 00000001800759b8 f   xerces-c_3_1:XMLBuffer.cpp.obj
 0001:00074ab4       ??0XMLBufferMgr@xercesc_3_1@@QEAA@QEAVMemoryManager@1@@Z 0000000180075ab4 f   xerces-c_3_1:XMLBufferMgr.cpp.obj
 0001:00074b04       ??1XMLBufferMgr@xercesc_3_1@@QEAA@XZ 0000000180075b04 f   xerces-c_3_1:XMLBufferMgr.cpp.obj
 0001:00074b6c       ?bidOnBuffer@XMLBufferMgr@xercesc_3_1@@QEAAAEAVXMLBuffer@2@XZ 0000000180075b6c f   xerces-c_3_1:XMLBufferMgr.cpp.obj
 0001:00074ca0       ?releaseBuffer@XMLBufferMgr@xercesc_3_1@@QEAAXAEAVXMLBuffer@2@@Z 0000000180075ca0 f   xerces-c_3_1:XMLBufferMgr.cpp.obj
 0001:00074d24       ??0PSVIAttributeList@xercesc_3_1@@QEAA@QEAVMemoryManager@1@@Z 0000000180075d24 f   xerces-c_3_1:PSVIAttributeList.cpp.obj
 0001:00074dd8       ?getAttributePSVIByName@PSVIAttributeList@xercesc_3_1@@QEAAPEAVPSVIAttribute@2@PEB_W0@Z 0000000180075dd8 f   xerces-c_3_1:PSVIAttributeList.cpp.obj
 0001:00074ef4       ??1?$BaseRefVectorOf@VPSVIAttributeStorage@xercesc_3_1@@@xercesc_3_1@@UEAA@XZ 0000000180075ef4 f i xerces-c_3_1:PSVIAttributeList.cpp.obj
 0001:00074f00       ?setElementAt@?$BaseRefVectorOf@VPSVIAttributeStorage@xercesc_3_1@@@xercesc_3_1@@UEAAXQEAVPSVIAttributeStorage@2@_K@Z 0000000180075f00 f i xerces-c_3_1:PSVIAttributeList.cpp.obj
 0001:00074fc8       ?removeAllElements@?$BaseRefVectorOf@VPSVIAttributeStorage@xercesc_3_1@@@xercesc_3_1@@UEAAXXZ 0000000180075fc8 f i xerces-c_3_1:PSVIAttributeList.cpp.obj
 0001:0007503c       ?removeElementAt@?$BaseRefVectorOf@VPSVIAttributeStorage@xercesc_3_1@@@xercesc_3_1@@UEAAX_K@Z 000000018007603c f i xerces-c_3_1:PSVIAttributeList.cpp.obj
 0001:00075134       ?removeLastElement@?$BaseRefVectorOf@VPSVIAttributeStorage@xercesc_3_1@@@xercesc_3_1@@UEAAXXZ 0000000180076134 f i xerces-c_3_1:PSVIAttributeList.cpp.obj
 0001:00075184       ?cleanup@?$BaseRefVectorOf@VPSVIAttributeStorage@xercesc_3_1@@@xercesc_3_1@@UEAAXXZ 0000000180076184 f i xerces-c_3_1:PSVIAttributeList.cpp.obj
 0001:000751f8       ??_G?$BaseRefVectorOf@VPSVIAttributeStorage@xercesc_3_1@@@xercesc_3_1@@UEAAPEAXI@Z 00000001800761f8 f i xerces-c_3_1:PSVIAttributeList.cpp.obj
 0001:000751f8       ??_E?$BaseRefVectorOf@VPSVIAttributeStorage@xercesc_3_1@@@xercesc_3_1@@UEAAPEAXI@Z 00000001800761f8 f i  CIL library: CIL module
 0001:00075228       ??_G?$RefVectorOf@VPSVIAttributeStorage@xercesc_3_1@@@xercesc_3_1@@UEAAPEAXI@Z 0000000180076228 f i xerces-c_3_1:PSVIAttributeList.cpp.obj
 0001:00075228       ??_E?$RefVectorOf@VPSVIAttributeStorage@xercesc_3_1@@@xercesc_3_1@@UEAAPEAXI@Z 0000000180076228 f i  CIL library: CIL module
 0001:000752e0       ?getDOMImplementation@DOMImplementationRegistry@xercesc_3_1@@SAPEAVDOMImplementation@2@PEB_W@Z 00000001800762e0 f   xerces-c_3_1:DOMImplementationRegistry.cpp.obj
 0001:0007538c       ??1?$BaseRefVectorOf@VDOMImplementationSource@xercesc_3_1@@@xercesc_3_1@@UEAA@XZ 000000018007638c f i xerces-c_3_1:DOMImplementationRegistry.cpp.obj
 0001:00075398       ?addElement@?$BaseRefVectorOf@VDOMImplementationSource@xercesc_3_1@@@xercesc_3_1@@QEAAXQEAVDOMImplementationSource@2@@Z 0000000180076398 f i xerces-c_3_1:DOMImplementationRegistry.cpp.obj
 0001:00075460       ?elementAt@?$BaseRefVectorOf@VDOMImplementationSource@xercesc_3_1@@@xercesc_3_1@@QEAAPEAVDOMImplementationSource@2@_K@Z 0000000180076460 f i xerces-c_3_1:DOMImplementationRegistry.cpp.obj
 0001:000754d4       ??_G?$BaseRefVectorOf@VDOMImplementationSource@xercesc_3_1@@@xercesc_3_1@@UEAAPEAXI@Z 00000001800764d4 f i xerces-c_3_1:DOMImplementationRegistry.cpp.obj
 0001:000754d4       ??_E?$BaseRefVectorOf@VDOMImplementationSource@xercesc_3_1@@@xercesc_3_1@@UEAAPEAXI@Z 00000001800764d4 f i  CIL library: CIL module
 0001:00075504       ??_E?$RefVectorOf@VDOMImplementationSource@xercesc_3_1@@@xercesc_3_1@@UEAAPEAXI@Z 0000000180076504 f i  CIL library: CIL module
 0001:00075504       ??_G?$RefVectorOf@VDOMImplementationSource@xercesc_3_1@@@xercesc_3_1@@UEAAPEAXI@Z 0000000180076504 f i xerces-c_3_1:DOMImplementationRegistry.cpp.obj
 0001:000755a0       ??0XMLUri@xercesc_3_1@@QEAA@QEB_WQEAVMemoryManager@1@@Z 00000001800765a0 f   xerces-c_3_1:XMLUri.cpp.obj
 0001:00075624       ??_EXMLUri@xercesc_3_1@@UEAAPEAXI@Z 0000000180076624 f i  CIL library: CIL module
 0001:00075624       ??_GXMLUri@xercesc_3_1@@UEAAPEAXI@Z 0000000180076624 f i xerces-c_3_1:XMLUri.cpp.obj
 0001:00075660       ??0XMLUri@xercesc_3_1@@QEAA@QEBV01@QEB_WQEAVMemoryManager@1@@Z 0000000180076660 f   xerces-c_3_1:XMLUri.cpp.obj
 0001:000756dc       ??1XMLUri@xercesc_3_1@@UEAA@XZ 00000001800766dc f   xerces-c_3_1:XMLUri.cpp.obj
 0001:00075714       ?cleanUp@XMLUri@xercesc_3_1@@AEAAXXZ 0000000180076714 f   xerces-c_3_1:XMLUri.cpp.obj
 0001:000757e8       ?initialize@XMLUri@xercesc_3_1@@AEAAXAEBV12@@Z 00000001800767e8 f   xerces-c_3_1:XMLUri.cpp.obj
 0001:00075a14       ?initialize@XMLUri@xercesc_3_1@@AEAAXQEBV12@QEB_W@Z 0000000180076a14 f   xerces-c_3_1:XMLUri.cpp.obj
 0001:0007675c       ?initializeAuthority@XMLUri@xercesc_3_1@@AEAAXQEB_W@Z 000000018007775c f   xerces-c_3_1:XMLUri.cpp.obj
 0001:00076af8       ?initializeScheme@XMLUri@xercesc_3_1@@AEAAXQEB_W@Z 0000000180077af8 f   xerces-c_3_1:XMLUri.cpp.obj
 0001:00076c0c       ?initializePath@XMLUri@xercesc_3_1@@AEAAXQEB_W@Z 0000000180077c0c f   xerces-c_3_1:XMLUri.cpp.obj
 0001:00077368       ?setScheme@XMLUri@xercesc_3_1@@QEAAXQEB_W@Z 0000000180078368 f   xerces-c_3_1:XMLUri.cpp.obj
 0001:00077508       ?setHost@XMLUri@xercesc_3_1@@QEAAXQEB_W@Z 0000000180078508 f   xerces-c_3_1:XMLUri.cpp.obj
 0001:00077660       ?setRegBasedAuthority@XMLUri@xercesc_3_1@@QEAAXQEB_W@Z 0000000180078660 f   xerces-c_3_1:XMLUri.cpp.obj
 0001:000777e4       ?isValidServerBasedAuthority@XMLUri@xercesc_3_1@@CA_NQEB_W_KH01@Z 00000001800787e4 f   xerces-c_3_1:XMLUri.cpp.obj
 0001:00077a18       ?isURIString@XMLUri@xercesc_3_1@@SA_NQEB_W@Z 0000000180078a18 f   xerces-c_3_1:XMLUri.cpp.obj
 0001:00077a8c       ?isWellFormedAddress@XMLUri@xercesc_3_1@@CA_NQEB_WQEAVMemoryManager@2@@Z 0000000180078a8c f   xerces-c_3_1:XMLUri.cpp.obj
 0001:00077cb0       ?isWellFormedIPv4Address@XMLUri@xercesc_3_1@@CA_NQEB_W_K@Z 0000000180078cb0 f   xerces-c_3_1:XMLUri.cpp.obj
 0001:00077d3c       ?isWellFormedIPv6Reference@XMLUri@xercesc_3_1@@CA_NQEB_W_K@Z 0000000180078d3c f   xerces-c_3_1:XMLUri.cpp.obj
 0001:00077e40       ?scanHexSequence@XMLUri@xercesc_3_1@@CAHQEB_W_K1AEAH@Z 0000000180078e40 f   xerces-c_3_1:XMLUri.cpp.obj
 0001:00077eec       ?buildFullText@XMLUri@xercesc_3_1@@AEAAXXZ 0000000180078eec f   xerces-c_3_1:XMLUri.cpp.obj
 0001:00078390       ?isValidURI@XMLUri@xercesc_3_1@@SA_N_NQEB_W0@Z 0000000180079390 f   xerces-c_3_1:XMLUri.cpp.obj
 0001:00078568       ?processScheme@XMLUri@xercesc_3_1@@CA_NQEB_WAEA_K@Z 0000000180079568 f   xerces-c_3_1:XMLUri.cpp.obj
 0001:000785f4       ?processAuthority@XMLUri@xercesc_3_1@@CA_NQEB_W_K@Z 00000001800795f4 f   xerces-c_3_1:XMLUri.cpp.obj
 0001:000787f4       ?processPath@XMLUri@xercesc_3_1@@CA_NQEB_W_K_N2@Z 00000001800797f4 f   xerces-c_3_1:XMLUri.cpp.obj
 0001:00078994       ?normalizeURI@XMLUri@xercesc_3_1@@SAXQEB_WAEAVXMLBuffer@2@@Z 0000000180079994 f   xerces-c_3_1:XMLUri.cpp.obj
 0001:00078a40       ?createObject@XMLUri@xercesc_3_1@@SAPEAVXSerializable@2@PEAVMemoryManager@2@@Z 0000000180079a40 f   xerces-c_3_1:XMLUri.cpp.obj
 0001:00078a9c       ?getProtoType@XMLUri@xercesc_3_1@@UEBAPEAVXProtoType@2@XZ 0000000180079a9c f   xerces-c_3_1:XMLUri.cpp.obj
 0001:00078aa4       ?serialize@XMLUri@xercesc_3_1@@UEAAXAEAVXSerializeEngine@2@@Z 0000000180079aa4 f   xerces-c_3_1:XMLUri.cpp.obj
 0001:00078c4c       ?encodingForName@XMLRecognizer@xercesc_3_1@@SA?AW4Encodings@12@QEB_W@Z 0000000180079c4c f   xerces-c_3_1:XMLRecognizer.cpp.obj
 0001:00078e24       ?nameForEncoding@XMLRecognizer@xercesc_3_1@@SAPEB_WW4Encodings@12@QEAVMemoryManager@2@@Z 0000000180079e24 f   xerces-c_3_1:XMLRecognizer.cpp.obj
 0001:00078e94       ??_EXMLUTF8Transcoder@xercesc_3_1@@UEAAPEAXI@Z 0000000180079e94 f i  CIL library: CIL module
 0001:00078e94       ??_GXMLUTF8Transcoder@xercesc_3_1@@UEAAPEAXI@Z 0000000180079e94 f i xerces-c_3_1:XMLUTF8Transcoder.cpp.obj
 0001:00078e94       ??_GXMLChTranscoder@xercesc_3_1@@UEAAPEAXI@Z 0000000180079e94 f i xerces-c_3_1:XMLChTranscoder.cpp.obj
 0001:00078e94       ??_GXMLEBCDICTranscoder@xercesc_3_1@@UEAAPEAXI@Z 0000000180079e94 f i xerces-c_3_1:XMLEBCDICTranscoder.cpp.obj
 0001:00078e94       ??_GXMLIBM1140Transcoder@xercesc_3_1@@UEAAPEAXI@Z 0000000180079e94 f i xerces-c_3_1:XMLIBM1140Transcoder.cpp.obj
 0001:00078e94       ??_EXMLWin1252Transcoder@xercesc_3_1@@UEAAPEAXI@Z 0000000180079e94 f i  CIL library: CIL module
 0001:00078e94       ??_EXMLUTF16Transcoder@xercesc_3_1@@UEAAPEAXI@Z 0000000180079e94 f i  CIL library: CIL module
 0001:00078e94       ??_EXMLTranscoder@xercesc_3_1@@UEAAPEAXI@Z 0000000180079e94 f i  CIL library: CIL module
 0001:00078e94       ??_EXMLChTranscoder@xercesc_3_1@@UEAAPEAXI@Z 0000000180079e94 f i  CIL library: CIL module
 0001:00078e94       ??_GXMLASCIITranscoder@xercesc_3_1@@UEAAPEAXI@Z 0000000180079e94 f i xerces-c_3_1:XMLASCIITranscoder.cpp.obj
 0001:00078e94       ??_GXMLTranscoder@xercesc_3_1@@UEAAPEAXI@Z 0000000180079e94 f i xerces-c_3_1:TransService.cpp.obj
 0001:00078e94       ??_EXMLIBM1047Transcoder@xercesc_3_1@@UEAAPEAXI@Z 0000000180079e94 f i  CIL library: CIL module
 0001:00078e94       ??_GXMLWin1252Transcoder@xercesc_3_1@@UEAAPEAXI@Z 0000000180079e94 f i xerces-c_3_1:XMLWin1252Transcoder.cpp.obj
 0001:00078e94       ??_GXMLUCS4Transcoder@xercesc_3_1@@UEAAPEAXI@Z 0000000180079e94 f i xerces-c_3_1:XMLUCS4Transcoder.cpp.obj
 0001:00078e94       ??_EXMLASCIITranscoder@xercesc_3_1@@UEAAPEAXI@Z 0000000180079e94 f i  CIL library: CIL module
 0001:00078e94       ??_GXMLUTF16Transcoder@xercesc_3_1@@UEAAPEAXI@Z 0000000180079e94 f i xerces-c_3_1:XMLUTF16Transcoder.cpp.obj
 0001:00078e94       ??_EXMLEBCDICTranscoder@xercesc_3_1@@UEAAPEAXI@Z 0000000180079e94 f i  CIL library: CIL module
 0001:00078e94       ??_EXML88591Transcoder@xercesc_3_1@@UEAAPEAXI@Z 0000000180079e94 f i  CIL library: CIL module
 0001:00078e94       ??_GXMLIBM1047Transcoder@xercesc_3_1@@UEAAPEAXI@Z 0000000180079e94 f i xerces-c_3_1:XMLIBM1047Transcoder.cpp.obj
 0001:00078e94       ??_EXMLIBM1140Transcoder@xercesc_3_1@@UEAAPEAXI@Z 0000000180079e94 f i  CIL library: CIL module
 0001:00078e94       ??_GWin32Transcoder@xercesc_3_1@@UEAAPEAXI@Z 0000000180079e94 f i xerces-c_3_1:Win32TransService.cpp.obj
 0001:00078e94       ??_GXML88591Transcoder@xercesc_3_1@@UEAAPEAXI@Z 0000000180079e94 f i xerces-c_3_1:XML88591Transcoder.cpp.obj
 0001:00078e94       ??_EWin32Transcoder@xercesc_3_1@@UEAAPEAXI@Z 0000000180079e94 f i  CIL library: CIL module
 0001:00078e94       ??_EXMLUCS4Transcoder@xercesc_3_1@@UEAAPEAXI@Z 0000000180079e94 f i  CIL library: CIL module
 0001:00078edc       ?transcodeFrom@XML88591Transcoder@xercesc_3_1@@UEAA_KQEBE_KQEA_W1AEA_KQEAE@Z 0000000180079edc f   xerces-c_3_1:XML88591Transcoder.cpp.obj
 0001:00078f2c       ?transcodeTo@XML88591Transcoder@xercesc_3_1@@UEAA_KQEB_W_KQEAE1AEA_KW4UnRepOpts@XMLTranscoder@2@@Z 0000000180079f2c f   xerces-c_3_1:XML88591Transcoder.cpp.obj
 0001:00079024       ?canTranscodeTo@XML88591Transcoder@xercesc_3_1@@UEAA_NI@Z 000000018007a024 f   xerces-c_3_1:XML88591Transcoder.cpp.obj
 0001:00079030       ?isValidEncoding@EncodingValidator@xercesc_3_1@@QEAA_NQEB_W@Z 000000018007a030 f   xerces-c_3_1:EncodingValidator.cpp.obj
 0001:000790f4       ?initializeRegistry@EncodingValidator@xercesc_3_1@@AEAAXXZ 000000018007a0f4 f   xerces-c_3_1:EncodingValidator.cpp.obj
 0001:000793a8       ?transcodeFrom@XMLUCS4Transcoder@xercesc_3_1@@UEAA_KQEBE_KQEA_W1AEA_KQEAE@Z 000000018007a3a8 f   xerces-c_3_1:XMLUCS4Transcoder.cpp.obj
 0001:000794bc       ?transcodeTo@XMLUCS4Transcoder@xercesc_3_1@@UEAA_KQEB_W_KQEAE1AEA_KW4UnRepOpts@XMLTranscoder@2@@Z 000000018007a4bc f   xerces-c_3_1:XMLUCS4Transcoder.cpp.obj
 0001:0007962c       ?transcodeFrom@XMLChTranscoder@xercesc_3_1@@UEAA_KQEBE_KQEA_W1AEA_KQEAE@Z 000000018007a62c f   xerces-c_3_1:XMLChTranscoder.cpp.obj
 0001:0007967c       ?transcodeTo@XMLChTranscoder@xercesc_3_1@@UEAA_KQEB_W_KQEAE1AEA_KW4UnRepOpts@XMLTranscoder@2@@Z 000000018007a67c f   xerces-c_3_1:XMLChTranscoder.cpp.obj
 0001:000796c0       ??0UTFDataFormatException@xercesc_3_1@@QEAA@AEBV01@@Z 000000018007a6c0 f i xerces-c_3_1:XMLUTF8Transcoder.cpp.obj
 0001:000796e4       ??1UTFDataFormatException@xercesc_3_1@@UEAA@XZ 000000018007a6e4 f i xerces-c_3_1:XMLUTF8Transcoder.cpp.obj
 0001:000796f4       ?duplicate@UTFDataFormatException@xercesc_3_1@@UEBAPEAVXMLException@2@XZ 000000018007a6f4 f i xerces-c_3_1:XMLUTF8Transcoder.cpp.obj
 0001:00079758       ?getType@UTFDataFormatException@xercesc_3_1@@UEBAPEB_WXZ 000000018007a758 f i xerces-c_3_1:XMLUTF8Transcoder.cpp.obj
 0001:00079760       ??_GUTFDataFormatException@xercesc_3_1@@UEAAPEAXI@Z 000000018007a760 f i xerces-c_3_1:XMLUTF8Transcoder.cpp.obj
 0001:00079760       ??_EUTFDataFormatException@xercesc_3_1@@UEAAPEAXI@Z 000000018007a760 f i  CIL library: CIL module
 0001:000797a0       ?checkTrailingBytes@XMLUTF8Transcoder@xercesc_3_1@@AEBAXEII@Z 000000018007a7a0 f i xerces-c_3_1:XMLUTF8Transcoder.cpp.obj
 0001:00079834       ??1XMLUTF8Transcoder@xercesc_3_1@@UEAA@XZ 000000018007a834 f   xerces-c_3_1:XMLUTF8Transcoder.cpp.obj
 0001:00079850       ?transcodeFrom@XMLUTF8Transcoder@xercesc_3_1@@UEAA_KQEBE_KQEA_W1AEA_KQEAE@Z 000000018007a850 f   xerces-c_3_1:XMLUTF8Transcoder.cpp.obj
 0001:00079e30       ?transcodeTo@XMLUTF8Transcoder@xercesc_3_1@@UEAA_KQEB_W_KQEAE1AEA_KW4UnRepOpts@XMLTranscoder@2@@Z 000000018007ae30 f   xerces-c_3_1:XMLUTF8Transcoder.cpp.obj
 0001:0007a07c       ?canTranscodeTo@XMLUTF8Transcoder@xercesc_3_1@@UEAA_NI@Z 000000018007b07c f   xerces-c_3_1:XMLUTF8Transcoder.cpp.obj
 0001:0007a088       ?transcodeFrom@XMLASCIITranscoder@xercesc_3_1@@UEAA_KQEBE_KQEA_W1AEA_KQEAE@Z 000000018007b088 f   xerces-c_3_1:XMLASCIITranscoder.cpp.obj
 0001:0007a194       ?transcodeTo@XMLASCIITranscoder@xercesc_3_1@@UEAA_KQEB_W_KQEAE1AEA_KW4UnRepOpts@XMLTranscoder@2@@Z 000000018007b194 f   xerces-c_3_1:XMLASCIITranscoder.cpp.obj
 0001:0007a294       ?canTranscodeTo@XMLASCIITranscoder@xercesc_3_1@@UEAA_NI@Z 000000018007b294 f   xerces-c_3_1:XMLASCIITranscoder.cpp.obj
 0001:0007a2a0       ?transcodeFrom@XMLUTF16Transcoder@xercesc_3_1@@UEAA_KQEBE_KQEA_W1AEA_KQEAE@Z 000000018007b2a0 f   xerces-c_3_1:XMLUTF16Transcoder.cpp.obj
 0001:0007a310       ?transcodeTo@XMLUTF16Transcoder@xercesc_3_1@@UEAA_KQEB_W_KQEAE1AEA_KW4UnRepOpts@XMLTranscoder@2@@Z 000000018007b310 f   xerces-c_3_1:XMLUTF16Transcoder.cpp.obj
 0001:0007a36c       ??0DOMEntityReferenceImpl@xercesc_3_1@@QEAA@PEAVDOMDocument@1@PEB_W@Z 000000018007b36c f   xerces-c_3_1:DOMEntityReferenceImpl.cpp.obj
 0001:0007a4bc       ??0DOMEntityReferenceImpl@xercesc_3_1@@QEAA@PEAVDOMDocument@1@PEB_W_N@Z 000000018007b4bc f   xerces-c_3_1:DOMEntityReferenceImpl.cpp.obj
 0001:0007a5e0       ??0DOMEntityReferenceImpl@xercesc_3_1@@QEAA@AEBV01@_N@Z 000000018007b5e0 f   xerces-c_3_1:DOMEntityReferenceImpl.cpp.obj
 0001:0007a698       ?cloneNode@DOMEntityReferenceImpl@xercesc_3_1@@UEBAPEAVDOMNode@2@_N@Z 000000018007b698 f   xerces-c_3_1:DOMEntityReferenceImpl.cpp.obj
 0001:0007a734       ?getNodeType@DOMEntityReferenceImpl@xercesc_3_1@@UEBA?AW4NodeType@DOMNode@2@XZ 000000018007b734 f   xerces-c_3_1:DOMEntityReferenceImpl.cpp.obj
 0001:0007a73c       ?setReadOnly@DOMEntityReferenceImpl@xercesc_3_1@@UEAAX_N0@Z 000000018007b73c f   xerces-c_3_1:DOMEntityReferenceImpl.cpp.obj
 0001:0007a7dc       ?release@DOMEntityReferenceImpl@xercesc_3_1@@UEAAXXZ 000000018007b7dc f   xerces-c_3_1:DOMEntityReferenceImpl.cpp.obj
 0001:0007a920       ?getChildNodes@DOMElementImpl@xercesc_3_1@@UEBAPEAVDOMNodeList@2@XZ 000000018007b920 f   xerces-c_3_1:DOMElementImpl.cpp.obj
 0001:0007a920       ?getChildNodes@DOMDocumentFragmentImpl@xercesc_3_1@@UEBAPEAVDOMNodeList@2@XZ 000000018007b920 f   xerces-c_3_1:DOMDocumentFragmentImpl.cpp.obj
 0001:0007a920       ?getChildNodes@DOMDocumentImpl@xercesc_3_1@@UEBAPEAVDOMNodeList@2@XZ 000000018007b920 f   xerces-c_3_1:DOMDocumentImpl.cpp.obj
 0001:0007a920       ?getChildNodes@DOMEntityReferenceImpl@xercesc_3_1@@UEBAPEAVDOMNodeList@2@XZ 000000018007b920 f   xerces-c_3_1:DOMEntityReferenceImpl.cpp.obj
 0001:0007a920       ?getChildNodes@DOMAttrImpl@xercesc_3_1@@UEBAPEAVDOMNodeList@2@XZ 000000018007b920 f   xerces-c_3_1:DOMAttrImpl.cpp.obj
 0001:0007a920       ?getChildNodes@DOMDocumentTypeImpl@xercesc_3_1@@UEBAPEAVDOMNodeList@2@XZ 000000018007b920 f   xerces-c_3_1:DOMDocumentTypeImpl.cpp.obj
 0001:0007a928       ?cloneChildren@DOMParentNode@xercesc_3_1@@QEAAXPEBVDOMNode@2@@Z 000000018007b928 f   xerces-c_3_1:DOMParentNode.cpp.obj
 0001:0007a978       ?insertBefore@DOMParentNode@xercesc_3_1@@QEAAPEAVDOMNode@2@PEAV32@0@Z 000000018007b978 f   xerces-c_3_1:DOMParentNode.cpp.obj
 0001:0007af04       ?removeChild@DOMParentNode@xercesc_3_1@@QEAAPEAVDOMNode@2@PEAV32@@Z 000000018007bf04 f   xerces-c_3_1:DOMParentNode.cpp.obj
 0001:0007b1c4       ?appendChildFast@DOMParentNode@xercesc_3_1@@UEAAPEAVDOMNode@2@PEAV32@@Z 000000018007c1c4 f   xerces-c_3_1:DOMParentNode.cpp.obj
 0001:0007b274       ?normalize@DOMParentNode@xercesc_3_1@@QEAAXXZ 000000018007c274 f   xerces-c_3_1:DOMParentNode.cpp.obj
 0001:0007b338       ?isEqualNode@DOMParentNode@xercesc_3_1@@QEBA_NPEBVDOMNode@2@@Z 000000018007c338 f   xerces-c_3_1:DOMParentNode.cpp.obj
 0001:0007b3d8       ?release@DOMParentNode@xercesc_3_1@@QEAAXXZ 000000018007c3d8 f   xerces-c_3_1:DOMParentNode.cpp.obj
 0001:0007b424       ??1DOMXPathNSResolver@xercesc_3_1@@UEAA@XZ 000000018007c424 f i xerces-c_3_1:DOMXPathNSResolverImpl.cpp.obj
 0001:0007b430       ??_EDOMXPathNSResolver@xercesc_3_1@@UEAAPEAXI@Z 000000018007c430 f i  CIL library: CIL module
 0001:0007b430       ??_GDOMXPathNSResolver@xercesc_3_1@@UEAAPEAXI@Z 000000018007c430 f i xerces-c_3_1:DOMXPathNSResolverImpl.cpp.obj
 0001:0007b45c       ??0DOMXPathNSResolverImpl@xercesc_3_1@@QEAA@PEBVDOMNode@1@QEAVMemoryManager@1@@Z 000000018007c45c f   xerces-c_3_1:DOMXPathNSResolverImpl.cpp.obj
 0001:0007b510       ??_EDOMXPathNSResolverImpl@xercesc_3_1@@UEAAPEAXI@Z 000000018007c510 f i  CIL library: CIL module
 0001:0007b510       ??_GDOMXPathNSResolverImpl@xercesc_3_1@@UEAAPEAXI@Z 000000018007c510 f i xerces-c_3_1:DOMXPathNSResolverImpl.cpp.obj
 0001:0007b574       ??_G?$RefHashTableOf@VComplexTypeInfo@xercesc_3_1@@UStringHasher@2@@xercesc_3_1@@QEAAPEAXI@Z 000000018007c574 f i xerces-c_3_1:XSModel.cpp.obj
 0001:0007b574       ??_G?$RefHashTableOf@VDTDAttDef@xercesc_3_1@@UStringHasher@2@@xercesc_3_1@@QEAAPEAXI@Z 000000018007c574 f i xerces-c_3_1:XTemplateSerializer.cpp.obj
 0001:0007b574       ??_G?$RefHashTableOf@VKVStringPair@xercesc_3_1@@UStringHasher@2@@xercesc_3_1@@QEAAPEAXI@Z 000000018007c574 f i xerces-c_3_1:DOMXPathNSResolverImpl.cpp.obj
 0001:0007b574       ??_G?$RefHashTableOf@VXercesAttGroupInfo@xercesc_3_1@@UStringHasher@2@@xercesc_3_1@@QEAAPEAXI@Z 000000018007c574 f i xerces-c_3_1:XSModel.cpp.obj
 0001:0007b574       ??_G?$RefHashTableOf@VXMLAttDef@xercesc_3_1@@UStringHasher@2@@xercesc_3_1@@QEAAPEAXI@Z 000000018007c574 f i xerces-c_3_1:XSModel.cpp.obj
 0001:0007b574       ??_G?$RefHashTableOf@VXercesGroupInfo@xercesc_3_1@@UStringHasher@2@@xercesc_3_1@@QEAAPEAXI@Z 000000018007c574 f i xerces-c_3_1:XSModel.cpp.obj
 0001:0007b628       ?lookupNamespaceURI@DOMXPathNSResolverImpl@xercesc_3_1@@UEBAPEB_WPEB_W@Z 000000018007c628 f   xerces-c_3_1:DOMXPathNSResolverImpl.cpp.obj
 0001:0007b700       ?lookupPrefix@DOMXPathNSResolverImpl@xercesc_3_1@@UEBAPEB_WPEB_W@Z 000000018007c700 f   xerces-c_3_1:DOMXPathNSResolverImpl.cpp.obj
 0001:0007b874       ?addNamespaceBinding@DOMXPathNSResolverImpl@xercesc_3_1@@UEAAXPEB_W0@Z 000000018007c874 f   xerces-c_3_1:DOMXPathNSResolverImpl.cpp.obj
 0001:0007b908       ?release@DOMStringListImpl@xercesc_3_1@@UEAAXXZ 000000018007c908 f   xerces-c_3_1:DOMStringListImpl.cpp.obj
 0001:0007b908       ?release@DOMLSSerializerImpl@xercesc_3_1@@UEAAXXZ 000000018007c908 f   xerces-c_3_1:DOMLSSerializerImpl.cpp.obj
 0001:0007b908       ?release@DOMLSOutputImpl@xercesc_3_1@@UEAAXXZ 000000018007c908 f   xerces-c_3_1:DOMLSOutputImpl.cpp.obj
 0001:0007b908       ?release@DOMLSInputImpl@xercesc_3_1@@UEAAXXZ 000000018007c908 f   xerces-c_3_1:DOMLSInputImpl.cpp.obj
 0001:0007b908       ?release@DOMXPathResultImpl@xercesc_3_1@@UEAAXXZ 000000018007c908 f   xerces-c_3_1:DOMXPathResultImpl.cpp.obj
 0001:0007b908       ?release@DOMImplementationListImpl@xercesc_3_1@@UEAAXXZ 000000018007c908 f   xerces-c_3_1:DOMImplementationListImpl.cpp.obj
 0001:0007b908       ?release@DOMXPathNSResolverImpl@xercesc_3_1@@UEAAXXZ 000000018007c908 f   xerces-c_3_1:DOMXPathNSResolverImpl.cpp.obj
 0001:0007b908       ?release@DOMXPathExpressionImpl@xercesc_3_1@@UEAAXXZ 000000018007c908 f   xerces-c_3_1:DOMXPathExpressionImpl.cpp.obj
 0001:0007b920       ??1?$XMLEnumerator@VKVStringPair@xercesc_3_1@@@xercesc_3_1@@UEAA@XZ 000000018007c920 f i xerces-c_3_1:DOMXPathNSResolverImpl.cpp.obj
 0001:0007b92c       ??_E?$XMLEnumerator@VKVStringPair@xercesc_3_1@@@xercesc_3_1@@UEAAPEAXI@Z 000000018007c92c f i  CIL library: CIL module
 0001:0007b92c       ??_G?$XMLEnumerator@VKVStringPair@xercesc_3_1@@@xercesc_3_1@@UEAAPEAXI@Z 000000018007c92c f i xerces-c_3_1:DOMXPathNSResolverImpl.cpp.obj
 0001:0007b958       ??0?$RefHashTableOfEnumerator@VKVStringPair@xercesc_3_1@@UStringHasher@2@@xercesc_3_1@@QEAA@QEAV?$RefHashTableOf@VKVStringPair@xercesc_3_1@@UStringHasher@2@@1@_NQEAVMemoryManager@1@@Z 000000018007c958 f i xerces-c_3_1:DOMXPathNSResolverImpl.cpp.obj
 0001:0007b9ec       ??1?$RefHashTableOfEnumerator@VKVStringPair@xercesc_3_1@@UStringHasher@2@@xercesc_3_1@@UEAA@XZ 000000018007c9ec f i xerces-c_3_1:DOMXPathNSResolverImpl.cpp.obj
 0001:0007ba34       ??_E?$RefHashTableOfEnumerator@VKVStringPair@xercesc_3_1@@UStringHasher@2@@xercesc_3_1@@UEAAPEAXI@Z 000000018007ca34 f i  CIL library: CIL module
 0001:0007ba34       ??_G?$RefHashTableOfEnumerator@VKVStringPair@xercesc_3_1@@UStringHasher@2@@xercesc_3_1@@UEAAPEAXI@Z 000000018007ca34 f i xerces-c_3_1:DOMXPathNSResolverImpl.cpp.obj
 0001:0007ba70       ??_GDOMTreeWalker@xercesc_3_1@@UEAAPEAXI@Z 000000018007ca70 f i xerces-c_3_1:DOMTreeWalkerImpl.cpp.obj
 0001:0007ba70       ??_EDOMTreeWalker@xercesc_3_1@@UEAAPEAXI@Z 000000018007ca70 f i  CIL library: CIL module
 0001:0007ba70       ??_GDOMTreeWalkerImpl@xercesc_3_1@@UEAAPEAXI@Z 000000018007ca70 f i xerces-c_3_1:DOMTreeWalkerImpl.cpp.obj
 0001:0007ba70       ??_EDOMTreeWalkerImpl@xercesc_3_1@@UEAAPEAXI@Z 000000018007ca70 f i  CIL library: CIL module
 0001:0007ba9c       ?getExpandEntityReferences@DOMTreeWalkerImpl@xercesc_3_1@@UEAA_NXZ 000000018007ca9c f   xerces-c_3_1:DOMTreeWalkerImpl.cpp.obj
 0001:0007ba9c       ?getExpandEntityReferences@DOMNodeIteratorImpl@xercesc_3_1@@UEAA_NXZ 000000018007ca9c f   xerces-c_3_1:DOMNodeIteratorImpl.cpp.obj
 0001:0007baa0       ?setCurrentNode@DOMTreeWalkerImpl@xercesc_3_1@@UEAAXPEAVDOMNode@2@@Z 000000018007caa0 f   xerces-c_3_1:DOMTreeWalkerImpl.cpp.obj
 0001:0007bb2c       ?parentNode@DOMTreeWalkerImpl@xercesc_3_1@@UEAAPEAVDOMNode@2@XZ 000000018007cb2c f   xerces-c_3_1:DOMTreeWalkerImpl.cpp.obj
 0001:0007bb58       ?firstChild@DOMTreeWalkerImpl@xercesc_3_1@@UEAAPEAVDOMNode@2@XZ 000000018007cb58 f   xerces-c_3_1:DOMTreeWalkerImpl.cpp.obj
 0001:0007bb9c       ?lastChild@DOMTreeWalkerImpl@xercesc_3_1@@UEAAPEAVDOMNode@2@XZ 000000018007cb9c f   xerces-c_3_1:DOMTreeWalkerImpl.cpp.obj
 0001:0007bbe0       ?previousSibling@DOMTreeWalkerImpl@xercesc_3_1@@UEAAPEAVDOMNode@2@XZ 000000018007cbe0 f   xerces-c_3_1:DOMTreeWalkerImpl.cpp.obj
 0001:0007bc0c       ?nextSibling@DOMTreeWalkerImpl@xercesc_3_1@@UEAAPEAVDOMNode@2@XZ 000000018007cc0c f   xerces-c_3_1:DOMTreeWalkerImpl.cpp.obj
 0001:0007bc38       ?previousNode@DOMTreeWalkerImpl@xercesc_3_1@@UEAAPEAVDOMNode@2@XZ 000000018007cc38 f   xerces-c_3_1:DOMTreeWalkerImpl.cpp.obj
 0001:0007bc98       ?nextNode@DOMTreeWalkerImpl@xercesc_3_1@@UEAAPEAVDOMNode@2@XZ 000000018007cc98 f   xerces-c_3_1:DOMTreeWalkerImpl.cpp.obj
 0001:0007bd08       ?getParentNode@DOMTreeWalkerImpl@xercesc_3_1@@IEAAPEAVDOMNode@2@PEAV32@@Z 000000018007cd08 f   xerces-c_3_1:DOMTreeWalkerImpl.cpp.obj
 0001:0007bd58       ?getNextSibling@DOMTreeWalkerImpl@xercesc_3_1@@IEAAPEAVDOMNode@2@PEAV32@@Z 000000018007cd58 f   xerces-c_3_1:DOMTreeWalkerImpl.cpp.obj
 0001:0007be10       ?getPreviousSibling@DOMTreeWalkerImpl@xercesc_3_1@@IEAAPEAVDOMNode@2@PEAV32@@Z 000000018007ce10 f   xerces-c_3_1:DOMTreeWalkerImpl.cpp.obj
 0001:0007bec8       ?getFirstChild@DOMTreeWalkerImpl@xercesc_3_1@@IEAAPEAVDOMNode@2@PEAV32@@Z 000000018007cec8 f   xerces-c_3_1:DOMTreeWalkerImpl.cpp.obj
 0001:0007bf48       ?getLastChild@DOMTreeWalkerImpl@xercesc_3_1@@IEAAPEAVDOMNode@2@PEAV32@@Z 000000018007cf48 f   xerces-c_3_1:DOMTreeWalkerImpl.cpp.obj
 0001:0007bfc8       ?acceptNode@DOMTreeWalkerImpl@xercesc_3_1@@IEAAFPEAVDOMNode@2@@Z 000000018007cfc8 f   xerces-c_3_1:DOMTreeWalkerImpl.cpp.obj
 0001:0007c044       ??1DOMException@xercesc_3_1@@UEAA@XZ 000000018007d044 f   xerces-c_3_1:DOMException.cpp.obj
 0001:0007c070       ??_GDOMException@xercesc_3_1@@UEAAPEAXI@Z 000000018007d070 f i xerces-c_3_1:DOMException.cpp.obj
 0001:0007c070       ??_EDOMException@xercesc_3_1@@UEAAPEAXI@Z 000000018007d070 f i  CIL library: CIL module
 0001:0007c0a8       ??0DOMException@xercesc_3_1@@QEAA@FFQEAVMemoryManager@1@@Z 000000018007d0a8 f   xerces-c_3_1:DOMException.cpp.obj
 0001:0007c19c       ??0DOMException@xercesc_3_1@@QEAA@AEBV01@@Z 000000018007d19c f   xerces-c_3_1:DOMException.cpp.obj
 0001:0007c240       ?normalizeNode@DOMNormalizer@xercesc_3_1@@IEBAPEAVDOMNode@2@PEAV32@@Z 000000018007d240 f   xerces-c_3_1:DOMNormalizer.cpp.obj
 0001:0007c62c       ?namespaceFixUp@DOMNormalizer@xercesc_3_1@@IEBAXPEAVDOMElementImpl@2@@Z 000000018007d62c f   xerces-c_3_1:DOMNormalizer.cpp.obj
 0001:0007ca9c       ?integerToXMLCh@DOMNormalizer@xercesc_3_1@@IEBAPEB_WI@Z 000000018007da9c f   xerces-c_3_1:DOMNormalizer.cpp.obj
 0001:0007cb90       ?addOrChangeNamespaceDecl@DOMNormalizer@xercesc_3_1@@IEBAXPEB_W0PEAVDOMElementImpl@2@@Z 000000018007db90 f   xerces-c_3_1:DOMNormalizer.cpp.obj
 0001:0007cd04       ?addCustomNamespaceDecl@DOMNormalizer@xercesc_3_1@@IEBAPEB_WPEB_WPEAVDOMElementImpl@2@@Z 000000018007dd04 f   xerces-c_3_1:DOMNormalizer.cpp.obj
 0001:0007d008       ??0InScopeNamespaces@DOMNormalizer@xercesc_3_1@@QEAA@QEAVMemoryManager@2@@Z 000000018007e008 f   xerces-c_3_1:DOMNormalizer.cpp.obj
 0001:0007d0bc       ?addOrChangeBinding@InScopeNamespaces@DOMNormalizer@xercesc_3_1@@QEAAXPEB_W0QEAVMemoryManager@3@@Z 000000018007e0bc f   xerces-c_3_1:DOMNormalizer.cpp.obj
 0001:0007d134       ?addScope@InScopeNamespaces@DOMNormalizer@xercesc_3_1@@QEAAXQEAVMemoryManager@3@@Z 000000018007e134 f   xerces-c_3_1:DOMNormalizer.cpp.obj
 0001:0007d234       ?isValidBinding@InScopeNamespaces@DOMNormalizer@xercesc_3_1@@QEBA_NPEB_W0@Z 000000018007e234 f   xerces-c_3_1:DOMNormalizer.cpp.obj
 0001:0007d2b8       ??_G?$RefHashTableOf@_WUStringHasher@xercesc_3_1@@@xercesc_3_1@@QEAAPEAXI@Z 000000018007e2b8 f i xerces-c_3_1:DOMNormalizer.cpp.obj
 0001:0007d368       ?addOrChangeBinding@Scope@InScopeNamespaces@DOMNormalizer@xercesc_3_1@@QEAAXPEB_W0QEAVMemoryManager@4@@Z 000000018007e368 f   xerces-c_3_1:DOMNormalizer.cpp.obj
 0001:0007d54c       ?getUri@Scope@InScopeNamespaces@DOMNormalizer@xercesc_3_1@@QEBAPEB_WPEB_W@Z 000000018007e54c f   xerces-c_3_1:DOMNormalizer.cpp.obj
 0001:0007d590       ?getPrefix@Scope@InScopeNamespaces@DOMNormalizer@xercesc_3_1@@QEBAPEB_WPEB_W@Z 000000018007e590 f   xerces-c_3_1:DOMNormalizer.cpp.obj
 0001:0007d5d4       ?error@DOMNormalizer@xercesc_3_1@@IEBAXW4Codes@XMLErrs@2@PEBVDOMNode@2@@Z 000000018007e5d4 f   xerces-c_3_1:DOMNormalizer.cpp.obj
 0001:0007d6e4       ??1?$XMLEnumerator@_W@xercesc_3_1@@UEAA@XZ 000000018007e6e4 f i xerces-c_3_1:DOMNormalizer.cpp.obj
 0001:0007d6f0       ??_G?$XMLEnumerator@_W@xercesc_3_1@@UEAAPEAXI@Z 000000018007e6f0 f i xerces-c_3_1:DOMNormalizer.cpp.obj
 0001:0007d6f0       ??_E?$XMLEnumerator@_W@xercesc_3_1@@UEAAPEAXI@Z 000000018007e6f0 f i  CIL library: CIL module
 0001:0007d71c       ??1?$BaseRefVectorOf@VScope@InScopeNamespaces@DOMNormalizer@xercesc_3_1@@@xercesc_3_1@@UEAA@XZ 000000018007e71c f i xerces-c_3_1:DOMNormalizer.cpp.obj
 0001:0007d728       ?setElementAt@?$BaseRefVectorOf@VScope@InScopeNamespaces@DOMNormalizer@xercesc_3_1@@@xercesc_3_1@@UEAAXQEAVScope@InScopeNamespaces@DOMNormalizer@2@_K@Z 000000018007e728 f i xerces-c_3_1:DOMNormalizer.cpp.obj
 0001:0007d7f8       ?removeAllElements@?$BaseRefVectorOf@VScope@InScopeNamespaces@DOMNormalizer@xercesc_3_1@@@xercesc_3_1@@UEAAXXZ 000000018007e7f8 f i xerces-c_3_1:DOMNormalizer.cpp.obj
 0001:0007d878       ?removeElementAt@?$BaseRefVectorOf@VScope@InScopeNamespaces@DOMNormalizer@xercesc_3_1@@@xercesc_3_1@@UEAAX_K@Z 000000018007e878 f i xerces-c_3_1:DOMNormalizer.cpp.obj
 0001:0007d97c       ?removeLastElement@?$BaseRefVectorOf@VScope@InScopeNamespaces@DOMNormalizer@xercesc_3_1@@@xercesc_3_1@@UEAAXXZ 000000018007e97c f i xerces-c_3_1:DOMNormalizer.cpp.obj
 0001:0007d9d8       ?cleanup@?$BaseRefVectorOf@VScope@InScopeNamespaces@DOMNormalizer@xercesc_3_1@@@xercesc_3_1@@UEAAXXZ 000000018007e9d8 f i xerces-c_3_1:DOMNormalizer.cpp.obj
 0001:0007da58       ?elementAt@?$BaseRefVectorOf@VXMLElementDecl@xercesc_3_1@@@xercesc_3_1@@QEAAPEAVXMLElementDecl@2@_K@Z 000000018007ea58 f i xerces-c_3_1:WFXMLScanner.cpp.obj
 0001:0007da58       ?elementAt@?$BaseRefVectorOf@VSchemaAttDef@xercesc_3_1@@@xercesc_3_1@@QEAAPEAVSchemaAttDef@2@_K@Z 000000018007ea58 f i xerces-c_3_1:XTemplateSerializer.cpp.obj
 0001:0007da58       ?elementAt@?$BaseRefVectorOf@VDOMRangeImpl@xercesc_3_1@@@xercesc_3_1@@QEAAPEAVDOMRangeImpl@2@_K@Z 000000018007ea58 f i xerces-c_3_1:DOMDocumentImpl.cpp.obj
 0001:0007da58       ?elementAt@?$BaseRefVectorOf@VSchemaElementDecl@xercesc_3_1@@@xercesc_3_1@@QEAAPEAVSchemaElementDecl@2@_K@Z 000000018007ea58 f i xerces-c_3_1:XTemplateSerializer.cpp.obj
 0001:0007da58       ?elementAt@?$BaseRefVectorOf@VXMLNumber@xercesc_3_1@@@xercesc_3_1@@QEAAPEAVXMLNumber@2@_K@Z 000000018007ea58 f i xerces-c_3_1:XTemplateSerializer.cpp.obj
 0001:0007da58       ?elementAt@?$BaseRefVectorOf@VXMLAttr@xercesc_3_1@@@xercesc_3_1@@QEAAPEAVXMLAttr@2@_K@Z 000000018007ea58 f i xerces-c_3_1:DGXMLScanner.cpp.obj
 0001:0007da58       ?elementAt@?$BaseRefVectorOf@VIdentityConstraint@xercesc_3_1@@@xercesc_3_1@@QEAAPEAVIdentityConstraint@2@_K@Z 000000018007ea58 f i xerces-c_3_1:XTemplateSerializer.cpp.obj
 0001:0007da58       ?elementAt@?$BaseRefVectorOf@V?$RefHashTableOf@_WUStringHasher@xercesc_3_1@@@xercesc_3_1@@@xercesc_3_1@@QEAAPEAV?$RefHashTableOf@_WUStringHasher@xercesc_3_1@@@2@_K@Z 000000018007ea58 f i xerces-c_3_1:DOMLSSerializerImpl.cpp.obj
 0001:0007da58       ?elementAt@?$BaseRefVectorOf@VXercesLocationPath@xercesc_3_1@@@xercesc_3_1@@QEAAPEAVXercesLocationPath@2@_K@Z 000000018007ea58 f i xerces-c_3_1:XPathMatcher.cpp.obj
 0001:0007da58       ?elementAt@?$BaseRefVectorOf@VKVStringPair@xercesc_3_1@@@xercesc_3_1@@QEAAPEAVKVStringPair@2@_K@Z 000000018007ea58 f i xerces-c_3_1:IGXMLScanner.cpp.obj
 0001:0007da58       ?elementAt@?$BaseRefVectorOf@VXSFacet@xercesc_3_1@@@xercesc_3_1@@QEAAPEAVXSFacet@2@_K@Z 000000018007ea58 f i xerces-c_3_1:XSObjectFactory.cpp.obj
 0001:0007da58       ?elementAt@?$BaseRefVectorOf@VToken@xercesc_3_1@@@xercesc_3_1@@QEAAPEAVToken@2@_K@Z 000000018007ea58 f i xerces-c_3_1:UnionToken.cpp.obj
 0001:0007da58       ?elementAt@?$BaseRefVectorOf@VIC_Field@xercesc_3_1@@@xercesc_3_1@@QEAAPEAVIC_Field@2@_K@Z 000000018007ea58 f i xerces-c_3_1:XTemplateSerializer.cpp.obj
 0001:0007da58       ?elementAt@?$BaseRefVectorOf@V?$ValueStackOf@_K@xercesc_3_1@@@xercesc_3_1@@QEAAPEAV?$ValueStackOf@_K@2@_K@Z 000000018007ea58 f i xerces-c_3_1:XPathMatcher.cpp.obj
 0001:0007da58       ?elementAt@?$BaseRefVectorOf@VDOMNodeIteratorImpl@xercesc_3_1@@@xercesc_3_1@@QEAAPEAVDOMNodeIteratorImpl@2@_K@Z 000000018007ea58 f i xerces-c_3_1:DOMDocumentImpl.cpp.obj
 0001:0007da58       ?elementAt@?$BaseRefVectorOf@VSchemaInfo@xercesc_3_1@@@xercesc_3_1@@QEAAPEAVSchemaInfo@2@_K@Z 000000018007ea58 f i xerces-c_3_1:TraverseSchema.cpp.obj
 0001:0007da58       ?elementAt@?$BaseRefVectorOf@VPSVIAttributeStorage@xercesc_3_1@@@xercesc_3_1@@QEAAPEAVPSVIAttributeStorage@2@_K@Z 000000018007ea58 f i xerces-c_3_1:PSVIAttributeList.cpp.obj
 0001:0007da58       ?elementAt@?$BaseRefVectorOf@VDatatypeValidator@xercesc_3_1@@@xercesc_3_1@@QEAAPEAVDatatypeValidator@2@_K@Z 000000018007ea58 f i xerces-c_3_1:DatatypeValidatorFactory.cpp.obj
 0001:0007da58       ?elementAt@?$BaseRefVectorOf@VXSObject@xercesc_3_1@@@xercesc_3_1@@QEAAPEAVXSObject@2@_K@Z 000000018007ea58 f i xerces-c_3_1:XSModel.cpp.obj
 0001:0007da58       ?elementAt@?$BaseRefVectorOf@VXSNamespaceItem@xercesc_3_1@@@xercesc_3_1@@QEAAPEAVXSNamespaceItem@2@_K@Z 000000018007ea58 f i xerces-c_3_1:XSModel.cpp.obj
 0001:0007da58       ?elementAt@?$BaseRefVectorOf@VScope@InScopeNamespaces@DOMNormalizer@xercesc_3_1@@@xercesc_3_1@@QEAAPEAVScope@InScopeNamespaces@DOMNormalizer@2@_K@Z 000000018007ea58 f i xerces-c_3_1:DOMNormalizer.cpp.obj
 0001:0007dac4       ??0?$RefHashTableOf@UPoolElem@XMLStringPool@xercesc_3_1@@UStringHasher@3@@xercesc_3_1@@QEAA@_K_NQEAVMemoryManager@1@@Z 000000018007eac4 f i xerces-c_3_1:StringPool.cpp.obj
 0001:0007dac4       ??0?$RefHashTableOf@_WUStringHasher@xercesc_3_1@@@xercesc_3_1@@QEAA@_K_NQEAVMemoryManager@1@@Z 000000018007eac4 f i xerces-c_3_1:DOMNormalizer.cpp.obj
 0001:0007db70       ?removeKey@?$RefHashTableOf@_WUStringHasher@xercesc_3_1@@@xercesc_3_1@@QEAAXQEBX@Z 000000018007eb70 f i xerces-c_3_1:DOMNormalizer.cpp.obj
 0001:0007dce0       ?put@?$RefHashTableOf@_WUStringHasher@xercesc_3_1@@@xercesc_3_1@@QEAAXPEAXQEA_W@Z 000000018007ece0 f i xerces-c_3_1:DOMNormalizer.cpp.obj
 0001:0007dda0       ??0?$RefHashTableOfEnumerator@_WUStringHasher@xercesc_3_1@@@xercesc_3_1@@QEAA@QEAV?$RefHashTableOf@_WUStringHasher@xercesc_3_1@@@1@_NQEAVMemoryManager@1@@Z 000000018007eda0 f i xerces-c_3_1:DOMNormalizer.cpp.obj
 0001:0007de34       ??1?$RefHashTableOfEnumerator@_WUStringHasher@xercesc_3_1@@@xercesc_3_1@@UEAA@XZ 000000018007ee34 f i xerces-c_3_1:DOMNormalizer.cpp.obj
 0001:0007de7c       ?nextElementKey@?$RefHashTableOfEnumerator@_WUStringHasher@xercesc_3_1@@@xercesc_3_1@@QEAAPEAXXZ 000000018007ee7c f i xerces-c_3_1:DOMNormalizer.cpp.obj
 0001:0007de7c       ?nextElementKey@?$RefHashTableOfEnumerator@VGrammar@xercesc_3_1@@UStringHasher@2@@xercesc_3_1@@QEAAPEAXXZ 000000018007ee7c f i xerces-c_3_1:GrammarResolver.cpp.obj
 0001:0007df04       ??_E?$BaseRefVectorOf@VScope@InScopeNamespaces@DOMNormalizer@xercesc_3_1@@@xercesc_3_1@@UEAAPEAXI@Z 000000018007ef04 f i  CIL library: CIL module
 0001:0007df04       ??_G?$BaseRefVectorOf@VScope@InScopeNamespaces@DOMNormalizer@xercesc_3_1@@@xercesc_3_1@@UEAAPEAXI@Z 000000018007ef04 f i xerces-c_3_1:DOMNormalizer.cpp.obj
 0001:0007df34       ??_E?$RefVectorOf@VScope@InScopeNamespaces@DOMNormalizer@xercesc_3_1@@@xercesc_3_1@@UEAAPEAXI@Z 000000018007ef34 f i  CIL library: CIL module
 0001:0007df34       ??_G?$RefVectorOf@VScope@InScopeNamespaces@DOMNormalizer@xercesc_3_1@@@xercesc_3_1@@UEAAPEAXI@Z 000000018007ef34 f i xerces-c_3_1:DOMNormalizer.cpp.obj
 0001:0007dff8       ??_G?$RefHashTableOfEnumerator@_WUStringHasher@xercesc_3_1@@@xercesc_3_1@@UEAAPEAXI@Z 000000018007eff8 f i xerces-c_3_1:DOMNormalizer.cpp.obj
 0001:0007dff8       ??_E?$RefHashTableOfEnumerator@_WUStringHasher@xercesc_3_1@@@xercesc_3_1@@UEAAPEAXI@Z 000000018007eff8 f i  CIL library: CIL module
 0001:0007e034       ?cloneNode@DOMProcessingInstructionImpl@xercesc_3_1@@UEBAPEAVDOMNode@2@_N@Z 000000018007f034 f   xerces-c_3_1:DOMProcessingInstructionImpl.cpp.obj
 0001:0007e108       ?getAttributes@XMLSchemaDescriptionImpl@xercesc_3_1@@UEBAPEBVXMLAttDef@2@XZ 000000018007f108 f   xerces-c_3_1:XMLSchemaDescriptionImpl.cpp.obj
 0001:0007e108       ?getTarget@DOMProcessingInstructionImpl@xercesc_3_1@@UEBAPEB_WXZ 000000018007f108 f   xerces-c_3_1:DOMProcessingInstructionImpl.cpp.obj
 0001:0007e108       ?getNodeName@DOMProcessingInstructionImpl@xercesc_3_1@@UEBAPEB_WXZ 000000018007f108 f   xerces-c_3_1:DOMProcessingInstructionImpl.cpp.obj
 0001:0007e110       ?getNodeType@DOMProcessingInstructionImpl@xercesc_3_1@@UEBA?AW4NodeType@DOMNode@2@XZ 000000018007f110 f   xerces-c_3_1:DOMProcessingInstructionImpl.cpp.obj
 0001:0007e118       ?release@DOMProcessingInstructionImpl@xercesc_3_1@@UEAAXXZ 000000018007f118 f   xerces-c_3_1:DOMProcessingInstructionImpl.cpp.obj
 0001:0007e260       ?setBaseURI@DOMProcessingInstructionImpl@xercesc_3_1@@UEAAXPEB_W@Z 000000018007f260 f   xerces-c_3_1:DOMProcessingInstructionImpl.cpp.obj
 0001:0007e29c       ?getBaseURI@DOMProcessingInstructionImpl@xercesc_3_1@@UEBAPEB_WXZ 000000018007f29c f   xerces-c_3_1:DOMProcessingInstructionImpl.cpp.obj
 0001:0007e2bc       ?splitText@DOMProcessingInstructionImpl@xercesc_3_1@@QEAAPEAVDOMProcessingInstruction@2@_K@Z 000000018007f2bc f   xerces-c_3_1:DOMProcessingInstructionImpl.cpp.obj
 0001:0007e488       ?getOwnerDocument@DOMCommentImpl@xercesc_3_1@@UEBAPEAVDOMDocument@2@XZ 000000018007f488 f   xerces-c_3_1:DOMCommentImpl.cpp.obj
 0001:0007e488       ?getOwnerDocument@DOMNotationImpl@xercesc_3_1@@UEBAPEAVDOMDocument@2@XZ 000000018007f488 f   xerces-c_3_1:DOMNotationImpl.cpp.obj
 0001:0007e488       ?getOwnerDocument@DOMCDATASectionImpl@xercesc_3_1@@UEBAPEAVDOMDocument@2@XZ 000000018007f488 f   xerces-c_3_1:DOMCDATASectionImpl.cpp.obj
 0001:0007e488       ?getOwnerDocument@DOMProcessingInstructionImpl@xercesc_3_1@@UEBAPEAVDOMDocument@2@XZ 000000018007f488 f   xerces-c_3_1:DOMProcessingInstructionImpl.cpp.obj
 0001:0007e488       ?getOwnerDocument@DOMTextImpl@xercesc_3_1@@UEBAPEAVDOMDocument@2@XZ 000000018007f488 f   xerces-c_3_1:DOMTextImpl.cpp.obj
 0001:0007e494       ?setNodeValue@DOMCommentImpl@xercesc_3_1@@UEAAXPEB_W@Z 000000018007f494 f   xerces-c_3_1:DOMCommentImpl.cpp.obj
 0001:0007e494       ?setData@DOMProcessingInstructionImpl@xercesc_3_1@@UEAAXPEB_W@Z 000000018007f494 f   xerces-c_3_1:DOMProcessingInstructionImpl.cpp.obj
 0001:0007e494       ?setData@DOMCDATASectionImpl@xercesc_3_1@@UEAAXPEB_W@Z 000000018007f494 f   xerces-c_3_1:DOMCDATASectionImpl.cpp.obj
 0001:0007e494       ?setNodeValue@DOMProcessingInstructionImpl@xercesc_3_1@@UEAAXPEB_W@Z 000000018007f494 f   xerces-c_3_1:DOMProcessingInstructionImpl.cpp.obj
 0001:0007e494       ?setNodeValue@DOMCDATASectionImpl@xercesc_3_1@@UEAAXPEB_W@Z 000000018007f494 f   xerces-c_3_1:DOMCDATASectionImpl.cpp.obj
 0001:0007e494       ?setData@DOMTextImpl@xercesc_3_1@@UEAAXPEB_W@Z 000000018007f494 f   xerces-c_3_1:DOMTextImpl.cpp.obj
 0001:0007e494       ?setNodeValue@DOMTextImpl@xercesc_3_1@@UEAAXPEB_W@Z 000000018007f494 f   xerces-c_3_1:DOMTextImpl.cpp.obj
 0001:0007e494       ?setData@DOMCommentImpl@xercesc_3_1@@UEAAXPEB_W@Z 000000018007f494 f   xerces-c_3_1:DOMCommentImpl.cpp.obj
 0001:0007e4a8       ?addOrFind@XMLStringPool@xercesc_3_1@@UEAAIQEB_W@Z 000000018007f4a8 f i xerces-c_3_1:StringPool.cpp.obj
 0001:0007e4f0       ?getId@XMLStringPool@xercesc_3_1@@UEBAIQEB_W@Z 000000018007f4f0 f i xerces-c_3_1:StringPool.cpp.obj
 0001:0007e518       ?exists@XMLStringPool@xercesc_3_1@@UEBA_NQEB_W@Z 000000018007f518 f i xerces-c_3_1:StringPool.cpp.obj
 0001:0007e5e0       ?exists@XMLStringPool@xercesc_3_1@@UEBA_NI@Z 000000018007f5e0 f i xerces-c_3_1:StringPool.cpp.obj
 0001:0007e5f4       ?getValueForId@XMLStringPool@xercesc_3_1@@UEBAPEB_WI@Z 000000018007f5f4 f i xerces-c_3_1:StringPool.cpp.obj
 0001:0007e66c       ?getStringCount@XMLStringPool@xercesc_3_1@@UEBAIXZ 000000018007f66c f i xerces-c_3_1:StringPool.cpp.obj
 0001:0007e674       ??0XMLStringPool@xercesc_3_1@@QEAA@IQEAVMemoryManager@1@@Z 000000018007f674 f   xerces-c_3_1:StringPool.cpp.obj
 0001:0007e720       ??_GXMLStringPool@xercesc_3_1@@UEAAPEAXI@Z 000000018007f720 f i xerces-c_3_1:StringPool.cpp.obj
 0001:0007e720       ??_EXMLStringPool@xercesc_3_1@@UEAAPEAXI@Z 000000018007f720 f i  CIL library: CIL module
 0001:0007e75c       ??1XMLStringPool@xercesc_3_1@@UEAA@XZ 000000018007f75c f   xerces-c_3_1:StringPool.cpp.obj
 0001:0007e820       ?flushAll@XMLStringPool@xercesc_3_1@@UEAAXXZ 000000018007f820 f   xerces-c_3_1:StringPool.cpp.obj
 0001:0007e894       ?addNewEntry@XMLStringPool@xercesc_3_1@@AEAAIQEB_W@Z 000000018007f894 f   xerces-c_3_1:StringPool.cpp.obj
 0001:0007ea38       ?createObject@XMLStringPool@xercesc_3_1@@SAPEAVXSerializable@2@PEAVMemoryManager@2@@Z 000000018007fa38 f   xerces-c_3_1:StringPool.cpp.obj
 0001:0007ea7c       ?getProtoType@XMLStringPool@xercesc_3_1@@UEBAPEAVXProtoType@2@XZ 000000018007fa7c f   xerces-c_3_1:StringPool.cpp.obj
 0001:0007ea84       ?serialize@XMLStringPool@xercesc_3_1@@UEAAXAEAVXSerializeEngine@2@@Z 000000018007fa84 f   xerces-c_3_1:StringPool.cpp.obj
 0001:0007eb30       ??0XMLStringPool@xercesc_3_1@@QEAA@QEAVMemoryManager@1@@Z 000000018007fb30 f   xerces-c_3_1:StringPool.cpp.obj
 0001:0007ebe0       ?cloneNode@XSDElementNSImpl@xercesc_3_1@@UEBAPEAVDOMNode@2@_N@Z 000000018007fbe0 f   xerces-c_3_1:XSDElementNSImpl.cpp.obj
 0001:0007ec9c       ??1DOMConfiguration@xercesc_3_1@@UEAA@XZ 000000018007fc9c f i xerces-c_3_1:DOMConfigurationImpl.cpp.obj
 0001:0007eca8       ??_GDOMConfiguration@xercesc_3_1@@UEAAPEAXI@Z 000000018007fca8 f i xerces-c_3_1:DOMConfigurationImpl.cpp.obj
 0001:0007eca8       ??_EDOMConfiguration@xercesc_3_1@@UEAAPEAXI@Z 000000018007fca8 f i  CIL library: CIL module
 0001:0007ecd4       ??0DOMConfigurationImpl@xercesc_3_1@@QEAA@QEAVMemoryManager@1@@Z 000000018007fcd4 f   xerces-c_3_1:DOMConfigurationImpl.cpp.obj
 0001:0007eeb4       ??_EDOMConfigurationImpl@xercesc_3_1@@UEAAPEAXI@Z 000000018007feb4 f i  CIL library: CIL module
 0001:0007eeb4       ??_GDOMConfigurationImpl@xercesc_3_1@@UEAAPEAXI@Z 000000018007feb4 f i xerces-c_3_1:DOMConfigurationImpl.cpp.obj
 0001:0007ef1c       ?setParameter@DOMConfigurationImpl@xercesc_3_1@@UEAAXPEB_WPEBX@Z 000000018007ff1c f   xerces-c_3_1:DOMConfigurationImpl.cpp.obj
 0001:0007efe8       ?setParameter@DOMConfigurationImpl@xercesc_3_1@@UEAAXPEB_W_N@Z 000000018007ffe8 f   xerces-c_3_1:DOMConfigurationImpl.cpp.obj
 0001:0007f060       ?getParameter@DOMConfigurationImpl@xercesc_3_1@@UEBAPEBXPEB_W@Z 0000000180080060 f   xerces-c_3_1:DOMConfigurationImpl.cpp.obj
 0001:0007f0a0       ?canSetParameter@DOMConfigurationImpl@xercesc_3_1@@UEBA_NPEB_WPEBX@Z 00000001800800a0 f   xerces-c_3_1:DOMConfigurationImpl.cpp.obj
 0001:0007f0d4       ?canSetParameter@DOMConfigurationImpl@xercesc_3_1@@UEBA_NPEB_W_N@Z 00000001800800d4 f   xerces-c_3_1:DOMConfigurationImpl.cpp.obj
 0001:0007f154       ?getFeatureFlag@DOMConfigurationImpl@xercesc_3_1@@IEBA?AW4DOMConfigurationFeature@12@PEB_W@Z 0000000180080154 f   xerces-c_3_1:DOMConfigurationImpl.cpp.obj
 0001:0007f310       ??1DOMNodeList@xercesc_3_1@@UEAA@XZ 0000000180080310 f i xerces-c_3_1:DOMDeepNodeListImpl.cpp.obj
 0001:0007f31c       ??0DOMDeepNodeListImpl@xercesc_3_1@@QEAA@PEBVDOMNode@1@PEB_W@Z 000000018008031c f   xerces-c_3_1:DOMDeepNodeListImpl.cpp.obj
 0001:0007f3d4       ??_EDOMNodeList@xercesc_3_1@@UEAAPEAXI@Z 00000001800803d4 f i  CIL library: CIL module
 0001:0007f3d4       ??_EDOMDeepNodeListImpl@xercesc_3_1@@UEAAPEAXI@Z 00000001800803d4 f i  CIL library: CIL module
 0001:0007f3d4       ??_EDOMNodeListImpl@xercesc_3_1@@UEAAPEAXI@Z 00000001800803d4 f i  CIL library: CIL module
 0001:0007f3d4       ??_GDOMDeepNodeListImpl@xercesc_3_1@@UEAAPEAXI@Z 00000001800803d4 f i xerces-c_3_1:DOMDeepNodeListImpl.cpp.obj
 0001:0007f3d4       ??_GDOMNodeListImpl@xercesc_3_1@@UEAAPEAXI@Z 00000001800803d4 f i xerces-c_3_1:DOMNodeListImpl.cpp.obj
 0001:0007f3d4       ??_GDOMNodeList@xercesc_3_1@@UEAAPEAXI@Z 00000001800803d4 f i xerces-c_3_1:DOMDeepNodeListImpl.cpp.obj
 0001:0007f400       ??0DOMDeepNodeListImpl@xercesc_3_1@@QEAA@PEBVDOMNode@1@PEB_W1@Z 0000000180080400 f   xerces-c_3_1:DOMDeepNodeListImpl.cpp.obj
 0001:0007f528       ?getLength@DOMDeepNodeListImpl@xercesc_3_1@@UEBA_KXZ 0000000180080528 f   xerces-c_3_1:DOMDeepNodeListImpl.cpp.obj
 0001:0007f554       ?item@DOMDeepNodeListImpl@xercesc_3_1@@UEBAPEAVDOMNode@2@_K@Z 0000000180080554 f   xerces-c_3_1:DOMDeepNodeListImpl.cpp.obj
 0001:0007f614       ?nextMatchingElementAfter@DOMDeepNodeListImpl@xercesc_3_1@@IEAAPEAVDOMNode@2@PEAV32@@Z 0000000180080614 f   xerces-c_3_1:DOMDeepNodeListImpl.cpp.obj
 0001:0007f820       ?getLength@DOMNodeListImpl@xercesc_3_1@@UEBA_KXZ 0000000180080820 f   xerces-c_3_1:DOMNodeListImpl.cpp.obj
 0001:0007f858       ?item@DOMNodeListImpl@xercesc_3_1@@UEBAPEAVDOMNode@2@_K@Z 0000000180080858 f   xerces-c_3_1:DOMNodeListImpl.cpp.obj
 0001:0007f89c       ??_GDOMNodeIterator@xercesc_3_1@@UEAAPEAXI@Z 000000018008089c f i xerces-c_3_1:DOMNodeIteratorImpl.cpp.obj
 0001:0007f89c       ??_EDOMNodeIterator@xercesc_3_1@@UEAAPEAXI@Z 000000018008089c f i  CIL library: CIL module
 0001:0007f8c8       ??_GDOMNodeIteratorImpl@xercesc_3_1@@UEAAPEAXI@Z 00000001800808c8 f i xerces-c_3_1:DOMNodeIteratorImpl.cpp.obj
 0001:0007f8c8       ??_EDOMNodeIteratorImpl@xercesc_3_1@@UEAAPEAXI@Z 00000001800808c8 f i  CIL library: CIL module
 0001:0007f8f8       ?detach@DOMNodeIteratorImpl@xercesc_3_1@@UEAAXXZ 00000001800808f8 f   xerces-c_3_1:DOMNodeIteratorImpl.cpp.obj
 0001:0007f918       ?getStringData@DOMLSInputImpl@xercesc_3_1@@UEBAPEB_WXZ 0000000180080918 f   xerces-c_3_1:DOMLSInputImpl.cpp.obj
 0001:0007f918       ?getRoot@DOMNodeIteratorImpl@xercesc_3_1@@UEAAPEAVDOMNode@2@XZ 0000000180080918 f   xerces-c_3_1:DOMNodeIteratorImpl.cpp.obj
 0001:0007f918       ?getByteStream@DOMLSOutputImpl@xercesc_3_1@@UEBAPEAVXMLFormatTarget@2@XZ 0000000180080918 f   xerces-c_3_1:DOMLSOutputImpl.cpp.obj
 0001:0007f918       ?getLineNumber@XSDLocator@xercesc_3_1@@UEBA_KXZ 0000000180080918 f   xerces-c_3_1:XSDDOMParser.cpp.obj
 0001:0007f918       ?getLineNumber@DOMLocatorImpl@xercesc_3_1@@UEBA_KXZ 0000000180080918 f   xerces-c_3_1:DOMLocatorImpl.cpp.obj
 0001:0007f918       ?getTargetNamespace@SchemaGrammar@xercesc_3_1@@UEBAPEB_WXZ 0000000180080918 f   xerces-c_3_1:SchemaGrammar.cpp.obj
 0001:0007f918       ?getMessage@SAXException@xercesc_3_1@@UEBAPEB_WXZ 0000000180080918 f   xerces-c_3_1:XercesDOMParser.cpp.obj
 0001:0007f920       ?getSign@XMLAbstractDoubleFloat@xercesc_3_1@@UEBAHXZ 0000000180080920 f   xerces-c_3_1:XMLAbstractDoubleFloat.cpp.obj
 0001:0007f920       ?getNoParen@ParenToken@xercesc_3_1@@UEBAHXZ 0000000180080920 f   xerces-c_3_1:ParenToken.cpp.obj
 0001:0007f920       ?getChar@CharToken@xercesc_3_1@@UEBAHXZ 0000000180080920 f   xerces-c_3_1:CharToken.cpp.obj
 0001:0007f920       ?getReferenceNo@StringToken@xercesc_3_1@@UEBAHXZ 0000000180080920 f   xerces-c_3_1:StringToken.cpp.obj
 0001:0007f920       ?getMin@ClosureToken@xercesc_3_1@@UEBAHXZ 0000000180080920 f   xerces-c_3_1:ClosureToken.cpp.obj
 0001:0007f920       ?getWhatToShow@DOMNodeIteratorImpl@xercesc_3_1@@UEAAKXZ 0000000180080920 f   xerces-c_3_1:DOMNodeIteratorImpl.cpp.obj
 0001:0007f924       ?nextNode@DOMNodeIteratorImpl@xercesc_3_1@@UEAAPEAVDOMNode@2@XZ 0000000180080924 f   xerces-c_3_1:DOMNodeIteratorImpl.cpp.obj
 0001:0007f9d0       ?previousNode@DOMNodeIteratorImpl@xercesc_3_1@@UEAAPEAVDOMNode@2@XZ 00000001800809d0 f   xerces-c_3_1:DOMNodeIteratorImpl.cpp.obj
 0001:0007fa7c       ?acceptNode@DOMNodeIteratorImpl@xercesc_3_1@@IEAA_NPEAVDOMNode@2@@Z 0000000180080a7c f   xerces-c_3_1:DOMNodeIteratorImpl.cpp.obj
 0001:0007fb40       ?nextNode@DOMNodeIteratorImpl@xercesc_3_1@@IEAAPEAVDOMNode@2@PEAV32@_N@Z 0000000180080b40 f   xerces-c_3_1:DOMNodeIteratorImpl.cpp.obj
 0001:0007fc14       ?previousNode@DOMNodeIteratorImpl@xercesc_3_1@@IEAAPEAVDOMNode@2@PEAV32@@Z 0000000180080c14 f   xerces-c_3_1:DOMNodeIteratorImpl.cpp.obj
 0001:0007fce8       ?removeNode@DOMNodeIteratorImpl@xercesc_3_1@@QEAAXPEAVDOMNode@2@@Z 0000000180080ce8 f   xerces-c_3_1:DOMNodeIteratorImpl.cpp.obj
 0001:0007fdb0       ?release@DOMNodeIteratorImpl@xercesc_3_1@@UEAAXXZ 0000000180080db0 f   xerces-c_3_1:DOMNodeIteratorImpl.cpp.obj
 0001:0007fdb0       ?getGrammarKey@XMLSchemaDescriptionImpl@xercesc_3_1@@UEBAPEB_WXZ 0000000180080db0 f   xerces-c_3_1:XMLSchemaDescriptionImpl.cpp.obj
 0001:0007fdb0       ?getGrammarKey@XMLDTDDescriptionImpl@xercesc_3_1@@UEBAPEB_WXZ 0000000180080db0 f   xerces-c_3_1:XMLDTDDescriptionImpl.cpp.obj
 0001:0007fdb8       ?cloneNode@DOMDocumentFragmentImpl@xercesc_3_1@@UEBAPEAVDOMNode@2@_N@Z 0000000180080db8 f   xerces-c_3_1:DOMDocumentFragmentImpl.cpp.obj
 0001:0007fe94       ?getNodeName@DOMDocumentFragmentImpl@xercesc_3_1@@UEBAPEB_WXZ 0000000180080e94 f   xerces-c_3_1:DOMDocumentFragmentImpl.cpp.obj
 0001:0007fe9c       ?getNodeType@DOMDocumentFragmentImpl@xercesc_3_1@@UEBA?AW4NodeType@DOMNode@2@XZ 0000000180080e9c f   xerces-c_3_1:DOMDocumentFragmentImpl.cpp.obj
 0001:0007fea4       ?release@DOMDocumentFragmentImpl@xercesc_3_1@@UEAAXXZ 0000000180080ea4 f   xerces-c_3_1:DOMDocumentFragmentImpl.cpp.obj
 0001:0007ffec       ?hasChildNodes@DOMDocumentTypeImpl@xercesc_3_1@@UEBA_NXZ 0000000180080fec f   xerces-c_3_1:DOMDocumentTypeImpl.cpp.obj
 0001:0007ffec       ?hasChildNodes@DOMElementImpl@xercesc_3_1@@UEBA_NXZ 0000000180080fec f   xerces-c_3_1:DOMElementImpl.cpp.obj
 0001:0007ffec       ?hasChildNodes@DOMDocumentFragmentImpl@xercesc_3_1@@UEBA_NXZ 0000000180080fec f   xerces-c_3_1:DOMDocumentFragmentImpl.cpp.obj
 0001:0007ffec       ?hasChildNodes@DOMEntityReferenceImpl@xercesc_3_1@@UEBA_NXZ 0000000180080fec f   xerces-c_3_1:DOMEntityReferenceImpl.cpp.obj
 0001:0007ffec       ?hasChildNodes@DOMDocumentImpl@xercesc_3_1@@UEBA_NXZ 0000000180080fec f   xerces-c_3_1:DOMDocumentImpl.cpp.obj
 0001:0007ffec       ?hasChildNodes@DOMAttrImpl@xercesc_3_1@@UEBA_NXZ 0000000180080fec f   xerces-c_3_1:DOMAttrImpl.cpp.obj
 0001:0007fff8       ?setPrefix@DOMProcessingInstructionImpl@xercesc_3_1@@UEAAXPEB_W@Z 0000000180080ff8 f   xerces-c_3_1:DOMProcessingInstructionImpl.cpp.obj
 0001:0007fff8       ?setPrefix@DOMAttrImpl@xercesc_3_1@@UEAAXPEB_W@Z 0000000180080ff8 f   xerces-c_3_1:DOMAttrImpl.cpp.obj
 0001:0007fff8       ?setPrefix@DOMDocumentImpl@xercesc_3_1@@UEAAXPEB_W@Z 0000000180080ff8 f   xerces-c_3_1:DOMDocumentImpl.cpp.obj
 0001:0007fff8       ?setPrefix@DOMNotationImpl@xercesc_3_1@@UEAAXPEB_W@Z 0000000180080ff8 f   xerces-c_3_1:DOMNotationImpl.cpp.obj
 0001:0007fff8       ?setPrefix@DOMElementImpl@xercesc_3_1@@UEAAXPEB_W@Z 0000000180080ff8 f   xerces-c_3_1:DOMElementImpl.cpp.obj
 0001:0007fff8       ?setPrefix@DOMTextImpl@xercesc_3_1@@UEAAXPEB_W@Z 0000000180080ff8 f   xerces-c_3_1:DOMTextImpl.cpp.obj
 0001:0007fff8       ?setPrefix@DOMDocumentTypeImpl@xercesc_3_1@@UEAAXPEB_W@Z 0000000180080ff8 f   xerces-c_3_1:DOMDocumentTypeImpl.cpp.obj
 0001:0007fff8       ?setPrefix@DOMCommentImpl@xercesc_3_1@@UEAAXPEB_W@Z 0000000180080ff8 f   xerces-c_3_1:DOMCommentImpl.cpp.obj
 0001:0007fff8       ?setPrefix@DOMCDATASectionImpl@xercesc_3_1@@UEAAXPEB_W@Z 0000000180080ff8 f   xerces-c_3_1:DOMCDATASectionImpl.cpp.obj
 0001:0007fff8       ?setPrefix@DOMEntityReferenceImpl@xercesc_3_1@@UEAAXPEB_W@Z 0000000180080ff8 f   xerces-c_3_1:DOMEntityReferenceImpl.cpp.obj
 0001:0007fff8       ?setPrefix@DOMEntityImpl@xercesc_3_1@@UEAAXPEB_W@Z 0000000180080ff8 f   xerces-c_3_1:DOMEntityImpl.cpp.obj
 0001:0007fff8       ?setPrefix@DOMDocumentFragmentImpl@xercesc_3_1@@UEAAXPEB_W@Z 0000000180080ff8 f   xerces-c_3_1:DOMDocumentFragmentImpl.cpp.obj
 0001:00080008       ??1DOMElement@xercesc_3_1@@UEAA@XZ 0000000180081008 f i xerces-c_3_1:DOMElementImpl.cpp.obj
 0001:00080008       ??1DOMDocumentType@xercesc_3_1@@UEAA@XZ 0000000180081008 f i xerces-c_3_1:DOMDocumentTypeImpl.cpp.obj
 0001:00080008       ??1DOMDocumentFragment@xercesc_3_1@@UEAA@XZ 0000000180081008 f i xerces-c_3_1:DOMDocumentFragmentImpl.cpp.obj
 0001:00080008       ??1DOMEntityReference@xercesc_3_1@@UEAA@XZ 0000000180081008 f i xerces-c_3_1:DOMEntityReferenceImpl.cpp.obj
 0001:00080008       ??1DOMText@xercesc_3_1@@UEAA@XZ 0000000180081008 f i xerces-c_3_1:DOMTextImpl.cpp.obj
 0001:00080008       ??1DOMProcessingInstruction@xercesc_3_1@@UEAA@XZ 0000000180081008 f i xerces-c_3_1:DOMProcessingInstructionImpl.cpp.obj
 0001:00080008       ??1DOMCDATASection@xercesc_3_1@@UEAA@XZ 0000000180081008 f i xerces-c_3_1:DOMCDATASectionImpl.cpp.obj
 0001:00080008       ??1DOMComment@xercesc_3_1@@UEAA@XZ 0000000180081008 f i xerces-c_3_1:DOMCommentImpl.cpp.obj
 0001:00080008       ??1DOMEntity@xercesc_3_1@@UEAA@XZ 0000000180081008 f i xerces-c_3_1:DOMEntityImpl.cpp.obj
 0001:00080008       ??1DOMAttr@xercesc_3_1@@UEAA@XZ 0000000180081008 f i xerces-c_3_1:DOMAttrImpl.cpp.obj
 0001:00080008       ??1DOMNotation@xercesc_3_1@@UEAA@XZ 0000000180081008 f i xerces-c_3_1:DOMNotationImpl.cpp.obj
 0001:00080014       ??_GDOMCDATASectionImpl@xercesc_3_1@@UEAAPEAXI@Z 0000000180081014 f i xerces-c_3_1:DOMCDATASectionImpl.cpp.obj
 0001:00080014       ??_EDOMCommentImpl@xercesc_3_1@@UEAAPEAXI@Z 0000000180081014 f i  CIL library: CIL module
 0001:00080014       ??_GDOMCommentImpl@xercesc_3_1@@UEAAPEAXI@Z 0000000180081014 f i xerces-c_3_1:DOMCommentImpl.cpp.obj
 0001:00080014       ??_GDOMProcessingInstructionImpl@xercesc_3_1@@UEAAPEAXI@Z 0000000180081014 f i xerces-c_3_1:DOMProcessingInstructionImpl.cpp.obj
 0001:00080014       ??_EDOMNode@xercesc_3_1@@UEAAPEAXI@Z 0000000180081014 f i  CIL library: CIL module
 0001:00080014       ??_EDOMCDATASectionImpl@xercesc_3_1@@UEAAPEAXI@Z 0000000180081014 f i  CIL library: CIL module
 0001:00080014       ??_GDOMTextImpl@xercesc_3_1@@UEAAPEAXI@Z 0000000180081014 f i xerces-c_3_1:DOMTextImpl.cpp.obj
 0001:00080014       ??_EDOMTextImpl@xercesc_3_1@@UEAAPEAXI@Z 0000000180081014 f i  CIL library: CIL module
 0001:00080014       ??_GDOMNode@xercesc_3_1@@UEAAPEAXI@Z 0000000180081014 f i xerces-c_3_1:DOMDocumentImpl.cpp.obj
 0001:00080014       ??_EDOMProcessingInstructionImpl@xercesc_3_1@@UEAAPEAXI@Z 0000000180081014 f i  CIL library: CIL module
 0001:00080014       ??_EDOMNotationImpl@xercesc_3_1@@UEAAPEAXI@Z 0000000180081014 f i  CIL library: CIL module
 0001:00080014       ??_GDOMNotationImpl@xercesc_3_1@@UEAAPEAXI@Z 0000000180081014 f i xerces-c_3_1:DOMNotationImpl.cpp.obj
 0001:00080040       ?cloneNode@DOMCommentImpl@xercesc_3_1@@UEBAPEAVDOMNode@2@_N@Z 0000000180081040 f   xerces-c_3_1:DOMCommentImpl.cpp.obj
 0001:00080104       ?getNodeName@DOMCommentImpl@xercesc_3_1@@UEBAPEB_WXZ 0000000180081104 f   xerces-c_3_1:DOMCommentImpl.cpp.obj
 0001:0008010c       ?getNodeType@DOMCommentImpl@xercesc_3_1@@UEBA?AW4NodeType@DOMNode@2@XZ 000000018008110c f   xerces-c_3_1:DOMCommentImpl.cpp.obj
 0001:00080114       ?release@DOMCommentImpl@xercesc_3_1@@UEAAXXZ 0000000180081114 f   xerces-c_3_1:DOMCommentImpl.cpp.obj
 0001:00080258       ?splitText@DOMCommentImpl@xercesc_3_1@@QEAAPEAVDOMComment@2@_K@Z 0000000180081258 f   xerces-c_3_1:DOMCommentImpl.cpp.obj
 0001:00080424       ?getData@DOMTextImpl@xercesc_3_1@@UEBAPEB_WXZ 0000000180081424 f   xerces-c_3_1:DOMTextImpl.cpp.obj
 0001:00080424       ?getNodeValue@DOMProcessingInstructionImpl@xercesc_3_1@@UEBAPEB_WXZ 0000000180081424 f   xerces-c_3_1:DOMProcessingInstructionImpl.cpp.obj
 0001:00080424       ?getNodeValue@DOMTextImpl@xercesc_3_1@@UEBAPEB_WXZ 0000000180081424 f   xerces-c_3_1:DOMTextImpl.cpp.obj
 0001:00080424       ?getData@DOMProcessingInstructionImpl@xercesc_3_1@@UEBAPEB_WXZ 0000000180081424 f   xerces-c_3_1:DOMProcessingInstructionImpl.cpp.obj
 0001:00080424       ?getNodeValue@DOMCommentImpl@xercesc_3_1@@UEBAPEB_WXZ 0000000180081424 f   xerces-c_3_1:DOMCommentImpl.cpp.obj
 0001:00080424       ?getNodeValue@DOMCDATASectionImpl@xercesc_3_1@@UEBAPEB_WXZ 0000000180081424 f   xerces-c_3_1:DOMCDATASectionImpl.cpp.obj
 0001:00080424       ?getData@DOMCommentImpl@xercesc_3_1@@UEBAPEB_WXZ 0000000180081424 f   xerces-c_3_1:DOMCommentImpl.cpp.obj
 0001:00080424       ?getData@DOMCDATASectionImpl@xercesc_3_1@@UEBAPEB_WXZ 0000000180081424 f   xerces-c_3_1:DOMCDATASectionImpl.cpp.obj
 0001:0008043c       ?getPreviousSibling@DOMProcessingInstructionImpl@xercesc_3_1@@UEBAPEAVDOMNode@2@XZ 000000018008143c f   xerces-c_3_1:DOMProcessingInstructionImpl.cpp.obj
 0001:0008043c       ?getPreviousSibling@DOMCDATASectionImpl@xercesc_3_1@@UEBAPEAVDOMNode@2@XZ 000000018008143c f   xerces-c_3_1:DOMCDATASectionImpl.cpp.obj
 0001:0008043c       ?getPreviousSibling@DOMCommentImpl@xercesc_3_1@@UEBAPEAVDOMNode@2@XZ 000000018008143c f   xerces-c_3_1:DOMCommentImpl.cpp.obj
 0001:0008043c       ?getPreviousSibling@DOMTextImpl@xercesc_3_1@@UEBAPEAVDOMNode@2@XZ 000000018008143c f   xerces-c_3_1:DOMTextImpl.cpp.obj
 0001:00080450       ?setUserData@DOMTextImpl@xercesc_3_1@@UEAAPEAXPEB_WPEAXPEAVDOMUserDataHandler@2@@Z 0000000180081450 f   xerces-c_3_1:DOMTextImpl.cpp.obj
 0001:00080450       ?setUserData@DOMEntityReferenceImpl@xercesc_3_1@@UEAAPEAXPEB_WPEAXPEAVDOMUserDataHandler@2@@Z 0000000180081450 f   xerces-c_3_1:DOMEntityReferenceImpl.cpp.obj
 0001:00080450       ?setUserData@DOMDocumentFragmentImpl@xercesc_3_1@@UEAAPEAXPEB_WPEAXPEAVDOMUserDataHandler@2@@Z 0000000180081450 f   xerces-c_3_1:DOMDocumentFragmentImpl.cpp.obj
 0001:00080450       ?setUserData@DOMEntityImpl@xercesc_3_1@@UEAAPEAXPEB_WPEAXPEAVDOMUserDataHandler@2@@Z 0000000180081450 f   xerces-c_3_1:DOMEntityImpl.cpp.obj
 0001:00080450       ?setUserData@DOMElementImpl@xercesc_3_1@@UEAAPEAXPEB_WPEAXPEAVDOMUserDataHandler@2@@Z 0000000180081450 f   xerces-c_3_1:DOMElementImpl.cpp.obj
 0001:00080450       ?setUserData@DOMCommentImpl@xercesc_3_1@@UEAAPEAXPEB_WPEAXPEAVDOMUserDataHandler@2@@Z 0000000180081450 f   xerces-c_3_1:DOMCommentImpl.cpp.obj
 0001:00080450       ?setUserData@DOMAttrImpl@xercesc_3_1@@UEAAPEAXPEB_WPEAXPEAVDOMUserDataHandler@2@@Z 0000000180081450 f   xerces-c_3_1:DOMAttrImpl.cpp.obj
 0001:00080450       ?setUserData@DOMDocumentTypeImpl@xercesc_3_1@@UEAAPEAXPEB_WPEAXPEAVDOMUserDataHandler@2@@Z 0000000180081450 f   xerces-c_3_1:DOMDocumentTypeImpl.cpp.obj
 0001:00080450       ?setUserData@DOMNotationImpl@xercesc_3_1@@UEAAPEAXPEB_WPEAXPEAVDOMUserDataHandler@2@@Z 0000000180081450 f   xerces-c_3_1:DOMNotationImpl.cpp.obj
 0001:00080450       ?setUserData@DOMDocumentImpl@xercesc_3_1@@UEAAPEAXPEB_WPEAXPEAVDOMUserDataHandler@2@@Z 0000000180081450 f   xerces-c_3_1:DOMDocumentImpl.cpp.obj
 0001:00080450       ?setUserData@DOMCDATASectionImpl@xercesc_3_1@@UEAAPEAXPEB_WPEAXPEAVDOMUserDataHandler@2@@Z 0000000180081450 f   xerces-c_3_1:DOMCDATASectionImpl.cpp.obj
 0001:00080450       ?setUserData@DOMProcessingInstructionImpl@xercesc_3_1@@UEAAPEAXPEB_WPEAXPEAVDOMUserDataHandler@2@@Z 0000000180081450 f   xerces-c_3_1:DOMProcessingInstructionImpl.cpp.obj
 0001:0008045c       ?getLength@DOMTextImpl@xercesc_3_1@@UEBA_KXZ 000000018008145c f   xerces-c_3_1:DOMTextImpl.cpp.obj
 0001:0008045c       ?getName@XSIDCDefinition@xercesc_3_1@@UEBAPEB_WXZ 000000018008145c f   xerces-c_3_1:XSIDCDefinition.cpp.obj
 0001:0008045c       ?getLength@DOMCDATASectionImpl@xercesc_3_1@@UEBA_KXZ 000000018008145c f   xerces-c_3_1:DOMCDATASectionImpl.cpp.obj
 0001:0008045c       ?getLength@DOMCommentImpl@xercesc_3_1@@UEBA_KXZ 000000018008145c f   xerces-c_3_1:DOMCommentImpl.cpp.obj
 0001:00080468       ?substringData@DOMCommentImpl@xercesc_3_1@@UEBAPEB_W_K0@Z 0000000180081468 f   xerces-c_3_1:DOMCommentImpl.cpp.obj
 0001:00080468       ?substringData@DOMCDATASectionImpl@xercesc_3_1@@UEBAPEB_W_K0@Z 0000000180081468 f   xerces-c_3_1:DOMCDATASectionImpl.cpp.obj
 0001:00080468       ?substringData@DOMTextImpl@xercesc_3_1@@UEBAPEB_W_K0@Z 0000000180081468 f   xerces-c_3_1:DOMTextImpl.cpp.obj
 0001:00080480       ?appendData@DOMCDATASectionImpl@xercesc_3_1@@UEAAXPEB_W@Z 0000000180081480 f   xerces-c_3_1:DOMCDATASectionImpl.cpp.obj
 0001:00080480       ?appendData@DOMCommentImpl@xercesc_3_1@@UEAAXPEB_W@Z 0000000180081480 f   xerces-c_3_1:DOMCommentImpl.cpp.obj
 0001:00080480       ?appendData@DOMTextImpl@xercesc_3_1@@UEAAXPEB_W@Z 0000000180081480 f   xerces-c_3_1:DOMTextImpl.cpp.obj
 0001:00080494       ?cloneNode@DOMNotationImpl@xercesc_3_1@@UEBAPEAVDOMNode@2@_N@Z 0000000180081494 f   xerces-c_3_1:DOMNotationImpl.cpp.obj
 0001:00080564       ?getNodeType@DOMNotationImpl@xercesc_3_1@@UEBA?AW4NodeType@DOMNode@2@XZ 0000000180081564 f   xerces-c_3_1:DOMNotationImpl.cpp.obj
 0001:0008056c       ?setPublicId@DOMNotationImpl@xercesc_3_1@@UEAAXPEB_W@Z 000000018008156c f   xerces-c_3_1:DOMNotationImpl.cpp.obj
 0001:00080618       ?setSystemId@DOMNotationImpl@xercesc_3_1@@UEAAXPEB_W@Z 0000000180081618 f   xerces-c_3_1:DOMNotationImpl.cpp.obj
 0001:000806c4       ?release@DOMNotationImpl@xercesc_3_1@@UEAAXXZ 00000001800816c4 f   xerces-c_3_1:DOMNotationImpl.cpp.obj
 0001:00080800       ?setBaseURI@DOMNotationImpl@xercesc_3_1@@UEAAXPEB_W@Z 0000000180081800 f   xerces-c_3_1:DOMNotationImpl.cpp.obj
 0001:0008087c       ?appendChild@DOMCDATASectionImpl@xercesc_3_1@@UEAAPEAVDOMNode@2@PEAV32@@Z 000000018008187c f   xerces-c_3_1:DOMCDATASectionImpl.cpp.obj
 0001:0008087c       ?replaceChild@DOMProcessingInstructionImpl@xercesc_3_1@@UEAAPEAVDOMNode@2@PEAV32@0@Z 000000018008187c f   xerces-c_3_1:DOMProcessingInstructionImpl.cpp.obj
 0001:0008087c       ?appendChild@DOMProcessingInstructionImpl@xercesc_3_1@@UEAAPEAVDOMNode@2@PEAV32@@Z 000000018008187c f   xerces-c_3_1:DOMProcessingInstructionImpl.cpp.obj
 0001:0008087c       ?replaceChild@DOMCDATASectionImpl@xercesc_3_1@@UEAAPEAVDOMNode@2@PEAV32@0@Z 000000018008187c f   xerces-c_3_1:DOMCDATASectionImpl.cpp.obj
 0001:0008087c       ?insertBefore@DOMProcessingInstructionImpl@xercesc_3_1@@UEAAPEAVDOMNode@2@PEAV32@0@Z 000000018008187c f   xerces-c_3_1:DOMProcessingInstructionImpl.cpp.obj
 0001:0008087c       ?replaceChild@DOMCommentImpl@xercesc_3_1@@UEAAPEAVDOMNode@2@PEAV32@0@Z 000000018008187c f   xerces-c_3_1:DOMCommentImpl.cpp.obj
 0001:0008087c       ?appendChild@DOMNotationImpl@xercesc_3_1@@UEAAPEAVDOMNode@2@PEAV32@@Z 000000018008187c f   xerces-c_3_1:DOMNotationImpl.cpp.obj
 0001:0008087c       ?replaceChild@DOMTextImpl@xercesc_3_1@@UEAAPEAVDOMNode@2@PEAV32@0@Z 000000018008187c f   xerces-c_3_1:DOMTextImpl.cpp.obj
 0001:0008087c       ?appendChild@DOMCommentImpl@xercesc_3_1@@UEAAPEAVDOMNode@2@PEAV32@@Z 000000018008187c f   xerces-c_3_1:DOMCommentImpl.cpp.obj
 0001:0008087c       ?insertBefore@DOMTextImpl@xercesc_3_1@@UEAAPEAVDOMNode@2@PEAV32@0@Z 000000018008187c f   xerces-c_3_1:DOMTextImpl.cpp.obj
 0001:0008087c       ?replaceChild@DOMNotationImpl@xercesc_3_1@@UEAAPEAVDOMNode@2@PEAV32@0@Z 000000018008187c f   xerces-c_3_1:DOMNotationImpl.cpp.obj
 0001:0008087c       ?insertBefore@DOMCDATASectionImpl@xercesc_3_1@@UEAAPEAVDOMNode@2@PEAV32@0@Z 000000018008187c f   xerces-c_3_1:DOMCDATASectionImpl.cpp.obj
 0001:0008087c       ?insertBefore@DOMNotationImpl@xercesc_3_1@@UEAAPEAVDOMNode@2@PEAV32@0@Z 000000018008187c f   xerces-c_3_1:DOMNotationImpl.cpp.obj
 0001:0008087c       ?appendChild@DOMTextImpl@xercesc_3_1@@UEAAPEAVDOMNode@2@PEAV32@@Z 000000018008187c f   xerces-c_3_1:DOMTextImpl.cpp.obj
 0001:0008087c       ?insertBefore@DOMCommentImpl@xercesc_3_1@@UEAAPEAVDOMNode@2@PEAV32@0@Z 000000018008187c f   xerces-c_3_1:DOMCommentImpl.cpp.obj
 0001:0008088c       ?removeChild@DOMTextImpl@xercesc_3_1@@UEAAPEAVDOMNode@2@PEAV32@@Z 000000018008188c f   xerces-c_3_1:DOMTextImpl.cpp.obj
 0001:0008088c       ?removeChild@DOMCommentImpl@xercesc_3_1@@UEAAPEAVDOMNode@2@PEAV32@@Z 000000018008188c f   xerces-c_3_1:DOMCommentImpl.cpp.obj
 0001:0008088c       ?removeChild@DOMProcessingInstructionImpl@xercesc_3_1@@UEAAPEAVDOMNode@2@PEAV32@@Z 000000018008188c f   xerces-c_3_1:DOMProcessingInstructionImpl.cpp.obj
 0001:0008088c       ?removeChild@DOMCDATASectionImpl@xercesc_3_1@@UEAAPEAVDOMNode@2@PEAV32@@Z 000000018008188c f   xerces-c_3_1:DOMCDATASectionImpl.cpp.obj
 0001:0008088c       ?removeChild@DOMNotationImpl@xercesc_3_1@@UEAAPEAVDOMNode@2@PEAV32@@Z 000000018008188c f   xerces-c_3_1:DOMNotationImpl.cpp.obj
 0001:0008089c       ?setTextContent@DOMElementImpl@xercesc_3_1@@UEAAXPEB_W@Z 000000018008189c f   xerces-c_3_1:DOMElementImpl.cpp.obj
 0001:0008089c       ?setTextContent@DOMNotationImpl@xercesc_3_1@@UEAAXPEB_W@Z 000000018008189c f   xerces-c_3_1:DOMNotationImpl.cpp.obj
 0001:0008089c       ?setTextContent@DOMDocumentImpl@xercesc_3_1@@UEAAXPEB_W@Z 000000018008189c f   xerces-c_3_1:DOMDocumentImpl.cpp.obj
 0001:0008089c       ?setTextContent@DOMCommentImpl@xercesc_3_1@@UEAAXPEB_W@Z 000000018008189c f   xerces-c_3_1:DOMCommentImpl.cpp.obj
 0001:0008089c       ?setTextContent@DOMEntityImpl@xercesc_3_1@@UEAAXPEB_W@Z 000000018008189c f   xerces-c_3_1:DOMEntityImpl.cpp.obj
 0001:0008089c       ?setTextContent@DOMEntityReferenceImpl@xercesc_3_1@@UEAAXPEB_W@Z 000000018008189c f   xerces-c_3_1:DOMEntityReferenceImpl.cpp.obj
 0001:0008089c       ?setTextContent@DOMDocumentFragmentImpl@xercesc_3_1@@UEAAXPEB_W@Z 000000018008189c f   xerces-c_3_1:DOMDocumentFragmentImpl.cpp.obj
 0001:0008089c       ?setTextContent@DOMCDATASectionImpl@xercesc_3_1@@UEAAXPEB_W@Z 000000018008189c f   xerces-c_3_1:DOMCDATASectionImpl.cpp.obj
 0001:0008089c       ?setTextContent@DOMProcessingInstructionImpl@xercesc_3_1@@UEAAXPEB_W@Z 000000018008189c f   xerces-c_3_1:DOMProcessingInstructionImpl.cpp.obj
 0001:0008089c       ?setTextContent@DOMTextImpl@xercesc_3_1@@UEAAXPEB_W@Z 000000018008189c f   xerces-c_3_1:DOMTextImpl.cpp.obj
 0001:0008089c       ?setTextContent@DOMDocumentTypeImpl@xercesc_3_1@@UEAAXPEB_W@Z 000000018008189c f   xerces-c_3_1:DOMDocumentTypeImpl.cpp.obj
 0001:0008089c       ?setTextContent@DOMAttrImpl@xercesc_3_1@@UEAAXPEB_W@Z 000000018008189c f   xerces-c_3_1:DOMAttrImpl.cpp.obj
 0001:000808a8       ?isDefaultNamespace@DOMCommentImpl@xercesc_3_1@@UEBA_NPEB_W@Z 00000001800818a8 f   xerces-c_3_1:DOMCommentImpl.cpp.obj
 0001:000808a8       ?isDefaultNamespace@DOMEntityReferenceImpl@xercesc_3_1@@UEBA_NPEB_W@Z 00000001800818a8 f   xerces-c_3_1:DOMEntityReferenceImpl.cpp.obj
 0001:000808a8       ?isDefaultNamespace@DOMAttrImpl@xercesc_3_1@@UEBA_NPEB_W@Z 00000001800818a8 f   xerces-c_3_1:DOMAttrImpl.cpp.obj
 0001:000808a8       ?isDefaultNamespace@DOMProcessingInstructionImpl@xercesc_3_1@@UEBA_NPEB_W@Z 00000001800818a8 f   xerces-c_3_1:DOMProcessingInstructionImpl.cpp.obj
 0001:000808a8       ?isDefaultNamespace@DOMTextImpl@xercesc_3_1@@UEBA_NPEB_W@Z 00000001800818a8 f   xerces-c_3_1:DOMTextImpl.cpp.obj
 0001:000808a8       ?isDefaultNamespace@DOMDocumentFragmentImpl@xercesc_3_1@@UEBA_NPEB_W@Z 00000001800818a8 f   xerces-c_3_1:DOMDocumentFragmentImpl.cpp.obj
 0001:000808a8       ?isDefaultNamespace@DOMCDATASectionImpl@xercesc_3_1@@UEBA_NPEB_W@Z 00000001800818a8 f   xerces-c_3_1:DOMCDATASectionImpl.cpp.obj
 0001:000808a8       ?isDefaultNamespace@DOMElementImpl@xercesc_3_1@@UEBA_NPEB_W@Z 00000001800818a8 f   xerces-c_3_1:DOMElementImpl.cpp.obj
 0001:000808a8       ?isDefaultNamespace@DOMDocumentTypeImpl@xercesc_3_1@@UEBA_NPEB_W@Z 00000001800818a8 f   xerces-c_3_1:DOMDocumentTypeImpl.cpp.obj
 0001:000808a8       ?isDefaultNamespace@DOMNotationImpl@xercesc_3_1@@UEBA_NPEB_W@Z 00000001800818a8 f   xerces-c_3_1:DOMNotationImpl.cpp.obj
 0001:000808a8       ?isDefaultNamespace@DOMDocumentImpl@xercesc_3_1@@UEBA_NPEB_W@Z 00000001800818a8 f   xerces-c_3_1:DOMDocumentImpl.cpp.obj
 0001:000808a8       ?isDefaultNamespace@DOMEntityImpl@xercesc_3_1@@UEBA_NPEB_W@Z 00000001800818a8 f   xerces-c_3_1:DOMEntityImpl.cpp.obj
 0001:000808b4       ??1DOMXPathExpression@xercesc_3_1@@UEAA@XZ 00000001800818b4 f i xerces-c_3_1:DOMXPathExpressionImpl.cpp.obj
 0001:000808c0       ??_GDOMXPathExpression@xercesc_3_1@@UEAAPEAXI@Z 00000001800818c0 f i xerces-c_3_1:DOMXPathExpressionImpl.cpp.obj
 0001:000808c0       ??_EDOMXPathExpression@xercesc_3_1@@UEAAPEAXI@Z 00000001800818c0 f i  CIL library: CIL module
 0001:000808ec       ?getNamespaceForPrefix@WrapperForXPathNSResolver@xercesc_3_1@@UEBAIQEB_W@Z 00000001800818ec f i xerces-c_3_1:DOMXPathExpressionImpl.cpp.obj
 0001:0008096c       ??0DOMXPathExpressionImpl@xercesc_3_1@@QEAA@PEB_WPEBVDOMXPathNSResolver@1@QEAVMemoryManager@1@@Z 000000018008196c f   xerces-c_3_1:DOMXPathExpressionImpl.cpp.obj
 0001:00080b84       ??_EDOMXPathExpressionImpl@xercesc_3_1@@UEAAPEAXI@Z 0000000180081b84 f i  CIL library: CIL module
 0001:00080b84       ??_GDOMXPathExpressionImpl@xercesc_3_1@@UEAAPEAXI@Z 0000000180081b84 f i xerces-c_3_1:DOMXPathExpressionImpl.cpp.obj
 0001:00080bc0       ??1DOMXPathExpressionImpl@xercesc_3_1@@UEAA@XZ 0000000180081bc0 f   xerces-c_3_1:DOMXPathExpressionImpl.cpp.obj
 0001:00080bf8       ?cleanUp@DOMXPathExpressionImpl@xercesc_3_1@@IEAAXXZ 0000000180081bf8 f   xerces-c_3_1:DOMXPathExpressionImpl.cpp.obj
 0001:00080c40       ?evaluate@DOMXPathExpressionImpl@xercesc_3_1@@UEBAPEAVDOMXPathResult@2@PEBVDOMNode@2@W4ResultType@32@PEAV32@@Z 0000000180081c40 f   xerces-c_3_1:DOMXPathExpressionImpl.cpp.obj
 0001:00080f50       ?testNode@DOMXPathExpressionImpl@xercesc_3_1@@IEBA_NPEAVXPathMatcher@2@PEAVDOMXPathResultImpl@2@PEAVDOMElement@2@@Z 0000000180081f50 f   xerces-c_3_1:DOMXPathExpressionImpl.cpp.obj
 0001:000812c0       ??_9DOMXPathResultImpl@xercesc_3_1@@$BGI@AA 00000001800822c0 f i xerces-c_3_1:DOMXPathExpressionImpl.cpp.obj
 0001:000812c8       ??_EDOMRange@xercesc_3_1@@UEAAPEAXI@Z 00000001800822c8 f i  CIL library: CIL module
 0001:000812c8       ??_GDOMRangeImpl@xercesc_3_1@@UEAAPEAXI@Z 00000001800822c8 f i xerces-c_3_1:DOMRangeImpl.cpp.obj
 0001:000812c8       ??_EDOMRangeImpl@xercesc_3_1@@UEAAPEAXI@Z 00000001800822c8 f i  CIL library: CIL module
 0001:000812c8       ??_GDOMRange@xercesc_3_1@@UEAAPEAXI@Z 00000001800822c8 f i xerces-c_3_1:DOMRangeImpl.cpp.obj
 0001:000812f4       ?getStartContainer@DOMRangeImpl@xercesc_3_1@@UEBAPEAVDOMNode@2@XZ 00000001800822f4 f   xerces-c_3_1:DOMRangeImpl.cpp.obj
 0001:00081330       ?getStartOffset@DOMRangeImpl@xercesc_3_1@@UEBA_KXZ 0000000180082330 f   xerces-c_3_1:DOMRangeImpl.cpp.obj
 0001:0008136c       ?getEndContainer@DOMRangeImpl@xercesc_3_1@@UEBAPEAVDOMNode@2@XZ 000000018008236c f   xerces-c_3_1:DOMRangeImpl.cpp.obj
 0001:000813a8       ?getEndOffset@DOMRangeImpl@xercesc_3_1@@UEBA_KXZ 00000001800823a8 f   xerces-c_3_1:DOMRangeImpl.cpp.obj
 0001:000813e4       ?getCollapsed@DOMRangeImpl@xercesc_3_1@@UEBA_NXZ 00000001800823e4 f   xerces-c_3_1:DOMRangeImpl.cpp.obj
 0001:00081438       ?setStart@DOMRangeImpl@xercesc_3_1@@UEAAXPEBVDOMNode@2@_K@Z 0000000180082438 f   xerces-c_3_1:DOMRangeImpl.cpp.obj
 0001:0008152c       ?setEnd@DOMRangeImpl@xercesc_3_1@@UEAAXPEBVDOMNode@2@_K@Z 000000018008252c f   xerces-c_3_1:DOMRangeImpl.cpp.obj
 0001:00081620       ?setStartBefore@DOMRangeImpl@xercesc_3_1@@UEAAXPEBVDOMNode@2@@Z 0000000180082620 f   xerces-c_3_1:DOMRangeImpl.cpp.obj
 0001:000817b0       ?setStartAfter@DOMRangeImpl@xercesc_3_1@@UEAAXPEBVDOMNode@2@@Z 00000001800827b0 f   xerces-c_3_1:DOMRangeImpl.cpp.obj
 0001:00081930       ?setEndBefore@DOMRangeImpl@xercesc_3_1@@UEAAXPEBVDOMNode@2@@Z 0000000180082930 f   xerces-c_3_1:DOMRangeImpl.cpp.obj
 0001:00081abc       ?setEndAfter@DOMRangeImpl@xercesc_3_1@@UEAAXPEBVDOMNode@2@@Z 0000000180082abc f   xerces-c_3_1:DOMRangeImpl.cpp.obj
 0001:00081c3c       ?detach@DOMRangeImpl@xercesc_3_1@@UEAAXXZ 0000000180082c3c f   xerces-c_3_1:DOMRangeImpl.cpp.obj
 0001:00081cb4       ?collapse@DOMRangeImpl@xercesc_3_1@@UEAAX_N@Z 0000000180082cb4 f   xerces-c_3_1:DOMRangeImpl.cpp.obj
 0001:00081d14       ?selectNode@DOMRangeImpl@xercesc_3_1@@UEAAXPEBVDOMNode@2@@Z 0000000180082d14 f   xerces-c_3_1:DOMRangeImpl.cpp.obj
 0001:00081e44       ?selectNodeContents@DOMRangeImpl@xercesc_3_1@@UEAAXPEBVDOMNode@2@@Z 0000000180082e44 f   xerces-c_3_1:DOMRangeImpl.cpp.obj
 0001:00081f0c       ?surroundContents@DOMRangeImpl@xercesc_3_1@@UEAAXPEAVDOMNode@2@@Z 0000000180082f0c f   xerces-c_3_1:DOMRangeImpl.cpp.obj
 0001:000820d4       ?compareBoundaryPoints@DOMRangeImpl@xercesc_3_1@@UEBAFW4CompareHow@DOMRange@2@PEBV42@@Z 00000001800830d4 f   xerces-c_3_1:DOMRangeImpl.cpp.obj
 0001:0008237c       ?deleteContents@DOMRangeImpl@xercesc_3_1@@UEAAXXZ 000000018008337c f   xerces-c_3_1:DOMRangeImpl.cpp.obj
 0001:00082388       ?extractContents@DOMRangeImpl@xercesc_3_1@@UEAAPEAVDOMDocumentFragment@2@XZ 0000000180083388 f   xerces-c_3_1:DOMRangeImpl.cpp.obj
 0001:00082528       ?cloneContents@DOMRangeImpl@xercesc_3_1@@UEBAPEAVDOMDocumentFragment@2@XZ 0000000180083528 f   xerces-c_3_1:DOMRangeImpl.cpp.obj
 0001:00082534       ?insertNode@DOMRangeImpl@xercesc_3_1@@UEAAXPEAVDOMNode@2@@Z 0000000180083534 f   xerces-c_3_1:DOMRangeImpl.cpp.obj
 0001:00082780       ?cloneRange@DOMRangeImpl@xercesc_3_1@@UEBAPEAVDOMRange@2@XZ 0000000180083780 f   xerces-c_3_1:DOMRangeImpl.cpp.obj
 0001:000827fc       ?toString@DOMRangeImpl@xercesc_3_1@@UEBAPEB_WXZ 00000001800837fc f   xerces-c_3_1:DOMRangeImpl.cpp.obj
 0001:00082d7c       ?getCommonAncestorContainer@DOMRangeImpl@xercesc_3_1@@UEBAPEBVDOMNode@2@XZ 0000000180083d7c f   xerces-c_3_1:DOMRangeImpl.cpp.obj
 0001:00082d8c       ?release@DOMRangeImpl@xercesc_3_1@@UEAAXXZ 0000000180083d8c f   xerces-c_3_1:DOMRangeImpl.cpp.obj
 0001:00082d98       ?hasLegalRootContainer@DOMRangeImpl@xercesc_3_1@@IEBA_NPEBVDOMNode@2@@Z 0000000180083d98 f   xerces-c_3_1:DOMRangeImpl.cpp.obj
 0001:00082de4       ?isLegalContainedNode@DOMRangeImpl@xercesc_3_1@@IEBA_NPEBVDOMNode@2@@Z 0000000180083de4 f   xerces-c_3_1:DOMRangeImpl.cpp.obj
 0001:00082e18       ?indexOf@DOMRangeImpl@xercesc_3_1@@IEBA_KPEBVDOMNode@2@0@Z 0000000180083e18 f   xerces-c_3_1:DOMRangeImpl.cpp.obj
 0001:00082e70       ?validateNode@DOMRangeImpl@xercesc_3_1@@IEBAXPEBVDOMNode@2@@Z 0000000180083e70 f   xerces-c_3_1:DOMRangeImpl.cpp.obj
 0001:00082f20       ?commonAncestorOf@DOMRangeImpl@xercesc_3_1@@IEBAPEBVDOMNode@2@PEBV32@0@Z 0000000180083f20 f   xerces-c_3_1:DOMRangeImpl.cpp.obj
 0001:000830f8       ?checkIndex@DOMRangeImpl@xercesc_3_1@@IEBAXPEBVDOMNode@2@_K@Z 00000001800840f8 f   xerces-c_3_1:DOMRangeImpl.cpp.obj
 0001:000831f8       ?nextNode@DOMRangeImpl@xercesc_3_1@@IEBAPEAVDOMNode@2@PEBV32@_N@Z 00000001800841f8 f   xerces-c_3_1:DOMRangeImpl.cpp.obj
 0001:00083260       ?traverseContents@DOMRangeImpl@xercesc_3_1@@IEAAPEAVDOMDocumentFragment@2@W4TraversalType@12@@Z 0000000180084260 f   xerces-c_3_1:DOMRangeImpl.cpp.obj
 0001:000834c8       ?traverseSameContainer@DOMRangeImpl@xercesc_3_1@@IEAAPEAVDOMDocumentFragment@2@H@Z 00000001800844c8 f   xerces-c_3_1:DOMRangeImpl.cpp.obj
 0001:000836f0       ?traverseCommonStartContainer@DOMRangeImpl@xercesc_3_1@@IEAAPEAVDOMDocumentFragment@2@PEAVDOMNode@2@H@Z 00000001800846f0 f   xerces-c_3_1:DOMRangeImpl.cpp.obj
 0001:000837f0       ?traverseCommonEndContainer@DOMRangeImpl@xercesc_3_1@@IEAAPEAVDOMDocumentFragment@2@PEAVDOMNode@2@H@Z 00000001800847f0 f   xerces-c_3_1:DOMRangeImpl.cpp.obj
 0001:000838e8       ?traverseRightBoundary@DOMRangeImpl@xercesc_3_1@@IEAAPEAVDOMNode@2@PEAV32@H@Z 00000001800848e8 f   xerces-c_3_1:DOMRangeImpl.cpp.obj
 0001:00083a40       ?traverseLeftBoundary@DOMRangeImpl@xercesc_3_1@@IEAAPEAVDOMNode@2@PEAV32@H@Z 0000000180084a40 f   xerces-c_3_1:DOMRangeImpl.cpp.obj
 0001:00083ba8       ?traverseNode@DOMRangeImpl@xercesc_3_1@@IEAAPEAVDOMNode@2@PEAV32@_N1H@Z 0000000180084ba8 f   xerces-c_3_1:DOMRangeImpl.cpp.obj
 0001:00083c48       ?traverseFullySelected@DOMRangeImpl@xercesc_3_1@@IEAAPEAVDOMNode@2@PEAV32@H@Z 0000000180084c48 f   xerces-c_3_1:DOMRangeImpl.cpp.obj
 0001:00083c8c       ?traverseTextNode@DOMRangeImpl@xercesc_3_1@@IEAAPEAVDOMNode@2@PEAV32@_NH@Z 0000000180084c8c f   xerces-c_3_1:DOMRangeImpl.cpp.obj
 0001:0008410c       ?getSelectedNode@DOMRangeImpl@xercesc_3_1@@IEAAPEAVDOMNode@2@PEAV32@H@Z 000000018008510c f   xerces-c_3_1:DOMRangeImpl.cpp.obj
 0001:00084174       ?recurseTreeAndCheck@DOMRangeImpl@xercesc_3_1@@IEAAXPEAVDOMNode@2@0@Z 0000000180085174 f   xerces-c_3_1:DOMRangeImpl.cpp.obj
 0001:00084244       ?updateRangeForDeletedText@DOMRangeImpl@xercesc_3_1@@QEAAXPEAVDOMNode@2@_K1@Z 0000000180085244 f   xerces-c_3_1:DOMRangeImpl.cpp.obj
 0001:0008431c       ?updateRangeForDeletedNode@DOMRangeImpl@xercesc_3_1@@QEAAXPEAVDOMNode@2@@Z 000000018008531c f   xerces-c_3_1:DOMRangeImpl.cpp.obj
 0001:000844a0       ?updateSplitInfo@DOMRangeImpl@xercesc_3_1@@QEAAXPEAVDOMNode@2@0_K@Z 00000001800854a0 f   xerces-c_3_1:DOMRangeImpl.cpp.obj
 0001:00084558       ??6xercesc_3_1@@YAAEAVXSerializeEngine@0@AEAV10@QEAVXSerializable@0@@Z 0000000180085558 f i xerces-c_3_1:ComplexTypeInfo.cpp.obj
 0001:00084644       ??1XMLContentModel@xercesc_3_1@@UEAA@XZ 0000000180085644 f i xerces-c_3_1:ComplexTypeInfo.cpp.obj
 0001:00084650       ??_GXMLContentModel@xercesc_3_1@@UEAAPEAXI@Z 0000000180085650 f i xerces-c_3_1:ComplexTypeInfo.cpp.obj
 0001:00084650       ??_EXMLContentModel@xercesc_3_1@@UEAAPEAXI@Z 0000000180085650 f i  CIL library: CIL module
 0001:00084680       ?setTypeName@ComplexTypeInfo@xercesc_3_1@@QEAAXQEB_W@Z 0000000180085680 f i xerces-c_3_1:ComplexTypeInfo.cpp.obj
 0001:000847e8       ??_EContentSpecNode@xercesc_3_1@@UEAAPEAXI@Z 00000001800857e8 f i  CIL library: CIL module
 0001:000847e8       ??_GContentSpecNode@xercesc_3_1@@UEAAPEAXI@Z 00000001800857e8 f i xerces-c_3_1:ComplexTypeInfo.cpp.obj
 0001:00084880       ??1ContentSpecNode@xercesc_3_1@@UEAA@XZ 0000000180085880 f i xerces-c_3_1:ComplexTypeInfo.cpp.obj
 0001:000848f8       ??0SimpleContentModel@xercesc_3_1@@QEAA@_NQEAVQName@1@1W4NodeTypes@ContentSpecNode@1@QEAVMemoryManager@1@@Z 00000001800858f8 f i xerces-c_3_1:ComplexTypeInfo.cpp.obj
 0001:00084a30       ??_GSimpleContentModel@xercesc_3_1@@UEAAPEAXI@Z 0000000180085a30 f i xerces-c_3_1:ComplexTypeInfo.cpp.obj
 0001:00084a30       ??_ESimpleContentModel@xercesc_3_1@@UEAAPEAXI@Z 0000000180085a30 f i  CIL library: CIL module
 0001:00084aac       ?initializeComplexTypeInfo@XMLInitializer@xercesc_3_1@@CAXXZ 0000000180085aac f   xerces-c_3_1:ComplexTypeInfo.cpp.obj
 0001:00084d18       ??0ComplexTypeInfo@xercesc_3_1@@QEAA@QEAVMemoryManager@1@@Z 0000000180085d18 f   xerces-c_3_1:ComplexTypeInfo.cpp.obj
 0001:00084ebc       ??_EComplexTypeInfo@xercesc_3_1@@UEAAPEAXI@Z 0000000180085ebc f i  CIL library: CIL module
 0001:00084ebc       ??_GComplexTypeInfo@xercesc_3_1@@UEAAPEAXI@Z 0000000180085ebc f i xerces-c_3_1:ComplexTypeInfo.cpp.obj
 0001:00084ff8       ??_G?$RefHash2KeysTableOf@VSchemaAttDef@xercesc_3_1@@UStringHasher@2@@xercesc_3_1@@QEAAPEAXI@Z 0000000180085ff8 f i xerces-c_3_1:ComplexTypeInfo.cpp.obj
 0001:000850ac       ?addAttDef@ComplexTypeInfo@xercesc_3_1@@QEAAXQEAVSchemaAttDef@2@@Z 00000001800860ac f   xerces-c_3_1:ComplexTypeInfo.cpp.obj
 0001:00085150       ?setContentSpec@ComplexTypeInfo@xercesc_3_1@@QEAAXQEAVContentSpecNode@2@@Z 0000000180086150 f   xerces-c_3_1:ComplexTypeInfo.cpp.obj
 0001:00085188       ?formatContentModel@ComplexTypeInfo@xercesc_3_1@@AEBAPEA_WXZ 0000000180086188 f   xerces-c_3_1:ComplexTypeInfo.cpp.obj
 0001:000852f4       ?useRepeatingLeafNodes@ComplexTypeInfo@xercesc_3_1@@AEAA_NPEAVContentSpecNode@2@@Z 00000001800862f4 f   xerces-c_3_1:ComplexTypeInfo.cpp.obj
 0001:000853a8       ?makeContentModel@ComplexTypeInfo@xercesc_3_1@@AEAAPEAVXMLContentModel@2@_N@Z 00000001800863a8 f   xerces-c_3_1:ComplexTypeInfo.cpp.obj
 0001:00085974       ?convertContentSpecTree@ComplexTypeInfo@xercesc_3_1@@AEAAPEAVContentSpecNode@2@QEAV32@_N1@Z 0000000180086974 f   xerces-c_3_1:ComplexTypeInfo.cpp.obj
 0001:00085adc       ?expandContentModel@ComplexTypeInfo@xercesc_3_1@@AEAAPEAVContentSpecNode@2@QEAV32@HH_N@Z 0000000180086adc f   xerces-c_3_1:ComplexTypeInfo.cpp.obj
 0001:00086198       ?resizeContentSpecOrgURI@ComplexTypeInfo@xercesc_3_1@@AEAAXXZ 0000000180087198 f   xerces-c_3_1:ComplexTypeInfo.cpp.obj
 0001:0008623c       ?createObject@ComplexTypeInfo@xercesc_3_1@@SAPEAVXSerializable@2@PEAVMemoryManager@2@@Z 000000018008723c f   xerces-c_3_1:ComplexTypeInfo.cpp.obj
 0001:00086280       ?getProtoType@ComplexTypeInfo@xercesc_3_1@@UEBAPEAVXProtoType@2@XZ 0000000180087280 f   xerces-c_3_1:ComplexTypeInfo.cpp.obj
 0001:00086288       ?serialize@ComplexTypeInfo@xercesc_3_1@@UEAAXAEAVXSerializeEngine@2@@Z 0000000180087288 f   xerces-c_3_1:ComplexTypeInfo.cpp.obj
 0001:00086580       ??0?$RefHash2KeysTableOf@VSchemaAttDef@xercesc_3_1@@UStringHasher@2@@xercesc_3_1@@QEAA@_K_NQEAVMemoryManager@1@@Z 0000000180087580 f i xerces-c_3_1:ComplexTypeInfo.cpp.obj
 0001:00086620       ??1?$Janitor@VContentSpecNode@xercesc_3_1@@@xercesc_3_1@@QEAA@XZ 0000000180087620 f i xerces-c_3_1:ComplexTypeInfo.cpp.obj
 0001:00086634       ?findBucketElem@?$RefHash2KeysTableOf@VIdentityConstraint@xercesc_3_1@@UStringHasher@2@@xercesc_3_1@@AEAAPEAU?$RefHash2KeysTableBucketElem@VIdentityConstraint@xercesc_3_1@@@2@QEBXHAEA_K@Z 0000000180087634 f i xerces-c_3_1:TraverseSchema.cpp.obj
 0001:00086634       ?findBucketElem@?$RefHash2KeysTableOf@VSchemaAttDef@xercesc_3_1@@UStringHasher@2@@xercesc_3_1@@AEAAPEAU?$RefHash2KeysTableBucketElem@VSchemaAttDef@xercesc_3_1@@@2@QEBXHAEA_K@Z 0000000180087634 f i xerces-c_3_1:ComplexTypeInfo.cpp.obj
 0001:00086634       ?findBucketElem@?$RefHash2KeysTableOf@_WUStringHasher@xercesc_3_1@@@xercesc_3_1@@AEAAPEAU?$RefHash2KeysTableBucketElem@_W@2@QEBXHAEA_K@Z 0000000180087634 f i xerces-c_3_1:TraverseSchema.cpp.obj
 0001:00086634       ?findBucketElem@?$RefHash2KeysTableOf@VSchemaInfo@xercesc_3_1@@UStringHasher@2@@xercesc_3_1@@AEAAPEAU?$RefHash2KeysTableBucketElem@VSchemaInfo@xercesc_3_1@@@2@QEBXHAEA_K@Z 0000000180087634 f i xerces-c_3_1:SGXMLScanner.cpp.obj
 0001:00086634       ?findBucketElem@?$RefHash2KeysTableOf@V?$ValueVectorOf@PEAVSchemaElementDecl@xercesc_3_1@@@xercesc_3_1@@UStringHasher@2@@xercesc_3_1@@AEAAPEAU?$RefHash2KeysTableBucketElem@V?$ValueVectorOf@PEAVSchemaElementDecl@xercesc_3_1@@@xercesc_3_1@@@2@QEBXHAEA_K@Z 0000000180087634 f i xerces-c_3_1:XTemplateSerializer.cpp.obj
 0001:00086718       ?getDataType@XSValue@xercesc_3_1@@SA?AW4DataType@12@QEB_W@Z 0000000180087718 f   xerces-c_3_1:XSValue.cpp.obj
 0001:00086858       ?initializeRegistry@XSValue@xercesc_3_1@@CAXXZ 0000000180087858 f   xerces-c_3_1:XSValue.cpp.obj
 0001:00086ce4       ?getActValNumerics@XSValue@xercesc_3_1@@CAPEAV12@QEB_WW4DataType@12@AEAW4Status@12@_NQEAVMemoryManager@2@@Z 0000000180087ce4 f   xerces-c_3_1:XSValue.cpp.obj
 0001:00086fdc       ?getActValDateTimes@XSValue@xercesc_3_1@@CAPEAV12@QEB_WW4DataType@12@AEAW4Status@12@QEAVMemoryManager@2@@Z 0000000180087fdc f   xerces-c_3_1:XSValue.cpp.obj
 0001:0008720c       ?getActValStrings@XSValue@xercesc_3_1@@CAPEAV12@QEB_WW4DataType@12@AEAW4Status@12@W4XMLVersion@12@_NQEAVMemoryManager@2@@Z 000000018008820c f   xerces-c_3_1:XSValue.cpp.obj
 0001:00087564       ?getActualNumericValue@XSValue@xercesc_3_1@@CA_NQEB_WAEAW4Status@12@AEATt_value@12@QEAVMemoryManager@2@W4DataType@12@@Z 0000000180088564 f   xerces-c_3_1:XSValue.cpp.obj
 0001:00087794       ?put@?$ValueHashTableOf@W4DataType@XSValue@xercesc_3_1@@UStringHasher@3@@xercesc_3_1@@QEAAXPEAXAEBW4DataType@XSValue@2@@Z 0000000180088794 f i xerces-c_3_1:XSValue.cpp.obj
 0001:0008783c       ?findBucketElem@?$ValueHashTableOf@IUStringHasher@xercesc_3_1@@@xercesc_3_1@@AEAAPEAU?$ValueHashTableBucketElem@I@2@QEBXAEA_K@Z 000000018008883c f i xerces-c_3_1:DOMLSParserImpl.cpp.obj
 0001:0008783c       ?findBucketElem@?$ValueHashTableOf@W4DataType@XSValue@xercesc_3_1@@UStringHasher@3@@xercesc_3_1@@AEAAPEAU?$ValueHashTableBucketElem@W4DataType@XSValue@xercesc_3_1@@@2@QEBXAEA_K@Z 000000018008883c f i xerces-c_3_1:XSValue.cpp.obj
 0001:0008783c       ?findBucketElem@?$ValueHashTableOf@_WUStringHasher@xercesc_3_1@@@xercesc_3_1@@AEAAPEAU?$ValueHashTableBucketElem@_W@2@QEBXAEA_K@Z 000000018008883c f i xerces-c_3_1:WFXMLScanner.cpp.obj
 0001:0008783c       ?findBucketElem@?$ValueHashTableOf@GUStringHasher@xercesc_3_1@@@xercesc_3_1@@AEAAPEAU?$ValueHashTableBucketElem@G@2@QEBXAEA_K@Z 000000018008883c f i xerces-c_3_1:GeneralAttributeCheck.cpp.obj
 0001:0008790c       ?initialize@GeneralAttributeCheck@xercesc_3_1@@CAXXZ 000000018008890c f   xerces-c_3_1:GeneralAttributeCheck.cpp.obj
 0001:00087fdc       ??1GeneralAttributeCheck@xercesc_3_1@@QEAA@XZ 0000000180088fdc f   xerces-c_3_1:GeneralAttributeCheck.cpp.obj
 0001:00087ff0       ?checkAttributes@GeneralAttributeCheck@xercesc_3_1@@QEAAXQEBVDOMElement@2@GQEAVTraverseSchema@2@_NQEAV?$ValueVectorOf@PEAVDOMNode@xercesc_3_1@@@2@@Z 0000000180088ff0 f   xerces-c_3_1:GeneralAttributeCheck.cpp.obj
 0001:000884a0       ?validate@GeneralAttributeCheck@xercesc_3_1@@AEAAXQEBVDOMElement@2@QEB_W1FQEAVTraverseSchema@2@@Z 00000001800894a0 f   xerces-c_3_1:GeneralAttributeCheck.cpp.obj
 0001:00088a28       ??0?$ValueHashTableOf@GUStringHasher@xercesc_3_1@@@xercesc_3_1@@QEAA@_KQEAVMemoryManager@1@@Z 0000000180089a28 f i xerces-c_3_1:GeneralAttributeCheck.cpp.obj
 0001:00088ad8       ?get@?$ValueHashTableOf@GUStringHasher@xercesc_3_1@@@xercesc_3_1@@QEAAAEAGQEBXQEAVMemoryManager@2@@Z 0000000180089ad8 f i xerces-c_3_1:GeneralAttributeCheck.cpp.obj
 0001:00088b4c       ?isSubstitutableBy@DatatypeValidator@xercesc_3_1@@UEAA_NQEBV12@@Z 0000000180089b4c f i xerces-c_3_1:DatatypeValidatorFactory.cpp.obj
 0001:00088b64       ??_GBooleanDatatypeValidator@xercesc_3_1@@UEAAPEAXI@Z 0000000180089b64 f i xerces-c_3_1:DatatypeValidatorFactory.cpp.obj
 0001:00088b64       ??_EBooleanDatatypeValidator@xercesc_3_1@@UEAAPEAXI@Z 0000000180089b64 f i  CIL library: CIL module
 0001:00088ba4       ?newInstance@BooleanDatatypeValidator@xercesc_3_1@@UEAAPEAVDatatypeValidator@2@QEAV?$RefHashTableOf@VKVStringPair@xercesc_3_1@@UStringHasher@2@@2@QEAV?$RefArrayVectorOf@_W@2@HQEAVMemoryManager@2@@Z 0000000180089ba4 f i xerces-c_3_1:DatatypeValidatorFactory.cpp.obj
 0001:00088c2c       ??_EDatatypeValidatorFactory@xercesc_3_1@@UEAAPEAXI@Z 0000000180089c2c f i  CIL library: CIL module
 0001:00088c2c       ??_GDatatypeValidatorFactory@xercesc_3_1@@UEAAPEAXI@Z 0000000180089c2c f i xerces-c_3_1:DatatypeValidatorFactory.cpp.obj
 0001:00088c68       ??1DatatypeValidatorFactory@xercesc_3_1@@UEAA@XZ 0000000180089c68 f   xerces-c_3_1:DatatypeValidatorFactory.cpp.obj
 0001:00088cd8       ?expandRegistryToFullSchemaSet@DatatypeValidatorFactory@xercesc_3_1@@AEAAXXZ 0000000180089cd8 f   xerces-c_3_1:DatatypeValidatorFactory.cpp.obj
 0001:0008a7c8       ?initCanRepRegistory@DatatypeValidatorFactory@xercesc_3_1@@QEAAXXZ 000000018008b7c8 f   xerces-c_3_1:DatatypeValidatorFactory.cpp.obj
 0001:0008ab24       ?createDatatypeValidator@DatatypeValidatorFactory@xercesc_3_1@@QEAAPEAVDatatypeValidator@2@QEB_WQEAV32@QEAV?$RefHashTableOf@VKVStringPair@xercesc_3_1@@UStringHasher@2@@2@QEAV?$RefArrayVectorOf@_W@2@_NH4QEAVMemoryManager@2@@Z 000000018008bb24 f   xerces-c_3_1:DatatypeValidatorFactory.cpp.obj
 0001:0008af80       ?createDatatypeValidator@DatatypeValidatorFactory@xercesc_3_1@@QEAAPEAVDatatypeValidator@2@QEB_WQEAV?$RefVectorOf@VDatatypeValidator@xercesc_3_1@@@2@H_NQEAVMemoryManager@2@@Z 000000018008bf80 f   xerces-c_3_1:DatatypeValidatorFactory.cpp.obj
 0001:0008b250       ?createObject@DatatypeValidatorFactory@xercesc_3_1@@SAPEAVXSerializable@2@PEAVMemoryManager@2@@Z 000000018008c250 f   xerces-c_3_1:DatatypeValidatorFactory.cpp.obj
 0001:0008b28c       ?getProtoType@DatatypeValidatorFactory@xercesc_3_1@@UEBAPEAVXProtoType@2@XZ 000000018008c28c f   xerces-c_3_1:DatatypeValidatorFactory.cpp.obj
 0001:0008b294       ?serialize@DatatypeValidatorFactory@xercesc_3_1@@UEAAXAEAVXSerializeEngine@2@@Z 000000018008c294 f   xerces-c_3_1:DatatypeValidatorFactory.cpp.obj
 0001:0008b2ac       ?put@?$RefHashTableOf@VXMLCanRepGroup@xercesc_3_1@@UPtrHasher@2@@xercesc_3_1@@QEAAXPEAXQEAVXMLCanRepGroup@2@@Z 000000018008c2ac f i xerces-c_3_1:DatatypeValidatorFactory.cpp.obj
 0001:0008b390       ??0?$RefHashTableOf@VKVStringPair@xercesc_3_1@@UStringHasher@2@@xercesc_3_1@@QEAA@_KQEAVMemoryManager@1@@Z 000000018008c390 f i xerces-c_3_1:DatatypeValidatorFactory.cpp.obj
 0001:0008b3c8       ?removeKey@?$RefHashTableOf@VKVStringPair@xercesc_3_1@@UStringHasher@2@@xercesc_3_1@@QEAAXQEBX@Z 000000018008c3c8 f i xerces-c_3_1:DatatypeValidatorFactory.cpp.obj
 0001:0008b524       ??1?$Janitor@V?$RefHashTableOf@VKVStringPair@xercesc_3_1@@UStringHasher@2@@xercesc_3_1@@@xercesc_3_1@@QEAA@XZ 000000018008c524 f i xerces-c_3_1:DatatypeValidatorFactory.cpp.obj
 0001:0008b544       ??1XSDErrorReporter@xercesc_3_1@@UEAA@XZ 000000018008c544 f i xerces-c_3_1:XSDErrorReporter.cpp.obj
 0001:0008b550       ??_EXSDErrorReporter@xercesc_3_1@@UEAAPEAXI@Z 000000018008c550 f i  CIL library: CIL module
 0001:0008b550       ??_GXSDErrorReporter@xercesc_3_1@@UEAAPEAXI@Z 000000018008c550 f i xerces-c_3_1:XSDErrorReporter.cpp.obj
 0001:0008b580       ?emitError@XSDErrorReporter@xercesc_3_1@@QEAAXIQEB_WQEBVLocator@2@@Z 000000018008c580 f   xerces-c_3_1:XSDErrorReporter.cpp.obj
 0001:0008b724       ?emitError@XSDErrorReporter@xercesc_3_1@@QEAAXIQEB_WQEBVLocator@2@0000QEAVMemoryManager@2@@Z 000000018008c724 f   xerces-c_3_1:XSDErrorReporter.cpp.obj
 0001:0008b908       ?emitError@XSDErrorReporter@xercesc_3_1@@QEAAXAEBVXMLException@2@QEBVLocator@2@@Z 000000018008c908 f   xerces-c_3_1:XSDErrorReporter.cpp.obj
 0001:0008b9c0       ??_GDTDEntityDecl@xercesc_3_1@@UEAAPEAXI@Z 000000018008c9c0 f i xerces-c_3_1:DTDGrammar.cpp.obj
 0001:0008b9c0       ??_EDTDEntityDecl@xercesc_3_1@@UEAAPEAXI@Z 000000018008c9c0 f i  CIL library: CIL module
 0001:0008ba00       ?getDeclaredInIntSubset@DTDEntityDecl@xercesc_3_1@@UEBA_NXZ 000000018008ca00 f i xerces-c_3_1:DTDGrammar.cpp.obj
 0001:0008ba04       ?getIsParameter@DTDEntityDecl@xercesc_3_1@@UEBA_NXZ 000000018008ca04 f i xerces-c_3_1:DTDGrammar.cpp.obj
 0001:0008ba08       ?getIsSpecialChar@DTDEntityDecl@xercesc_3_1@@UEBA_NXZ 000000018008ca08 f i xerces-c_3_1:DTDGrammar.cpp.obj
 0001:0008ba0c       ?getTargetNamespace@DTDGrammar@xercesc_3_1@@UEBAPEB_WXZ 000000018008ca0c f i xerces-c_3_1:DTDGrammar.cpp.obj
 0001:0008ba14       ?getElemId@DTDGrammar@xercesc_3_1@@UEBA_KIQEB_W0I@Z 000000018008ca14 f i xerces-c_3_1:DTDGrammar.cpp.obj
 0001:0008ba54       ?getElemDecl@DTDGrammar@xercesc_3_1@@UEAAPEAVXMLElementDecl@2@IQEB_W0I@Z 000000018008ca54 f i xerces-c_3_1:DTDGrammar.cpp.obj
 0001:0008ba54       ?getElemDecl@DTDGrammar@xercesc_3_1@@UEBAPEBVXMLElementDecl@2@IQEB_W0I@Z 000000018008ca54 f i xerces-c_3_1:DTDGrammar.cpp.obj
 0001:0008bacc       ?getElemDecl@DTDGrammar@xercesc_3_1@@UEBAPEBVXMLElementDecl@2@I@Z 000000018008cacc f i xerces-c_3_1:DTDGrammar.cpp.obj
 0001:0008bacc       ?getElemDecl@DTDGrammar@xercesc_3_1@@UEAAPEAVXMLElementDecl@2@I@Z 000000018008cacc f i xerces-c_3_1:DTDGrammar.cpp.obj
 0001:0008bb44       ?putElemDecl@DTDGrammar@xercesc_3_1@@UEAA_KQEAVXMLElementDecl@2@_N@Z 000000018008cb44 f i xerces-c_3_1:DTDGrammar.cpp.obj
 0001:0008bbc4       ?getIssueFatalErrorIfNotFound@DOMLSInputImpl@xercesc_3_1@@UEBA_NXZ 000000018008cbc4 f i xerces-c_3_1:DOMLSInputImpl.cpp.obj
 0001:0008bbc4       ?getValidated@DTDGrammar@xercesc_3_1@@UEBA_NXZ 000000018008cbc4 f i xerces-c_3_1:DTDGrammar.cpp.obj
 0001:0008bbc8       ?initializeDTDGrammar@XMLInitializer@xercesc_3_1@@CAXXZ 000000018008cbc8 f   xerces-c_3_1:DTDGrammar.cpp.obj
 0001:0008bdac       ??0DTDGrammar@xercesc_3_1@@QEAA@QEAVMemoryManager@1@@Z 000000018008cdac f   xerces-c_3_1:DTDGrammar.cpp.obj
 0001:0008bef4       ??_EDTDGrammar@xercesc_3_1@@UEAAPEAXI@Z 000000018008cef4 f i  CIL library: CIL module
 0001:0008bef4       ??_GDTDGrammar@xercesc_3_1@@UEAAPEAXI@Z 000000018008cef4 f i xerces-c_3_1:DTDGrammar.cpp.obj
 0001:0008bf30       ??1DTDGrammar@xercesc_3_1@@UEAA@XZ 000000018008cf30 f   xerces-c_3_1:DTDGrammar.cpp.obj
 0001:0008c09c       ?findOrAddElemDecl@DTDGrammar@xercesc_3_1@@UEAAPEAVXMLElementDecl@2@IQEB_W00IAEA_N@Z 000000018008d09c f   xerces-c_3_1:DTDGrammar.cpp.obj
 0001:0008c1a4       ?putElemDecl@DTDGrammar@xercesc_3_1@@UEAAPEAVXMLElementDecl@2@IQEB_W00I_N@Z 000000018008d1a4 f   xerces-c_3_1:DTDGrammar.cpp.obj
 0001:0008c27c       ?reset@DTDGrammar@xercesc_3_1@@UEAAXXZ 000000018008d27c f   xerces-c_3_1:DTDGrammar.cpp.obj
 0001:0008c304       ?setGrammarDescription@DTDGrammar@xercesc_3_1@@UEAAXPEAVXMLGrammarDescription@2@@Z 000000018008d304 f   xerces-c_3_1:DTDGrammar.cpp.obj
 0001:0008c348       ?createObject@DTDGrammar@xercesc_3_1@@SAPEAVXSerializable@2@PEAVMemoryManager@2@@Z 000000018008d348 f   xerces-c_3_1:DTDGrammar.cpp.obj
 0001:0008c38c       ?getProtoType@DTDGrammar@xercesc_3_1@@UEBAPEAVXProtoType@2@XZ 000000018008d38c f   xerces-c_3_1:DTDGrammar.cpp.obj
 0001:0008c394       ?serialize@DTDGrammar@xercesc_3_1@@UEAAXAEAVXSerializeEngine@2@@Z 000000018008d394 f   xerces-c_3_1:DTDGrammar.cpp.obj
 0001:0008c524       ??0?$NameIdPool@VDTDEntityDecl@xercesc_3_1@@@xercesc_3_1@@QEAA@_K0QEAVMemoryManager@1@@Z 000000018008d524 f i xerces-c_3_1:DTDGrammar.cpp.obj
 0001:0008c610       ?put@?$NameIdPool@VDTDEntityDecl@xercesc_3_1@@@xercesc_3_1@@QEAA_KQEAVDTDEntityDecl@2@@Z 000000018008d610 f i xerces-c_3_1:DTDGrammar.cpp.obj
 0001:0008c784       ?put@?$NameIdPool@VDTDElementDecl@xercesc_3_1@@@xercesc_3_1@@QEAA_KQEAVDTDElementDecl@2@@Z 000000018008d784 f i xerces-c_3_1:DTDGrammar.cpp.obj
 0001:0008c9b4       ??0?$NameIdPool@VDTDElementDecl@xercesc_3_1@@@xercesc_3_1@@QEAA@_K0QEAVMemoryManager@1@@Z 000000018008d9b4 f i xerces-c_3_1:DTDGrammar.cpp.obj
 0001:0008c9b4       ??0?$NameIdPool@VXMLNotationDecl@xercesc_3_1@@@xercesc_3_1@@QEAA@_K0QEAVMemoryManager@1@@Z 000000018008d9b4 f i xerces-c_3_1:DTDGrammar.cpp.obj
 0001:0008caa8       ?put@?$NameIdPool@VXMLNotationDecl@xercesc_3_1@@@xercesc_3_1@@QEAA_KQEAVXMLNotationDecl@2@@Z 000000018008daa8 f i xerces-c_3_1:DTDGrammar.cpp.obj
 0001:0008ccbc       ??1?$RefHashTableOf@VXMLNotationDecl@xercesc_3_1@@UStringHasher@2@@xercesc_3_1@@QEAA@XZ 000000018008dcbc f i xerces-c_3_1:DTDGrammar.cpp.obj
 0001:0008ccbc       ??1?$RefHashTableOf@VDTDEntityDecl@xercesc_3_1@@UStringHasher@2@@xercesc_3_1@@QEAA@XZ 000000018008dcbc f i xerces-c_3_1:DTDGrammar.cpp.obj
 0001:0008ccbc       ??1?$RefHashTableOf@VDTDElementDecl@xercesc_3_1@@UStringHasher@2@@xercesc_3_1@@QEAA@XZ 000000018008dcbc f i xerces-c_3_1:DTDGrammar.cpp.obj
 0001:0008cce4       ?rehash@?$RefHashTableOf@VXSObject@xercesc_3_1@@UStringHasher@2@@xercesc_3_1@@AEAAXXZ 000000018008dce4 f i xerces-c_3_1:XSModel.cpp.obj
 0001:0008cce4       ?rehash@?$RefHashTableOf@VDTDAttDef@xercesc_3_1@@UStringHasher@2@@xercesc_3_1@@AEAAXXZ 000000018008dce4 f i xerces-c_3_1:XTemplateSerializer.cpp.obj
 0001:0008cce4       ?rehash@?$RefHashTableOf@VGrammar@xercesc_3_1@@UStringHasher@2@@xercesc_3_1@@AEAAXXZ 000000018008dce4 f i xerces-c_3_1:GrammarResolver.cpp.obj
 0001:0008cce4       ?rehash@?$RefHashTableOf@VDOMElement@xercesc_3_1@@UStringHasher@2@@xercesc_3_1@@AEAAXXZ 000000018008dce4 f i xerces-c_3_1:SchemaInfo.cpp.obj
 0001:0008cce4       ?rehash@?$RefHashTableOf@VXMLElementDecl@xercesc_3_1@@UStringHasher@2@@xercesc_3_1@@AEAAXXZ 000000018008dce4 f i xerces-c_3_1:WFXMLScanner.cpp.obj
 0001:0008cce4       ?rehash@?$RefHashTableOf@VKVStringPair@xercesc_3_1@@UStringHasher@2@@xercesc_3_1@@AEAAXXZ 000000018008dce4 f i xerces-c_3_1:DOMXPathNSResolverImpl.cpp.obj
 0001:0008cce4       ?rehash@?$RefHashTableOf@VENameMap@xercesc_3_1@@UStringHasher@2@@xercesc_3_1@@AEAAXXZ 000000018008dce4 f i xerces-c_3_1:TransService.cpp.obj
 0001:0008cce4       ?rehash@?$RefHashTableOf@VDTDEntityDecl@xercesc_3_1@@UStringHasher@2@@xercesc_3_1@@AEAAXXZ 000000018008dce4 f i xerces-c_3_1:DTDGrammar.cpp.obj
 0001:0008cce4       ?rehash@?$RefHashTableOf@VRangeFactory@xercesc_3_1@@UStringHasher@2@@xercesc_3_1@@AEAAXXZ 000000018008dce4 f i xerces-c_3_1:RangeTokenMap.cpp.obj
 0001:0008cce4       ?rehash@?$RefHashTableOf@VXMLAttDef@xercesc_3_1@@UStringHasher@2@@xercesc_3_1@@AEAAXXZ 000000018008dce4 f i xerces-c_3_1:XTemplateSerializer.cpp.obj
 0001:0008cce4       ?rehash@?$RefHashTableOf@_WUStringHasher@xercesc_3_1@@@xercesc_3_1@@AEAAXXZ 000000018008dce4 f i xerces-c_3_1:DOMNormalizer.cpp.obj
 0001:0008cce4       ?rehash@?$RefHashTableOf@VRangeTokenElemMap@xercesc_3_1@@UStringHasher@2@@xercesc_3_1@@AEAAXXZ 000000018008dce4 f i xerces-c_3_1:RangeTokenMap.cpp.obj
 0001:0008cce4       ?rehash@?$RefHashTableOf@VComplexTypeInfo@xercesc_3_1@@UStringHasher@2@@xercesc_3_1@@AEAAXXZ 000000018008dce4 f i xerces-c_3_1:XTemplateSerializer.cpp.obj
 0001:0008cce4       ?rehash@?$RefHashTableOf@VXercesAttGroupInfo@xercesc_3_1@@UStringHasher@2@@xercesc_3_1@@AEAAXXZ 000000018008dce4 f i xerces-c_3_1:XTemplateSerializer.cpp.obj
 0001:0008cce4       ?rehash@?$RefHashTableOf@VDatatypeValidator@xercesc_3_1@@UStringHasher@2@@xercesc_3_1@@AEAAXXZ 000000018008dce4 f i xerces-c_3_1:DatatypeValidatorFactory.cpp.obj
 0001:0008cce4       ?rehash@?$RefHashTableOf@VXMLNotationDecl@xercesc_3_1@@UStringHasher@2@@xercesc_3_1@@AEAAXXZ 000000018008dce4 f i xerces-c_3_1:DTDGrammar.cpp.obj
 0001:0008cce4       ?rehash@?$RefHashTableOf@VXSNamespaceItem@xercesc_3_1@@UStringHasher@2@@xercesc_3_1@@AEAAXXZ 000000018008dce4 f i xerces-c_3_1:XSModel.cpp.obj
 0001:0008cce4       ?rehash@?$RefHashTableOf@VCPMapEntry@xercesc_3_1@@UStringHasher@2@@xercesc_3_1@@AEAAXXZ 000000018008dce4 f i xerces-c_3_1:Win32TransService.cpp.obj
 0001:0008cce4       ?rehash@?$RefHashTableOf@VXercesGroupInfo@xercesc_3_1@@UStringHasher@2@@xercesc_3_1@@AEAAXXZ 000000018008dce4 f i xerces-c_3_1:XTemplateSerializer.cpp.obj
 0001:0008cce4       ?rehash@?$RefHashTableOf@VXMLRefInfo@xercesc_3_1@@UStringHasher@2@@xercesc_3_1@@AEAAXXZ 000000018008dce4 f i xerces-c_3_1:ValidationContextImpl.cpp.obj
 0001:0008cce4       ?rehash@?$RefHashTableOf@V?$ValueVectorOf@PEAVSchemaElementDecl@xercesc_3_1@@@xercesc_3_1@@UStringHasher@2@@xercesc_3_1@@AEAAXXZ 000000018008dce4 f i xerces-c_3_1:TraverseSchema.cpp.obj
 0001:0008cce4       ?rehash@?$RefHashTableOf@UPoolElem@XMLStringPool@xercesc_3_1@@UStringHasher@3@@xercesc_3_1@@AEAAXXZ 000000018008dce4 f i xerces-c_3_1:StringPool.cpp.obj
 0001:0008cce4       ?rehash@?$RefHashTableOf@VDTDElementDecl@xercesc_3_1@@UStringHasher@2@@xercesc_3_1@@AEAAXXZ 000000018008dce4 f i xerces-c_3_1:DTDGrammar.cpp.obj
 0001:0008cdf0       ?cleanUp@RegularExpression@xercesc_3_1@@IEAAXXZ 000000018008ddf0 f i xerces-c_3_1:RegularExpression.cpp.obj
 0001:0008ce70       ?compileUnion@RegularExpression@xercesc_3_1@@IEAAPEAVOp@2@QEBVToken@2@QEAV32@_N@Z 000000018008de70 f i xerces-c_3_1:RegularExpression.cpp.obj
 0001:0008cfa4       ?compileParenthesis@RegularExpression@xercesc_3_1@@IEAAPEAVOp@2@QEBVToken@2@QEAV32@_N@Z 000000018008dfa4 f i xerces-c_3_1:RegularExpression.cpp.obj
 0001:0008d0a0       ?compileClosure@RegularExpression@xercesc_3_1@@IEAAPEAVOp@2@QEBVToken@2@QEAV32@_NW4tokType@42@@Z 000000018008e0a0 f i xerces-c_3_1:RegularExpression.cpp.obj
 0001:0008d2c8       ?getStartPos@Match@xercesc_3_1@@QEBAHH@Z 000000018008e2c8 f i xerces-c_3_1:RegularExpression.cpp.obj
 0001:0008d38c       ?getEndPos@Match@xercesc_3_1@@QEBAHH@Z 000000018008e38c f i xerces-c_3_1:RegularExpression.cpp.obj
 0001:0008d450       ?setStartPos@Match@xercesc_3_1@@QEAAXHH@Z 000000018008e450 f i xerces-c_3_1:RegularExpression.cpp.obj
 0001:0008d514       ?setEndPos@Match@xercesc_3_1@@QEAAXHH@Z 000000018008e514 f i xerces-c_3_1:RegularExpression.cpp.obj
 0001:0008d5d8       ??0ParseException@xercesc_3_1@@QEAA@AEBV01@@Z 000000018008e5d8 f i xerces-c_3_1:RegularExpression.cpp.obj
 0001:0008d5fc       ??1ParseException@xercesc_3_1@@UEAA@XZ 000000018008e5fc f i xerces-c_3_1:RegularExpression.cpp.obj
 0001:0008d60c       ?duplicate@ParseException@xercesc_3_1@@UEBAPEAVXMLException@2@XZ 000000018008e60c f i xerces-c_3_1:RegularExpression.cpp.obj
 0001:0008d670       ?getType@ParseException@xercesc_3_1@@UEBAPEB_WXZ 000000018008e670 f i xerces-c_3_1:RegularExpression.cpp.obj
 0001:0008d678       ??_GParseException@xercesc_3_1@@UEAAPEAXI@Z 000000018008e678 f i xerces-c_3_1:RegularExpression.cpp.obj
 0001:0008d678       ??_EParseException@xercesc_3_1@@UEAAPEAXI@Z 000000018008e678 f i  CIL library: CIL module
 0001:0008d6b8       ?matchIgnoreCase@RegularExpression@xercesc_3_1@@IEBA_NHH@Z 000000018008e6b8 f   xerces-c_3_1:RegularExpression.cpp.obj
 0001:0008d784       ??4Context@RegularExpression@xercesc_3_1@@QEAAAEAV012@AEBV012@@Z 000000018008e784 f   xerces-c_3_1:RegularExpression.cpp.obj
 0001:0008d9bc       ??1Context@RegularExpression@xercesc_3_1@@QEAA@XZ 000000018008e9bc f   xerces-c_3_1:RegularExpression.cpp.obj
 0001:0008d9f8       ?reset@Context@RegularExpression@xercesc_3_1@@QEAAXQEB_W_K11HI@Z 000000018008e9f8 f   xerces-c_3_1:RegularExpression.cpp.obj
 0001:0008daa0       ?nextCh@Context@RegularExpression@xercesc_3_1@@QEAA_NAEAHAEA_K@Z 000000018008eaa0 f   xerces-c_3_1:RegularExpression.cpp.obj
 0001:0008db20       ??_GRegularExpression@xercesc_3_1@@UEAAPEAXI@Z 000000018008eb20 f i xerces-c_3_1:RegularExpression.cpp.obj
 0001:0008db20       ??_ERegularExpression@xercesc_3_1@@UEAAPEAXI@Z 000000018008eb20 f i  CIL library: CIL module
 0001:0008db5c       ??0RegularExpression@xercesc_3_1@@QEAA@QEB_W0QEAVMemoryManager@1@@Z 000000018008eb5c f   xerces-c_3_1:RegularExpression.cpp.obj
 0001:0008dc18       ??1RegularExpression@xercesc_3_1@@UEAA@XZ 000000018008ec18 f   xerces-c_3_1:RegularExpression.cpp.obj
 0001:0008dc5c       ?getRegexParser@RegularExpression@xercesc_3_1@@MEAAPEAVRegxParser@2@HQEAVMemoryManager@2@@Z 000000018008ec5c f   xerces-c_3_1:RegularExpression.cpp.obj
 0001:0008dd1c       ?setPattern@RegularExpression@xercesc_3_1@@IEAAXQEB_W0@Z 000000018008ed1c f   xerces-c_3_1:RegularExpression.cpp.obj
 0001:0008df1c       ?matches@RegularExpression@xercesc_3_1@@QEBA_NQEB_WQEAVMemoryManager@2@@Z 000000018008ef1c f   xerces-c_3_1:RegularExpression.cpp.obj
 0001:0008df50       ?matches@RegularExpression@xercesc_3_1@@QEBA_NQEB_W_K1QEAVMatch@2@QEAVMemoryManager@2@@Z 000000018008ef50 f   xerces-c_3_1:RegularExpression.cpp.obj
 0001:0008e6d4       ?match@RegularExpression@xercesc_3_1@@IEBAHQEAVContext@12@QEBVOp@2@_K@Z 000000018008f6d4 f   xerces-c_3_1:RegularExpression.cpp.obj
 0001:0008eeb0       ?matchAnchor@RegularExpression@xercesc_3_1@@IEBA_NQEAVContext@12@H_K@Z 000000018008feb0 f   xerces-c_3_1:RegularExpression.cpp.obj
 0001:0008ef80       ?matchBackReference@RegularExpression@xercesc_3_1@@IEBA_NQEAVContext@12@HAEA_K_N@Z 000000018008ff80 f   xerces-c_3_1:RegularExpression.cpp.obj
 0001:0008f094       ?matchCapture@RegularExpression@xercesc_3_1@@IEBAHQEAVContext@12@QEBVOp@2@_K@Z 0000000180090094 f   xerces-c_3_1:RegularExpression.cpp.obj
 0001:0008f164       ?matchUnion@RegularExpression@xercesc_3_1@@IEBAHQEAVContext@12@QEBVOp@2@_K@Z 0000000180090164 f   xerces-c_3_1:RegularExpression.cpp.obj
 0001:0008f388       ?compile@RegularExpression@xercesc_3_1@@IEAAPEAVOp@2@QEBVToken@2@QEAV32@_N@Z 0000000180090388 f   xerces-c_3_1:RegularExpression.cpp.obj
 0001:0008f6e8       ?prepare@RegularExpression@xercesc_3_1@@IEAAXXZ 00000001800906e8 f   xerces-c_3_1:RegularExpression.cpp.obj
 0001:0008fa10       ?doTokenOverlap@RegularExpression@xercesc_3_1@@IEAA_NPEBVOp@2@PEAVToken@2@@Z 0000000180090a10 f   xerces-c_3_1:RegularExpression.cpp.obj
 0001:0008fb80       ??1?$Janitor@V?$ValueStackOf@URE_RuntimeContext@xercesc_3_1@@@xercesc_3_1@@@xercesc_3_1@@QEAA@XZ 0000000180090b80 f i xerces-c_3_1:RegularExpression.cpp.obj
 0001:0008fbc0       ?push@?$ValueStackOf@URE_RuntimeContext@xercesc_3_1@@@xercesc_3_1@@QEAAXAEBURE_RuntimeContext@2@@Z 0000000180090bc0 f i xerces-c_3_1:RegularExpression.cpp.obj
 0001:0008fcc0       ??0RangeTokenMap@xercesc_3_1@@IEAA@PEAVMemoryManager@1@@Z 0000000180090cc0 f   xerces-c_3_1:RangeTokenMap.cpp.obj
 0001:0008ffbc       ?addKeywordMap@RangeTokenMap@xercesc_3_1@@QEAAXQEB_W0@Z 0000000180090fbc f   xerces-c_3_1:RangeTokenMap.cpp.obj
 0001:000900c8       ?setRangeToken@RangeTokenMap@xercesc_3_1@@QEAAXQEB_WQEAVRangeToken@2@_N@Z 00000001800910c8 f   xerces-c_3_1:RangeTokenMap.cpp.obj
 0001:00090194       ?buildTokenRanges@RangeTokenMap@xercesc_3_1@@AEAAXXZ 0000000180091194 f   xerces-c_3_1:RangeTokenMap.cpp.obj
 0001:0009025c       ?cleanUp@RangeTokenMap@xercesc_3_1@@AEAAXXZ 000000018009125c f   xerces-c_3_1:RangeTokenMap.cpp.obj
 0001:000903fc       ?put@?$RefHashTableOf@VRangeTokenElemMap@xercesc_3_1@@UStringHasher@2@@xercesc_3_1@@QEAAXPEAXQEAVRangeTokenElemMap@2@@Z 00000001800913fc f i xerces-c_3_1:RangeTokenMap.cpp.obj
 0001:000904c4       ??1XMLValidator@xercesc_3_1@@UEAA@XZ 00000001800914c4 f i xerces-c_3_1:XMLValidator.cpp.obj
 0001:000904d0       ?emitError@XMLValidator@xercesc_3_1@@QEAAXW4Codes@XMLValid@2@@Z 00000001800914d0 f   xerces-c_3_1:XMLValidator.cpp.obj
 0001:000905f8       ?emitError@XMLValidator@xercesc_3_1@@QEAAXW4Codes@XMLValid@2@QEB_W111@Z 00000001800915f8 f   xerces-c_3_1:XMLValidator.cpp.obj
 0001:00090758       ?emitError@XMLValidator@xercesc_3_1@@QEAAXW4Codes@XMLValid@2@W43XMLExcepts@2@QEB_W222@Z 0000000180091758 f   xerces-c_3_1:XMLValidator.cpp.obj
 0001:00090868       ??0ElemStack@xercesc_3_1@@QEAA@QEAVMemoryManager@1@@Z 0000000180091868 f   xerces-c_3_1:ElemStack.cpp.obj
 0001:00090964       ??1ElemStack@xercesc_3_1@@QEAA@XZ 0000000180091964 f   xerces-c_3_1:ElemStack.cpp.obj
 0001:00090a68       ?addLevel@ElemStack@xercesc_3_1@@QEAA_KXZ 0000000180091a68 f   xerces-c_3_1:ElemStack.cpp.obj
 0001:00090be4       ?addLevel@ElemStack@xercesc_3_1@@QEAA_KQEAVXMLElementDecl@2@_K@Z 0000000180091be4 f   xerces-c_3_1:ElemStack.cpp.obj
 0001:00090d7c       ?popTop@ElemStack@xercesc_3_1@@QEAAPEBUStackElem@12@XZ 0000000180091d7c f   xerces-c_3_1:ElemStack.cpp.obj
 0001:00090df4       ?setElement@ElemStack@xercesc_3_1@@QEAAXQEAVXMLElementDecl@2@_K@Z 0000000180091df4 f   xerces-c_3_1:ElemStack.cpp.obj
 0001:00090e7c       ?addChild@ElemStack@xercesc_3_1@@QEAA_KQEAVQName@2@_N@Z 0000000180091e7c f   xerces-c_3_1:ElemStack.cpp.obj
 0001:00091028       ?topElement@ElemStack@xercesc_3_1@@QEBAPEBUStackElem@12@XZ 0000000180092028 f   xerces-c_3_1:ElemStack.cpp.obj
 0001:00091098       ?addPrefix@ElemStack@xercesc_3_1@@QEAAXQEB_WI@Z 0000000180092098 f   xerces-c_3_1:ElemStack.cpp.obj
 0001:00091180       ?mapPrefixToURI@ElemStack@xercesc_3_1@@QEBAIQEB_WAEA_N@Z 0000000180092180 f   xerces-c_3_1:ElemStack.cpp.obj
 0001:00091284       ?reset@ElemStack@xercesc_3_1@@QEAAXIIII@Z 0000000180092284 f   xerces-c_3_1:ElemStack.cpp.obj
 0001:00091350       ?expandMap@ElemStack@xercesc_3_1@@AEAAXQEAUStackElem@12@@Z 0000000180092350 f   xerces-c_3_1:ElemStack.cpp.obj
 0001:00091428       ?expandStack@ElemStack@xercesc_3_1@@AEAAXXZ 0000000180092428 f   xerces-c_3_1:ElemStack.cpp.obj
 0001:000914f4       ??1ValidationContext@xercesc_3_1@@UEAA@XZ 00000001800924f4 f i xerces-c_3_1:ValidationContextImpl.cpp.obj
 0001:00091500       ??_EValidationContext@xercesc_3_1@@UEAAPEAXI@Z 0000000180092500 f i  CIL library: CIL module
 0001:00091500       ??_GValidationContext@xercesc_3_1@@UEAAPEAXI@Z 0000000180092500 f i xerces-c_3_1:ValidationContextImpl.cpp.obj
 0001:00091530       ?setGrammar@SchemaValidator@xercesc_3_1@@UEAAXPEAVGrammar@2@@Z 0000000180092530 f i xerces-c_3_1:SchemaValidator.cpp.obj
 0001:00091530       ?setElemStack@ValidationContextImpl@xercesc_3_1@@UEAAXPEAVElemStack@2@@Z 0000000180092530 f i xerces-c_3_1:ValidationContextImpl.cpp.obj
 0001:00091538       ?setAttributes@XMLSchemaDescriptionImpl@xercesc_3_1@@UEAAXQEAVXMLAttDef@2@@Z 0000000180092538 f i xerces-c_3_1:XMLSchemaDescriptionImpl.cpp.obj
 0001:00091538       ?setScanner@ValidationContextImpl@xercesc_3_1@@UEAAXPEAVXMLScanner@2@@Z 0000000180092538 f i xerces-c_3_1:ValidationContextImpl.cpp.obj
 0001:00091540       ?setNamespaceScope@ValidationContextImpl@xercesc_3_1@@UEAAXPEAVNamespaceScope@2@@Z 0000000180092540 f i xerces-c_3_1:ValidationContextImpl.cpp.obj
 0001:00091548       ??0XMLRefInfo@xercesc_3_1@@QEAA@QEB_W_N1QEAVMemoryManager@1@@Z 0000000180092548 f i xerces-c_3_1:ValidationContextImpl.cpp.obj
 0001:000915e0       ??_EXMLRefInfo@xercesc_3_1@@UEAAPEAXI@Z 00000001800925e0 f i  CIL library: CIL module
 0001:000915e0       ??_GXMLRefInfo@xercesc_3_1@@UEAAPEAXI@Z 00000001800925e0 f i xerces-c_3_1:ValidationContextImpl.cpp.obj
 0001:00091640       ??0InvalidDatatypeValueException@xercesc_3_1@@QEAA@AEBV01@@Z 0000000180092640 f i xerces-c_3_1:ValidationContextImpl.cpp.obj
 0001:00091664       ??1InvalidDatatypeValueException@xercesc_3_1@@UEAA@XZ 0000000180092664 f i xerces-c_3_1:ValidationContextImpl.cpp.obj
 0001:00091674       ?duplicate@InvalidDatatypeValueException@xercesc_3_1@@UEBAPEAVXMLException@2@XZ 0000000180092674 f i xerces-c_3_1:ValidationContextImpl.cpp.obj
 0001:000916d8       ?getType@InvalidDatatypeValueException@xercesc_3_1@@UEBAPEB_WXZ 00000001800926d8 f i xerces-c_3_1:ValidationContextImpl.cpp.obj
 0001:000916e0       ??_EInvalidDatatypeValueException@xercesc_3_1@@UEAAPEAXI@Z 00000001800926e0 f i  CIL library: CIL module
 0001:000916e0       ??_GInvalidDatatypeValueException@xercesc_3_1@@UEAAPEAXI@Z 00000001800926e0 f i xerces-c_3_1:ValidationContextImpl.cpp.obj
 0001:00091720       ??1ValidationContextImpl@xercesc_3_1@@UEAA@XZ 0000000180092720 f   xerces-c_3_1:ValidationContextImpl.cpp.obj
 0001:0009178c       ??_EValidationContextImpl@xercesc_3_1@@UEAAPEAXI@Z 000000018009278c f i  CIL library: CIL module
 0001:0009178c       ??_GValidationContextImpl@xercesc_3_1@@UEAAPEAXI@Z 000000018009278c f i xerces-c_3_1:ValidationContextImpl.cpp.obj
 0001:000917c8       ??0ValidationContextImpl@xercesc_3_1@@QEAA@QEAVMemoryManager@1@@Z 00000001800927c8 f   xerces-c_3_1:ValidationContextImpl.cpp.obj
 0001:00091894       ?setIdRefList@ValidationContextImpl@xercesc_3_1@@UEAAXQEAV?$RefHashTableOf@VXMLRefInfo@xercesc_3_1@@UStringHasher@2@@2@@Z 0000000180092894 f   xerces-c_3_1:ValidationContextImpl.cpp.obj
 0001:000918f0       ?clearIdRefList@ValidationContextImpl@xercesc_3_1@@UEAAXXZ 00000001800928f0 f   xerces-c_3_1:ValidationContextImpl.cpp.obj
 0001:00091908       ?addId@ValidationContextImpl@xercesc_3_1@@UEAAXQEB_W@Z 0000000180092908 f   xerces-c_3_1:ValidationContextImpl.cpp.obj
 0001:00091a1c       ?addIdRef@ValidationContextImpl@xercesc_3_1@@UEAAXQEB_W@Z 0000000180092a1c f   xerces-c_3_1:ValidationContextImpl.cpp.obj
 0001:00091ac4       ?toCheckIdRefList@ValidationContextImpl@xercesc_3_1@@UEAAX_N@Z 0000000180092ac4 f   xerces-c_3_1:ValidationContextImpl.cpp.obj
 0001:00091ac8       ?setEntityDeclPool@ValidationContextImpl@xercesc_3_1@@UEAAPEBV?$NameIdPool@VDTDEntityDecl@xercesc_3_1@@@2@QEBV32@@Z 0000000180092ac8 f   xerces-c_3_1:ValidationContextImpl.cpp.obj
 0001:00091ad4       ?checkEntity@ValidationContextImpl@xercesc_3_1@@UEBAXQEB_W@Z 0000000180092ad4 f   xerces-c_3_1:ValidationContextImpl.cpp.obj
 0001:00091be4       ?isPrefixUnknown@ValidationContextImpl@xercesc_3_1@@UEAA_NPEA_W@Z 0000000180092be4 f   xerces-c_3_1:ValidationContextImpl.cpp.obj
 0001:00091cc0       ?getURIForPrefix@ValidationContextImpl@xercesc_3_1@@UEAAPEB_WPEA_W@Z 0000000180092cc0 f   xerces-c_3_1:ValidationContextImpl.cpp.obj
 0001:00091d30       ?lookupByName@XMLURL@xercesc_3_1@@SA?AW4Protocols@12@QEB_W@Z 0000000180092d30 f   xerces-c_3_1:XMLURL.cpp.obj
 0001:00091d7c       ??_EXMLURL@xercesc_3_1@@UEAAPEAXI@Z 0000000180092d7c f i  CIL library: CIL module
 0001:00091d7c       ??_GXMLURL@xercesc_3_1@@UEAAPEAXI@Z 0000000180092d7c f i xerces-c_3_1:XMLURL.cpp.obj
 0001:00091dbc       ??0XMLURL@xercesc_3_1@@QEAA@QEB_WQEAVMemoryManager@1@@Z 0000000180092dbc f   xerces-c_3_1:XMLURL.cpp.obj
 0001:00091e70       ??0XMLURL@xercesc_3_1@@QEAA@AEBV01@@Z 0000000180092e70 f   xerces-c_3_1:XMLURL.cpp.obj
 0001:0009211c       ??1XMLURL@xercesc_3_1@@UEAA@XZ 000000018009311c f   xerces-c_3_1:XMLURL.cpp.obj
 0001:0009212c       ?setURL@XMLURL@xercesc_3_1@@QEAA_NQEB_W0AEAV12@@Z 000000018009312c f   xerces-c_3_1:XMLURL.cpp.obj
 0001:00092240       ?makeNewStream@XMLURL@xercesc_3_1@@QEBAPEAVBinInputStream@2@XZ 0000000180093240 f   xerces-c_3_1:XMLURL.cpp.obj
 0001:00092598       ?buildFullText@XMLURL@xercesc_3_1@@AEAAXXZ 0000000180093598 f   xerces-c_3_1:XMLURL.cpp.obj
 0001:00092a04       ?cleanUp@XMLURL@xercesc_3_1@@AEAAXXZ 0000000180093a04 f   xerces-c_3_1:XMLURL.cpp.obj
 0001:00092aa4       ?conglomerateWithBase@XMLURL@xercesc_3_1@@AEAA_NAEBV12@_N@Z 0000000180093aa4 f   xerces-c_3_1:XMLURL.cpp.obj
 0001:00092eac       ?parse@XMLURL@xercesc_3_1@@AEAAXQEB_W@Z 0000000180093eac f   xerces-c_3_1:XMLURL.cpp.obj
 0001:0009366c       ?parse@XMLURL@xercesc_3_1@@SA_NQEB_WAEAV12@@Z 000000018009466c f   xerces-c_3_1:XMLURL.cpp.obj
 0001:00093bd0       ??0URLInputSource@xercesc_3_1@@QEAA@AEBVXMLURL@1@QEAVMemoryManager@1@@Z 0000000180094bd0 f   xerces-c_3_1:URLInputSource.cpp.obj
 0001:00093c44       ??_EURLInputSource@xercesc_3_1@@UEAAPEAXI@Z 0000000180094c44 f i  CIL library: CIL module
 0001:00093c44       ??_GURLInputSource@xercesc_3_1@@UEAAPEAXI@Z 0000000180094c44 f i xerces-c_3_1:URLInputSource.cpp.obj
 0001:00093ca8       ??1URLInputSource@xercesc_3_1@@UEAA@XZ 0000000180094ca8 f   xerces-c_3_1:URLInputSource.cpp.obj
 0001:00093cec       ?makeStream@URLInputSource@xercesc_3_1@@UEBAPEAVBinInputStream@2@XZ 0000000180094cec f   xerces-c_3_1:URLInputSource.cpp.obj
 0001:00093cf8       ??0XSerializationException@xercesc_3_1@@QEAA@AEBV01@@Z 0000000180094cf8 f i xerces-c_3_1:XMLGrammarPoolImpl.cpp.obj
 0001:00093d1c       ??1XSerializationException@xercesc_3_1@@UEAA@XZ 0000000180094d1c f i xerces-c_3_1:XMLGrammarPoolImpl.cpp.obj
 0001:00093d2c       ?duplicate@XSerializationException@xercesc_3_1@@UEBAPEAVXMLException@2@XZ 0000000180094d2c f i xerces-c_3_1:XMLGrammarPoolImpl.cpp.obj
 0001:00093d90       ?getType@XSerializationException@xercesc_3_1@@UEBAPEB_WXZ 0000000180094d90 f i xerces-c_3_1:XMLGrammarPoolImpl.cpp.obj
 0001:00093d98       ??_GXSerializationException@xercesc_3_1@@UEAAPEAXI@Z 0000000180094d98 f i xerces-c_3_1:XMLGrammarPoolImpl.cpp.obj
 0001:00093d98       ??_EXSerializationException@xercesc_3_1@@UEAAPEAXI@Z 0000000180094d98 f i  CIL library: CIL module
 0001:00093dd8       ??1XMLGrammarPool@xercesc_3_1@@UEAA@XZ 0000000180094dd8 f i xerces-c_3_1:XMLGrammarPoolImpl.cpp.obj
 0001:00093de4       ??_EXMLGrammarPool@xercesc_3_1@@UEAAPEAXI@Z 0000000180094de4 f i  CIL library: CIL module
 0001:00093de4       ??_GXMLGrammarPool@xercesc_3_1@@UEAAPEAXI@Z 0000000180094de4 f i xerces-c_3_1:XMLGrammarPoolImpl.cpp.obj
 0001:00093e14       ?createXSModel@XMLGrammarPoolImpl@xercesc_3_1@@EEAAXXZ 0000000180094e14 f   xerces-c_3_1:XMLGrammarPoolImpl.cpp.obj
 0001:00093ea4       ??_GXMLGrammarPoolImpl@xercesc_3_1@@UEAAPEAXI@Z 0000000180094ea4 f i xerces-c_3_1:XMLGrammarPoolImpl.cpp.obj
 0001:00093ea4       ??_EXMLGrammarPoolImpl@xercesc_3_1@@UEAAPEAXI@Z 0000000180094ea4 f i  CIL library: CIL module
 0001:00093f78       ??0XMLGrammarPoolImpl@xercesc_3_1@@QEAA@QEAVMemoryManager@1@@Z 0000000180094f78 f   xerces-c_3_1:XMLGrammarPoolImpl.cpp.obj
 0001:00094034       ?cacheGrammar@XMLGrammarPoolImpl@xercesc_3_1@@UEAA_NQEAVGrammar@2@@Z 0000000180095034 f   xerces-c_3_1:XMLGrammarPoolImpl.cpp.obj
 0001:000940bc       ?retrieveGrammar@XMLGrammarPoolImpl@xercesc_3_1@@UEAAPEAVGrammar@2@QEAVXMLGrammarDescription@2@@Z 00000001800950bc f   xerces-c_3_1:XMLGrammarPoolImpl.cpp.obj
 0001:00094104       ?orphanGrammar@XMLGrammarPoolImpl@xercesc_3_1@@UEAAPEAVGrammar@2@QEB_W@Z 0000000180095104 f   xerces-c_3_1:XMLGrammarPoolImpl.cpp.obj
 0001:00094154       ?getGrammarEnumerator@XMLGrammarPoolImpl@xercesc_3_1@@UEBA?AV?$RefHashTableOfEnumerator@VGrammar@xercesc_3_1@@UStringHasher@2@@2@XZ 0000000180095154 f   xerces-c_3_1:XMLGrammarPoolImpl.cpp.obj
 0001:0009417c       ?clear@XMLGrammarPoolImpl@xercesc_3_1@@UEAA_NXZ 000000018009517c f   xerces-c_3_1:XMLGrammarPoolImpl.cpp.obj
 0001:000941d0       ?lockPool@XMLGrammarPoolImpl@xercesc_3_1@@UEAAXXZ 00000001800951d0 f   xerces-c_3_1:XMLGrammarPoolImpl.cpp.obj
 0001:00094278       ?unlockPool@XMLGrammarPoolImpl@xercesc_3_1@@UEAAXXZ 0000000180095278 f   xerces-c_3_1:XMLGrammarPoolImpl.cpp.obj
 0001:000942e8       ?createDTDGrammar@XMLGrammarPoolImpl@xercesc_3_1@@UEAAPEAVDTDGrammar@2@XZ 00000001800952e8 f   xerces-c_3_1:XMLGrammarPoolImpl.cpp.obj
 0001:00094340       ?createSchemaGrammar@XMLGrammarPoolImpl@xercesc_3_1@@UEAAPEAVSchemaGrammar@2@XZ 0000000180095340 f   xerces-c_3_1:XMLGrammarPoolImpl.cpp.obj
 0001:00094398       ?createDTDDescription@XMLGrammarPoolImpl@xercesc_3_1@@UEAAPEAVXMLDTDDescription@2@QEB_W@Z 0000000180095398 f   xerces-c_3_1:XMLGrammarPoolImpl.cpp.obj
