 ConEmu.x64

 Timestamp is 56e1ee4c (Fri Mar 11 00:59:40 2016)

 Preferred load address is 0000000180000000

 Start         Length     Name                   Class
 0001:00000000 000002a7H .text                   CODE
 0001:000002b0 00000041H .text$di                CODE
 0001:00000300 0007b975H .text$mn                CODE
 0001:0007bc80 00000012H .text$mn$00             CODE
 0001:0007bca0 00000660H .text$x                 CODE
 0001:0007c300 00000015H .text$yd                CODE
 0002:00000000 00000800H .idata$5                DATA
 0002:00000800 00000010H .00cfg                  DATA
 0002:00000810 00000008H .CRT$XCA                DATA
 0002:00000818 00000010H .CRT$XCU                DATA
 0002:00000828 00000008H .CRT$XCZ                DATA
 0002:00000830 00000008H .CRT$XIA                DATA
 0002:00000838 00000020H .CRT$XIC                DATA
 0002:00000858 00000008H .CRT$XIZ                DATA
 0002:00000860 00000008H .CRT$XLA                DATA
 0002:00000868 00000008H .CRT$XLZ                DATA
 0002:00000870 00000008H .CRT$XPA                DATA
 0002:00000878 00000010H .CRT$XPX                DATA
 0002:00000888 00000008H .CRT$XPXA               DATA
 0002:00000890 00000008H .CRT$XPZ                DATA
 0002:00000898 00000008H .CRT$XTA                DATA
 0002:000008a0 00000008H .CRT$XTZ                DATA
 0002:000008b0 0000e644H .rdata                  DATA
 0002:0000eef8 00000028H .rdata$T                DATA
 0002:0000ef20 0000036cH .rdata$r                DATA
 0002:0000f290 00000010H .rdata$zETW0            DATA
 0002:0000f2a0 00000077H .rdata$zETW1            DATA
 0002:0000f317 0000002cH .rdata$zETW2            DATA
 0002:0000f343 00000001H .rdata$zETW9            DATA
 0002:0000f344 0000046cH .rdata$zzzdbg           DATA
 0002:0000f7b0 00000008H .rtc$IAA                DATA
 0002:0000f7b8 00000008H .rtc$IZZ                DATA
 0002:0000f7c0 00000008H .rtc$TAA                DATA
 0002:0000f7c8 00000008H .rtc$TZZ                DATA
 0002:0000f7d0 00005edcH .xdata                  DATA
 0002:000156b0 000002e1H .edata                  DATA
 0002:00015994 00000078H .idata$2                DATA
 0002:00015a0c 00000014H .idata$3                DATA
 0002:00015a20 00000800H .idata$4                DATA
 0002:00016220 00001288H .idata$6                DATA
 0003:00000000 00000c44H .data                   DATA
 0003:00000c48 000000f0H .data$r                 DATA
 0003:00000d40 0000c1e8H .bss                    DATA
 0004:00000000 00005e44H .pdata                  DATA
 0005:00000000 00000001H .tls                    DATA
 0005:00000004 00000004H .tls$                   DATA
 0005:00000008 00000001H .tls$ZZZ                DATA
 0006:00000000 000000dcH .gfids$x                DATA
 0006:000000dc 00000088H .gfids$y                DATA
 0007:00000000 00000058H .rsrc$01                DATA
 0007:00000060 000002d8H .rsrc$02                DATA

  Address         Publics by Value              Rva+Base               Lib:Object

 0000:00000000       __guard_longjmp_count      0000000000000000     <absolute>
 0000:00000000       __guard_fids_count         0000000000000000     <absolute>
 0000:00000000       ___safe_se_handler_table   0000000000000000     <absolute>
 0000:00000000       __guard_longjmp_table      0000000000000000     <absolute>
 0000:00000000       ___safe_se_handler_count   0000000000000000     <absolute>
 0000:00000000       __guard_iat_table          0000000000000000     <absolute>
 0000:00000000       __guard_fids_table         0000000000000000     <absolute>
 0000:00000000       __guard_iat_count          0000000000000000     <absolute>
 0000:00000100       __guard_flags              0000000000000100     <absolute>
 0000:00000000       __ImageBase                0000000180000000     <linker-defined>
 0001:00000000       ?TraceLoggingRegister@__vcrt_trace_logging_provider@@YAJPEBU_TlgProvider_t@1@PEBU_GUID@@P6AX1KE_K2PEAU_EVENT_FILTER_DESCRIPTOR@@PEAX@Z4@Z 0000000180001000 f i libvcruntime:telemetry.obj
 0001:0000007c       ?TraceLoggingSetInformation@__vcrt_trace_logging_provider@@YAJPEBU_TlgProvider_t@1@W4_EVENT_INFO_CLASS@@PEAXK@Z 000000018000107c f i libvcruntime:telemetry.obj
 0001:000000a0       ?TraceLoggingUnregister@__vcrt_trace_logging_provider@@YAXPEBU_TlgProvider_t@1@@Z 00000001800010a0 f i libvcruntime:telemetry.obj
 0001:000000c0       ?_TlgCreateSz@__vcrt_trace_logging_provider@@YAXPEAU_EVENT_DATA_DESCRIPTOR@@PEBD@Z 00000001800010c0 f i libvcruntime:telemetry.obj
 0001:000000ec       ?_TlgCreateWsz@__vcrt_trace_logging_provider@@YAXPEAU_EVENT_DATA_DESCRIPTOR@@PEB_W@Z 00000001800010ec f i libvcruntime:telemetry.obj
 0001:00000124       ?_TlgEnableCallback@__vcrt_trace_logging_provider@@YAXPEBU_GUID@@KE_K1PEAU_EVENT_FILTER_DESCRIPTOR@@PEAX@Z 0000000180001124 f i libvcruntime:telemetry.obj
 0001:000001e8       ?_TlgKeywordOn@__vcrt_trace_logging_provider@@YAEPEBU_TlgProvider_t@1@_K@Z 00000001800011e8 f i libvcruntime:telemetry.obj
 0001:0000020c       ?_TlgWrite@__vcrt_trace_logging_provider@@YAJPEBU_TlgProvider_t@1@PEFBXPEBU_GUID@@2IPEAU_EVENT_DATA_DESCRIPTOR@@@Z 000000018000120c f i libvcruntime:telemetry.obj
 0001:00000300       ??$klMin@_J@@YAAEB_JAEB_J0@Z 0000000180001300 f i CEStr.obj
 0001:00000350       ??0CEStr@@QEAA@$$QEAPEA_W@Z 0000000180001350 f   CEStr.obj
 0001:000003a0       ??0CEStr@@QEAA@PEB_W@Z     00000001800013a0 f   CEStr.obj
 0001:00000400       ??0CEStr@@QEAA@XZ          0000000180001400 f   CEStr.obj
 0001:00000440       ??1CEStr@@QEAA@XZ          0000000180001440 f   CEStr.obj
 0001:000004d0       ??4CEStr@@QEAAAEAU0@$$QEAPEA_W@Z 00000001800014d0 f   CEStr.obj
 0001:00000500       ??4CEStr@@QEAAAEAU0@PEB_W@Z 0000000180001500 f   CEStr.obj
 0001:00000530       ??BCEStr@@QEBAPEB_WXZ      0000000180001530 f   CEStr.obj
 0001:00000540       ?Attach@CEStr@@QEAAPEB_W$$QEAPEA_W@Z 0000000180001540 f   CEStr.obj
 0001:00000570       ?AttachInt@CEStr@@AEAAPEB_WAEAPEA_W@Z 0000000180001570 f   CEStr.obj
 0001:00000610       ?Detach@CEStr@@QEAAPEA_WXZ 0000000180001610 f   CEStr.obj
 0001:00000650       ?Empty@CEStr@@QEAAXXZ      0000000180001650 f   CEStr.obj
 0001:000006c0       ?GetBuffer@CEStr@@QEAAPEA_W_J@Z 00000001800016c0 f   CEStr.obj
 0001:00000820       ?GetLen@CEStr@@QEAA_JXZ    0000000180001820 f   CEStr.obj
 0001:00000870       ?GetMaxCount@CEStr@@QEAA_JXZ 0000000180001870 f   CEStr.obj
 0001:000008c0       ?GetPosFrom@CEStr@@QEAAXAEBU1@@Z 00000001800018c0 f   CEStr.obj
 0001:00000910       ?IsEmpty@CEStr@@QEAA_NXZ   0000000180001910 f   CEStr.obj
 0001:00000950       ?Right@CEStr@@QEBAPEB_W_J@Z 0000000180001950 f   CEStr.obj
 0001:000009e0       ?SaveEnvVar@CEStr@@QEAAXPEB_W0@Z 00000001800019e0 f   CEStr.obj
 0001:00000aa0       ?SavePathVar@CEStr@@QEAAXPEB_W@Z 0000000180001aa0 f   CEStr.obj
 0001:00000b00       ?Set@CEStr@@QEAAPEB_WPEB_W_J@Z 0000000180001b00 f   CEStr.obj
 0001:00000c60       ?SetAt@CEStr@@QEAAX_J_W@Z  0000000180001c60 f   CEStr.obj
 0001:00000cb0       ?StringCchCopyNW@@YAJPEA_W_KPEB_W1@Z 0000000180001cb0 f i CEStr.obj
 0001:00000e80       ?c_str@CEStr@@QEBAPEB_WPEB_W@Z 0000000180001e80 f   CEStr.obj
 0001:00000ec0       wmemmove                   0000000180001ec0 f i CEStr.obj
 0001:00000f00       ??0MWow64Disable@@QEAA@XZ  0000000180001f00 f i CmdLine.obj
 0001:00000fa0       ??1MWow64Disable@@QEAA@XZ  0000000180001fa0 f i CmdLine.obj
 0001:00000fc0       ?AddEndSlash@@YAHPEA_WH@Z  0000000180001fc0 f   CmdLine.obj
 0001:00001050       ?CheckProcessName@@YA_NPEB_WPEAPEB_W@Z 0000000180002050 f   CmdLine.obj
 0001:000011f0       ?CompareFileMask@@YA_NPEB_W0@Z 00000001800021f0 f   CmdLine.obj
 0001:00001400       ?CompareProcessNames@@YA_NPEB_W0@Z 0000000180002400 f   CmdLine.obj
 0001:00001660       ?DemangleArg@@YA_NAEAUCEStr@@_N1@Z 0000000180002660 f   CmdLine.obj
 0001:000019e0       ?Disable@MWow64Disable@@QEAAXXZ 00000001800029e0 f i CmdLine.obj
 0001:00001a20       ?GetDirectory@@YAHAEAUCEStr@@@Z 0000000180002a20 f   CmdLine.obj
 0001:00001ac0       ?GetDrive@@YAPEB_WPEB_WPEA_WH@Z 0000000180002ac0 f   CmdLine.obj
 0001:00001dc0       ?IsCmdProcessor@@YA_NPEB_W@Z 0000000180002dc0 f   CmdLine.obj
 0001:00001e00       ?IsConEmuGui@@YA_NPEB_W@Z  0000000180002e00 f   CmdLine.obj
 0001:00001e40       ?IsConsoleServer@@YA_NPEB_W@Z 0000000180002e40 f   CmdLine.obj
 0001:00001e80       ?IsConsoleService@@YA_NPEB_W@Z 0000000180002e80 f   CmdLine.obj
 0001:00001ec0       ?IsExecutable@@YA_NPEB_WPEAPEA_W@Z 0000000180002ec0 f   CmdLine.obj
 0001:00001fe0       ?IsFarExe@@YA_NPEB_W@Z     0000000180002fe0 f   CmdLine.obj
 0001:00002020       ?IsFilePath@@YA_NPEB_W_N@Z 0000000180003020 f   CmdLine.obj
 0001:000022d0       ?IsGitBashHelper@@YA_NPEB_W@Z 00000001800032d0 f   CmdLine.obj
 0001:00002310       ?IsNeedCmd@@YA_NHPEB_WAEAUCEStr@@PEAPEB_WPEAH333@Z 0000000180003310 f   CmdLine.obj
 0001:00002d90       ?IsNeedDequote@@YA_NPEB_W_NPEAPEB_W@Z 0000000180003d90 f   CmdLine.obj
 0001:00003050       ?IsNewConsoleArg@@YA_NPEB_W0@Z 0000000180004050 f   CmdLine.obj
 0001:00003170       ?IsQuotationNeeded@@YA_NPEB_W@Z 0000000180004170 f   CmdLine.obj
 0001:000031d0       ?IsTerminalServer@@YA_NPEB_W@Z 00000001800041d0 f   CmdLine.obj
 0001:00003240       ?JoinPath@@YAPEA_WPEB_W00@Z 0000000180004240 f   CmdLine.obj
 0001:000034e0       ?MergeCmdLine@@YAPEA_WPEB_W0@Z 00000001800044e0 f   CmdLine.obj
 0001:00003630       ?NextArg@@YAHPEAPEB_WAEAUCEStr@@0@Z 0000000180004630 f   CmdLine.obj
 0001:00003bf0       ?NextLine@@YAHPEAPEB_WAEAUCEStr@@K@Z 0000000180004bf0 f   CmdLine.obj
 0001:00003de0       ?PointToExt@@YAPEB_WPEB_W@Z 0000000180004de0 f   CmdLine.obj
 0001:00003e30       ?PointToName@@YAPEBDPEBD@Z 0000000180004e30 f   CmdLine.obj
 0001:00003ee0       ?PointToName@@YAPEB_WPEB_W@Z 0000000180004ee0 f   CmdLine.obj
 0001:00003f90       ?Restore@MWow64Disable@@QEAAXXZ 0000000180004f90 f i CmdLine.obj
 0001:00003fe0       ?SkipNonPrintable@@YAPEB_WPEB_W@Z 0000000180004fe0 f   CmdLine.obj
 0001:00004050       ?Unquote@@YAPEB_WPEA_W_N@Z 0000000180005050 f   CmdLine.obj
 0001:00004100       ?wcschr@@YAPEA_WPEA_W_W@Z  0000000180005100 f i CmdLine.obj
 0001:00004130       ?wcsrchr@@YAPEA_WPEA_W_W@Z 0000000180005130 f i CmdLine.obj
 0001:00004160       ??BSTRPTR2@@QEAAPEB_WXZ    0000000180005160 f   Common.obj
 0001:00004180       ?CommonShutdown@@YAXXZ     0000000180005180 f   Common.obj
 0001:000041a0       ?Demangle@STRPTR2@@QEAAPEA_WXZ 00000001800051a0 f   Common.obj
 0001:000041f0       ?GetCommand@CESERVER_REQ_NEWCMD@@QEAAPEA_WXZ 00000001800051f0 f   Common.obj
 0001:00004240       ?GetEnvStrings@CESERVER_REQ_NEWCMD@@QEAAPEA_WXZ 0000000180005240 f   Common.obj
 0001:00004290       ?IsEnvBlockVariableValid@@YA_NPEB_W@Z 0000000180005290 f   Common.obj
 0001:000042e0       ?IsEnvBlockVariableValid@@YA_NPEB_WAEAPEB_W@Z 00000001800052e0 f   Common.obj
 0001:00004350       ?Mangle@STRPTR2@@QEAAPEAEPEAE@Z 0000000180005350 f   Common.obj
 0001:00004420       ?PackInputRecord@@YAHPEBU_INPUT_RECORD@@PEAUMsgStr@MSG64@@@Z 0000000180005420 f   Common.obj
 0001:000046e0       ?Set@STRPTR2@@QEAAX$$QEAPEA_WH@Z 00000001800056e0 f   Common.obj
 0001:00004730       ?SetCommand@CESERVER_REQ_NEWCMD@@QEAAXPEB_W@Z 0000000180005730 f   Common.obj
 0001:000047e0       ?SetEnvStrings@CESERVER_REQ_NEWCMD@@QEAAXPEB_WK@Z 00000001800057e0 f   Common.obj
 0001:00004980       ?TranslateKeyPress@@YAXGK_WHPEAU_INPUT_RECORD@@1@Z 0000000180005980 f   Common.obj
 0001:00004be0       ?UnpackInputRecord@@YAHPEBUMsgStr@MSG64@@PEAU_INPUT_RECORD@@@Z 0000000180005be0 f   Common.obj
 0001:00004ec0       ??$wcscpy_c@$0CA@@@YAHAEAY0CA@_WPEB_W@Z 0000000180005ec0 f i ConEmuCheck.obj
 0001:00004ef0       ??$wcscpy_c@$0CAI@@@YAHAEAY0CAI@_WPEB_W@Z 0000000180005ef0 f i ConEmuCheck.obj
 0001:00004f20       ??0?$MFileMapping@UCESERVER_CONSOLE_MAPPING_HDR@@@@QEAA@XZ 0000000180005f20 f i ConEmuCheck.obj
 0001:00004fa0       ??0?$MFileMapping@UConEmuGuiMapping@@@@QEAA@XZ 0000000180005fa0 f i ConEmuCheck.obj
 0001:00005020       ??1?$MFileMapping@UCESERVER_CONSOLE_MAPPING_HDR@@@@QEAA@XZ 0000000180006020 f i ConEmuCheck.obj
 0001:00005050       ??1?$MFileMapping@UConEmuGuiMapping@@@@QEAA@XZ 0000000180006050 f i ConEmuCheck.obj
 0001:00005080       ??BHWND2@@QEBAKXZ          0000000180006080 f i ConEmuCheck.obj
 0001:00005090       ??BHWND2@@QEBAPEAUHWND__@@XZ 0000000180006090 f i ConEmuCheck.obj
 0001:000050a0       ?AllocateSendCurrentDirectory@@YA_NAEAPEAUCESERVER_REQ@@AEAKPEB_W2@Z 00000001800060a0 f   ConEmuCheck.obj
 0001:000051f0       ?CloseMap@?$MFileMapping@UCESERVER_CONSOLE_MAPPING_HDR@@@@QEAAXXZ 00000001800061f0 f i ConEmuCheck.obj
 0001:00005280       ?CloseMap@?$MFileMapping@UConEmuGuiMapping@@@@QEAAXXZ 0000000180006280 f i ConEmuCheck.obj
 0001:00005310       ?ClosePtr@?$MFileMapping@UCESERVER_CONSOLE_MAPPING_HDR@@@@QEAAXXZ 0000000180006310 f i ConEmuCheck.obj
 0001:00005350       ?ClosePtr@?$MFileMapping@UConEmuGuiMapping@@@@QEAAXXZ 0000000180006350 f i ConEmuCheck.obj
 0001:00005390       ?ConEmuCheck@@YAHPEAPEAUHWND__@@@Z 0000000180006390 f   ConEmuCheck.obj
 0001:000053e0       ?ExecuteCmd@@YAPEAUCESERVER_REQ@@PEB_WPEAU1@KPEAUHWND__@@HKH@Z 00000001800063e0 f   ConEmuCheck.obj
 0001:00005780       ?ExecuteFreeResult@@YAXAEAPEAUCESERVER_REQ@@@Z 0000000180006780 f   ConEmuCheck.obj
 0001:000057c0       ?ExecuteGuiCmd@@YAPEAUCESERVER_REQ@@PEAUHWND__@@PEAU1@0H@Z 00000001800067c0 f   ConEmuCheck.obj
 0001:00005890       ?ExecuteHkCmd@@YAPEAUCESERVER_REQ@@KPEAU1@PEAUHWND__@@HH@Z 0000000180006890 f   ConEmuCheck.obj
 0001:00005950       ?ExecuteNewCmd@@YAPEAUCESERVER_REQ@@K_K@Z 0000000180006950 f   ConEmuCheck.obj
 0001:000059c0       ?ExecuteNewCmd@@YA_NAEAPEAUCESERVER_REQ@@AEAKK_K@Z 00000001800069c0 f   ConEmuCheck.obj
 0001:00005a80       ?ExecuteNewCmdOnCreate@@YAPEAUCESERVER_REQ@@PEAUCESERVER_CONSOLE_MAPPING_HDR@@PEAUHWND__@@W4CmdOnCreateType@@PEB_W33PEAK444HHPEAX55@Z 0000000180006a80 f   ConEmuCheck.obj
 0001:00005fa0       ?ExecuteOpenPipe@@YAPEAXPEB_WAEAY0CAI@_W0KKHPEAXH@Z 0000000180006fa0 f   ConEmuCheck.obj
 0001:00006290       ?ExecutePrepareCmd@@YAXPEAUCESERVER_REQ@@K_K@Z 0000000180007290 f   ConEmuCheck.obj
 0001:000062f0       ?ExecutePrepareCmd@@YAXPEAUCESERVER_REQ_HDR@@K_K@Z 00000001800072f0 f   ConEmuCheck.obj
 0001:000063b0       ?ExecuteSrvCmd@@YAPEAUCESERVER_REQ@@KPEAU1@PEAUHWND__@@HKH@Z 00000001800073b0 f   ConEmuCheck.obj
 0001:00006470       ?GetConEmuHWND@@YAPEAUHWND__@@H@Z 0000000180007470 f   ConEmuCheck.obj
 0001:000066a0       ?GuiMessageBox@@YAHPEAUHWND__@@PEB_W1H@Z 00000001800076a0 f   ConEmuCheck.obj
 0001:00006840       ?InitName@?$MFileMapping@UCESERVER_CONSOLE_MAPPING_HDR@@@@QEAAPEB_WPEB_WKK@Z 0000000180007840 f i ConEmuCheck.obj
 0001:000068b0       ?InitName@?$MFileMapping@UConEmuGuiMapping@@@@QEAAPEB_WPEB_WKK@Z 00000001800078b0 f i ConEmuCheck.obj
 0001:00006920       ?InternalOpenCreate@?$MFileMapping@UCESERVER_CONSOLE_MAPPING_HDR@@@@IEAAPEAUCESERVER_CONSOLE_MAPPING_HDR@@HHH@Z 0000000180007920 f i ConEmuCheck.obj
 0001:00006be0       ?InternalOpenCreate@?$MFileMapping@UConEmuGuiMapping@@@@IEAAPEAUConEmuGuiMapping@@HHH@Z 0000000180007be0 f i ConEmuCheck.obj
 0001:00006ea0       ?LoadGuiMapping@@YAHKAEAUConEmuGuiMapping@@@Z 0000000180007ea0 f   ConEmuCheck.obj
 0001:00006fd0       ?LoadSrvMapping@@YAHPEAUHWND__@@AEAUCESERVER_CONSOLE_MAPPING_HDR@@@Z 0000000180007fd0 f   ConEmuCheck.obj
 0001:00007110       ?ModuleName@@YAPEB_WPEB_W@Z 0000000180008110 f   ConEmuCheck.obj
 0001:00007210       ?Open@?$MFileMapping@UCESERVER_CONSOLE_MAPPING_HDR@@@@QEAAPEAUCESERVER_CONSOLE_MAPPING_HDR@@HH@Z 0000000180008210 f i ConEmuCheck.obj
 0001:00007240       ?Open@?$MFileMapping@UConEmuGuiMapping@@@@QEAAPEAUConEmuGuiMapping@@HH@Z 0000000180008240 f i ConEmuCheck.obj
 0001:00007270       ?SendCurrentDirectory@@YAXPEAUHWND__@@PEB_W1@Z 0000000180008270 f   ConEmuCheck.obj
 0001:000072f0       ?StringCchCopyW@@YAJPEA_W_KPEB_W@Z 00000001800082f0 f i ConEmuCheck.obj
 0001:000074a0       ?isConsoleClass@@YA_NPEB_W@Z 00000001800084a0 f   ConEmuCheck.obj
 0001:00007500       ?isConsoleWindow@@YA_NPEAUHWND__@@@Z 0000000180008500 f   ConEmuCheck.obj
 0001:00007620       ?myGetConsoleWindow@@YAPEAUHWND__@@XZ 0000000180008620 f   ConEmuCheck.obj
 0001:00007710       ??$wcscat_c@$0BAF@@@YAHAEAY0BAF@_WPEB_W@Z 0000000180008710 f i ConEmuCheckEx.obj
 0001:00007740       ??$wcscpy_add@$0BAF@@@YAHPEA_WAEAY0BAF@_WPEB_W@Z 0000000180008740 f i ConEmuCheckEx.obj
 0001:000077b0       ??$wcscpy_c@$0BAF@@@YAHAEAY0BAF@_WPEB_W@Z 00000001800087b0 f i ConEmuCheckEx.obj
 0001:000077e0       ?FindConEmuBaseDir@@YAHAEAY0BAF@_W0PEAUHINSTANCE__@@@Z 00000001800087e0 f   ConEmuCheckEx.obj
 0001:00007e60       ?IsConEmuExeExist@@YAHPEB_WAEAY0BAF@_W@Z 0000000180008e60 f   ConEmuCheckEx.obj
 0001:00007f30       ?LoadGuiMapping@@YAHPEAUHWND__@@AEAUConEmuGuiMapping@@@Z 0000000180008f30 f   ConEmuCheckEx.obj
 0001:00007f80       ?StringCchCatW@@YAJPEA_W_KPEB_W@Z 0000000180008f80 f i ConEmuCheckEx.obj
 0001:00008240       ??$wcscpy_c@$0EA@@@YAHAEAY0EA@_WPEB_W@Z 0000000180009240 f i ConEmuInjects.obj
 0001:00008270       ?ShutdownHooks@@YAXXZ      0000000180009270 f   ConEmuInjects.obj
 0001:00008500       ?StartupHooks@@YA_NPEAUHINSTANCE__@@@Z 0000000180009500 f   ConEmuInjects.obj
 0001:00008b20       ?ProcessSynchroEventW3@@YA_JPEAX@Z 0000000180009b20 f   ConEmuPlugin.obj
 0001:00008b60       ?ProcessEditorEventW3@@YA_JPEAX@Z 0000000180009b60 f   ConEmuPlugin.obj
 0001:00008ba0       ?ProcessViewerEventW3@@YA_JPEAX@Z 0000000180009ba0 f   ConEmuPlugin.obj
 0001:00008be0       ?ExitFARW3@@YAXPEAX@Z      0000000180009be0 f   ConEmuPlugin.obj
 0001:00008c50       ExitFARW                   0000000180009c50 f   ConEmuPlugin.obj
 0001:00008cc0       ProcessEditorEventW        0000000180009cc0 f   ConEmuPlugin.obj
 0001:00008cf0       ProcessSynchroEventW       0000000180009cf0 f   ConEmuPlugin.obj
 0001:00008d20       ProcessViewerEventW        0000000180009d20 f   ConEmuPlugin.obj
 0001:00008d50       ??4HWND2@@QEAAAEAU0@PEAUHWND__@@@Z 0000000180009d50 f i ConEmuPlugin.obj
 0001:00008d70       ?ActivateConsole@@YAHXZ    0000000180009d70 f   ConEmuPlugin.obj
 0001:00009100       ?ExitFAR@@YAXXZ            000000018000a100 f   ConEmuPlugin.obj
 0001:00009170       ?GetFarHWND2@@YAPEAUHWND__@@H@Z 000000018000a170 f   ConEmuPlugin.obj
 0001:00009200       ?GetFarHWND@@YAPEAUHWND__@@XZ 000000018000a200 f   ConEmuPlugin.obj
 0001:00009210       ?GetFarVersion@@YAXPEAUFarVersion@@@Z 000000018000a210 f   ConEmuPlugin.obj
 0001:00009240       ?GetMinFarVersion@@YAHXZ   000000018000a240 f   ConEmuPlugin.obj
 0001:000092b0       ?GetPluginInfo@@YAXPEAX@Z  000000018000a2b0 f   ConEmuPlugin.obj
 0001:00009320       ?GetPluginInfoW@@YAXPEAX@Z 000000018000a320 f   ConEmuPlugin.obj
 0001:00009350       ?IsConsoleActive@@YAHXZ    000000018000a350 f   ConEmuPlugin.obj
 0001:000093d0       ?IsTerminalMode@@YAHXZ     000000018000a3d0 f   ConEmuPlugin.obj
 0001:000093e0       ?OpenPlugin@@YAPEAXH_J@Z   000000018000a3e0 f   ConEmuPlugin.obj
 0001:00009410       ?OpenW@@YAPEAXPEBX@Z       000000018000a410 f   ConEmuPlugin.obj
 0001:00009440       ?ProcessEditorEvent@@YAHHPEAX@Z 000000018000a440 f   ConEmuPlugin.obj
 0001:00009470       ?ProcessEditorInput@@YAHPEBU_INPUT_RECORD@@@Z 000000018000a470 f   ConEmuPlugin.obj
 0001:000094a0       ?ProcessViewerEvent@@YAHHPEAX@Z 000000018000a4a0 f   ConEmuPlugin.obj
 0001:000094d0       ?RegisterBackground@@YAHPEAURegisterBackgroundArg@@@Z 000000018000a4d0 f   ConEmuPlugin.obj
 0001:00009570       ?RegisterPanelView@@YAHPEAUPanelViewInit@@@Z 000000018000a570 f   ConEmuPlugin.obj
 0001:00009810       ?SetStartupInfo@@YAXPEAX@Z 000000018000a810 f   ConEmuPlugin.obj
 0001:00009890       ?SetupExportsFar3@@YAXXZ   000000018000a890 f   ConEmuPlugin.obj
 0001:000098c0       ?SyncExecute@@YAHPEAUHINSTANCE__@@P6AX_J@Z1@Z 000000018000a8c0 f   ConEmuPlugin.obj
 0001:00009940       ?_calloc@@YAPEAX_K0@Z      000000018000a940 f   ConEmuPlugin.obj
 0001:00009970       ?_free@@YAXPEAX@Z          000000018000a970 f   ConEmuPlugin.obj
 0001:00009990       ?_malloc@@YAPEAX_K@Z       000000018000a990 f   ConEmuPlugin.obj
 0001:000099b0       DllMain                    000000018000a9b0 f   ConEmuPlugin.obj
 0001:00009a00       GetMinFarVersionW          000000018000aa00 f   ConEmuPlugin.obj
 0001:00009a10       OpenPluginW                000000018000aa10 f   ConEmuPlugin.obj
 0001:00009a80       ProcessEditorInputW        000000018000aa80 f   ConEmuPlugin.obj
 0001:00009ab0       SetStartupInfoW            000000018000aab0 f   ConEmuPlugin.obj
 0001:00009af0       ??0CPluginW1900@@QEAA@XZ   000000018000aaf0 f   ConEmuPlugin1900.obj
 0001:00009df0       ??1CPluginW1900@@UEAA@XZ   000000018000adf0 f i ConEmuPlugin1900.obj
 0001:00009e20       ??_GCPluginW1900@@UEAAPEAXI@Z 000000018000ae20 f i ConEmuPlugin1900.obj
 0001:00009e20       ??_ECPluginW1900@@UEAAPEAXI@Z 000000018000ae20 f i ConEmuPlugin1900.obj
 0001:0000a5d0       ?CheckPanelExist@CPluginW1900@@UEAA_NXZ 000000018000b5d0 f   ConEmuPlugin1900.obj
 0001:0000a640       ?Color2BgIndex@Far3Color@@SAXKHAEAGPEBK@Z 000000018000b640 f i ConEmuPlugin1900.obj
 0001:0000a820       ?Color2FgIndex@Far3Color@@SAXKAEAGPEBK@Z 000000018000b820 f i ConEmuPlugin1900.obj
 0001:0000a9c0       ?ExecuteSynchroApi@CPluginW1900@@UEAA_NXZ 000000018000b9c0 f   ConEmuPlugin1900.obj
 0001:0000aa10       ?ExitFar@CPluginW1900@@UEAAXXZ 000000018000ba10 f   ConEmuPlugin1900.obj
 0001:0000aac0       ?FarColor_3_2@@YAEAEBUFarColor@@@Z 000000018000bac0 f i ConEmuPlugin1900.obj
 0001:0000abf0       ?GetActiveWindowType@CPluginW1900@@UEAAHXZ 000000018000bbf0 f   ConEmuPlugin1900.obj
 0001:0000acf0       ?GetEditorModifiedState@CPluginW1900@@UEAAKXZ 000000018000bcf0 f   ConEmuPlugin1900.obj
 0001:0000ad50       ?GetFarRect@CPluginW1900@@UEAA_NAEAU_SMALL_RECT@@@Z 000000018000bd50 f   ConEmuPlugin1900.obj
 0001:0000ae80       ?GetMacroArea@CPluginW1900@@UEAAHXZ 000000018000be80 f   ConEmuPlugin1900.obj
 0001:0000aec0       ?GetMsg@CPluginW1900@@UEAAPEB_WHPEA_W_K@Z 000000018000bec0 f   ConEmuPlugin1900.obj
 0001:0000af60       ?GetPanelDir@CPluginW1900@@UEAAPEA_WKPEA_WH@Z 000000018000bf60 f   ConEmuPlugin1900.obj
 0001:0000b160       ?GetPanelInfo@CPluginW1900@@UEAA_NKPEAUCEPanelInfo@@@Z 000000018000c160 f   ConEmuPlugin1900.obj
 0001:0000b6a0       ?GetPanelItemInfo@CPluginW1900@@UEAA_NAEBUCEPanelInfo@@_N_JAEAU_WIN32_FIND_DATAW@@PEAPEA_W@Z 000000018000c6a0 f   ConEmuPlugin1900.obj
 0001:0000b9d0       ?GetPluginInfoPtr@CPluginW1900@@UEAAXPEAX@Z 000000018000c9d0 f   ConEmuPlugin1900.obj
 0001:0000ba80       ?GetStdIndex@Far3Color@@SAHKPEBK@Z 000000018000ca80 f i ConEmuPlugin1900.obj
 0001:0000bb00       ?GetStdPalette@Far3Color@@SAPEBKXZ 000000018000cb00 f i ConEmuPlugin1900.obj
 0001:0000bb10       ?GetWindowCount@CPluginW1900@@UEAAHXZ 000000018000cb10 f   ConEmuPlugin1900.obj
 0001:0000bb70       ?GetWindowTypeName@CPluginW1900@@UEAAPEB_WH@Z 000000018000cb70 f   ConEmuPlugin1900.obj
 0001:0000bc30       ?GuiMacroDlg@CPluginW1900@@UEAAXXZ 000000018000cc30 f   ConEmuPlugin1900.obj
 0001:0000bc50       ?InputBox@CPluginW1900@@UEAA_NPEB_W000AEAPEA_W@Z 000000018000cc50 f   ConEmuPlugin1900.obj
 0001:0000bd10       ?IsMacroActive@CPluginW1900@@UEAA_NXZ 000000018000cd10 f   ConEmuPlugin1900.obj
 0001:0000bd70       ?LoadFarColors@CPluginW1900@@UEAAXAEAY0BAA@E@Z 000000018000cd70 f   ConEmuPlugin1900.obj
 0001:0000c0b0       ?LoadFarSettings@CPluginW1900@@UEAAXPEAUCEFarInterfaceSettings@@PEAUCEFarPanelSettings@@@Z 000000018000d0b0 f   ConEmuPlugin1900.obj
 0001:0000c2d0       ?Max@Far3Color@@SAHHH@Z    000000018000d2d0 f i ConEmuPlugin1900.obj
 0001:0000c300       ?Open@CPluginW1900@@UEAAPEAXPEBX@Z 000000018000d300 f   ConEmuPlugin1900.obj
 0001:0000c5b0       ?OpenEditor@CPluginW1900@@UEAA_NPEB_W_N11HH@Z 000000018000d5b0 f   ConEmuPlugin1900.obj
 0001:0000c7d0       ?PanelControlApi@CPluginW1900@@UEAA_JPEAXH_J0@Z 000000018000d7d0 f   ConEmuPlugin1900.obj
 0001:0000c840       ?PostMacroApi@CPluginW1900@@UEAAXPEB_WPEAU_INPUT_RECORD@@_N@Z 000000018000d840 f   ConEmuPlugin1900.obj
 0001:0000d4f0       ?ProcessEditorEventPtr@CPluginW1900@@UEAAHPEAX@Z 000000018000e4f0 f   ConEmuPlugin1900.obj
 0001:0000d530       ?ProcessEditorInputPtr@CPluginW1900@@UEAAHPEBX@Z 000000018000e530 f   ConEmuPlugin1900.obj
 0001:0000d580       ?ProcessSynchroEventPtr@CPluginW1900@@UEAAHPEAX@Z 000000018000e580 f   ConEmuPlugin1900.obj
 0001:0000d5c0       ?ProcessViewerEventPtr@CPluginW1900@@UEAAHPEAX@Z 000000018000e5c0 f   ConEmuPlugin1900.obj
 0001:0000d600       ?RedrawAll@CPluginW1900@@UEAAXXZ 000000018000e600 f   ConEmuPlugin1900.obj
 0001:0000d650       ?SetStartupInfoPtr@CPluginW1900@@UEAAXPEAX@Z 000000018000e650 f   ConEmuPlugin1900.obj
 0001:0000d830       ?SetWindow@CPluginW1900@@UEAAXH@Z 000000018000e830 f   ConEmuPlugin1900.obj
 0001:0000d8b0       ?ShowMessage@CPluginW1900@@UEAAHPEB_WH_N@Z 000000018000e8b0 f   ConEmuPlugin1900.obj
 0001:0000d970       ?ShowPluginMenu@CPluginW1900@@UEAAHPEAUConEmuPluginMenuItem@@HH@Z 000000018000e970 f   ConEmuPlugin1900.obj
 0001:0000dc30       ?ShowUserScreen@CPluginW1900@@UEAAX_N@Z 000000018000ec30 f   ConEmuPlugin1900.obj
 0001:0000dca0       ?StopWaitEndSynchro@CPluginW1900@@UEAAXXZ 000000018000eca0 f   ConEmuPlugin1900.obj
 0001:0000dcb0       ?UpdateConEmuTabsApi@CPluginW1900@@UEAA_NH@Z 000000018000ecb0 f   ConEmuPlugin1900.obj
 0001:0000e320       ?WaitEndSynchro@CPluginW1900@@UEAAXXZ 000000018000f320 f   ConEmuPlugin1900.obj
 0001:0000e330       ?wcsstr@@YAPEA_WPEA_WPEB_W@Z 000000018000f330 f i ConEmuPlugin1900.obj
 0001:0000e360       ??0?$MArray@UWindowInfo@@@@QEAA@XZ 000000018000f360 f i ConEmuPlugin2800.obj
 0001:0000e3c0       ??0CPluginW2800@@QEAA@XZ   000000018000f3c0 f   ConEmuPlugin2800.obj
 0001:0000e6c0       ??0FarMacroValue@@QEAA@XZ  000000018000f6c0 f i ConEmuPlugin2800.obj
 0001:0000e6e0       ??1?$MArray@UWindowInfo@@@@QEAA@XZ 000000018000f6e0 f i ConEmuPlugin2800.obj
 0001:0000e700       ??1CPluginW2800@@UEAA@XZ   000000018000f700 f i ConEmuPlugin2800.obj
 0001:0000e730       ??A?$MArray@UWindowInfo@@@@QEAAAEAUWindowInfo@@_J@Z 000000018000f730 f i ConEmuPlugin2800.obj
 0001:0000e750       ??A?$MArray@UWindowInfo@@@@QEBAAEBUWindowInfo@@_J@Z 000000018000f750 f i ConEmuPlugin2800.obj
 0001:0000e770       ??_ECPluginW2800@@UEAAPEAXI@Z 000000018000f770 f i ConEmuPlugin2800.obj
 0001:0000e770       ??_GCPluginW2800@@UEAAPEAXI@Z 000000018000f770 f i ConEmuPlugin2800.obj
 0001:0000ef30       ?CheckPanelExist@CPluginW2800@@UEAA_NXZ 000000018000ff30 f   ConEmuPlugin2800.obj
 0001:0000efa0       ?ExecuteSynchroApi@CPluginW2800@@UEAA_NXZ 000000018000ffa0 f   ConEmuPlugin2800.obj
 0001:0000eff0       ?ExitFar@CPluginW2800@@UEAAXXZ 000000018000fff0 f   ConEmuPlugin2800.obj
 0001:0000f0e0       ?GetActiveWindowType@CPluginW2800@@UEAAHXZ 00000001800100e0 f   ConEmuPlugin2800.obj
 0001:0000f1f0       ?GetEditorModifiedState@CPluginW2800@@UEAAKXZ 00000001800101f0 f   ConEmuPlugin2800.obj
 0001:0000f260       ?GetFarRect@CPluginW2800@@UEAA_NAEAU_SMALL_RECT@@@Z 0000000180010260 f   ConEmuPlugin2800.obj
 0001:0000f390       ?GetMacroArea@CPluginW2800@@UEAAHXZ 0000000180010390 f   ConEmuPlugin2800.obj
 0001:0000f3d0       ?GetMsg@CPluginW2800@@UEAAPEB_WHPEA_W_K@Z 00000001800103d0 f   ConEmuPlugin2800.obj
 0001:0000f470       ?GetPanelDir@CPluginW2800@@UEAAPEA_WKPEA_WH@Z 0000000180010470 f   ConEmuPlugin2800.obj
 0001:0000f670       ?GetPanelInfo@CPluginW2800@@UEAA_NKPEAUCEPanelInfo@@@Z 0000000180010670 f   ConEmuPlugin2800.obj
 0001:0000fbb0       ?GetPanelItemInfo@CPluginW2800@@UEAA_NAEBUCEPanelInfo@@_N_JAEAU_WIN32_FIND_DATAW@@PEAPEA_W@Z 0000000180010bb0 f   ConEmuPlugin2800.obj
 0001:0000fef0       ?GetPluginInfoPtr@CPluginW2800@@UEAAXPEAX@Z 0000000180010ef0 f   ConEmuPlugin2800.obj
 0001:0000ffa0       ?GetWindowCount@CPluginW2800@@UEAAHXZ 0000000180010fa0 f   ConEmuPlugin2800.obj
 0001:00010000       ?GetWindowTypeName@CPluginW2800@@UEAAPEB_WH@Z 0000000180011000 f   ConEmuPlugin2800.obj
 0001:000100c0       ?GuiMacroDlg@CPluginW2800@@UEAAXXZ 00000001800110c0 f   ConEmuPlugin2800.obj
 0001:000100e0       ?InputBox@CPluginW2800@@UEAA_NPEB_W000AEAPEA_W@Z 00000001800110e0 f   ConEmuPlugin2800.obj
 0001:000101a0       ?IsMacroActive@CPluginW2800@@UEAA_NXZ 00000001800111a0 f   ConEmuPlugin2800.obj
 0001:00010200       ?LoadFarColors@CPluginW2800@@UEAAXAEAY0BAA@E@Z 0000000180011200 f   ConEmuPlugin2800.obj
 0001:00010540       ?LoadFarSettings@CPluginW2800@@UEAAXPEAUCEFarInterfaceSettings@@PEAUCEFarPanelSettings@@@Z 0000000180011540 f   ConEmuPlugin2800.obj
 0001:000107c0       ?Open@CPluginW2800@@UEAAPEAXPEBX@Z 00000001800117c0 f   ConEmuPlugin2800.obj
 0001:00010b30       ?OpenEditor@CPluginW2800@@UEAA_NPEB_W_N11HH@Z 0000000180011b30 f   ConEmuPlugin2800.obj
 0001:00010d60       ?PanelControlApi@CPluginW2800@@UEAA_JPEAXH_J0@Z 0000000180011d60 f   ConEmuPlugin2800.obj
 0001:00010dd0       ?PostMacroApi@CPluginW2800@@UEAAXPEB_WPEAU_INPUT_RECORD@@_N@Z 0000000180011dd0 f   ConEmuPlugin2800.obj
 0001:00011400       ?ProcessEditorEventPtr@CPluginW2800@@UEAAHPEAX@Z 0000000180012400 f   ConEmuPlugin2800.obj
 0001:00011440       ?ProcessEditorInputPtr@CPluginW2800@@UEAAHPEBX@Z 0000000180012440 f   ConEmuPlugin2800.obj
 0001:00011490       ?ProcessSynchroEventPtr@CPluginW2800@@UEAAHPEAX@Z 0000000180012490 f   ConEmuPlugin2800.obj
 0001:000114d0       ?ProcessViewerEventPtr@CPluginW2800@@UEAAHPEAX@Z 00000001800124d0 f   ConEmuPlugin2800.obj
 0001:00011510       ?RedrawAll@CPluginW2800@@UEAAXXZ 0000000180012510 f   ConEmuPlugin2800.obj
 0001:00011560       ?SetStartupInfoPtr@CPluginW2800@@UEAAXPEAX@Z 0000000180012560 f   ConEmuPlugin2800.obj
 0001:00011740       ?SetWindow@CPluginW2800@@UEAAXH@Z 0000000180012740 f   ConEmuPlugin2800.obj
 0001:00011880       ?ShowMessage@CPluginW2800@@UEAAHPEB_WH_N@Z 0000000180012880 f   ConEmuPlugin2800.obj
 0001:00011940       ?ShowPluginMenu@CPluginW2800@@UEAAHPEAUConEmuPluginMenuItem@@HH@Z 0000000180012940 f   ConEmuPlugin2800.obj
 0001:00011c10       ?ShowUserScreen@CPluginW2800@@UEAAX_N@Z 0000000180012c10 f   ConEmuPlugin2800.obj
 0001:00011c80       ?StopWaitEndSynchro@CPluginW2800@@UEAAXXZ 0000000180012c80 f   ConEmuPlugin2800.obj
 0001:00011c90       ?UpdateConEmuTabsApi@CPluginW2800@@UEAA_NH@Z 0000000180012c90 f   ConEmuPlugin2800.obj
 0001:00012670       ?WaitEndSynchro@CPluginW2800@@UEAAXXZ 0000000180013670 f   ConEmuPlugin2800.obj
 0001:00012680       ?addsize@?$MArray@UWindowInfo@@@@QEAAX_J@Z 0000000180013680 f i ConEmuPlugin2800.obj
 0001:000127c0       ?clear@?$MArray@UWindowInfo@@@@QEAAXXZ 00000001800137c0 f i ConEmuPlugin2800.obj
 0001:00012810       ?erase@?$MArray@UWindowInfo@@@@QEAAX_J@Z 0000000180013810 f i ConEmuPlugin2800.obj
 0001:000128e0       ?insert@?$MArray@UWindowInfo@@@@QEAAX_JAEBUWindowInfo@@@Z 00000001800138e0 f i ConEmuPlugin2800.obj
 0001:00012a20       ?push_back@?$MArray@UWindowInfo@@@@QEAA_JAEBUWindowInfo@@@Z 0000000180013a20 f i ConEmuPlugin2800.obj
 0001:00012af0       ?size@?$MArray@UWindowInfo@@@@QEBA_JXZ 0000000180013af0 f i ConEmuPlugin2800.obj
 0001:00012b00       GetGlobalInfoW             0000000180013b00 f   ConEmuPlugin2800.obj
 0001:00012c80       ??0CPluginW995@@QEAA@XZ    0000000180013c80 f   ConEmuPlugin995.obj
 0001:00012f90       ??1CPluginW995@@UEAA@XZ    0000000180013f90 f i ConEmuPlugin995.obj
 0001:00012fc0       ??_ECPluginW995@@UEAAPEAXI@Z 0000000180013fc0 f i ConEmuPlugin995.obj
 0001:00012fc0       ??_GCPluginW995@@UEAAPEAXI@Z 0000000180013fc0 f i ConEmuPlugin995.obj
 0001:00013710       ?CheckPanelExist@CPluginW995@@UEAA_NXZ 0000000180014710 f   ConEmuPlugin995.obj
 0001:00013780       ?ExecuteSynchroApi@CPluginW995@@UEAA_NXZ 0000000180014780 f   ConEmuPlugin995.obj
 0001:000137d0       ?ExitFar@CPluginW995@@UEAAXXZ 00000001800147d0 f   ConEmuPlugin995.obj
 0001:00013880       ?GetActiveWindowType@CPluginW995@@UEAAHXZ 0000000180014880 f   ConEmuPlugin995.obj
 0001:000139a0       ?GetEditorModifiedState@CPluginW995@@UEAAKXZ 00000001800149a0 f   ConEmuPlugin995.obj
 0001:00013a00       ?GetFarRect@CPluginW995@@UEAA_NAEAU_SMALL_RECT@@@Z 0000000180014a00 f   ConEmuPlugin995.obj
 0001:00013a90       ?GetMacroArea@CPluginW995@@UEAAHXZ 0000000180014a90 f   ConEmuPlugin995.obj
 0001:00013af0       ?GetMsg@CPluginW995@@UEAAPEB_WHPEA_W_K@Z 0000000180014af0 f   ConEmuPlugin995.obj
 0001:00013b90       ?GetPanelDir@CPluginW995@@UEAAPEA_WKPEA_WH@Z 0000000180014b90 f   ConEmuPlugin995.obj
 0001:00013d50       ?GetPanelInfo@CPluginW995@@UEAA_NKPEAUCEPanelInfo@@@Z 0000000180014d50 f   ConEmuPlugin995.obj
 0001:000141b0       ?GetPanelItemInfo@CPluginW995@@UEAA_NAEBUCEPanelInfo@@_N_JAEAU_WIN32_FIND_DATAW@@PEAPEA_W@Z 00000001800151b0 f   ConEmuPlugin995.obj
 0001:000144a0       ?GetPluginInfoPtr@CPluginW995@@UEAAXPEAX@Z 00000001800154a0 f   ConEmuPlugin995.obj
 0001:00014570       ?GetWindowCount@CPluginW995@@UEAAHXZ 0000000180015570 f   ConEmuPlugin995.obj
 0001:000145d0       ?GetWindowTypeName@CPluginW995@@UEAAPEB_WH@Z 00000001800155d0 f   ConEmuPlugin995.obj
 0001:00014690       ?GuiMacroDlg@CPluginW995@@UEAAXXZ 0000000180015690 f   ConEmuPlugin995.obj
 0001:000146b0       ?InputBox@CPluginW995@@UEAA_NPEB_W000AEAPEA_W@Z 00000001800156b0 f   ConEmuPlugin995.obj
 0001:00014760       ?IsMacroActive@CPluginW995@@UEAA_NXZ 0000000180015760 f   ConEmuPlugin995.obj
 0001:000147e0       ?LoadFarColors@CPluginW995@@UEAAXAEAY0BAA@E@Z 00000001800157e0 f   ConEmuPlugin995.obj
 0001:00014a00       ?LoadFarSettings@CPluginW995@@UEAAXPEAUCEFarInterfaceSettings@@PEAUCEFarPanelSettings@@@Z 0000000180015a00 f   ConEmuPlugin995.obj
 0001:00014a90       ?Open@CPluginW995@@UEAAPEAXPEBX@Z 0000000180015a90 f i ConEmuPlugin995.obj
 0001:00014ab0       ?OpenEditor@CPluginW995@@UEAA_NPEB_W_N11HH@Z 0000000180015ab0 f   ConEmuPlugin995.obj
 0001:00014cb0       ?PanelControlApi@CPluginW995@@UEAA_JPEAXH_J0@Z 0000000180015cb0 f   ConEmuPlugin995.obj
 0001:00014d20       ?PostMacroApi@CPluginW995@@UEAAXPEB_WPEAU_INPUT_RECORD@@_N@Z 0000000180015d20 f   ConEmuPlugin995.obj
 0001:00014e50       ?ProcessEditorEventPtr@CPluginW995@@UEAAHPEAX@Z 0000000180015e50 f i ConEmuPlugin995.obj
 0001:00014e60       ?ProcessEditorInputPtr@CPluginW995@@UEAAHPEBX@Z 0000000180015e60 f   ConEmuPlugin995.obj
 0001:00014ea0       ?ProcessSynchroEventPtr@CPluginW995@@UEAAHPEAX@Z 0000000180015ea0 f i ConEmuPlugin995.obj
 0001:00014eb0       ?ProcessViewerEventPtr@CPluginW995@@UEAAHPEAX@Z 0000000180015eb0 f i ConEmuPlugin995.obj
 0001:00014ec0       ?RedrawAll@CPluginW995@@UEAAXXZ 0000000180015ec0 f   ConEmuPlugin995.obj
 0001:00014f10       ?SetStartupInfoPtr@CPluginW995@@UEAAXPEAX@Z 0000000180015f10 f   ConEmuPlugin995.obj
 0001:00015110       ?SetWindow@CPluginW995@@UEAAXH@Z 0000000180016110 f   ConEmuPlugin995.obj
 0001:00015190       ?ShowMessage@CPluginW995@@UEAAHPEB_WH_N@Z 0000000180016190 f   ConEmuPlugin995.obj
 0001:00015250       ?ShowPluginMenu@CPluginW995@@UEAAHPEAUConEmuPluginMenuItem@@HH@Z 0000000180016250 f   ConEmuPlugin995.obj
 0001:000154d0       ?ShowUserScreen@CPluginW995@@UEAAX_N@Z 00000001800164d0 f   ConEmuPlugin995.obj
 0001:00015540       ?StopWaitEndSynchro@CPluginW995@@UEAAXXZ 0000000180016540 f   ConEmuPlugin995.obj
 0001:00015580       ?UpdateConEmuTabsApi@CPluginW995@@UEAA_NH@Z 0000000180016580 f   ConEmuPlugin995.obj
 0001:000158b0       ?WaitEndSynchro@CPluginW995@@UEAAXXZ 00000001800168b0 f   ConEmuPlugin995.obj
 0001:00015b30       ??0CPluginAnsi@@QEAA@XZ    0000000180016b30 f   ConEmuPluginA.obj
 0001:00015e20       ??1CPluginAnsi@@UEAA@XZ    0000000180016e20 f i ConEmuPluginA.obj
 0001:00015e50       ??_GCPluginAnsi@@UEAAPEAXI@Z 0000000180016e50 f i ConEmuPluginA.obj
 0001:00015e50       ??_ECPluginAnsi@@UEAAPEAXI@Z 0000000180016e50 f i ConEmuPluginA.obj
 0001:00016690       ?CheckPanelExist@CPluginAnsi@@UEAA_NXZ 0000000180017690 f   ConEmuPluginA.obj
 0001:00016700       ?ExecuteSynchroApi@CPluginAnsi@@UEAA_NXZ 0000000180017700 f i ConEmuPluginA.obj
 0001:00016710       ?ExitFar@CPluginAnsi@@UEAAXXZ 0000000180017710 f   ConEmuPluginA.obj
 0001:00016770       ?GetActiveWindowType@CPluginAnsi@@UEAAHXZ 0000000180017770 f   ConEmuPluginA.obj
 0001:000167f0       ?GetEditorModifiedState@CPluginAnsi@@UEAAKXZ 00000001800177f0 f   ConEmuPluginA.obj
 0001:00016850       ?GetFarRect@CPluginAnsi@@UEAA_NAEAU_SMALL_RECT@@@Z 0000000180017850 f i ConEmuPluginA.obj
 0001:00016860       ?GetMacroArea@CPluginAnsi@@UEAAHXZ 0000000180017860 f   ConEmuPluginA.obj
 0001:00016870       ?GetMsg@CPluginAnsi@@UEAAPEB_WHPEA_W_K@Z 0000000180017870 f   ConEmuPluginA.obj
 0001:00016970       ?GetPanelDir@CPluginAnsi@@UEAAPEA_WKPEA_WH@Z 0000000180017970 f   ConEmuPluginA.obj
 0001:00016ad0       ?GetPanelInfo@CPluginAnsi@@UEAA_NKPEAUCEPanelInfo@@@Z 0000000180017ad0 f   ConEmuPluginA.obj
 0001:00016ea0       ?GetPanelItemInfo@CPluginAnsi@@UEAA_NAEBUCEPanelInfo@@_N_JAEAU_WIN32_FIND_DATAW@@PEAPEA_W@Z 0000000180017ea0 f   ConEmuPluginA.obj
 0001:000170d0       ?GetPluginInfoPtr@CPluginAnsi@@UEAAXPEAX@Z 00000001800180d0 f   ConEmuPluginA.obj
 0001:000171c0       ?GetWindowCount@CPluginAnsi@@UEAAHXZ 00000001800181c0 f   ConEmuPluginA.obj
 0001:00017220       ?GetWindowTypeName@CPluginAnsi@@UEAAPEB_WH@Z 0000000180018220 f   ConEmuPluginA.obj
 0001:000172e0       ?GuiMacroDlg@CPluginAnsi@@UEAAXXZ 00000001800182e0 f   ConEmuPluginA.obj
 0001:00017300       ?InputBox@CPluginAnsi@@UEAA_NPEB_W000AEAPEA_W@Z 0000000180018300 f   ConEmuPluginA.obj
 0001:000174a0       ?IsMacroActive@CPluginAnsi@@UEAA_NXZ 00000001800184a0 f   ConEmuPluginA.obj
 0001:00017520       ?LoadFarColors@CPluginAnsi@@UEAAXAEAY0BAA@E@Z 0000000180018520 f   ConEmuPluginA.obj
 0001:00017740       ?LoadFarSettings@CPluginAnsi@@UEAAXPEAUCEFarInterfaceSettings@@PEAUCEFarPanelSettings@@@Z 0000000180018740 f   ConEmuPluginA.obj
 0001:000177d0       ?Open@CPluginAnsi@@UEAAPEAXPEBX@Z 00000001800187d0 f i ConEmuPluginA.obj
 0001:000177f0       ?OpenEditor@CPluginAnsi@@UEAA_NPEB_W_N11HH@Z 00000001800187f0 f   ConEmuPluginA.obj
 0001:000179f0       ?PanelControlApi@CPluginAnsi@@UEAA_JPEAXH_J0@Z 00000001800189f0 f   ConEmuPluginA.obj
 0001:00017a60       ?PostMacroApi@CPluginAnsi@@UEAAXPEB_WPEAU_INPUT_RECORD@@_N@Z 0000000180018a60 f   ConEmuPluginA.obj
 0001:00017bb0       ?ProcessEditorEventPtr@CPluginAnsi@@UEAAHPEAX@Z 0000000180018bb0 f i ConEmuPluginA.obj
 0001:00017bc0       ?ProcessEditorInputPtr@CPluginAnsi@@UEAAHPEBX@Z 0000000180018bc0 f i ConEmuPluginA.obj
 0001:00017bd0       ?ProcessSynchroEventPtr@CPluginAnsi@@UEAAHPEAX@Z 0000000180018bd0 f i ConEmuPluginA.obj
 0001:00017be0       ?ProcessViewerEventPtr@CPluginAnsi@@UEAAHPEAX@Z 0000000180018be0 f i ConEmuPluginA.obj
 0001:00017bf0       ?RedrawAll@CPluginAnsi@@UEAAXXZ 0000000180018bf0 f   ConEmuPluginA.obj
 0001:00017c40       ?SetStartupInfoPtr@CPluginAnsi@@UEAAXPEAX@Z 0000000180018c40 f   ConEmuPluginA.obj
 0001:00017e40       ?SetWindow@CPluginAnsi@@UEAAXH@Z 0000000180018e40 f   ConEmuPluginA.obj
 0001:00017ec0       ?ShowMessage@CPluginAnsi@@UEAAHPEB_WH_N@Z 0000000180018ec0 f   ConEmuPluginA.obj
 0001:00017fe0       ?ShowPluginMenu@CPluginAnsi@@UEAAHPEAUConEmuPluginMenuItem@@HH@Z 0000000180018fe0 f   ConEmuPluginA.obj
 0001:000182e0       ?ShowUserScreen@CPluginAnsi@@UEAAX_N@Z 00000001800192e0 f   ConEmuPluginA.obj
 0001:00018350       ?StopWaitEndSynchro@CPluginAnsi@@UEAAXXZ 0000000180019350 f i ConEmuPluginA.obj
 0001:00018360       ?UpdateConEmuTabsApi@CPluginAnsi@@UEAA_NH@Z 0000000180019360 f   ConEmuPluginA.obj
 0001:00018700       ?WaitEndSynchro@CPluginAnsi@@UEAAXXZ 0000000180019700 f i ConEmuPluginA.obj
 0001:00018710       ??$wcscat_c@$0BBE@@@YAHAEAY0BBE@_WPEB_W@Z 0000000180019710 f i ConEmuPluginBase.obj
 0001:00018740       ??$wcscat_c@$0CAE@@@YAHAEAY0CAE@_WPEB_W@Z 0000000180019740 f i ConEmuPluginBase.obj
 0001:00018770       ??$wcscpy_c@$0BBE@@@YAHAEAY0BBE@_WPEB_W@Z 0000000180019770 f i ConEmuPluginBase.obj
 0001:000187a0       ??0CPluginBase@@QEAA@XZ    00000001800197a0 f   ConEmuPluginBase.obj
 0001:00018af0       ??1CPluginBase@@UEAA@XZ    0000000180019af0 f   ConEmuPluginBase.obj
 0001:00018b10       ??4HANDLE2@@QEAAAEAU0@PEAX@Z 0000000180019b10 f i ConEmuPluginBase.obj
 0001:00018b30       ??_G?$MFileMapping@UCESERVER_CONSOLE_MAPPING_HDR@@@@QEAAPEAXI@Z 0000000180019b30 f i ConEmuPluginBase.obj
 0001:00018b70       ??_GCPluginBackground@@QEAAPEAXI@Z 0000000180019b70 f i ConEmuPluginBase.obj
 0001:00018bb0       ??_ECPluginBase@@UEAAPEAXI@Z 0000000180019bb0 f i ConEmuPluginBase.obj
 0001:00018bb0       ??_GCPluginBase@@UEAAPEAXI@Z 0000000180019bb0 f i ConEmuPluginBase.obj
 0001:00018bf0       ??_GMSection@@QEAAPEAXI@Z  0000000180019bf0 f i ConEmuPluginBase.obj
 0001:00018c30       ?ActivatePlugin@CPluginBase@@QEAA_NKPEAXK@Z 0000000180019c30 f   ConEmuPluginBase.obj
 0001:00018f30       ?ActiveServerPID@CESERVER_CONSOLE_MAPPING_HDR@@QEBAKXZ 0000000180019f30 f i ConEmuPluginBase.obj
 0001:00018f70       ?AddTab@CPluginBase@@QEAA_NAEAHH_N1HPEB_W2HHHH@Z 0000000180019f70 f   ConEmuPluginBase.obj
 0001:000195b0       ?AddTabFinish@CPluginBase@@QEAAXH@Z 000000018001a5b0 f   ConEmuPluginBase.obj
 0001:000195d0       ?Attach2Gui@CPluginBase@@QEAA_NXZ 000000018001a5d0 f   ConEmuPluginBase.obj
 0001:00019b70       ?BackgroundMacroError@CPluginBase@@SAKPEAX@Z 000000018001ab70 f   ConEmuPluginBase.obj
 0001:00019bc0       ?CheckBufferEnabled@CPluginBase@@QEAA_NXZ 000000018001abc0 f   ConEmuPluginBase.obj
 0001:00019c80       ?CheckConEmuDetached@CPluginBase@@SAXXZ 000000018001ac80 f   ConEmuPluginBase.obj
 0001:00019d30       ?CheckResources@CPluginBase@@QEAAX_N@Z 000000018001ad30 f   ConEmuPluginBase.obj
 0001:00019f40       ?CloseMapHeader@CPluginBase@@SAXXZ 000000018001af40 f   ConEmuPluginBase.obj
 0001:00019f70       ?CloseTabs@CPluginBase@@SAXXZ 000000018001af70 f   ConEmuPluginBase.obj
 0001:0001a000       ?CommonPluginStartup@CPluginBase@@QEAAXXZ 000000018001b000 f   ConEmuPluginBase.obj
 0001:0001a190       ?CreateTabs@CPluginBase@@SA_NH@Z 000000018001b190 f   ConEmuPluginBase.obj
 0001:0001a2a0       ?DataSize@CESERVER_REQ@@QEAAKXZ 000000018001b2a0 f i ConEmuPluginBase.obj
 0001:0001a2e0       ?DllCheckUnique@CPluginBase@@KA_N_N@Z 000000018001b2e0 f   ConEmuPluginBase.obj
 0001:0001a590       ?DllMain_ProcessAttach@CPluginBase@@KAXPEAUHINSTANCE__@@@Z 000000018001b590 f   ConEmuPluginBase.obj
 0001:0001a6d0       ?DllMain_ProcessDetach@CPluginBase@@KAXXZ 000000018001b6d0 f   ConEmuPluginBase.obj
 0001:0001a8a0       ?EditViewConsoleOutput@CPluginBase@@QEAAX_N@Z 000000018001b8a0 f   ConEmuPluginBase.obj
 0001:0001a9c0       ?EmergencyShow@CPluginBase@@KAXXZ 000000018001b9c0 f   ConEmuPluginBase.obj
 0001:0001aa30       ?ExecuteSynchro@CPluginBase@@QEAAXXZ 000000018001ba30 f   ConEmuPluginBase.obj
 0001:0001ab10       ?ExitFarCommon@CPluginBase@@QEAAX_N@Z 000000018001bb10 f   ConEmuPluginBase.obj
 0001:0001ab80       ?FarSetConsoleSize@CPluginBase@@SA_NFF@Z 000000018001bb80 f   ConEmuPluginBase.obj
 0001:0001ace0       ?FillLoadedParm@CPluginBase@@SAXPEAUConEmuLoadedArg@@PEAUHINSTANCE__@@H@Z 000000018001bce0 f   ConEmuPluginBase.obj
 0001:0001ae20       ?FillUpdateBackground@CPluginBase@@QEAAXPEAUPaintBackgroundArg@@@Z 000000018001be20 f   ConEmuPluginBase.obj
 0001:0001b080       ?FindServerCmd@CPluginBase@@QEAA_NKAEAK_N@Z 000000018001c080 f   ConEmuPluginBase.obj
 0001:0001b190       ?GetMainThreadId@CPluginBase@@SAKXZ 000000018001c190 f   ConEmuPluginBase.obj
 0001:0001b240       ?GetPanelInfo@CPluginBase@@QEAA_NKPEAUBkPanelInfo@@@Z 000000018001c240 f   ConEmuPluginBase.obj
 0001:0001b330       ?InitHWND@CPluginBase@@SAXXZ 000000018001c330 f   ConEmuPluginBase.obj
 0001:0001b640       ?InitResources@CPluginBase@@QEAAXXZ 000000018001c640 f   ConEmuPluginBase.obj
 0001:0001b980       ?InitRootRegKey@CPluginBase@@IEAAXXZ 000000018001c980 f   ConEmuPluginBase.obj
 0001:0001bb20       ?IsCurrentTabModal@CPluginBase@@QEAA_NXZ 000000018001cb20 f   ConEmuPluginBase.obj
 0001:0001bc20       ?IsFarLua@FarVersion@@QEBA_NXZ 000000018001cc20 f i ConEmuPluginBase.obj
 0001:0001bdf0       ?LoadFarVersion@CPluginBase@@SA_NXZ 000000018001cdf0 f   ConEmuPluginBase.obj
 0001:0001c180       ?LoadPanelTabsFromRegistry@CPluginBase@@IEAAXXZ 000000018001d180 f   ConEmuPluginBase.obj
 0001:0001c310       ?MonitorThreadProcW@CPluginBase@@SAKPEAX@Z 000000018001d310 f   ConEmuPluginBase.obj
 0001:0001c820       ?NotifyConEmuUnloaded@CPluginBase@@SAXXZ 000000018001d820 f   ConEmuPluginBase.obj
 0001:0001c970       ?OnConsoleDetaching@CPluginBase@@SAHPEAUHookCallbackArg@@@Z 000000018001d970 f   ConEmuPluginBase.obj
 0001:0001cad0       ?OnConsolePeekInput@CPluginBase@@SAHPEAUHookCallbackArg@@@Z 000000018001dad0 f   ConEmuPluginBase.obj
 0001:0001cb70       ?OnConsolePeekInputPost@CPluginBase@@SAXPEAUHookCallbackArg@@@Z 000000018001db70 f   ConEmuPluginBase.obj
 0001:0001cbc0       ?OnConsolePeekReadInput@CPluginBase@@SAX_N@Z 000000018001dbc0 f   ConEmuPluginBase.obj
 0001:0001ce20       ?OnConsoleReadInput@CPluginBase@@SAHPEAUHookCallbackArg@@@Z 000000018001de20 f   ConEmuPluginBase.obj
 0001:0001ce40       ?OnConsoleReadInputPost@CPluginBase@@SAXPEAUHookCallbackArg@@@Z 000000018001de40 f   ConEmuPluginBase.obj
 0001:0001d0e0       ?OnConsoleReadInputWork@CPluginBase@@SAHPEAUHookCallbackArg@@@Z 000000018001e0e0 f   ConEmuPluginBase.obj
 0001:0001d190       ?OnConsoleWasAttached@CPluginBase@@SAXPEAUHookCallbackArg@@@Z 000000018001e190 f   ConEmuPluginBase.obj
 0001:0001d210       ?OnCurDirChanged@CPluginBase@@SAXXZ 000000018001e210 f   ConEmuPluginBase.obj
 0001:0001d2a0       ?OnGetNumberOfConsoleInputEventsPost@CPluginBase@@SAXPEAUHookCallbackArg@@@Z 000000018001e2a0 f   ConEmuPluginBase.obj
 0001:0001d2e0       ?OnLibraryLoaded@CPluginBase@@SAXPEAUHINSTANCE__@@@Z 000000018001e2e0 f   ConEmuPluginBase.obj
 0001:0001d390       ?OnMainThreadActivated@CPluginBase@@QEAAXXZ 000000018001e390 f   ConEmuPluginBase.obj
 0001:0001d590       ?OnPanelViewCallbacks@CPluginBase@@SA_NPEAUHookCallbackArg@@P6AHPEAXPEAU_INPUT_RECORD@@KPEAKPEAH@Z5@Z 000000018001e590 f   ConEmuPluginBase.obj
 0001:0001d710       ?OnShellExecuteExW_Except@CPluginBase@@SAXPEAUHookCallbackArg@@@Z 000000018001e710 f   ConEmuPluginBase.obj
 0001:0001d760       ?OnWriteConsoleOutput@CPluginBase@@SAHPEAUHookCallbackArg@@@Z 000000018001e760 f   ConEmuPluginBase.obj
 0001:0001d8b0       ?OpenMapHeader@CPluginBase@@SAHXZ 000000018001e8b0 f   ConEmuPluginBase.obj
 0001:0001da00       ?OpenPluginCommon@CPluginBase@@QEAAPEAXH_J_N@Z 000000018001ea00 f   ConEmuPluginBase.obj
 0001:0001ded0       ?OutDataAlloc@CPluginBase@@SA_NK@Z 000000018001eed0 f   ConEmuPluginBase.obj
 0001:0001df50       ?OutDataRealloc@CPluginBase@@SA_NK@Z 000000018001ef50 f   ConEmuPluginBase.obj
 0001:0001e060       ?OutDataWrite@CPluginBase@@SA_NPEAXK@Z 000000018001f060 f   ConEmuPluginBase.obj
 0001:0001e160       ?PanelControl@CPluginBase@@QEAA_JPEAXH_J0@Z 000000018001f160 f   ConEmuPluginBase.obj
 0001:0001e250       ?Plugin@@YAPEAVCPluginBase@@XZ 000000018001f250 f   ConEmuPluginBase.obj
 0001:0001e3b0       ?PostMacro@CPluginBase@@QEAAXPEB_WPEAU_INPUT_RECORD@@_N@Z 000000018001f3b0 f   ConEmuPluginBase.obj
 0001:0001e470       ?PrintText@CPluginBase@@QEAA_NPEB_W@Z 000000018001f470 f   ConEmuPluginBase.obj
 0001:0001e610       ?ProcessCommand@CPluginBase@@QEAA_NKHPEAXPEAPEAUCESERVER_REQ@@_N@Z 000000018001f610 f   ConEmuPluginBase.obj
 0001:0001ed30       ?ProcessCommandLine@CPluginBase@@QEAA_NPEA_W@Z 000000018001fd30 f   ConEmuPluginBase.obj
 0001:0001ed90       ?ProcessDragFrom@CPluginBase@@QEAAXXZ 000000018001fd90 f   ConEmuPluginBase.obj
 0001:0001f540       ?ProcessDragTo@CPluginBase@@QEAAXXZ 0000000180020540 f   ConEmuPluginBase.obj
 0001:0001f9f0       ?ProcessEditorInputInternal@CPluginBase@@QEAAXAEBU_INPUT_RECORD@@@Z 00000001800209f0 f   ConEmuPluginBase.obj
 0001:0001fa50       ?ProcessEditorViewerEvent@CPluginBase@@QEAAHHH@Z 0000000180020a50 f   ConEmuPluginBase.obj
 0001:0001fba0       ?ProcessSetWindowCommand@CPluginBase@@QEAAXXZ 0000000180020ba0 f   ConEmuPluginBase.obj
 0001:0001fd10       ?ProcessSynchroEvent@CPluginBase@@QEAAHHPEAX@Z 0000000180020d10 f   ConEmuPluginBase.obj
 0001:0001fdd0       ?Ptr@?$MFileMapping@UCESERVER_CONSOLE_MAPPING_HDR@@@@QEAAPEAUCESERVER_CONSOLE_MAPPING_HDR@@XZ 0000000180020dd0 f i ConEmuPluginBase.obj
 0001:0001fde0       ?ReloadFarInfo@CPluginBase@@QEAA_N_N@Z 0000000180020de0 f   ConEmuPluginBase.obj
 0001:000200f0       ?ReloadFarInfoApi@CPluginBase@@IEAA_NXZ 00000001800210f0 f   ConEmuPluginBase.obj
 0001:000203c0       ?RunExternalProgram@CPluginBase@@QEAA_NPEA_W@Z 00000001800213c0 f   ConEmuPluginBase.obj
 0001:00020630       ?RunExternalProgramW@CPluginBase@@SA_NPEA_W0_N@Z 0000000180021630 f   ConEmuPluginBase.obj
 0001:00020960       ?SendTabs@CPluginBase@@SAXH_N@Z 0000000180021960 f   ConEmuPluginBase.obj
 0001:00020c10       ?SetRootRegKey@CPluginBase@@IEAAXPEA_W@Z 0000000180021c10 f   ConEmuPluginBase.obj
 0001:00020d40       ?ShowConsoleInfo@CPluginBase@@QEAAXXZ 0000000180021d40 f   ConEmuPluginBase.obj
 0001:00021010       ?ShowMessage@CPluginBase@@QEAAHHH@Z 0000000180022010 f   ConEmuPluginBase.obj
 0001:000210a0       ?ShowMessageBox@CPluginBase@@KAHPEB_WI@Z 00000001800220a0 f   ConEmuPluginBase.obj
 0001:000211b0       ?ShowMessageGui@CPluginBase@@QEAAHHH@Z 00000001800221b0 f   ConEmuPluginBase.obj
 0001:00021250       ?ShowPanelsList@CPluginBase@@QEAAXXZ 0000000180022250 f   ConEmuPluginBase.obj
 0001:00021450       ?ShowPluginMenu@CPluginBase@@QEAAXW4PluginCallCommands@@@Z 0000000180022450 f   ConEmuPluginBase.obj
 0001:00021750       ?ShowProtocolWarning@CPluginBase@@KAXXZ 0000000180022750 f   ConEmuPluginBase.obj
 0001:00021910       ?ShowTabsList@CPluginBase@@QEAAXXZ 0000000180022910 f   ConEmuPluginBase.obj
 0001:00021e40       ?ShutdownPluginStep@CPluginBase@@SAXPEB_WHHHH@Z 0000000180022e40 f   ConEmuPluginBase.obj
 0001:00021e60       ?StartDebugger@CPluginBase@@QEAA_NXZ 0000000180022e60 f   ConEmuPluginBase.obj
 0001:00022200       ?StopThread@CPluginBase@@QEAAX_N@Z 0000000180023200 f   ConEmuPluginBase.obj
 0001:00022630       ?StorePanelDirs@CPluginBase@@QEAA_NPEB_W0@Z 0000000180023630 f   ConEmuPluginBase.obj
 0001:00022aa0       ?SwitchTabCommand@CPluginBase@@QEAAXW4PluginMenuCommands@@@Z 0000000180023aa0 f   ConEmuPluginBase.obj
 0001:00022ba0       ?ToOem@CPluginBase@@SAPEADPEB_W@Z 0000000180023ba0 f   ConEmuPluginBase.obj
 0001:00022c10       ?ToOem@CPluginBase@@SAXPEB_WPEAD_J@Z 0000000180023c10 f   ConEmuPluginBase.obj
 0001:00022c90       ?ToUnicode@CPluginBase@@SAPEA_WPEBD@Z 0000000180023c90 f   ConEmuPluginBase.obj
 0001:00022d30       ?TouchReadPeekConsoleInputs@CPluginBase@@SAXH@Z 0000000180023d30 f   ConEmuPluginBase.obj
 0001:00022d90       ?UngetDummyMouseEvent@CPluginBase@@SA_N_NPEAUHookCallbackArg@@@Z 0000000180023d90 f   ConEmuPluginBase.obj
 0001:00023040       ?UpdateConEmuTabs@CPluginBase@@QEAA_N_N@Z 0000000180024040 f   ConEmuPluginBase.obj
 0001:00023470       ?UpdatePanelDirs@CPluginBase@@QEAAXXZ 0000000180024470 f   ConEmuPluginBase.obj
 0001:000236d0       ?WaitPluginActivation@CPluginBase@@SAKKPEAPEAXHK@Z 00000001800246d0 f   ConEmuPluginBase.obj
 0001:00023860       ?cmd_CloseQSearch@CPluginBase@@QEAAXXZ 0000000180024860 f   ConEmuPluginBase.obj
 0001:000238c0       ?cmd_ConSetFont@CPluginBase@@QEAAXPEAX@Z 00000001800248c0 f   ConEmuPluginBase.obj
 0001:00023940       ?cmd_EMenu@CPluginBase@@QEAAXPEAX@Z 0000000180024940 f   ConEmuPluginBase.obj
 0001:00023a50       ?cmd_ExternalCallback@CPluginBase@@QEAA_NPEAX@Z 0000000180024a50 f   ConEmuPluginBase.obj
 0001:00023af0       ?cmd_GuiChanged@CPluginBase@@QEAAXPEAX@Z 0000000180024af0 f   ConEmuPluginBase.obj
 0001:00023c20       ?cmd_LeftClickSync@CPluginBase@@QEAAXPEAX@Z 0000000180024c20 f   ConEmuPluginBase.obj
 0001:00023db0       ?cmd_OpenEditorLine@CPluginBase@@QEAA_NPEAUCESERVER_REQ_FAREDITOR@@@Z 0000000180024db0 f   ConEmuPluginBase.obj
 0001:00023f20       ?cmd_RedrawFarCall@CPluginBase@@QEAA_NAEAPEAUCESERVER_REQ@@PEAPEAU2@@Z 0000000180024f20 f   ConEmuPluginBase.obj
 0001:00024010       ?cmd_SetWindow@CPluginBase@@QEAA_NPEAX_N@Z 0000000180025010 f   ConEmuPluginBase.obj
 0001:000240f0       ?isEditorViewer@CPluginBase@@QEAA_NXZ 00000001800250f0 f   ConEmuPluginBase.obj
 0001:00024140       ?isMacroActive@CPluginBase@@QEAA_NAEAH@Z 0000000180025140 f   ConEmuPluginBase.obj
 0001:000241d0       ?isModalEditorViewer@CPluginBase@@QEAA_NXZ 00000001800251d0 f   ConEmuPluginBase.obj
 0001:00024220       ?pcc_Disabled@CPluginBase@@SA_NW4PluginMenuCommands@@@Z 0000000180025220 f   ConEmuPluginBase.obj
 0001:00024300       ?pcc_Selected@CPluginBase@@SA_NW4PluginMenuCommands@@@Z 0000000180025300 f   ConEmuPluginBase.obj
 0001:00024380       wmemcmp                    0000000180025380 f i ConEmuPluginBase.obj
 0001:00024410       ?CorrectConsolePos@@YAXPEAUHWND__@@@Z 0000000180025410 f   EmergencyShow.obj
 0001:000245e0       ?EmergencyShow@@YAXPEAUHWND__@@HH@Z 00000001800255e0 f   EmergencyShow.obj
 0001:00024760       ?EvaluateDefaultFontWidth@@YAHHPEB_W@Z 0000000180025760 f   EmergencyShow.obj
 0001:000248b0       ?SetUserFriendlyFont@@YAXPEAUHWND__@@HH@Z 00000001800258b0 f   EmergencyShow.obj
 0001:00024e10       ?FindImageSubsystem@@YA_NPEB_WAEAK1PEAK@Z 0000000180025e10 f   Execute.obj
 0001:00025a50       ?GetEnclosingSectionHeader@@YAPEAU_IMAGE_SECTION_HEADER@@KPEAUIMAGE_MAPPING@@@Z 0000000180026a50 f   Execute.obj
 0001:00025b00       ?GetImageSubsystem@@YA_NAEAK0@Z 0000000180026b00 f   Execute.obj
 0001:00025be0       ?GetImageSubsystem@@YA_NPEB_WAEAK11@Z 0000000180026be0 f   Execute.obj
 0001:00025fc0       ?GetImageSubsystem@@YA_NU_PROCESS_INFORMATION@@AEAK1@Z 0000000180026fc0 f   Execute.obj
 0001:000262a0       ?GetPtrFromRVA@@YAPEAXKPEAUIMAGE_MAPPING@@@Z 00000001800272a0 f   Execute.obj
 0001:00026330       ?IsFileBatch@@YA_NPEB_W@Z  0000000180027330 f   Execute.obj
 0001:00026500       ??0HkFunc@@QEAA@XZ         0000000180027500 f   HkFunc.obj
 0001:00026520       ?Init@HkFunc@@QEAA_NPEB_WPEAUHINSTANCE__@@@Z 0000000180027520 f   HkFunc.obj
 0001:00026630       ?OnHooksUnloaded@@YAXXZ    0000000180027630 f   HkFunc.obj
 0001:00026640       ?SetInternalMode@HkFunc@@QEAAXXZ 0000000180027640 f   HkFunc.obj
 0001:00026660       ?isConEmuHk@HkFunc@@QEAA_NXZ 0000000180027660 f   HkFunc.obj
 0001:00026690       ??2@YAPEAX_K@Z             0000000180027690 f   Memory.obj
 0001:000266c0       ??3@YAXPEAX@Z              00000001800276c0 f   Memory.obj
 0001:000266e0       ??_U@YAPEAX_K@Z            00000001800276e0 f   Memory.obj
 0001:00026710       ??_V@YAXPEAX@Z             0000000180027710 f   Memory.obj
 0001:00026730       ?HeapDeinitialize@@YAXXZ   0000000180027730 f   Memory.obj
 0001:00026760       ?HeapInitialize@@YA_NXZ    0000000180027760 f   Memory.obj
 0001:000267b0       ?xf_calloc@@YAPEAX_K0@Z    00000001800277b0 f   Memory.obj
 0001:000267f0       ?xf_free@@YAXPEAX@Z        00000001800277f0 f   Memory.obj
 0001:00026830       ?xf_malloc@@YAPEAX_K@Z     0000000180027830 f   Memory.obj
 0001:00026860       ?xf_realloc@@YAPEAXPEAX_K@Z 0000000180027860 f   Memory.obj
 0001:000268b0       ?xf_validate@@YA_NPEAX@Z   00000001800278b0 f   Memory.obj
 0001:00026900       ??0?$MArray@U_FindAllMonitorsItem@@@@QEAA@XZ 0000000180027900 f i Monitors.obj
 0001:00026960       ??0_FindAllMonitors@@QEAA@XZ 0000000180027960 f i Monitors.obj
 0001:00026980       ??1?$MArray@U_FindAllMonitorsItem@@@@QEAA@XZ 0000000180027980 f i Monitors.obj
 0001:000269a0       ??1_FindAllMonitors@@QEAA@XZ 00000001800279a0 f i Monitors.obj
 0001:000269c0       ??A?$MArray@U_FindAllMonitorsItem@@@@QEAAAEAU_FindAllMonitorsItem@@_J@Z 00000001800279c0 f i Monitors.obj
 0001:000269e0       ?EnumAllMonitors@@YAHPEAUHMONITOR__@@PEAUHDC__@@PEAUtagRECT@@_J@Z 00000001800279e0 f   Monitors.obj
 0001:00026b60       ?FindMonitorsWorkspace@@YAHPEAUHMONITOR__@@PEAUHDC__@@PEAUtagRECT@@_J@Z 0000000180027b60 f   Monitors.obj
 0001:00026c10       ?FindPrimaryMonitor@@YAHPEAUHMONITOR__@@PEAUHDC__@@PEAUtagRECT@@_J@Z 0000000180027c10 f   Monitors.obj
 0001:00026cb0       ?FindTaskbarWindow@@YAPEAUHWND__@@PEAUtagRECT@@@Z 0000000180027cb0 f   Monitors.obj
 0001:00026d30       ?GetAllMonitorsWorkspace@@YA?AUtagRECT@@XZ 0000000180027d30 f   Monitors.obj
 0001:00026dd0       ?GetMonitorInfoSafe@@YA_NPEAUHMONITOR__@@AEAUtagMONITORINFO@@@Z 0000000180027dd0 f   Monitors.obj
 0001:00026e40       ?GetNearestMonitorInfo@@YAPEAUHMONITOR__@@PEAUtagMONITORINFO@@PEAU1@PEBUtagRECT@@PEAUHWND__@@@Z 0000000180027e40 f   Monitors.obj
 0001:00026f70       ?GetNextMonitorInfo@@YAPEAUHMONITOR__@@PEAUtagMONITORINFO@@PEBUtagRECT@@_N@Z 0000000180027f70 f   Monitors.obj
 0001:00027210       ?GetPrimaryMonitorInfo@@YAPEAUHMONITOR__@@PEAUtagMONITORINFO@@@Z 0000000180028210 f   Monitors.obj
 0001:000272d0       ?GetStartupMonitor@@YAPEAUHMONITOR__@@XZ 00000001800282d0 f   Monitors.obj
 0001:000273e0       ?IsTaskbarAutoHidden@@YA_NPEAUtagRECT@@PEAI@Z 00000001800283e0 f   Monitors.obj
 0001:000274e0       ?MonitorFromParam@@YAPEAUHMONITOR__@@PEB_W@Z 00000001800284e0 f   Monitors.obj
 0001:000276b0       ?MonitorSortCallback@@YAHAEAU_FindAllMonitorsItem@@0@Z 00000001800286b0 f   Monitors.obj
 0001:00027730       ?addsize@?$MArray@U_FindAllMonitorsItem@@@@QEAAX_J@Z 0000000180028730 f i Monitors.obj
 0001:00027870       ?clear@?$MArray@U_FindAllMonitorsItem@@@@QEAAXXZ 0000000180028870 f i Monitors.obj
 0001:000278c0       ?push_back@?$MArray@U_FindAllMonitorsItem@@@@QEAA_JAEBU_FindAllMonitorsItem@@@Z 00000001800288c0 f i Monitors.obj
 0001:00027990       ?size@?$MArray@U_FindAllMonitorsItem@@@@QEBA_JXZ 0000000180028990 f i Monitors.obj
 0001:000279a0       ?sort@?$MArray@U_FindAllMonitorsItem@@@@QEAAXP6AHAEAU_FindAllMonitorsItem@@0@Z@Z 00000001800289a0 f i Monitors.obj
 0001:00027ae0       ??0MSection@@QEAA@XZ       0000000180028ae0 f   MSection.obj
 0001:00027be0       ??0MSectionLock@@QEAA@XZ   0000000180028be0 f   MSection.obj
 0001:00027c10       ??0MSectionThread@@QEAA@PEAVMSection@@@Z 0000000180028c10 f   MSection.obj
 0001:00027c50       ??1MSection@@QEAA@XZ       0000000180028c50 f   MSection.obj
 0001:00027d30       ??1MSectionLock@@QEAA@XZ   0000000180028d30 f   MSection.obj
 0001:00027d60       ??1MSectionThread@@QEAA@XZ 0000000180028d60 f   MSection.obj
 0001:00027da0       ?AddRef@MSection@@IEAAXK@Z 0000000180028da0 f   MSection.obj
 0001:00027ee0       ?Lock@MSection@@IEAAHHK@Z  0000000180028ee0 f   MSection.obj
 0001:000280a0       ?Lock@MSectionLock@@QEAAHPEAVMSection@@HK@Z 00000001800290a0 f   MSection.obj
 0001:00028170       ?MyEnterCriticalSection@MSection@@IEAA_NK@Z 0000000180029170 f   MSection.obj
 0001:00028370       ?Process_Lock@MSection@@IEAAXXZ 0000000180029370 f   MSection.obj
 0001:00028390       ?Process_Unlock@MSection@@IEAAXXZ 0000000180029390 f   MSection.obj
 0001:000283b0       ?ReleaseRef@MSection@@IEAAHK@Z 00000001800293b0 f   MSection.obj
 0001:000284d0       ?RelockExclusive@MSectionLock@@QEAAHK@Z 00000001800294d0 f   MSection.obj
 0001:00028550       ?ThreadTerminated@MSection@@QEAAXK@Z 0000000180029550 f   MSection.obj
 0001:000285c0       ?Unlock@MSection@@IEAAXH@Z 00000001800295c0 f   MSection.obj
 0001:00028680       ?Unlock@MSectionLock@@QEAAXXZ 0000000180029680 f   MSection.obj
 0001:000286d0       ?WaitUnlocked@MSection@@IEAAXKK@Z 00000001800296d0 f   MSection.obj
 0001:000287a0       ?isLocked@MSectionLock@@QEAAHH@Z 00000001800297a0 f   MSection.obj
 0001:000287f0       ?isLockedExclusive@MSection@@QEAA_NXZ 00000001800297f0 f   MSection.obj
 0001:00028870       ??0MSectionLockSimple@@QEAA@XZ 0000000180029870 f   MSectionSimple.obj
 0001:00028890       ??0MSectionSimple@@QEAA@_N@Z 0000000180029890 f   MSectionSimple.obj
 0001:000288f0       ??1MSectionLockSimple@@QEAA@XZ 00000001800298f0 f   MSectionSimple.obj
 0001:00028920       ??1MSectionSimple@@QEAA@XZ 0000000180029920 f   MSectionSimple.obj
 0001:00028940       ?Close@MSectionSimple@@QEAAXXZ 0000000180029940 f   MSectionSimple.obj
 0001:00028980       ?Enter@MSectionSimple@@QEAAXXZ 0000000180029980 f   MSectionSimple.obj
 0001:000289a0       ?Init@MSectionSimple@@QEAAXXZ 00000001800299a0 f   MSectionSimple.obj
 0001:000289e0       ?IsInitialized@MSectionSimple@@QEAA_NXZ 00000001800299e0 f   MSectionSimple.obj
 0001:00028a20       ?Leave@MSectionSimple@@QEAAXXZ 0000000180029a20 f   MSectionSimple.obj
 0001:00028a40       ?Lock@MSectionLockSimple@@QEAAHPEAUMSectionSimple@@K@Z 0000000180029a40 f   MSectionSimple.obj
 0001:00028b10       ?RecreateAndLock@MSectionSimple@@QEAA_NXZ 0000000180029b10 f   MSectionSimple.obj
 0001:00028ba0       ?TryEnter@MSectionSimple@@QEAA_NXZ 0000000180029ba0 f   MSectionSimple.obj
 0001:00028be0       ?Unlock@MSectionLockSimple@@QEAAXXZ 0000000180029be0 f   MSectionSimple.obj
 0001:00028c20       ?isLocked@MSectionLockSimple@@QEAAHXZ 0000000180029c20 f   MSectionSimple.obj
 0001:00028c30       ??0MNullDesc@@QEAA@XZ      0000000180029c30 f i MSecurity.obj
 0001:00028cb0       ??1MNullDesc@@QEAA@XZ      0000000180029cb0 f i MSecurity.obj
 0001:00028d50       ??_GMNullDesc@@QEAAPEAXI@Z 0000000180029d50 f i MSecurity.obj
 0001:00028d90       ?LoadAdvApi@MNullDesc@@IEAAHXZ 0000000180029d90 f i MSecurity.obj
 0001:00029040       ?LocalSecurity@@YAPEAU_SECURITY_ATTRIBUTES@@XZ 000000018002a040 f   MSecurity.obj
 0001:000290a0       ?LocalSecurity@MNullDesc@@QEAAPEAU_SECURITY_ATTRIBUTES@@XZ 000000018002a0a0 f i MSecurity.obj
 0001:000293a0       ?NullSecurity@@YAPEAU_SECURITY_ATTRIBUTES@@XZ 000000018002a3a0 f   MSecurity.obj
 0001:00029400       ?NullSecurity@MNullDesc@@QEAAPEAU_SECURITY_ATTRIBUTES@@XZ 000000018002a400 f i MSecurity.obj
 0001:00029540       ?ShutdownSecurity@@YAXXZ   000000018002a540 f   MSecurity.obj
 0001:000295a0       ?UnloadAdvApi@MNullDesc@@IEAAXXZ 000000018002a5a0 f i MSecurity.obj
 0001:000295e0       ??0MSetter@@QEAA@PEAJ@Z    000000018002a5e0 f   MSetter.obj
 0001:00029630       ??0MSetter@@QEAA@PEAKK@Z   000000018002a630 f   MSetter.obj
 0001:00029690       ??0MSetter@@QEAA@PEA_N@Z   000000018002a690 f   MSetter.obj
 0001:000296f0       ??1MSetter@@QEAA@XZ        000000018002a6f0 f   MSetter.obj
 0001:00029710       ?Unlock@MSetter@@QEAAXXZ   000000018002a710 f   MSetter.obj
 0001:000297c0       ?StringCchCopyA@@YAJPEAD_KPEBD@Z 000000018002a7c0 f i MStrDup.obj
 0001:00029aa0       ?lstrdup@@YAPEADPEBD@Z     000000018002aaa0 f   MStrDup.obj
 0001:00029b30       ?lstrdup@@YAPEA_WPEB_W_K@Z 000000018002ab30 f   MStrDup.obj
 0001:00029bd0       ?lstrdupA@@YAPEADPEB_WIPEAH@Z 000000018002abd0 f   MStrDup.obj
 0001:00029d20       ?lstrdupW@@YAPEA_WPEBDI@Z  000000018002ad20 f   MStrDup.obj
 0001:00029dd0       ?lstrmerge@@YAPEA_WPEB_W00000000@Z 000000018002add0 f   MStrDup.obj
 0001:00029fd0       ?lstrmerge@@YA_NPEAPEA_WPEB_W1111111@Z 000000018002afd0 f   MStrDup.obj
 0001:0002a090       ??$__vcrt_va_start_verify_argument_type@PEBD@@YAXXZ 000000018002b090 f i MStrSafe.obj
 0001:0002a0a0       ??$__vcrt_va_start_verify_argument_type@PEB_W@@YAXXZ 000000018002b0a0 f i MStrSafe.obj
 0001:0002a0b0       ??$klMax@H@@YAAEBHAEBH0@Z  000000018002b0b0 f i MStrSafe.obj
 0001:0002a100       ?lstrcmpni@@YAHPEBD0H@Z    000000018002b100 f   MStrSafe.obj
 0001:0002a250       ?lstrcmpni@@YAHPEB_W0H@Z   000000018002b250 f   MStrSafe.obj
 0001:0002a3e0       ?msprintf@@YAPEBDPEAD_KPEBDZZ 000000018002b3e0 f   MStrSafe.obj
 0001:0002ac30       ?msprintf@@YAPEB_WPEA_W_KPEB_WZZ 000000018002bc30 f   MStrSafe.obj
 0001:0002b670       ?startswith@@YAHPEB_W0_N@Z 000000018002c670 f   MStrSafe.obj
 0001:0002b720       ??0?$MFileMapping@UPanelViewSetMapping@@@@QEAA@XZ 000000018002c720 f i PluginBackground.obj
 0001:0002b7a0       ??0CPluginBackground@@QEAA@XZ 000000018002c7a0 f   PluginBackground.obj
 0001:0002ba30       ??1?$MFileMapping@UPanelViewSetMapping@@@@QEAA@XZ 000000018002ca30 f i PluginBackground.obj
 0001:0002ba60       ??1CPluginBackground@@QEAA@XZ 000000018002ca60 f   PluginBackground.obj
 0001:0002bd10       ?CheckPanelFolders@CPluginBackground@@IEAAXH@Z 000000018002cd10 f   PluginBackground.obj
 0001:0002be50       ?CloseMap@?$MFileMapping@UPanelViewSetMapping@@@@QEAAXXZ 000000018002ce50 f i PluginBackground.obj
 0001:0002bee0       ?ClosePtr@?$MFileMapping@UPanelViewSetMapping@@@@QEAAXXZ 000000018002cee0 f i PluginBackground.obj
 0001:0002bf20       ?GetTo@?$MFileMapping@UPanelViewSetMapping@@@@QEAA_NPEAUPanelViewSetMapping@@H@Z 000000018002cf20 f i PluginBackground.obj
 0001:0002bf80       ?InitName@?$MFileMapping@UPanelViewSetMapping@@@@QEAAPEB_WPEB_WKK@Z 000000018002cf80 f i PluginBackground.obj
 0001:0002bff0       ?InternalOpenCreate@?$MFileMapping@UPanelViewSetMapping@@@@IEAAPEAUPanelViewSetMapping@@HHH@Z 000000018002cff0 f i PluginBackground.obj
 0001:0002c2b0       ?IsParmChanged@CPluginBackground@@IEAA_NPEAUPaintBackgroundArg@@0@Z 000000018002d2b0 f   PluginBackground.obj
 0001:0002c610       ?IsValid@?$MFileMapping@UPanelViewSetMapping@@@@QEAA_NXZ 000000018002d610 f i PluginBackground.obj
 0001:0002c640       ?LoadThSet@CPluginBackground@@IEAAHH@Z 000000018002d640 f   PluginBackground.obj
 0001:0002c890       ?MonitorBackground@CPluginBackground@@QEAAXXZ 000000018002d890 f   PluginBackground.obj
 0001:0002c970       ?OnMainThreadActivated@CPluginBackground@@QEAAXHH@Z 000000018002d970 f   PluginBackground.obj
 0001:0002caf0       ?Open@?$MFileMapping@UPanelViewSetMapping@@@@QEAAPEAUPanelViewSetMapping@@HH@Z 000000018002daf0 f i PluginBackground.obj
 0001:0002cb20       ?ReallocItems@CPluginBackground@@IEAAXH@Z 000000018002db20 f   PluginBackground.obj
 0001:0002cbc0       ?RegisterSubplugin@CPluginBackground@@QEAAHPEAURegisterBackgroundArg@@@Z 000000018002dbc0 f   PluginBackground.obj
 0001:0002d120       ?SetDcPanelRect@CPluginBackground@@IEAAXPEAUtagRECT@@PEAUBkPanelInfo@@PEAUPaintBackgroundArg@@@Z 000000018002e120 f   PluginBackground.obj
 0001:0002d2b0       ?SetForceCheck@CPluginBackground@@QEAAXXZ 000000018002e2b0 f   PluginBackground.obj
 0001:0002d2e0       ?SetForceThLoad@CPluginBackground@@QEAAXXZ 000000018002e2e0 f   PluginBackground.obj
 0001:0002d320       ?SetForceUpdate@CPluginBackground@@QEAAX_N@Z 000000018002e320 f   PluginBackground.obj
 0001:0002d490       ?UpdateBackground@CPluginBackground@@IEAAXXZ 000000018002e490 f   PluginBackground.obj
 0001:0002e3d0       ?UpdateBackground_Exec@CPluginBackground@@KAXPEAURegisterBackgroundArg@@PEAUPaintBackgroundArg@@@Z 000000018002f3d0 f   PluginBackground.obj
 0001:0002e430       ??$wcscpy_c@$0BAE@@@YAHAEAY0BAE@_WPEB_W@Z 000000018002f430 f i PluginSrv.obj
 0001:0002e460       ?AllocRequestBuf@PipeInst@?$PipeServer@UCESERVER_REQ@@@@QEAAPEAUCESERVER_REQ@@K@Z 000000018002f460 f i PluginSrv.obj
 0001:0002e500       ?BreakConnection@?$PipeServer@UCESERVER_REQ@@@@QEAAXPEAX@Z 000000018002f500 f i PluginSrv.obj
 0001:0002e530       ?DumpError@?$PipeServer@UCESERVER_REQ@@@@IEAAXPEAUPipeInst@1@PEB_WH@Z 000000018002f530 f i PluginSrv.obj
 0001:0002e690       ?PipeServerRead@?$PipeServer@UCESERVER_REQ@@@@IEAAHPEAUPipeInst@1@@Z 000000018002f690 f i PluginSrv.obj
 0001:0002eac0       ?PipeServerThread@?$PipeServer@UCESERVER_REQ@@@@IEAAKPEAUPipeInst@1@@Z 000000018002fac0 f i PluginSrv.obj
 0001:0002f010       ?PipeServerWrite@?$PipeServer@UCESERVER_REQ@@@@IEAAHPEAUPipeInst@1@PEBXKPEAKH@Z 0000000180030010 f i PluginSrv.obj
 0001:0002f260       ?PlugServerCommand@@YAHPEAXPEAUCESERVER_REQ@@AEAPEAU1@AEAK3_J@Z 0000000180030260 f   PluginSrv.obj
 0001:0002fd50       ?PlugServerFree@@YAXPEAUCESERVER_REQ@@_J@Z 0000000180030d50 f   PluginSrv.obj
 0001:0002fd70       ?PlugServerInit@@YAXXZ     0000000180030d70 f   PluginSrv.obj
 0001:0002fd80       ?PlugServerStart@@YA_NXZ   0000000180030d80 f   PluginSrv.obj
 0001:0002fec0       ?PlugServerStop@@YAX_N@Z   0000000180030ec0 f   PluginSrv.obj
 0001:0002ff20       ?SetDummyAnswerSize@?$PipeServer@UCESERVER_REQ@@@@QEAAXH@Z 0000000180030f20 f i PluginSrv.obj
 0001:0002ff40       ?SetLoopCommands@?$PipeServer@UCESERVER_REQ@@@@QEAAX_N@Z 0000000180030f40 f i PluginSrv.obj
 0001:0002ff60       ?SetMaxCount@?$PipeServer@UCESERVER_REQ@@@@QEAAXH@Z 0000000180030f60 f i PluginSrv.obj
 0001:0002ffb0       ?SetOverlapped@?$PipeServer@UCESERVER_REQ@@@@QEAAX_N@Z 0000000180030fb0 f i PluginSrv.obj
 0001:0002ffd0       ?StartPipeInstance@?$PipeServer@UCESERVER_REQ@@@@IEAA_NPEAUPipeInst@1@@Z 0000000180030fd0 f i PluginSrv.obj
 0001:00030290       ?StartPipeServer@?$PipeServer@UCESERVER_REQ@@@@QEAA_N_NPEB_W_JPEAU_SECURITY_ATTRIBUTES@@P6AHPEAXPEAUCESERVER_REQ@@AEAPEAU3@AEAK72@ZP6AX52@ZP6AH42@ZP6AH42@ZP6AH42@Z@Z 0000000180031290 f i PluginSrv.obj
 0001:00030520       ?StopPipeServer@?$PipeServer@UCESERVER_REQ@@@@QEAAX_NAEA_N@Z 0000000180031520 f i PluginSrv.obj
 0001:00030f80       ?TerminatePipeThread@?$PipeServer@UCESERVER_REQ@@@@KAXAEAPEAXAEBUPipeInst@1@AEA_N@Z 0000000180031f80 f i PluginSrv.obj
 0001:00031040       ?WaitForClient@?$PipeServer@UCESERVER_REQ@@@@IEAA_NPEAUPipeInst@1@AEAH1@Z 0000000180032040 f i PluginSrv.obj
 0001:00031680       ?WaitOverlapped@?$PipeServer@UCESERVER_REQ@@@@IEAAHPEAUPipeInst@1@PEAK@Z 0000000180032680 f i PluginSrv.obj
 0001:00031970       ?WriteDummyAnswer@?$PipeServer@UCESERVER_REQ@@@@IEAAHPEAUPipeInst@1@@Z 0000000180032970 f i PluginSrv.obj
 0001:00031a10       ?_Disconnect@?$PipeServer@UCESERVER_REQ@@@@IEAAXPEAUPipeInst@1@_N11@Z 0000000180032a10 f i PluginSrv.obj
 0001:00031ac0       ?_PipeServerThread@?$PipeServer@UCESERVER_REQ@@@@KAKPEAX@Z 0000000180032ac0 f i PluginSrv.obj
 0001:00031b50       ?cmd_FarSetChanged@@YAXPEAUFAR_REQ_FARSETCHANGED@@@Z 0000000180032b50 f   PluginSrv.obj
 0001:00031bd0       ??0CEnvStrings@@QEAA@PEA_W@Z 0000000180032bd0 f   SetEnvVar.obj
 0001:00031c90       ??1CEnvStrings@@QEAA@XZ    0000000180032c90 f   SetEnvVar.obj
 0001:00031cd0       ?SetConEmuEnvHWND@@YAXPEB_WPEAUHWND__@@@Z 0000000180032cd0 f   SetEnvVar.obj
 0001:00031d30       ?SetConEmuEnvVar@@YAXPEAUHWND__@@@Z 0000000180032d30 f   SetEnvVar.obj
 0001:00031db0       ?SetConEmuEnvVarChild@@YAXPEAUHWND__@@0@Z 0000000180032db0 f   SetEnvVar.obj
 0001:00031df0       ?SetConEmuWorkEnvVar@@YAXPEAUHINSTANCE__@@@Z 0000000180032df0 f   SetEnvVar.obj
 0001:00031fc0       ??0ConsoleSectionHelper@@QEAA@XZ 0000000180032fc0 f i WConsole.obj
 0001:00031ff0       ??0MSetConTextAttr@@QEAA@PEAXG@Z 0000000180032ff0 f   WConsole.obj
 0001:00032070       ??1ConsoleSectionHelper@@QEAA@XZ 0000000180033070 f i WConsole.obj
 0001:000320d0       ??1MSetConTextAttr@@QEAA@XZ 00000001800330d0 f   WConsole.obj
 0001:00032110       ?CreateConsoleData@ConsoleSectionHelper@@QEAAPEAU_CONSOLE_INFO@@XZ 0000000180033110 f i WConsole.obj
 0001:00032170       ?CreateConsoleSection@ConsoleSectionHelper@@QEAAPEAXXZ 0000000180033170 f i WConsole.obj
 0001:000321d0       ?GetConsoleSizeInfo@@YAXPEAU_CONSOLE_INFO@@@Z 00000001800331d0 f   WConsole.obj
 0001:000322a0       ?MyGetLargestConsoleWindowSize@@YA?AU_COORD@@PEAX@Z 00000001800332a0 f   WConsole.obj
 0001:00032330       ?SetConsoleFontSizeTo@@YAXPEAUHWND__@@HHPEB_WGG@Z 0000000180033330 f   WConsole.obj
 0001:000328b0       ?SetConsoleInfo@@YAHPEAUHWND__@@PEAU_CONSOLE_INFO@@@Z 00000001800338b0 f   WConsole.obj
 0001:00032b50       ?apiFixFontSizeForBufferSize@@YAHPEAXU_COORD@@PEADH@Z 0000000180033b50 f   WConsole.obj
 0001:00033140       ?apiGetConsoleFontSize@@YAHPEAXAEAH1AEAY0CA@_W@Z 0000000180034140 f   WConsole.obj
 0001:00033220       ?apiGetConsoleScreenBufferInfoEx@@YAHPEAXPEAUMY_CONSOLE_SCREEN_BUFFER_INFOEX@@@Z 0000000180034220 f   WConsole.obj
 0001:000332a0       ?apiGetConsoleSelectionInfo@@YAHPEAU_CONSOLE_SELECTION_INFO@@@Z 00000001800342a0 f   WConsole.obj
 0001:000333c0       ?apiGetCurrentConsoleFontEx@@YAHPEAXHPEAUMY_CONSOLE_FONT_INFOEX@@@Z 00000001800343c0 f   WConsole.obj
 0001:00033450       ?apiInitConsoleFontSize@@YAHPEAX@Z 0000000180034450 f   WConsole.obj
 0001:000334f0       ?apiPauseConsoleOutput@@YAHPEAUHWND__@@_N@Z 00000001800344f0 f   WConsole.obj
 0001:00033650       ?apiSetConsoleFontSize@@YAHPEAXHHPEB_W@Z 0000000180034650 f   WConsole.obj
 0001:000337c0       ?apiSetConsoleScreenBufferInfoEx@@YAHPEAXPEAUMY_CONSOLE_SCREEN_BUFFER_INFOEX@@@Z 00000001800347c0 f   WConsole.obj
 0001:00033870       ?apiSetCurrentConsoleFontEx@@YAHPEAXHPEAUMY_CONSOLE_FONT_INFOEX@@@Z 0000000180034870 f   WConsole.obj
 0001:00033900       ?DirectoryExists@@YA_NPEB_W@Z 0000000180034900 f   WFiles.obj
 0001:00033a90       ?DropZoneIdentifier@@YA_NPEB_WAEAK@Z 0000000180034a90 f   WFiles.obj
 0001:00033bb0       ?FileCompare@@YA_NPEB_W0@Z 0000000180034bb0 f   WFiles.obj
 0001:00033eb0       ?FileExistSubDir@@YA_NPEB_W0HAEAUCEStr@@@Z 0000000180034eb0 f   WFiles.obj
 0001:000340f0       ?FilesExists@@YA_NPEB_W0_NH@Z 00000001800350f0 f   WFiles.obj
 0001:00034300       ?FindFileName@@YA_NPEB_WAEAUCEStr@@@Z 0000000180035300 f   WFiles.obj
 0001:00034510       ?GetFullPathNameEx@@YAPEA_WPEB_W@Z 0000000180035510 f   WFiles.obj
 0001:00034600       ?HasZoneIdentifier@@YA_NPEB_WAEAH@Z 0000000180035600 f   WFiles.obj
 0001:00034750       ?IsDotsName@@YA_NPEB_W@Z   0000000180035750 f   WFiles.obj
 0001:000347e0       ?MakePathProperCase@@YA_NAEAUCEStr@@@Z 00000001800357e0 f   WFiles.obj
 0001:00034bb0       ?MyCreateDirectory@@YA_NPEA_W@Z 0000000180035bb0 f   WFiles.obj
 0001:00034d10       ?ReadTextFile@@YAHPEB_WKAEAPEA_WAEAK2K@Z 0000000180035d10 f   WFiles.obj
 0001:00035370       ?SearchAppPaths@@YA_NPEB_WAEAUCEStr@@_NPEAU1@@Z 0000000180036370 f   WFiles.obj
 0001:000359f0       ?WriteTextFile@@YAHPEB_W0HK_NPEAK@Z 00000001800369f0 f   WFiles.obj
 0001:00035da0       ?apiCancelSynchronousIo@@YAHPEAX@Z 0000000180036da0 f   WFiles.obj
 0001:00035e60       ?CheckCallbackPtr@@YA_NPEAUHINSTANCE__@@_KPEAP6A_JXZHHH@Z 0000000180036e60 f   WModuleCheck.obj
 0001:00036060       ?IsModuleValid@@YA_NPEAUHINSTANCE__@@H@Z 0000000180037060 f   WModuleCheck.obj
 0001:00036200       ??$wcscpy_c@$0BAA@@@YAHAEAY0BAA@_WPEB_W@Z 0000000180037200 f i WObjects.obj
 0001:00036230       ??$wcscpy_c@$0EAA@@@YAHAEAY0EAA@_WPEB_W@Z 0000000180037230 f i WObjects.obj
 0001:00036260       ?ApplyExportEnvVar@@YAXPEB_W@Z 0000000180037260 f   WObjects.obj
 0001:00036400       ?CoordInSmallRect@@YA_NAEBU_COORD@@AEBU_SMALL_RECT@@@Z 0000000180037400 f   WObjects.obj
 0001:00036480       ?ExpandEnvStr@@YAPEA_WPEB_W@Z 0000000180037480 f   WObjects.obj
 0001:00036590       ?ExpandMacroValues@@YAPEA_WPEB_WPEAPEB_W_K@Z 0000000180037590 f   WObjects.obj
 0001:000367f0       ?FileExists@@YA_NPEB_WPEAK@Z 00000001800377f0 f   WObjects.obj
 0001:000369e0       ?FileExistsSearch@@YA_NPEB_WAEAUCEStr@@_N2@Z 00000001800379e0 f   WObjects.obj
 0001:00036b20       ?FileSearchInDir@@YA_NPEB_WAEAUCEStr@@@Z 0000000180037b20 f   WObjects.obj
 0001:00036cf0       ?GetComspec@@YAPEA_WPEBUConEmuComspec@@@Z 0000000180037cf0 f   WObjects.obj
 0001:00036fc0       ?GetComspecFromEnvVar@@YAPEB_WPEA_WKW4ComSpecBits@@@Z 0000000180037fc0 f   WObjects.obj
 0001:00037250       ?GetCpFromString@@YAIPEB_WPEAPEB_W@Z 0000000180038250 f   WObjects.obj
 0001:00037480       ?GetEnvVar@@YAPEA_WPEB_W@Z 0000000180038480 f   WObjects.obj
 0001:00037570       ?GetModulePathName@@YAKPEAUHINSTANCE__@@AEAUCEStr@@@Z 0000000180038570 f   WObjects.obj
 0001:00037640       ?GetOsVersionInformational@@YA_NPEAU_OSVERSIONINFOW@@@Z 0000000180038640 f   WObjects.obj
 0001:00037680       ?GetProcessBits@@YAHKPEAX@Z 0000000180038680 f   WObjects.obj
 0001:000377d0       ?GetProcessInfo@@YA_NKPEAUtagPROCESSENTRY32W@@@Z 00000001800387d0 f   WObjects.obj
 0001:000378c0       ?GetShortFileName@@YA_NPEB_WHPEA_WH@Z 00000001800388c0 f   WObjects.obj
 0001:00037a10       ?GetShortFileNameEx@@YAPEA_WPEB_WH@Z 0000000180038a10 f   WObjects.obj
 0001:00038050       ?IsDbcs@@YA_NXZ            0000000180039050 f   WObjects.obj
 0001:00038090       ?IsExportEnvVarAllowed@@YA_NPEB_W@Z 0000000180039090 f   WObjects.obj
 0001:00038120       ?IsGDB@@YA_NPEB_W@Z        0000000180039120 f   WObjects.obj
 0001:00038190       ?IsHwFullScreenAvailable@@YA_NXZ 0000000180039190 f   WObjects.obj
 0001:00038230       ?IsVsNetHostExe@@YA_NPEB_W@Z 0000000180039230 f   WObjects.obj
 0001:000382d0       ?IsWin10@@YA_NXZ           00000001800392d0 f   WObjects.obj
 0001:000383b0       ?IsWin2kEql@@YA_NXZ        00000001800393b0 f   WObjects.obj
 0001:00038410       ?IsWin5family@@YA_NXZ      0000000180039410 f   WObjects.obj
 0001:000384c0       ?IsWin6@@YA_NXZ            00000001800394c0 f   WObjects.obj
 0001:00038520       ?IsWin7@@YA_NXZ            0000000180039520 f   WObjects.obj
 0001:00038580       ?IsWin8@@YA_NXZ            0000000180039580 f   WObjects.obj
 0001:000385e0       ?IsWin8_1@@YA_NXZ          00000001800395e0 f   WObjects.obj
 0001:00038640       ?IsWinPE@@YA_NXZ           0000000180039640 f   WObjects.obj
 0001:000386f0       ?IsWinVerEqual@@YA_NG@Z    00000001800396f0 f   WObjects.obj
 0001:000387b0       ?IsWinVerOrHigher@@YA_NG@Z 00000001800397b0 f   WObjects.obj
 0001:00038870       ?IsWinXPSP1@@YA_NXZ        0000000180039870 f   WObjects.obj
 0001:00038960       ?IsWindows64@@YA_NXZ       0000000180039960 f   WObjects.obj
 0001:00038990       ?IsWine@@YA_NXZ            0000000180039990 f   WObjects.obj
 0001:00038c80       ?apiGetFullPathName@@YAHPEB_WAEAUCEStr@@@Z 0000000180039c80 f   WObjects.obj
 0001:00038db0       ?apiSearchPath@@YAHPEB_W00AEAUCEStr@@@Z 0000000180039db0 f   WObjects.obj
 0001:00038f20       ?getWindowInfo@@YAXPEAUHWND__@@AEAY0EAA@_W_NPEAK@Z 0000000180039f20 f   WObjects.obj
 0001:00039150       ?isTerminalMode@@YA_NXZ    000000018003a150 f   WObjects.obj
 0001:00039430       ??0ConEmuThreadStartArg@@QEAA@P6AKPEAX@Z0K@Z 000000018003a430 f i WThreads.obj
 0001:000394a0       ?SetThreadName@@YAXKPEAD@Z 000000018003a4a0 f   WThreads.obj
 0001:00039500       ?apiCreateThread@@YAPEAXP6AKPEAX@Z0PEAKPEBDH@Z 000000018003a500 f   WThreads.obj
 0001:00039710       ?apiTerminateThreadEx@@YAHPEAXKPEBDH@Z 000000018003a710 f   WThreads.obj
 0001:000398a0       ?apiThreadHelper@@YAKPEAX@Z 000000018003a8a0 f   WThreads.obj
 0001:00039a90       ?DuplicateProcessHandle@@YAPEAXK@Z 000000018003aa90 f   WUser.obj
 0001:00039b30       ?FindComspec@@YAXPEAUConEmuComspec@@_N@Z 000000018003ab30 f   WUser.obj
 0001:0003a780       ?GetLogonSID@@YA_NPEAXPEAPEA_W@Z 000000018003b780 f   WUser.obj
 0001:0003a8e0       ?IsUserAdmin@@YA_NXZ       000000018003b8e0 f   WUser.obj
 0001:0003aa30       ?SetEnvVarExpanded@@YAXPEB_W0@Z 000000018003ba30 f   WUser.obj
 0001:0003ac80       ?UpdateComspec@@YAXPEAUConEmuComspec@@_N@Z 000000018003bc80 f   WUser.obj
 0001:0003b140       ?apiSetForegroundWindow@@YA_NPEAUHWND__@@@Z 000000018003c140 f   WUser.obj
 0001:0003b180       ?apiShowWindow@@YA_NPEAUHWND__@@H@Z 000000018003c180 f   WUser.obj
 0001:0003b1c0       ?apiShowWindowAsync@@YA_NPEAUHWND__@@H@Z 000000018003c1c0 f   WUser.obj
 0001:0003b200       SetEnvironmentVariableW    000000018003c200 f   kernel32:KERNEL32.dll
 0001:0003b206       lstrcpynW                  000000018003c206 f   kernel32:KERNEL32.dll
 0001:0003b20c       lstrlenW                   000000018003c20c f   kernel32:KERNEL32.dll
 0001:0003b212       GetCurrentDirectoryW       000000018003c212 f   kernel32:KERNEL32.dll
 0001:0003b218       GetModuleHandleW           000000018003c218 f   kernel32:KERNEL32.dll
 0001:0003b21e       GetProcAddress             000000018003c21e f   kernel32:KERNEL32.dll
 0001:0003b224       lstrcmpW                   000000018003c224 f   kernel32:KERNEL32.dll
 0001:0003b22a       lstrcmpiW                  000000018003c22a f   kernel32:KERNEL32.dll
 0001:0003b230       CreateFileW                000000018003c230 f   kernel32:KERNEL32.dll
 0001:0003b236       ReadFile                   000000018003c236 f   kernel32:KERNEL32.dll
 0001:0003b23c       WriteFile                  000000018003c23c f   kernel32:KERNEL32.dll
 0001:0003b242       IsDebuggerPresent          000000018003c242 f   kernel32:KERNEL32.dll
 0001:0003b248       CloseHandle                000000018003c248 f   kernel32:KERNEL32.dll
 0001:0003b24e       GetLastError               000000018003c24e f   kernel32:KERNEL32.dll
 0001:0003b254       SetLastError               000000018003c254 f   kernel32:KERNEL32.dll
 0001:0003b25a       SetNamedPipeHandleState    000000018003c25a f   kernel32:KERNEL32.dll
 0001:0003b260       TransactNamedPipe          000000018003c260 f   kernel32:KERNEL32.dll
 0001:0003b266       WaitNamedPipeW             000000018003c266 f   kernel32:KERNEL32.dll
 0001:0003b26c       WaitForSingleObject        000000018003c26c f   kernel32:KERNEL32.dll
 0001:0003b272       Sleep                      000000018003c272 f   kernel32:KERNEL32.dll
 0001:0003b278       GetCurrentProcessId        000000018003c278 f   kernel32:KERNEL32.dll
 0001:0003b27e       GetCurrentThreadId         000000018003c27e f   kernel32:KERNEL32.dll
 0001:0003b284       GetTickCount               000000018003c284 f   kernel32:KERNEL32.dll
 0001:0003b28a       CreateFileMappingW         000000018003c28a f   kernel32:KERNEL32.dll
 0001:0003b290       OpenFileMappingW           000000018003c290 f   kernel32:KERNEL32.dll
 0001:0003b296       MapViewOfFile              000000018003c296 f   kernel32:KERNEL32.dll
 0001:0003b29c       UnmapViewOfFile            000000018003c29c f   kernel32:KERNEL32.dll
 0001:0003b2a2       GetModuleFileNameW         000000018003c2a2 f   kernel32:KERNEL32.dll
 0001:0003b2a8       GetConsoleWindow           000000018003c2a8 f   kernel32:KERNEL32.dll
 0001:0003b2ae       LoadLibraryW               000000018003c2ae f   kernel32:KERNEL32.dll
 0001:0003b2b4       VirtualProtect             000000018003c2b4 f   kernel32:KERNEL32.dll
 0001:0003b2ba       lstrcpyW                   000000018003c2ba f   kernel32:KERNEL32.dll
 0001:0003b2c0       lstrcpynA                  000000018003c2c0 f   kernel32:KERNEL32.dll
 0001:0003b2c6       lstrcpyA                   000000018003c2c6 f   kernel32:KERNEL32.dll
 0001:0003b2cc       lstrlenA                   000000018003c2cc f   kernel32:KERNEL32.dll
 0001:0003b2d2       MultiByteToWideChar        000000018003c2d2 f   kernel32:KERNEL32.dll
 0001:0003b2d8       WideCharToMultiByte        000000018003c2d8 f   kernel32:KERNEL32.dll
 0001:0003b2de       GetEnvironmentStringsW     000000018003c2de f   kernel32:KERNEL32.dll
 0001:0003b2e4       GetStdHandle               000000018003c2e4 f   kernel32:KERNEL32.dll
 0001:0003b2ea       GetEnvironmentVariableW    000000018003c2ea f   kernel32:KERNEL32.dll
 0001:0003b2f0       DeleteFileW                000000018003c2f0 f   kernel32:KERNEL32.dll
 0001:0003b2f6       SetEvent                   000000018003c2f6 f   kernel32:KERNEL32.dll
 0001:0003b2fc       ResetEvent                 000000018003c2fc f   kernel32:KERNEL32.dll
 0001:0003b302       ReleaseSemaphore           000000018003c302 f   kernel32:KERNEL32.dll
 0001:0003b308       CreateEventW               000000018003c308 f   kernel32:KERNEL32.dll
 0001:0003b30e       GetCurrentProcess          000000018003c30e f   kernel32:KERNEL32.dll
 0001:0003b314       TerminateProcess           000000018003c314 f   kernel32:KERNEL32.dll
 0001:0003b31a       GetExitCodeProcess         000000018003c31a f   kernel32:KERNEL32.dll
 0001:0003b320       SuspendThread              000000018003c320 f   kernel32:KERNEL32.dll
 0001:0003b326       ResumeThread               000000018003c326 f   kernel32:KERNEL32.dll
 0001:0003b32c       CreateProcessW             000000018003c32c f   kernel32:KERNEL32.dll
 0001:0003b332       WaitForMultipleObjects     000000018003c332 f   kernel32:KERNEL32.dll
 0001:0003b338       lstrcatW                   000000018003c338 f   kernel32:KERNEL32.dll
 0001:0003b33e       CreateSemaphoreW           000000018003c33e f   kernel32:KERNEL32.dll
 0001:0003b344       IsBadStringPtrW            000000018003c344 f   kernel32:KERNEL32.dll
 0001:0003b34a       PeekConsoleInputW          000000018003c34a f   kernel32:KERNEL32.dll
 0001:0003b350       WriteConsoleInputW         000000018003c350 f   kernel32:KERNEL32.dll
 0001:0003b356       GetConsoleScreenBufferInfo 000000018003c356 f   kernel32:KERNEL32.dll
 0001:0003b35c       GetConsoleCursorInfo       000000018003c35c f   kernel32:KERNEL32.dll
 0001:0003b362       GetConsoleTitleW           000000018003c362 f   kernel32:KERNEL32.dll
 0001:0003b368       SetConsoleTitleW           000000018003c368 f   kernel32:KERNEL32.dll
 0001:0003b36e       GetConsoleMode             000000018003c36e f   kernel32:KERNEL32.dll
 0001:0003b374       GetNumberOfConsoleInputEvents 000000018003c374 f   kernel32:KERNEL32.dll
 0001:0003b37a       ReadConsoleInputW          000000018003c37a f   kernel32:KERNEL32.dll
 0001:0003b380       SetConsoleMode             000000018003c380 f   kernel32:KERNEL32.dll
 0001:0003b386       CreateToolhelp32Snapshot   000000018003c386 f   kernel32:KERNEL32.dll
 0001:0003b38c       Thread32First              000000018003c38c f   kernel32:KERNEL32.dll
 0001:0003b392       Thread32Next               000000018003c392 f   kernel32:KERNEL32.dll
 0001:0003b398       Module32FirstW             000000018003c398 f   kernel32:KERNEL32.dll
 0001:0003b39e       Module32NextW              000000018003c39e f   kernel32:KERNEL32.dll
 0001:0003b3a4       VerSetConditionMask        000000018003c3a4 f   kernel32:KERNEL32.dll
 0001:0003b3aa       ReleaseMutex               000000018003c3aa f   kernel32:KERNEL32.dll
 0001:0003b3b0       CreateMutexW               000000018003c3b0 f   kernel32:KERNEL32.dll
 0001:0003b3b6       VerifyVersionInfoW         000000018003c3b6 f   kernel32:KERNEL32.dll
 0001:0003b3bc       ExpandEnvironmentStringsW  000000018003c3bc f   kernel32:KERNEL32.dll
 0001:0003b3c2       SearchPathW                000000018003c3c2 f   kernel32:KERNEL32.dll
 0001:0003b3c8       GetFileInformationByHandle 000000018003c3c8 f   kernel32:KERNEL32.dll
 0001:0003b3ce       SetFilePointer             000000018003c3ce f   kernel32:KERNEL32.dll
 0001:0003b3d4       DebugBreak                 000000018003c3d4 f   kernel32:KERNEL32.dll
 0001:0003b3da       ReadProcessMemory          000000018003c3da f   kernel32:KERNEL32.dll
 0001:0003b3e0       FreeLibrary                000000018003c3e0 f   kernel32:KERNEL32.dll
 0001:0003b3e6       HeapCreate                 000000018003c3e6 f   kernel32:KERNEL32.dll
 0001:0003b3ec       HeapDestroy                000000018003c3ec f   kernel32:KERNEL32.dll
 0001:0003b3f2       HeapAlloc                  000000018003c3f2 f   kernel32:KERNEL32.dll
 0001:0003b3f8       HeapReAlloc                000000018003c3f8 f   kernel32:KERNEL32.dll
 0001:0003b3fe       HeapFree                   000000018003c3fe f   kernel32:KERNEL32.dll
 0001:0003b404       HeapValidate               000000018003c404 f   kernel32:KERNEL32.dll
 0001:0003b40a       GetStartupInfoW            000000018003c40a f   kernel32:KERNEL32.dll
 0001:0003b410       OpenThread                 000000018003c410 f   kernel32:KERNEL32.dll
 0001:0003b416       InitializeCriticalSection  000000018003c416 f   kernel32:KERNEL32.dll
 0001:0003b41c       EnterCriticalSection       000000018003c41c f   kernel32:KERNEL32.dll
 0001:0003b422       LeaveCriticalSection       000000018003c422 f   kernel32:KERNEL32.dll
 0001:0003b428       TryEnterCriticalSection    000000018003c428 f   kernel32:KERNEL32.dll
 0001:0003b42e       DeleteCriticalSection      000000018003c42e f   kernel32:KERNEL32.dll
 0001:0003b434       LocalAlloc                 000000018003c434 f   kernel32:KERNEL32.dll
 0001:0003b43a       LocalFree                  000000018003c43a f   kernel32:KERNEL32.dll
 0001:0003b440       lstrcmpiA                  000000018003c440 f   kernel32:KERNEL32.dll
 0001:0003b446       FlushFileBuffers           000000018003c446 f   kernel32:KERNEL32.dll
 0001:0003b44c       ConnectNamedPipe           000000018003c44c f   kernel32:KERNEL32.dll
 0001:0003b452       DisconnectNamedPipe        000000018003c452 f   kernel32:KERNEL32.dll
 0001:0003b458       CreateNamedPipeW           000000018003c458 f   kernel32:KERNEL32.dll
 0001:0003b45e       GetOverlappedResult        000000018003c45e f   kernel32:KERNEL32.dll
 0001:0003b464       SetThreadPriority          000000018003c464 f   kernel32:KERNEL32.dll
 0001:0003b46a       GetExitCodeThread          000000018003c46a f   kernel32:KERNEL32.dll
 0001:0003b470       FreeEnvironmentStringsW    000000018003c470 f   kernel32:KERNEL32.dll
 0001:0003b476       GetLargestConsoleWindowSize 000000018003c476 f   kernel32:KERNEL32.dll
 0001:0003b47c       SetConsoleWindowInfo       000000018003c47c f   kernel32:KERNEL32.dll
 0001:0003b482       SetConsoleTextAttribute    000000018003c482 f   kernel32:KERNEL32.dll
 0001:0003b488       GetConsoleOutputCP         000000018003c488 f   kernel32:KERNEL32.dll
 0001:0003b48e       CreateDirectoryW           000000018003c48e f   kernel32:KERNEL32.dll
 0001:0003b494       FindClose                  000000018003c494 f   kernel32:KERNEL32.dll
 0001:0003b49a       FindFirstFileW             000000018003c49a f   kernel32:KERNEL32.dll
 0001:0003b4a0       FindNextFileW              000000018003c4a0 f   kernel32:KERNEL32.dll
 0001:0003b4a6       GetFileSize                000000018003c4a6 f   kernel32:KERNEL32.dll
 0001:0003b4ac       GetFileSizeEx              000000018003c4ac f   kernel32:KERNEL32.dll
 0001:0003b4b2       GetPrivateProfileIntW      000000018003c4b2 f   kernel32:KERNEL32.dll
 0001:0003b4b8       WritePrivateProfileStringW 000000018003c4b8 f   kernel32:KERNEL32.dll
 0001:0003b4be       GetSystemInfo              000000018003c4be f   kernel32:KERNEL32.dll
 0001:0003b4c4       VirtualAlloc               000000018003c4c4 f   kernel32:KERNEL32.dll
 0001:0003b4ca       VirtualFree                000000018003c4ca f   kernel32:KERNEL32.dll
 0001:0003b4d0       IsBadReadPtr               000000018003c4d0 f   kernel32:KERNEL32.dll
 0001:0003b4d6       GetFullPathNameW           000000018003c4d6 f   kernel32:KERNEL32.dll
 0001:0003b4dc       OpenProcess                000000018003c4dc f   kernel32:KERNEL32.dll
 0001:0003b4e2       GetWindowsDirectoryW       000000018003c4e2 f   kernel32:KERNEL32.dll
 0001:0003b4e8       GetVersionExW              000000018003c4e8 f   kernel32:KERNEL32.dll
 0001:0003b4ee       Process32FirstW            000000018003c4ee f   kernel32:KERNEL32.dll
 0001:0003b4f4       Process32NextW             000000018003c4f4 f   kernel32:KERNEL32.dll
 0001:0003b4fa       RaiseException             000000018003c4fa f   kernel32:KERNEL32.dll
 0001:0003b500       CreateThread               000000018003c500 f   kernel32:KERNEL32.dll
 0001:0003b506       TerminateThread            000000018003c506 f   kernel32:KERNEL32.dll
 0001:0003b50c       DuplicateHandle            000000018003c50c f   kernel32:KERNEL32.dll
 0001:0003b512       CharUpperBuffW             000000018003c512 f   user32:USER32.dll
 0001:0003b518       VkKeyScanW                 000000018003c518 f   user32:USER32.dll
 0001:0003b51e       MapVirtualKeyW             000000018003c51e f   user32:USER32.dll
 0001:0003b524       IsWindow                   000000018003c524 f   user32:USER32.dll
 0001:0003b52a       MessageBoxW                000000018003c52a f   user32:USER32.dll
 0001:0003b530       GetWindowLongPtrW          000000018003c530 f   user32:USER32.dll
 0001:0003b536       GetClassNameW              000000018003c536 f   user32:USER32.dll
 0001:0003b53c       FindWindowW                000000018003c53c f   user32:USER32.dll
 0001:0003b542       GetWindowThreadProcessId   000000018003c542 f   user32:USER32.dll
 0001:0003b548       wsprintfW                  000000018003c548 f   user32:USER32.dll
 0001:0003b54e       GetParent                  000000018003c54e f   user32:USER32.dll
 0001:0003b554       RegisterWindowMessageW     000000018003c554 f   user32:USER32.dll
 0001:0003b55a       PostMessageW               000000018003c55a f   user32:USER32.dll
 0001:0003b560       IsWindowVisible            000000018003c560 f   user32:USER32.dll
 0001:0003b566       SetWindowPos               000000018003c566 f   user32:USER32.dll
 0001:0003b56c       EnableWindow               000000018003c56c f   user32:USER32.dll
 0001:0003b572       IsWindowEnabled            000000018003c572 f   user32:USER32.dll
 0001:0003b578       GetSystemMetrics           000000018003c578 f   user32:USER32.dll
 0001:0003b57e       GetWindowRect              000000018003c57e f   user32:USER32.dll
 0001:0003b584       MonitorFromWindow          000000018003c584 f   user32:USER32.dll
 0001:0003b58a       GetMonitorInfoW            000000018003c58a f   user32:USER32.dll
 0001:0003b590       GetCursorPos               000000018003c590 f   user32:USER32.dll
 0001:0003b596       IntersectRect              000000018003c596 f   user32:USER32.dll
 0001:0003b59c       IsRectEmpty                000000018003c59c f   user32:USER32.dll
 0001:0003b5a2       FindWindowExW              000000018003c5a2 f   user32:USER32.dll
 0001:0003b5a8       SystemParametersInfoW      000000018003c5a8 f   user32:USER32.dll
 0001:0003b5ae       MonitorFromPoint           000000018003c5ae f   user32:USER32.dll
 0001:0003b5b4       MonitorFromRect            000000018003c5b4 f   user32:USER32.dll
 0001:0003b5ba       EnumDisplayMonitors        000000018003c5ba f   user32:USER32.dll
 0001:0003b5c0       GetDC                      000000018003c5c0 f   user32:USER32.dll
 0001:0003b5c6       ReleaseDC                  000000018003c5c6 f   user32:USER32.dll
 0001:0003b5cc       FillRect                   000000018003c5cc f   user32:USER32.dll
 0001:0003b5d2       LoadKeyboardLayoutW        000000018003c5d2 f   user32:USER32.dll
 0001:0003b5d8       ActivateKeyboardLayout     000000018003c5d8 f   user32:USER32.dll
 0001:0003b5de       SendMessageW               000000018003c5de f   user32:USER32.dll
 0001:0003b5e4       SendMessageTimeoutW        000000018003c5e4 f   user32:USER32.dll
 0001:0003b5ea       GetWindowTextW             000000018003c5ea f   user32:USER32.dll
 0001:0003b5f0       wsprintfA                  000000018003c5f0 f   user32:USER32.dll
 0001:0003b5f6       ShowWindow                 000000018003c5f6 f   user32:USER32.dll
 0001:0003b5fc       ShowWindowAsync            000000018003c5fc f   user32:USER32.dll
 0001:0003b602       SetForegroundWindow        000000018003c602 f   user32:USER32.dll
 0001:0003b608       CreateCompatibleDC         000000018003c608 f   gdi32:GDI32.dll
 0001:0003b60e       CreateFontIndirectW        000000018003c60e f   gdi32:GDI32.dll
 0001:0003b614       DeleteDC                   000000018003c614 f   gdi32:GDI32.dll
 0001:0003b61a       DeleteObject               000000018003c61a f   gdi32:GDI32.dll
 0001:0003b620       SelectObject               000000018003c620 f   gdi32:GDI32.dll
 0001:0003b626       GetTextMetricsW            000000018003c626 f   gdi32:GDI32.dll
 0001:0003b62c       CreateSolidBrush           000000018003c62c f   gdi32:GDI32.dll
 0001:0003b632       GetDeviceCaps              000000018003c632 f   gdi32:GDI32.dll
 0001:0003b638       CloseEnhMetaFile           000000018003c638 f   gdi32:GDI32.dll
 0001:0003b63e       CreateEnhMetaFileW         000000018003c63e f   gdi32:GDI32.dll
 0001:0003b644       DeleteEnhMetaFile          000000018003c644 f   gdi32:GDI32.dll
 0001:0003b64a       GetEnhMetaFileBits         000000018003c64a f   gdi32:GDI32.dll
 0001:0003b650       CreateDIBSection           000000018003c650 f   gdi32:GDI32.dll
 0001:0003b656       GdiFlush                   000000018003c656 f   gdi32:GDI32.dll
 0001:0003b65c       RegCloseKey                000000018003c65c f   advapi32:ADVAPI32.dll
 0001:0003b662       RegOpenKeyExW              000000018003c662 f   advapi32:ADVAPI32.dll
 0001:0003b668       RegQueryValueExW           000000018003c668 f   advapi32:ADVAPI32.dll
 0001:0003b66e       RegCreateKeyExW            000000018003c66e f   advapi32:ADVAPI32.dll
 0001:0003b674       OpenProcessToken           000000018003c674 f   advapi32:ADVAPI32.dll
 0001:0003b67a       AllocateAndInitializeSid   000000018003c67a f   advapi32:ADVAPI32.dll
 0001:0003b680       CheckTokenMembership       000000018003c680 f   advapi32:ADVAPI32.dll
 0001:0003b686       FreeSid                    000000018003c686 f   advapi32:ADVAPI32.dll
 0001:0003b68c       GetTokenInformation        000000018003c68c f   advapi32:ADVAPI32.dll
 0001:0003b692       RegEnumKeyExW              000000018003c692 f   advapi32:ADVAPI32.dll
 0001:0003b698       ConvertSidToStringSidW     000000018003c698 f   advapi32:ADVAPI32.dll
 0001:0003b69e       SHAppBarMessage            000000018003c69e f   shell32:SHELL32.dll
 0001:0003b6a4       GetFileVersionInfoSizeW    000000018003c6a4 f   version:VERSION.dll
 0001:0003b6aa       GetFileVersionInfoW        000000018003c6aa f   version:VERSION.dll
 0001:0003b6b0       VerQueryValueW             000000018003c6b0 f   version:VERSION.dll
 0001:0003b6d0       _alloca_probe              000000018003c6d0 f   LIBCMT:_chkstk_.obj
 0001:0003b6d0       __chkstk                   000000018003c6d0 f   LIBCMT:_chkstk_.obj
 0001:0003b724       ??3@YAXPEAX_K@Z            000000018003c724 f   LIBCMT:delete_scalar_size.obj
 0001:0003b84c       ??$__crt_fast_decode_pointer@P6AHPEAU_RTL_CONDITION_VARIABLE@@PEAU_RTL_CRITICAL_SECTION@@K@Z@@YAP6AHPEAU_RTL_CONDITION_VARIABLE@@PEAU_RTL_CRITICAL_SECTION@@K@ZQ6AH01K@Z@Z 000000018003c84c f i LIBCMT:thread_safe_statics.obj
 0001:0003b864       ??$__crt_fast_decode_pointer@P6AXPEAU_RTL_CONDITION_VARIABLE@@@Z@@YAP6AXPEAU_RTL_CONDITION_VARIABLE@@@ZQ6AX0@Z@Z 000000018003c864 f i LIBCMT:thread_safe_statics.obj
 0001:0003b87c       ??$__crt_fast_encode_pointer@P6AHPEAU_RTL_CONDITION_VARIABLE@@PEAU_RTL_CRITICAL_SECTION@@K@Z@@YAP6AHPEAU_RTL_CONDITION_VARIABLE@@PEAU_RTL_CRITICAL_SECTION@@K@ZQ6AH01K@Z@Z 000000018003c87c f i LIBCMT:thread_safe_statics.obj
 0001:0003b89c       ??$__crt_fast_encode_pointer@P6AXPEAU_RTL_CONDITION_VARIABLE@@@Z@@YAP6AXPEAU_RTL_CONDITION_VARIABLE@@@ZQ6AX0@Z@Z 000000018003c89c f i LIBCMT:thread_safe_statics.obj
 0001:0003b8bc       ?__crt_rotate_pointer_value@@YA_K_KH@Z 000000018003c8bc f i LIBCMT:thread_safe_statics.obj
 0001:0003b8f0       _Init_thread_abort         000000018003c8f0 f   LIBCMT:thread_safe_statics.obj
 0001:0003b920       _Init_thread_footer        000000018003c920 f   LIBCMT:thread_safe_statics.obj
 0001:0003b980       _Init_thread_header        000000018003c980 f   LIBCMT:thread_safe_statics.obj
 0001:0003b9e8       _Init_thread_lock          000000018003c9e8 f   LIBCMT:thread_safe_statics.obj
 0001:0003b9f8       _Init_thread_notify        000000018003c9f8 f   LIBCMT:thread_safe_statics.obj
 0001:0003ba54       _Init_thread_unlock        000000018003ca54 f   LIBCMT:thread_safe_statics.obj
 0001:0003ba64       _Init_thread_wait          000000018003ca64 f   LIBCMT:thread_safe_statics.obj
 0001:0003bafc       ??$__crt_fast_decode_pointer@PEAP6AXXZ@@YAPEAP6AXXZQEAP6AXXZ@Z 000000018003cafc f i LIBCMT:utility.obj
 0001:0003bb14       ??$__crt_fast_encode_pointer@PEAP6AXXZ@@YAPEAP6AXXZQEAP6AXXZ@Z 000000018003cb14 f i LIBCMT:utility.obj
 0001:0003bbb0       NtCurrentTeb               000000018003cbb0 f i LIBCMT:utility.obj
 0001:0003bbbc       __scrt_acquire_startup_lock 000000018003cbbc f   LIBCMT:utility.obj
 0001:0003bbf8       __scrt_dllmain_after_initialize_c 000000018003cbf8 f   LIBCMT:utility.obj
 0001:0003bc18       __scrt_dllmain_before_initialize_c 000000018003cc18 f   LIBCMT:utility.obj
 0001:0003bc30       __scrt_dllmain_crt_thread_attach 000000018003cc30 f   LIBCMT:utility.obj
 0001:0003bc58       __scrt_dllmain_crt_thread_detach 000000018003cc58 f   LIBCMT:utility.obj
 0001:0003bc70       __scrt_dllmain_exception_filter 000000018003cc70 f   LIBCMT:utility.obj
 0001:0003bcd4       __scrt_dllmain_uninitialize_c 000000018003ccd4 f   LIBCMT:utility.obj
 0001:0003bd04       __scrt_dllmain_uninitialize_critical 000000018003cd04 f   LIBCMT:utility.obj
 0001:0003bd18       __scrt_initialize_crt      000000018003cd18 f   LIBCMT:utility.obj
 0001:0003bd64       __scrt_initialize_onexit_tables 000000018003cd64 f   LIBCMT:utility.obj
 0001:0003be30       __scrt_is_nonwritable_in_current_image 000000018003ce30 f   LIBCMT:utility.obj
 0001:0003becc       __scrt_release_startup_lock 000000018003cecc f   LIBCMT:utility.obj
 0001:0003bef0       __scrt_uninitialize_crt    000000018003cef0 f   LIBCMT:utility.obj
 0001:0003bf1c       _onexit                    000000018003cf1c f   LIBCMT:utility.obj
 0001:0003bf6c       at_quick_exit              000000018003cf6c f   LIBCMT:utility.obj
 0001:0003bfa4       atexit                     000000018003cfa4 f   LIBCMT:utility.obj
 0001:0003c318       _CRT_INIT                  000000018003d318 f   LIBCMT:dll_dllmain.obj
 0001:0003c320       _DllMainCRTStartup         000000018003d320 f   LIBCMT:dll_dllmain.obj
 0001:0003c360       __crt_debugger_hook        000000018003d360 f   LIBCMT:utility_desktop.obj
 0001:0003c368       __scrt_fastfail            000000018003d368 f   LIBCMT:utility_desktop.obj
 0001:0003c4b0       __scrt_get_show_window_mode 000000018003d4b0 f   LIBCMT:utility_desktop.obj
 0001:0003c4f0       __scrt_initialize_winrt    000000018003d4f0 f   LIBCMT:utility_desktop.obj
 0001:0003c4f4       __scrt_is_managed_app      000000018003d4f4 f   LIBCMT:utility_desktop.obj
 0001:0003c548       __scrt_set_unhandled_exception_filter 000000018003d548 f   LIBCMT:utility_desktop.obj
 0001:0003c558       __scrt_unhandled_exception_filter 000000018003d558 f   LIBCMT:utility_desktop.obj
 0001:0003c590       _guard_check_icall         000000018003d590 f i LIBCMT:checkcfg.obj
 0001:0003c598       __isa_available_init       000000018003d598 f   LIBCMT:_cpu_disp_.obj
 0001:0003c75c       __scrt_is_ucrt_dll_in_use  000000018003d75c f   LIBCMT:ucrt_detection.obj
 0001:0003c768       __security_init_cookie     000000018003d768 f   LIBCMT:gs_support.obj
 0001:0003c814       ?__scrt_initialize_type_info@@YAXXZ 000000018003d814 f   LIBCMT:tncleanup.obj
 0001:0003c824       ?__scrt_uninitialize_type_info@@YAXXZ 000000018003d824 f   LIBCMT:tncleanup.obj
 0001:0003c830       __local_stdio_printf_options 000000018003d830 f i LIBCMT:default_local_stdio_options.obj
 0001:0003c838       __local_stdio_scanf_options 000000018003d838 f i LIBCMT:default_local_stdio_options.obj
 0001:0003c840       __scrt_initialize_default_local_stdio_options 000000018003d840 f   LIBCMT:default_local_stdio_options.obj
 0001:0003c85c       __scrt_get_dyn_tls_init_callback 000000018003d85c f   LIBCMT:dyn_tls_init.obj
 0001:0003c864       _RTC_Initialize            000000018003d864 f   LIBCMT:_initsect_.obj
 0001:0003c8b0       _RTC_Terminate             000000018003d8b0 f   LIBCMT:_initsect_.obj
 0001:0003c8fc       _guard_check_icall_nop     000000018003d8fc f i LIBCMT:guard_support.obj
 0001:0003c900       _guard_icall_checks_enforced 000000018003d900 f i LIBCMT:guard_support.obj
 0001:0003c930       memcpy                     000000018003d930 f   libvcruntime:memcpy.obj
 0001:0003c930       memmove                    000000018003d930 f   libvcruntime:memcpy.obj
 0001:0003cd68       strrchr                    000000018003dd68 f   libvcruntime:strrchr.obj
 0001:0003ceac       wcschr                     000000018003deac f   libvcruntime:wcschr.obj
 0001:0003cf38       wcsrchr                    000000018003df38 f   libvcruntime:wcsrchr.obj
 0001:0003cfe8       wcsstr                     000000018003dfe8 f   libvcruntime:wcsstr.obj
 0001:0003d200       memset                     000000018003e200 f   libvcruntime:memset.obj
 0001:0003d3a0       ??$__crt_fast_decode_pointer@P6AXXZ@@YAP6AXXZQ6AXXZ@Z 000000018003e3a0 f i libvcruntime:purevirt.obj
 0001:0003d3b8       ??$__crt_fast_encode_pointer@P6AXXZ@@YAP6AXXZQ6AXXZ@Z 000000018003e3b8 f i libvcruntime:purevirt.obj
 0001:0003d3d8       ??$__crt_interlocked_compare_exchange_pointer@$$A6AXXZ$$T$$T@@YAP6AXXZPEDS6AXXZ$$T1@Z 000000018003e3d8 f i libvcruntime:purevirt.obj
 0001:0003d3e4       ??$__crt_interlocked_exchange_pointer@$$A6AXXZP6AXXZ@@YAP6AXXZPEDS6AXXZQ6AXXZ@Z 000000018003e3e4 f i libvcruntime:purevirt.obj
 0001:0003d3ec       ??$__crt_interlocked_read_pointer@$$A6AXXZ@@YAP6AXXZPEDS6AXXZ@Z 000000018003e3ec f i libvcruntime:purevirt.obj
 0001:0003d3f8       _get_purecall_handler      000000018003e3f8 f   libvcruntime:purevirt.obj
 0001:0003d418       _purecall                  000000018003e418 f   libvcruntime:purevirt.obj
 0001:0003d454       _set_purecall_handler      000000018003e454 f   libvcruntime:purevirt.obj
 0001:0003d4a0       memcmp                     000000018003e4a0 f   libvcruntime:memcmp.obj
 0001:0003d568       strchr                     000000018003e568 f   libvcruntime:strchr.obj
 0001:0003d5f4       __C_specific_handler       000000018003e5f4 f   libvcruntime:_chandler_.obj
 0001:0003d7e4       ??$?BX@__crt_fast_encoded_nullptr_t@@QEBAPEAXXZ 000000018003e7e4 f i libvcruntime:winapi_downlevel.obj
 0001:0003d800       ??$__crt_fast_decode_pointer@PEAX@@YAPEAXQEAX@Z 000000018003e800 f i libvcruntime:winapi_downlevel.obj
 0001:0003d818       ??$__crt_fast_encode_pointer@PEAX@@YAPEAXQEAX@Z 000000018003e818 f i libvcruntime:winapi_downlevel.obj
 0001:0003d838       ??$__crt_interlocked_compare_exchange_pointer@UHINSTANCE__@@$$T$$T@@YAPEAUHINSTANCE__@@PEDSEAU0@$$T1@Z 000000018003e838 f i libvcruntime:winapi_downlevel.obj
 0001:0003d844       ??$__crt_interlocked_compare_exchange_pointer@X$$T$$T@@YAPEAXPEDSEAX$$T1@Z 000000018003e844 f i libvcruntime:winapi_downlevel.obj
 0001:0003d850       ??$__crt_interlocked_exchange_pointer@UHINSTANCE__@@PEAU1@@@YAPEAUHINSTANCE__@@PEDSEAU0@QEAU0@@Z 000000018003e850 f i libvcruntime:winapi_downlevel.obj
 0001:0003d858       ??$__crt_interlocked_exchange_pointer@UHINSTANCE__@@PEAX@@YAPEAUHINSTANCE__@@PEDSEAU0@QEAX@Z 000000018003e858 f i libvcruntime:winapi_downlevel.obj
 0001:0003d860       ??$__crt_interlocked_exchange_pointer@XPEAX@@YAPEAXPEDSEAXQEAX@Z 000000018003e860 f i libvcruntime:winapi_downlevel.obj
 0001:0003d868       ??$__crt_interlocked_read_pointer@UHINSTANCE__@@@@YAPEAUHINSTANCE__@@PEDSEAU0@@Z 000000018003e868 f i libvcruntime:winapi_downlevel.obj
 0001:0003d874       ??$__crt_interlocked_read_pointer@X@@YAPEAXPEDSEAX@Z 000000018003e874 f i libvcruntime:winapi_downlevel.obj
 0001:0003d880       ?__crt_fast_encode_pointer@@YA?AU__crt_fast_encoded_nullptr_t@@$$T@Z 000000018003e880 f i libvcruntime:winapi_downlevel.obj
 0001:0003de88       __vcrt_EventRegister       000000018003ee88 f   libvcruntime:winapi_downlevel.obj
 0001:0003df0c       __vcrt_EventSetInformation 000000018003ef0c f   libvcruntime:winapi_downlevel.obj
 0001:0003df90       __vcrt_EventUnregister     000000018003ef90 f   libvcruntime:winapi_downlevel.obj
 0001:0003dfe4       __vcrt_EventWriteTransfer  000000018003efe4 f   libvcruntime:winapi_downlevel.obj
 0001:0003e07c       __vcrt_FlsAlloc            000000018003f07c f   libvcruntime:winapi_downlevel.obj
 0001:0003e0d0       __vcrt_FlsFree             000000018003f0d0 f   libvcruntime:winapi_downlevel.obj
 0001:0003e124       __vcrt_FlsGetValue         000000018003f124 f   libvcruntime:winapi_downlevel.obj
 0001:0003e178       __vcrt_FlsSetValue         000000018003f178 f   libvcruntime:winapi_downlevel.obj
 0001:0003e1e0       __vcrt_InitializeCriticalSectionEx 000000018003f1e0 f   libvcruntime:winapi_downlevel.obj
 0001:0003e258       __vcrt_initialize_winapi_thunks 000000018003f258 f   libvcruntime:winapi_downlevel.obj
 0001:0003e290       __vcrt_uninitialize_winapi_thunks 000000018003f290 f   libvcruntime:winapi_downlevel.obj
 0001:0003e2d0       __vcrt_initialize          000000018003f2d0 f   libvcruntime:initialization.obj
 0001:0003e308       __vcrt_thread_attach       000000018003f308 f   libvcruntime:initialization.obj
 0001:0003e31c       __vcrt_thread_detach       000000018003f31c f   libvcruntime:initialization.obj
 0001:0003e330       __vcrt_uninitialize        000000018003f330 f   libvcruntime:initialization.obj
 0001:0003e35c       __vcrt_uninitialize_critical 000000018003f35c f   libvcruntime:initialization.obj
 0001:0003e3c4       EventDataDescCreate        000000018003f3c4 f i libvcruntime:telemetry.obj
 0001:0003e3d0       HRESULT_FROM_WIN32         000000018003f3d0 f i libvcruntime:telemetry.obj
 0001:0003e3e0       __telemetry_main_invoke_trigger 000000018003f3e0 f   libvcruntime:telemetry.obj
 0001:0003e4f8       __telemetry_main_return_trigger 000000018003f4f8 f   libvcruntime:telemetry.obj
 0001:0003e610       __vcrt_initialize_telemetry_provider 000000018003f610 f   libvcruntime:telemetry.obj
 0001:0003e624       __vcrt_uninitialize_telemetry_provider 000000018003f624 f   libvcruntime:telemetry.obj
 0001:0003e654       ??$?RD@__crt_internal_free_policy@@QEBAXQEBD@Z 000000018003f654 f i libvcruntime:std_type_info.obj
 0001:0003e65c       ??$?RX@__crt_internal_free_policy@@QEBAXQEBX@Z 000000018003f65c f i libvcruntime:std_type_info.obj
 0001:0003e664       ??$__crt_interlocked_compare_exchange_pointer@$$CBD$$T$$T@@YAPEBDPEDSEBD$$T1@Z 000000018003f664 f i libvcruntime:std_type_info.obj
 0001:0003e670       ??$__crt_interlocked_compare_exchange_pointer@$$CBDPEAD$$T@@YAPEBDPEDSEBDQEAD$$T@Z 000000018003f670 f i libvcruntime:std_type_info.obj
 0001:0003e67c       ??$__crt_interlocked_read_pointer@$$CBD@@YAPEBDPEDSEBD@Z 000000018003f67c f i libvcruntime:std_type_info.obj
 0001:0003e688       ??0?$__crt_unique_heap_ptr@DU__crt_internal_free_policy@@@@QEAA@QEAD@Z 000000018003f688 f i libvcruntime:std_type_info.obj
 0001:0003e690       ??0?$__crt_unique_heap_ptr@XU__crt_internal_free_policy@@@@QEAA@QEAX@Z 000000018003f690 f i libvcruntime:std_type_info.obj
 0001:0003e698       ??1?$__crt_unique_heap_ptr@DU__crt_internal_free_policy@@@@QEAA@XZ 000000018003f698 f i libvcruntime:std_type_info.obj
 0001:0003e6b4       ??1?$__crt_unique_heap_ptr@XU__crt_internal_free_policy@@@@QEAA@XZ 000000018003f6b4 f i libvcruntime:std_type_info.obj
 0001:0003e6e0       ??B?$__crt_unique_heap_ptr@DU__crt_internal_free_policy@@@@QEBA_NXZ 000000018003f6e0 f i libvcruntime:std_type_info.obj
 0001:0003e6ec       ??B?$__crt_unique_heap_ptr@XU__crt_internal_free_policy@@@@QEBA_NXZ 000000018003f6ec f i libvcruntime:std_type_info.obj
 0001:0003e708       ?detach@?$__crt_unique_heap_ptr@XU__crt_internal_free_policy@@@@QEAAPEAXXZ 000000018003f708 f i libvcruntime:std_type_info.obj
 0001:0003e710       ?get@?$__crt_unique_heap_ptr@DU__crt_internal_free_policy@@@@QEBAPEADXZ 000000018003f710 f i libvcruntime:std_type_info.obj
 0001:0003e714       ?get@?$__crt_unique_heap_ptr@XU__crt_internal_free_policy@@@@QEBAPEAXXZ 000000018003f714 f i libvcruntime:std_type_info.obj
 0001:0003e718       ?is_valid@?$__crt_unique_heap_ptr@DU__crt_internal_free_policy@@@@QEBA_NXZ 000000018003f718 f i libvcruntime:std_type_info.obj
 0001:0003e724       ?is_valid@?$__crt_unique_heap_ptr@XU__crt_internal_free_policy@@@@QEBA_NXZ 000000018003f724 f i libvcruntime:std_type_info.obj
 0001:0003e730       ?release@?$__crt_unique_heap_ptr@DU__crt_internal_free_policy@@@@QEAAXXZ 000000018003f730 f i libvcruntime:std_type_info.obj
 0001:0003e74c       ?release@?$__crt_unique_heap_ptr@XU__crt_internal_free_policy@@@@QEAAXXZ 000000018003f74c f i libvcruntime:std_type_info.obj
 0001:0003e768       __std_type_info_compare    000000018003f768 f   libvcruntime:std_type_info.obj
 0001:0003e790       __std_type_info_destroy_list 000000018003f790 f   libvcruntime:std_type_info.obj
 0001:0003e7bc       __std_type_info_hash       000000018003f7bc f   libvcruntime:std_type_info.obj
 0001:0003e7f8       __std_type_info_name       000000018003f7f8 f   libvcruntime:std_type_info.obj
 0001:0003e914       ??$?B$$A6AXXZ@__crt_fast_encoded_nullptr_t@@QEBAP6AXXZXZ 000000018003f914 f i libvcruntime:purevirt_data.obj
 0001:0003e930       __vcrt_initialize_pure_virtual_call_handler 000000018003f930 f   libvcruntime:purevirt_data.obj
 0001:0003e970       _local_unwind              000000018003f970 f   libvcruntime:_jmpuwind_.obj
 0001:0003e9a0       _NLG_Notify                000000018003f9a0 f   libvcruntime:_jmpuwind_.obj
 0001:0003e9c0       __NLG_Dispatch2            000000018003f9c0 f   libvcruntime:_jmpuwind_.obj
 0001:0003e9d0       __NLG_Return2              000000018003f9d0 f   libvcruntime:_jmpuwind_.obj
 0001:0003e9d4       __except_validate_context_record 000000018003f9d4 f   libvcruntime:jbcxrval.obj
 0001:0003e9d8       __except_validate_jump_buffer 000000018003f9d8 f   libvcruntime:jbcxrval.obj
 0001:0003e9dc       ??$?RU__vcrt_ptd@@@__crt_internal_free_policy@@QEBAXQEBU__vcrt_ptd@@@Z 000000018003f9dc f i libvcruntime:per_thread_data.obj
 0001:0003e9e4       ??0?$__crt_unique_heap_ptr@U__vcrt_ptd@@U__crt_internal_free_policy@@@@QEAA@QEAU__vcrt_ptd@@@Z 000000018003f9e4 f i libvcruntime:per_thread_data.obj
 0001:0003e9ec       ??1?$__crt_unique_heap_ptr@U__vcrt_ptd@@U__crt_internal_free_policy@@@@QEAA@XZ 000000018003f9ec f i libvcruntime:per_thread_data.obj
 0001:0003ea08       ??B?$__crt_unique_heap_ptr@U__vcrt_ptd@@U__crt_internal_free_policy@@@@QEBA_NXZ 000000018003fa08 f i libvcruntime:per_thread_data.obj
 0001:0003ea14       ?detach@?$__crt_unique_heap_ptr@U__vcrt_ptd@@U__crt_internal_free_policy@@@@QEAAPEAU__vcrt_ptd@@XZ 000000018003fa14 f i libvcruntime:per_thread_data.obj
 0001:0003ea1c       ?get@?$__crt_unique_heap_ptr@U__vcrt_ptd@@U__crt_internal_free_policy@@@@QEBAPEAU__vcrt_ptd@@XZ 000000018003fa1c f i libvcruntime:per_thread_data.obj
 0001:0003ea20       ?is_valid@?$__crt_unique_heap_ptr@U__vcrt_ptd@@U__crt_internal_free_policy@@@@QEBA_NXZ 000000018003fa20 f i libvcruntime:per_thread_data.obj
 0001:0003ea2c       ?release@?$__crt_unique_heap_ptr@U__vcrt_ptd@@U__crt_internal_free_policy@@@@QEAAXXZ 000000018003fa2c f i libvcruntime:per_thread_data.obj
 0001:0003ea64       __vcrt_freefls             000000018003fa64 f   libvcruntime:per_thread_data.obj
 0001:0003ea84       __vcrt_freeptd             000000018003fa84 f   libvcruntime:per_thread_data.obj
 0001:0003ead4       __vcrt_getptd              000000018003fad4 f   libvcruntime:per_thread_data.obj
 0001:0003eaf0       __vcrt_getptd_noexit       000000018003faf0 f   libvcruntime:per_thread_data.obj
 0001:0003eb98       __vcrt_initialize_ptd      000000018003fb98 f   libvcruntime:per_thread_data.obj
 0001:0003ebd8       __vcrt_uninitialize_ptd    000000018003fbd8 f   libvcruntime:per_thread_data.obj
 0001:0003ebfc       __vcrt_initialize_locks    000000018003fbfc f   libvcruntime:locks.obj
 0001:0003ec44       __vcrt_lock                000000018003fc44 f   libvcruntime:locks.obj
 0001:0003ec60       __vcrt_uninitialize_locks  000000018003fc60 f   libvcruntime:locks.obj
 0001:0003ec98       __vcrt_unlock              000000018003fc98 f   libvcruntime:locks.obj
 0001:0003ecb4       ??$__vcrt_va_start_verify_argument_type@QEBD@@YAXXZ 000000018003fcb4 f i libvcruntime:undname.obj
 0001:0003ecb8       ??0Block@_HeapManager@@QEAA@XZ 000000018003fcb8 f i libvcruntime:undname.obj
 0001:0003ecc0       ??0DName@@QEAA@AEAPEBDD@Z  000000018003fcc0 f   libvcruntime:undname.obj
 0001:0003eda0       ??0DName@@QEAA@AEBV0@@Z    000000018003fda0 f i libvcruntime:undname.obj
 0001:0003edac       ??0DName@@QEAA@D@Z         000000018003fdac f   libvcruntime:undname.obj
 0001:0003ede4       ??0DName@@QEAA@PEAV0@@Z    000000018003fde4 f   libvcruntime:undname.obj
 0001:0003ee6c       ??0DName@@QEAA@PEBD@Z      000000018003fe6c f   libvcruntime:undname.obj
 0001:0003eeb4       ??0DName@@QEAA@W4DNameStatus@@@Z 000000018003feb4 f   libvcruntime:undname.obj
 0001:0003ef04       ??0DName@@QEAA@XZ          000000018003ff04 f i libvcruntime:undname.obj
 0001:0003ef18       ??0DName@@QEAA@_J@Z        000000018003ff18 f   libvcruntime:undname.obj
 0001:0003efc4       ??0DName@@QEAA@_K@Z        000000018003ffc4 f   libvcruntime:undname.obj
 0001:0003f054       ??0DNameNode@@IEAA@XZ      0000000180040054 f   libvcruntime:undname.obj
 0001:0003f064       ??0DNameStatusNode@@AEAA@W4DNameStatus@@@Z 0000000180040064 f   libvcruntime:undname.obj
 0001:0003f088       ??0Replicator@@QEAA@XZ     0000000180040088 f i libvcruntime:undname.obj
 0001:0003f090       ??0UnDecorator@@QEAA@PEADPEBDHP6APEADJ@ZK@Z 0000000180040090 f i libvcruntime:undname.obj
 0001:0003f104       ??0charNode@@QEAA@D@Z      0000000180040104 f   libvcruntime:undname.obj
 0001:0003f118       ??0pDNameNode@@QEAA@PEAVDName@@@Z 0000000180040118 f   libvcruntime:undname.obj
 0001:0003f140       ??0pairNode@@QEAA@PEAVDNameNode@@0@Z 0000000180040140 f   libvcruntime:undname.obj
 0001:0003f15c       ??0pcharNode@@QEAA@PEBDH@Z 000000018004015c f   libvcruntime:undname.obj
 0001:0003f1e4       ??2@YAPEAX_KAEAV_HeapManager@@H@Z 00000001800401e4 f i libvcruntime:undname.obj
 0001:0003f1f4       ??4DName@@QEAAAEAV0@AEBV0@@Z 00000001800401f4 f   libvcruntime:undname.obj
 0001:0003f200       ??4DName@@QEAAAEAV0@D@Z    0000000180040200 f i libvcruntime:undname.obj
 0001:0003f238       ??4DName@@QEAAAEAV0@PEAV0@@Z 0000000180040238 f   libvcruntime:undname.obj
 0001:0003f2c0       ??4DName@@QEAAAEAV0@PEBD@Z 00000001800402c0 f   libvcruntime:undname.obj
 0001:0003f300       ??4DName@@QEAAAEAV0@W4DNameStatus@@@Z 0000000180040300 f   libvcruntime:undname.obj
 0001:0003f33c       ??AReplicator@@QEBA?AVDName@@H@Z 000000018004033c f   libvcruntime:undname.obj
 0001:0003f384       ??BUnDecorator@@QEAAPEADXZ 0000000180040384 f i libvcruntime:undname.obj
 0001:0003f598       ??H@YA?AVDName@@DAEBV0@@Z  0000000180040598 f i libvcruntime:undname.obj
 0001:0003f5d4       ??H@YA?AVDName@@PEBDAEBV0@@Z 00000001800405d4 f i libvcruntime:undname.obj
 0001:0003f610       ??H@YA?AVDName@@W4DNameStatus@@AEBV0@@Z 0000000180040610 f i libvcruntime:undname.obj
 0001:0003f64c       ??HDName@@QEBA?AV0@AEBV0@@Z 000000018004064c f   libvcruntime:undname.obj
 0001:0003f670       ??HDName@@QEBA?AV0@D@Z     0000000180040670 f   libvcruntime:undname.obj
 0001:0003f694       ??HDName@@QEBA?AV0@PEAV0@@Z 0000000180040694 f   libvcruntime:undname.obj
 0001:0003f6b8       ??HDName@@QEBA?AV0@PEBD@Z  00000001800406b8 f   libvcruntime:undname.obj
 0001:0003f6dc       ??HDName@@QEBA?AV0@W4DNameStatus@@@Z 00000001800406dc f   libvcruntime:undname.obj
 0001:0003f700       ??YDName@@QEAAAEAV0@AEBV0@@Z 0000000180040700 f   libvcruntime:undname.obj
 0001:0003f740       ??YDName@@QEAAAEAV0@D@Z    0000000180040740 f   libvcruntime:undname.obj
 0001:0003f7c4       ??YDName@@QEAAAEAV0@PEAV0@@Z 00000001800407c4 f   libvcruntime:undname.obj
 0001:0003f85c       ??YDName@@QEAAAEAV0@PEBD@Z 000000018004085c f   libvcruntime:undname.obj
 0001:0003f8e8       ??YDName@@QEAAAEAV0@W4DNameStatus@@@Z 00000001800408e8 f   libvcruntime:undname.obj
 0001:0003f92c       ??YReplicator@@QEAAAEAV0@AEBVDName@@@Z 000000018004092c f   libvcruntime:undname.obj
 0001:0003f98c       ??_5DName@@QEAAAEAV0@AEBV0@@Z 000000018004098c f   libvcruntime:undname.obj
 0001:0003f9a0       ?Constructor@_HeapManager@@QEAAXP6APEAX_K@ZP6AXPEAX@Z@Z 00000001800409a0 f i libvcruntime:undname.obj
 0001:0003f9b8       ?Destructor@_HeapManager@@QEAAXXZ 00000001800409b8 f i libvcruntime:undname.obj
 0001:0003fa0c       ?UScore@UnDecorator@@SAPEBDW4Tokens@@@Z 0000000180040a0c f   libvcruntime:undname.obj
 0001:0003fa2c       ?append@DName@@AEAAXPEAVDNameNode@@@Z 0000000180040a2c f   libvcruntime:undname.obj
 0001:0003fa90       ?composeDeclaration@UnDecorator@@CA?AVDName@@AEBV2@@Z 0000000180040a90 f i libvcruntime:undname.obj
 0001:00040808       ?doAccessSpecifiers@UnDecorator@@SAHXZ 0000000180041808 f i libvcruntime:undname.obj
 0001:00040818       ?doAllocationLanguage@UnDecorator@@SAHXZ 0000000180041818 f i libvcruntime:undname.obj
 0001:00040828       ?doAllocationModel@UnDecorator@@SAHXZ 0000000180041828 f i libvcruntime:undname.obj
 0001:00040838       ?doEcsu@UnDecorator@@SAHXZ 0000000180041838 f i libvcruntime:undname.obj
 0001:00040848       ?doEllipsis@UnDecorator@@SAHXZ 0000000180041848 f i libvcruntime:undname.obj
 0001:00040858       ?doFunctionReturns@UnDecorator@@SAHXZ 0000000180041858 f i libvcruntime:undname.obj
 0001:00040868       ?doMSKeywords@UnDecorator@@SAHXZ 0000000180041868 f i libvcruntime:undname.obj
 0001:00040878       ?doMemberTypes@UnDecorator@@SAHXZ 0000000180041878 f i libvcruntime:undname.obj
 0001:00040888       ?doNameOnly@UnDecorator@@SAHXZ 0000000180041888 f i libvcruntime:undname.obj
 0001:00040894       ?doNoIdentCharCheck@UnDecorator@@SAHXZ 0000000180041894 f i libvcruntime:undname.obj
 0001:000408a0       ?doPchar@DName@@AEAAXPEBDH@Z 00000001800418a0 f   libvcruntime:undname.obj
 0001:00040950       ?doPtr64@UnDecorator@@SAHXZ 0000000180041950 f i libvcruntime:undname.obj
 0001:00040960       ?doRestrictionSpec@UnDecorator@@SAHXZ 0000000180041960 f i libvcruntime:undname.obj
 0001:00040970       ?doThisTypes@UnDecorator@@SAHXZ 0000000180041970 f i libvcruntime:undname.obj
 0001:00040984       ?doThrowTypes@UnDecorator@@SAHXZ 0000000180041984 f i libvcruntime:undname.obj
 0001:00040994       ?doTypeOnly@UnDecorator@@SAHXZ 0000000180041994 f i libvcruntime:undname.obj
 0001:000409a0       ?doUnderScore@UnDecorator@@SAHXZ 00000001800419a0 f i libvcruntime:undname.obj
 0001:000409ac       ?getArgumentList@UnDecorator@@CA?AVDName@@XZ 00000001800419ac f   libvcruntime:undname.obj
 0001:00040af0       ?getArgumentTypes@UnDecorator@@CA?AVDName@@XZ 0000000180041af0 f   libvcruntime:undname.obj
 0001:00040bf0       ?getArrayType@UnDecorator@@CA?AVDName@@AEBV2@@Z 0000000180041bf0 f i libvcruntime:undname.obj
 0001:00040e2c       ?getBasedType@UnDecorator@@CA?AVDName@@XZ 0000000180041e2c f   libvcruntime:undname.obj
 0001:00040eec       ?getBasicDataType@UnDecorator@@CA?AVDName@@AEBV2@@Z 0000000180041eec f   libvcruntime:undname.obj
 0001:00041324       ?getCallIndex@UnDecorator@@CA?AVDName@@XZ 0000000180042324 f i libvcruntime:undname.obj
 0001:00041340       ?getCallingConvention@UnDecorator@@CA?AVDName@@XZ 0000000180042340 f   libvcruntime:undname.obj
 0001:00041440       ?getDataIndirectType@UnDecorator@@CA?AVDName@@AEBV2@PEBD0H@Z 0000000180042440 f   libvcruntime:undname.obj
 0001:00041b78       ?getDataIndirectType@UnDecorator@@CA?AVDName@@XZ 0000000180042b78 f i libvcruntime:undname.obj
 0001:00041bc0       ?getDataType@UnDecorator@@CA?AVDName@@PEAV2@@Z 0000000180042bc0 f   libvcruntime:undname.obj
 0001:00041ca4       ?getDecoratedName@UnDecorator@@CA?AVDName@@XZ 0000000180042ca4 f   libvcruntime:undname.obj
 0001:00041f18       ?getDimension@UnDecorator@@CA?AVDName@@_N@Z 0000000180042f18 f   libvcruntime:undname.obj
 0001:00042074       ?getDispatchTarget@UnDecorator@@CA?AVDName@@XZ 0000000180043074 f   libvcruntime:undname.obj
 0001:000420d8       ?getDisplacement@UnDecorator@@CA?AVDName@@XZ 00000001800430d8 f i libvcruntime:undname.obj
 0001:000420f4       ?getECSUDataType@UnDecorator@@CA?AVDName@@XZ 00000001800430f4 f   libvcruntime:undname.obj
 0001:00042258       ?getECSUName@UnDecorator@@CA?AVDName@@XZ 0000000180043258 f i libvcruntime:undname.obj
 0001:00042270       ?getEnumType@UnDecorator@@CA?AVDName@@XZ 0000000180043270 f i libvcruntime:undname.obj
 0001:00042358       ?getExtendedDataIndirectType@UnDecorator@@CA?AVDName@@AEAPEBDAEA_NH@Z 0000000180043358 f   libvcruntime:undname.obj
 0001:0004259c       ?getExternalDataType@UnDecorator@@CA?AVDName@@AEBV2@@Z 000000018004359c f i libvcruntime:undname.obj
 0001:00042670       ?getFunctionIndirectType@UnDecorator@@CA?AVDName@@AEBV2@@Z 0000000180043670 f   libvcruntime:undname.obj
 0001:00042b90       ?getGuardNumber@UnDecorator@@CA?AVDName@@XZ 0000000180043b90 f i libvcruntime:undname.obj
 0001:00042bac       ?getLastChar@DName@@QEBADXZ 0000000180043bac f i libvcruntime:undname.obj
 0001:00042be4       ?getLastChar@DNameStatusNode@@UEBADXZ 0000000180043be4 f i libvcruntime:undname.obj
 0001:00042bf0       ?getLastChar@charNode@@UEBADXZ 0000000180043bf0 f i libvcruntime:undname.obj
 0001:00042bf4       ?getLastChar@pDNameNode@@UEBADXZ 0000000180043bf4 f i libvcruntime:undname.obj
 0001:00042c30       ?getLastChar@pairNode@@UEBADXZ 0000000180043c30 f i libvcruntime:undname.obj
 0001:00042c88       ?getLastChar@pcharNode@@UEBADXZ 0000000180043c88 f i libvcruntime:undname.obj
 0001:00042c9c       ?getLexicalFrame@UnDecorator@@CA?AVDName@@XZ 0000000180043c9c f i libvcruntime:undname.obj
 0001:00042cfc       ?getMemory@_HeapManager@@QEAAPEAX_KH@Z 0000000180043cfc f   libvcruntime:undname.obj
 0001:00042db8       ?getNumberOfDimensions@UnDecorator@@CAHXZ 0000000180043db8 f   libvcruntime:undname.obj
 0001:00042e2c       ?getOperatorName@UnDecorator@@CA?AVDName@@_NPEA_N@Z 0000000180043e2c f i libvcruntime:undname.obj
 0001:00043584       ?getPointerType@UnDecorator@@CA?AVDName@@AEBV2@0@Z 0000000180044584 f i libvcruntime:undname.obj
 0001:000435a4       ?getPointerTypeArray@UnDecorator@@CA?AVDName@@AEBV2@0@Z 00000001800445a4 f i libvcruntime:undname.obj
 0001:000435c4       ?getPrimaryDataType@UnDecorator@@CA?AVDName@@AEBV2@@Z 00000001800445c4 f   libvcruntime:undname.obj
 0001:00043808       ?getPtrRefDataType@UnDecorator@@CA?AVDName@@AEBV2@H@Z 0000000180044808 f   libvcruntime:undname.obj
 0001:00043930       ?getPtrRefType@UnDecorator@@CA?AVDName@@AEBV2@0PEBD@Z 0000000180044930 f   libvcruntime:undname.obj
 0001:00043a64       ?getReferenceType@UnDecorator@@CA?AVDName@@AEBV2@0PEBD@Z 0000000180044a64 f i libvcruntime:undname.obj
 0001:00043a7c       ?getRestrictionSpec@UnDecorator@@CA?AVDName@@XZ 0000000180044a7c f   libvcruntime:undname.obj
 0001:00043ba8       ?getReturnType@UnDecorator@@CA?AVDName@@PEAV2@@Z 0000000180044ba8 f   libvcruntime:undname.obj
 0001:00043bdc       ?getScope@UnDecorator@@CA?AVDName@@XZ 0000000180044bdc f   libvcruntime:undname.obj
 0001:00044088       ?getScopedName@UnDecorator@@CA?AVDName@@XZ 0000000180045088 f   libvcruntime:undname.obj
 0001:000441a0       ?getSignedDimension@UnDecorator@@CA?AVDName@@XZ 00000001800451a0 f   libvcruntime:undname.obj
 0001:0004421c       ?getStorageConvention@UnDecorator@@CA?AVDName@@XZ 000000018004521c f i libvcruntime:undname.obj
 0001:00044264       ?getString@DName@@QEBAPEADPEAD0@Z 0000000180045264 f i libvcruntime:undname.obj
 0001:000442bc       ?getString@DName@@QEBAPEADPEADH@Z 00000001800452bc f i libvcruntime:undname.obj
 0001:0004436c       ?getString@DNameStatusNode@@UEBAPEADPEAD0@Z 000000018004536c f i libvcruntime:undname.obj
 0001:000443b0       ?getString@charNode@@UEBAPEADPEAD0@Z 00000001800453b0 f i libvcruntime:undname.obj
 0001:000443c4       ?getString@pDNameNode@@UEBAPEADPEAD0@Z 00000001800453c4 f i libvcruntime:undname.obj
 0001:00044424       ?getString@pairNode@@UEBAPEADPEAD0@Z 0000000180045424 f i libvcruntime:undname.obj
 0001:000444a8       ?getString@pcharNode@@UEBAPEADPEAD0@Z 00000001800454a8 f i libvcruntime:undname.obj
 0001:000444e0       ?getStringEncoding@UnDecorator@@CA?AVDName@@PEADH@Z 00000001800454e0 f   libvcruntime:undname.obj
 0001:000445a0       ?getStringHelper@@YAPEADPEAD00H@Z 00000001800455a0 f i libvcruntime:undname.obj
 0001:000445d0       ?getSymbolName@UnDecorator@@CA?AVDName@@XZ 00000001800455d0 f i libvcruntime:undname.obj
 0001:0004461c       ?getTemplateArgumentList@UnDecorator@@CA?AVDName@@XZ 000000018004561c f   libvcruntime:undname.obj
 0001:000448f4       ?getTemplateConstant@UnDecorator@@CA?AVDName@@XZ 00000001800458f4 f   libvcruntime:undname.obj
 0001:00044c9c       ?getTemplateName@UnDecorator@@CA?AVDName@@_N@Z 0000000180045c9c f   libvcruntime:undname.obj
 0001:00044e78       ?getThisType@UnDecorator@@CA?AVDName@@XZ 0000000180045e78 f i libvcruntime:undname.obj
 0001:00044ec0       ?getThrowTypes@UnDecorator@@CA?AVDName@@XZ 0000000180045ec0 f   libvcruntime:undname.obj
 0001:00044f84       ?getTypeEncoding@UnDecorator@@CAHXZ 0000000180045f84 f i libvcruntime:undname.obj
 0001:00045470       ?getVCallThunkType@UnDecorator@@CA?AVDName@@XZ 0000000180046470 f i libvcruntime:undname.obj
 0001:000454bc       ?getVbTableType@UnDecorator@@CA?AVDName@@AEBV2@@Z 00000001800464bc f i libvcruntime:undname.obj
 0001:000454d4       ?getVdispMapType@UnDecorator@@CA?AVDName@@AEBV2@@Z 00000001800464d4 f i libvcruntime:undname.obj
 0001:00045530       ?getVfTableType@UnDecorator@@CA?AVDName@@AEBV2@@Z 0000000180046530 f i libvcruntime:undname.obj
 0001:00045700       ?getZName@UnDecorator@@CA?AVDName@@_N0@Z 0000000180046700 f   libvcruntime:undname.obj
 0001:0004599c       ?haveTemplateParameters@UnDecorator@@SAHXZ 000000018004699c f i libvcruntime:undname.obj
 0001:000459a8       ?isArray@DName@@QEBAHXZ    00000001800469a8 f i libvcruntime:undname.obj
 0001:000459b4       ?isComArray@DName@@QEBAHXZ 00000001800469b4 f i libvcruntime:undname.obj
 0001:000459c0       ?isEmpty@DName@@QEBAHXZ    00000001800469c0 f i libvcruntime:undname.obj
 0001:000459cc       ?isFull@Replicator@@QEBAHXZ 00000001800469cc f i libvcruntime:undname.obj
 0001:000459d8       ?isNoTE@DName@@QEBAHXZ     00000001800469d8 f i libvcruntime:undname.obj
 0001:000459e4       ?isPinPtr@DName@@QEBAHXZ   00000001800469e4 f i libvcruntime:undname.obj
 0001:000459f0       ?isPtrRef@DName@@QEBAHXZ   00000001800469f0 f i libvcruntime:undname.obj
 0001:000459fc       ?isUDC@DName@@QEBAHXZ      00000001800469fc f i libvcruntime:undname.obj
 0001:00045a14       ?isUDTThunk@DName@@QEBAHXZ 0000000180046a14 f i libvcruntime:undname.obj
 0001:00045a2c       ?isVCallThunk@DName@@QEBAHXZ 0000000180046a2c f i libvcruntime:undname.obj
 0001:00045a38       ?isValid@DName@@QEBAHXZ    0000000180046a38 f i libvcruntime:undname.obj
 0001:00045a44       ?length@DName@@QEBAHXZ     0000000180046a44 f i libvcruntime:undname.obj
 0001:00045a78       ?length@DNameStatusNode@@UEBAHXZ 0000000180046a78 f i libvcruntime:undname.obj
 0001:00045a7c       ?length@charNode@@UEBAHXZ  0000000180046a7c f i libvcruntime:undname.obj
 0001:00045a84       ?length@pDNameNode@@UEBAHXZ 0000000180046a84 f i libvcruntime:undname.obj
 0001:00045ac0       ?length@pairNode@@UEBAHXZ  0000000180046ac0 f i libvcruntime:undname.obj
 0001:00045b2c       ?length@pcharNode@@UEBAHXZ 0000000180046b2c f i libvcruntime:undname.obj
 0001:00045b30       ?make@DNameStatusNode@@SAPEAV1@W4DNameStatus@@@Z 0000000180046b30 f i libvcruntime:undname.obj
 0001:00045bb8       ?setIsArray@DName@@QEAAXXZ 0000000180046bb8 f i libvcruntime:undname.obj
 0001:00045bc0       ?setIsComArray@DName@@QEAAXXZ 0000000180046bc0 f i libvcruntime:undname.obj
 0001:00045bc8       ?setIsNoTE@DName@@QEAAXXZ  0000000180046bc8 f i libvcruntime:undname.obj
 0001:00045bd0       ?setIsPinPtr@DName@@QEAAXXZ 0000000180046bd0 f i libvcruntime:undname.obj
 0001:00045bd8       ?setIsUDC@DName@@QEAAXXZ   0000000180046bd8 f i libvcruntime:undname.obj
 0001:00045be4       ?setIsVCallThunk@DName@@QEAAXXZ 0000000180046be4 f i libvcruntime:undname.obj
 0001:00045bec       ?setPtrRef@DName@@QEAAAEAV1@XZ 0000000180046bec f i libvcruntime:undname.obj
 0001:00045bf8       ?status@DName@@QEBA?AW4DNameStatus@@XZ 0000000180046bf8 f i libvcruntime:undname.obj
 0001:00045c5c       __unDName                  0000000180046c5c f   libvcruntime:undname.obj
 0001:00045d54       __unDNameEx                0000000180046d54 f   libvcruntime:undname.obj
 0001:00045e50       _vsprintf_s_l              0000000180046e50 f i libvcruntime:undname.obj
 0001:00045eb4       sprintf_s                  0000000180046eb4 f i libvcruntime:undname.obj
 0001:00045f08       wcslen                     0000000180046f08 f   libucrt:wcslen.obj
 0001:00045f24       wcsncmp                    0000000180046f24 f   libucrt:wcsncmp.obj
 0001:00045f50       wcspbrk                    0000000180046f50 f   libucrt:wcspbrk.obj
 0001:00045f88       ??$__crt_interlocked_read@J@@YAJPEDJ@Z 0000000180046f88 f i libucrt:strtox.obj
 0001:00045f8c       ??$is_overflow_condition@K@__crt_strtox@@YA_NIK@Z 0000000180046f8c f i libucrt:strtox.obj
 0001:00045fb8       ??$is_overflow_condition@_K@__crt_strtox@@YA_NI_K@Z 0000000180046fb8 f i libucrt:strtox.obj
 0001:00045ff0       ??$make_c_string_character_source@DPEAPEAD@__crt_strtox@@YA?AV?$c_string_character_source@D@0@QEBDQEAPEAD@Z 0000000180046ff0 f i libucrt:strtox.obj
 0001:00046004       ??$make_c_string_character_source@_WPEAPEA_W@__crt_strtox@@YA?AV?$c_string_character_source@_W@0@QEB_WQEAPEA_W@Z 0000000180047004 f i libucrt:strtox.obj
 0001:00046018       ??$parse_integer@KV?$c_string_character_source@D@__crt_strtox@@@__crt_strtox@@YAKQEAU__crt_locale_pointers@@V?$c_string_character_source@D@0@H_N@Z 0000000180047018 f i libucrt:strtox.obj
 0001:0004632c       ??$parse_integer@KV?$c_string_character_source@_W@__crt_strtox@@@__crt_strtox@@YAKQEAU__crt_locale_pointers@@V?$c_string_character_source@_W@0@H_N@Z 000000018004732c f i libucrt:strtox.obj
 0001:00046a00       ??$parse_integer@_KV?$c_string_character_source@D@__crt_strtox@@@__crt_strtox@@YA_KQEAU__crt_locale_pointers@@V?$c_string_character_source@D@0@H_N@Z 0000000180047a00 f i libucrt:strtox.obj
 0001:00046d34       ??$parse_integer@_KV?$c_string_character_source@_W@__crt_strtox@@@__crt_strtox@@YA_KQEAU__crt_locale_pointers@@V?$c_string_character_source@_W@0@H_N@Z 0000000180047d34 f i libucrt:strtox.obj
 0001:000474ec       ??$parse_integer_from_string@JDPEAPEAD@__crt_strtox@@YAJQEBDQEAPEADHQEAU__crt_locale_pointers@@@Z 00000001800484ec f i libucrt:strtox.obj
 0001:00047528       ??$parse_integer_from_string@J_WPEAPEA_W@__crt_strtox@@YAJQEB_WQEAPEA_WHQEAU__crt_locale_pointers@@@Z 0000000180048528 f i libucrt:strtox.obj
 0001:00047564       ??$parse_integer_from_string@KDPEAPEAD@__crt_strtox@@YAKQEBDQEAPEADHQEAU__crt_locale_pointers@@@Z 0000000180048564 f i libucrt:strtox.obj
 0001:000475a0       ??$parse_integer_from_string@K_WPEAPEA_W@__crt_strtox@@YAKQEB_WQEAPEA_WHQEAU__crt_locale_pointers@@@Z 00000001800485a0 f i libucrt:strtox.obj
 0001:000475dc       ??$parse_integer_from_string@_JDPEAPEAD@__crt_strtox@@YA_JQEBDQEAPEADHQEAU__crt_locale_pointers@@@Z 00000001800485dc f i libucrt:strtox.obj
 0001:00047618       ??$parse_integer_from_string@_J_WPEAPEA_W@__crt_strtox@@YA_JQEB_WQEAPEA_WHQEAU__crt_locale_pointers@@@Z 0000000180048618 f i libucrt:strtox.obj
 0001:00047654       ??$parse_integer_from_string@_KDPEAPEAD@__crt_strtox@@YA_KQEBDQEAPEADHQEAU__crt_locale_pointers@@@Z 0000000180048654 f i libucrt:strtox.obj
 0001:00047690       ??$parse_integer_from_string@_K_WPEAPEA_W@__crt_strtox@@YA_KQEB_WQEAPEA_WHQEAU__crt_locale_pointers@@@Z 0000000180048690 f i libucrt:strtox.obj
 0001:000476cc       ??0?$c_string_character_source@D@__crt_strtox@@QEAA@QEBDQEAPEBD@Z 00000001800486cc f i libucrt:strtox.obj
 0001:000476e0       ??0?$c_string_character_source@_W@__crt_strtox@@QEAA@QEB_WQEAPEB_W@Z 00000001800486e0 f i libucrt:strtox.obj
 0001:000476f4       ??0_LocaleUpdate@@QEAA@QEAU__crt_locale_pointers@@@Z 00000001800486f4 f i libucrt:strtox.obj
 0001:00047784       ??1?$c_string_character_source@D@__crt_strtox@@QEAA@XZ 0000000180048784 f i libucrt:strtox.obj
 0001:00047794       ??1?$c_string_character_source@_W@__crt_strtox@@QEAA@XZ 0000000180048794 f i libucrt:strtox.obj
 0001:000477a4       ??1_LocaleUpdate@@QEAA@XZ  00000001800487a4 f i libucrt:strtox.obj
 0001:000477b8       ?GetLocaleT@_LocaleUpdate@@QEAAPEAU__crt_locale_pointers@@XZ 00000001800487b8 f i libucrt:strtox.obj
 0001:000477c0       ?__crt_interlocked_read_32@@YAHPEDH@Z 00000001800487c0 f i libucrt:strtox.obj
 0001:000477c4       ?get@?$c_string_character_source@D@__crt_strtox@@QEAADXZ 00000001800487c4 f i libucrt:strtox.obj
 0001:000477d0       ?get@?$c_string_character_source@_W@__crt_strtox@@QEAA_WXZ 00000001800487d0 f i libucrt:strtox.obj
 0001:000477e0       ?is_space@__crt_strtox@@YA_NDQEAU__crt_locale_pointers@@@Z 00000001800487e0 f i libucrt:strtox.obj
 0001:00047834       ?is_space@__crt_strtox@@YA_N_WPEAU__crt_locale_pointers@@@Z 0000000180048834 f i libucrt:strtox.obj
 0001:0004784c       ?maximum_signed_value@__crt_strtox@@YAJK@Z 000000018004884c f i libucrt:strtox.obj
 0001:00047854       ?maximum_signed_value@__crt_strtox@@YA_J_K@Z 0000000180048854 f i libucrt:strtox.obj
 0001:00047860       ?minimum_signed_value@__crt_strtox@@YAJK@Z 0000000180048860 f i libucrt:strtox.obj
 0001:00047868       ?minimum_signed_value@__crt_strtox@@YA_J_K@Z 0000000180048868 f i libucrt:strtox.obj
 0001:00047874       ?parse_digit@__crt_strtox@@YAID@Z 0000000180048874 f i libucrt:strtox.obj
 0001:000478a4       ?parse_digit@__crt_strtox@@YAI_W@Z 00000001800488a4 f i libucrt:strtox.obj
 0001:00047a7c       ?restore_state@?$c_string_character_source@D@__crt_strtox@@QEAA_NQEBD@Z 0000000180048a7c f i libucrt:strtox.obj
 0001:00047a84       ?restore_state@?$c_string_character_source@_W@__crt_strtox@@QEAA_NQEB_W@Z 0000000180048a84 f i libucrt:strtox.obj
 0001:00047a8c       ?save_state@?$c_string_character_source@D@__crt_strtox@@QEBAPEBDXZ 0000000180048a8c f i libucrt:strtox.obj
 0001:00047a90       ?save_state@?$c_string_character_source@_W@__crt_strtox@@QEBAPEB_WXZ 0000000180048a90 f i libucrt:strtox.obj
 0001:00047a94       ?unget@?$c_string_character_source@D@__crt_strtox@@QEAAXD@Z 0000000180048a94 f i libucrt:strtox.obj
 0001:00047abc       ?unget@?$c_string_character_source@_W@__crt_strtox@@QEAAX_W@Z 0000000180048abc f i libucrt:strtox.obj
 0001:00047ae8       ?validate@?$c_string_character_source@D@__crt_strtox@@QEBA_NXZ 0000000180048ae8 f i libucrt:strtox.obj
 0001:00047b10       ?validate@?$c_string_character_source@_W@__crt_strtox@@QEBA_NXZ 0000000180048b10 f i libucrt:strtox.obj
 0001:00047b38       ?wide_character_to_digit@__crt_strtox@@YAH_W@Z 0000000180048b38 f i libucrt:strtox.obj
 0001:00047cd0       __acrt_get_locale_data_prefix 0000000180048cd0 f i libucrt:strtox.obj
 0001:00047cd4       __acrt_locale_changed      0000000180048cd4 f i libucrt:strtox.obj
 0001:00047ce0       _chvalidchk_l              0000000180048ce0 f i libucrt:strtox.obj
 0001:00047d18       _ischartype_l              0000000180048d18 f i libucrt:strtox.obj
 0001:00047d60       _strtoi64                  0000000180048d60 f   libucrt:strtox.obj
 0001:00047d90       _strtoi64_l                0000000180048d90 f   libucrt:strtox.obj
 0001:00047dcc       _strtoimax_l               0000000180048dcc f   libucrt:strtox.obj
 0001:00047e08       _strtol_l                  0000000180048e08 f   libucrt:strtox.obj
 0001:00047e44       _strtoll_l                 0000000180048e44 f   libucrt:strtox.obj
 0001:00047e80       _strtoui64                 0000000180048e80 f   libucrt:strtox.obj
 0001:00047eb0       _strtoui64_l               0000000180048eb0 f   libucrt:strtox.obj
 0001:00047eec       _strtoul_l                 0000000180048eec f   libucrt:strtox.obj
 0001:00047f28       _strtoull_l                0000000180048f28 f   libucrt:strtox.obj
 0001:00047f64       _strtoumax_l               0000000180048f64 f   libucrt:strtox.obj
 0001:00047fa0       _wcstoi64                  0000000180048fa0 f   libucrt:strtox.obj
 0001:00047fd0       _wcstoi64_l                0000000180048fd0 f   libucrt:strtox.obj
 0001:0004800c       _wcstoimax_l               000000018004900c f   libucrt:strtox.obj
 0001:00048048       _wcstol_l                  0000000180049048 f   libucrt:strtox.obj
 0001:00048084       _wcstoll_l                 0000000180049084 f   libucrt:strtox.obj
 0001:000480c0       _wcstoui64                 00000001800490c0 f   libucrt:strtox.obj
 0001:000480f0       _wcstoui64_l               00000001800490f0 f   libucrt:strtox.obj
 0001:0004812c       _wcstoul_l                 000000018004912c f   libucrt:strtox.obj
 0001:00048168       _wcstoull_l                0000000180049168 f   libucrt:strtox.obj
 0001:000481a4       _wcstoumax_l               00000001800491a4 f   libucrt:strtox.obj
 0001:000481e0       strtoimax                  00000001800491e0 f   libucrt:strtox.obj
 0001:00048210       strtol                     0000000180049210 f   libucrt:strtox.obj
 0001:00048240       strtoll                    0000000180049240 f   libucrt:strtox.obj
 0001:00048270       strtoul                    0000000180049270 f   libucrt:strtox.obj
 0001:000482a0       strtoull                   00000001800492a0 f   libucrt:strtox.obj
 0001:000482d0       strtoumax                  00000001800492d0 f   libucrt:strtox.obj
 0001:00048300       wcstoimax                  0000000180049300 f   libucrt:strtox.obj
 0001:00048330       wcstol                     0000000180049330 f   libucrt:strtox.obj
 0001:00048360       wcstoll                    0000000180049360 f   libucrt:strtox.obj
 0001:00048390       wcstoul                    0000000180049390 f   libucrt:strtox.obj
 0001:000483c0       wcstoull                   00000001800493c0 f   libucrt:strtox.obj
 0001:000483f0       wcstoumax                  00000001800493f0 f   libucrt:strtox.obj
 0001:00048430       strlen                     0000000180049430 f   libucrt:strlen.obj
 0001:000484f8       _seh_filter_dll            00000001800494f8 f   libucrt:exception_filter.obj
 0001:0004850c       _seh_filter_exe            000000018004950c f   libucrt:exception_filter.obj
 0001:0004869c       ??$?B$$A6AXPEAXK0@Z@__crt_fast_encoded_nullptr_t@@QEBAP6AXPEAXK0@ZXZ 000000018004969c f i libucrt:exit.obj
 0001:000486b8       ??$__crt_fast_decode_pointer@P6AXPEAXK0@Z@@YAP6AXPEAXK0@ZQ6AX0K0@Z@Z 00000001800496b8 f i libucrt:exit.obj
 0001:000486d0       ??$__crt_fast_encode_pointer@P6AXPEAXK0@Z@@YAP6AXPEAXK0@ZQ6AX0K0@Z@Z 00000001800496d0 f i libucrt:exit.obj
 0001:000486f0       ??$__crt_get_proc_address@P6AXI@Z@@YAP6AXI@ZQEAUHINSTANCE__@@QEBD@Z 00000001800496f0 f i libucrt:exit.obj
 0001:000486f8       ??0?$__crt_unique_handle_t@U__crt_hmodule_traits@@@@QEAA@QEAUHINSTANCE__@@@Z 00000001800496f8 f i libucrt:exit.obj
 0001:00048700       ??1?$__crt_unique_handle_t@U__crt_hmodule_traits@@@@QEAA@XZ 0000000180049700 f i libucrt:exit.obj
 0001:00048730       ?close@?$__crt_unique_handle_t@U__crt_hmodule_traits@@@@QEAAXXZ 0000000180049730 f i libucrt:exit.obj
 0001:00048754       ?close@__crt_hmodule_traits@@SA_NPEAUHINSTANCE__@@@Z 0000000180049754 f i libucrt:exit.obj
 0001:00048920       ?get@?$__crt_unique_handle_t@U__crt_hmodule_traits@@@@QEBAPEAUHINSTANCE__@@XZ 0000000180049920 f i libucrt:exit.obj
 0001:00048924       ?get_address_of@?$__crt_unique_handle_t@U__crt_hmodule_traits@@@@QEAAPEAPEAUHINSTANCE__@@XZ 0000000180049924 f i libucrt:exit.obj
 0001:00048928       ?get_invalid_value@__crt_hmodule_traits@@SAPEAUHINSTANCE__@@XZ 0000000180049928 f i libucrt:exit.obj
 0001:00048a14       _Exit                      0000000180049a14 f   libucrt:exit.obj
 0001:00048a20       __acrt_initialize_thread_local_exit_callback 0000000180049a20 f   libucrt:exit.obj
 0001:00048a28       _c_exit                    0000000180049a28 f   libucrt:exit.obj
 0001:00048a38       _cexit                     0000000180049a38 f   libucrt:exit.obj
 0001:00048a48       _exit                      0000000180049a48 f   libucrt:exit.obj
 0001:00048a54       _is_c_termination_complete 0000000180049a54 f   libucrt:exit.obj
 0001:00048a5c       _register_thread_local_exe_atexit_callback 0000000180049a5c f   libucrt:exit.obj
 0001:00048aa0       exit                       0000000180049aa0 f   libucrt:exit.obj
 0001:00048aac       quick_exit                 0000000180049aac f   libucrt:exit.obj
 0001:00048ab8       ??$?RPEAD@__crt_internal_free_policy@@QEBAXQEBQEAD@Z 0000000180049ab8 f i libucrt:environment_initialization.obj
 0001:00048ac0       ??$?RPEA_W@__crt_internal_free_policy@@QEBAXQEBQEA_W@Z 0000000180049ac0 f i libucrt:environment_initialization.obj
 0001:00048ac8       ??$?R_W@__crt_internal_free_policy@@QEBAXQEB_W@Z 0000000180049ac8 f i libucrt:environment_initialization.obj
 0001:00048f5c       ??$get_environment_from_os@$$$V@?$__crt_char_traits@D@@SAPEADXZ 0000000180049f5c f i libucrt:environment_initialization.obj
 0001:00048f64       ??$get_environment_from_os@$$$V@?$__crt_char_traits@_W@@SAPEA_WXZ 0000000180049f64 f i libucrt:environment_initialization.obj
 0001:000490f0       ??$set_variable_in_environment_nolock@PEADH@?$__crt_char_traits@D@@SAH$$QEAPEAD$$QEAH@Z 000000018004a0f0 f i libucrt:environment_initialization.obj
 0001:000490fc       ??$set_variable_in_environment_nolock@PEA_WH@?$__crt_char_traits@_W@@SAH$$QEAPEA_W$$QEAH@Z 000000018004a0fc f i libucrt:environment_initialization.obj
 0001:00049108       ??$tcscpy_s@PEADAEB_KAEAPEAD@?$__crt_char_traits@D@@SAH$$QEAPEADAEB_KAEAPEAD@Z 000000018004a108 f i libucrt:environment_initialization.obj
 0001:00049118       ??$tcscpy_s@PEA_WAEB_KAEAPEA_W@?$__crt_char_traits@_W@@SAH$$QEAPEA_WAEB_KAEAPEA_W@Z 000000018004a118 f i libucrt:environment_initialization.obj
 0001:00049128       ??$tcslen@AEAPEAD@?$__crt_char_traits@D@@SA_KAEAPEAD@Z 000000018004a128 f i libucrt:environment_initialization.obj
 0001:0004913c       ??$tcslen@AEAPEA_W@?$__crt_char_traits@_W@@SA_KAEAPEA_W@Z 000000018004a13c f i libucrt:environment_initialization.obj
 0001:00049150       ??$uninitialize@A6AXAEAPEAPEAD@Z@?$dual_state_global@PEAPEAD@__crt_state_management@@QEAAXA6AXAEAPEAPEAD@Z@Z 000000018004a150 f i libucrt:environment_initialization.obj
 0001:00049198       ??$uninitialize@A6AXAEAPEAPEA_W@Z@?$dual_state_global@PEAPEA_W@__crt_state_management@@QEAAXA6AXAEAPEAPEA_W@Z@Z 000000018004a198 f i libucrt:environment_initialization.obj
 0001:00049218       ??0?$__crt_unique_heap_ptr@PEADU__crt_internal_free_policy@@@@QEAA@QEAPEAD@Z 000000018004a218 f i libucrt:environment_initialization.obj
 0001:00049220       ??0?$__crt_unique_heap_ptr@PEA_WU__crt_internal_free_policy@@@@QEAA@QEAPEA_W@Z 000000018004a220 f i libucrt:environment_initialization.obj
 0001:00049228       ??0?$__crt_unique_heap_ptr@_WU__crt_internal_free_policy@@@@QEAA@QEA_W@Z 000000018004a228 f i libucrt:environment_initialization.obj
 0001:00049230       ??1?$__crt_unique_heap_ptr@PEADU__crt_internal_free_policy@@@@QEAA@XZ 000000018004a230 f i libucrt:environment_initialization.obj
 0001:0004924c       ??1?$__crt_unique_heap_ptr@PEA_WU__crt_internal_free_policy@@@@QEAA@XZ 000000018004a24c f i libucrt:environment_initialization.obj
 0001:00049268       ??1?$__crt_unique_heap_ptr@_WU__crt_internal_free_policy@@@@QEAA@XZ 000000018004a268 f i libucrt:environment_initialization.obj
 0001:00049284       ??B?$__crt_unique_heap_ptr@PEADU__crt_internal_free_policy@@@@QEBA_NXZ 000000018004a284 f i libucrt:environment_initialization.obj
 0001:00049290       ??B?$__crt_unique_heap_ptr@PEA_WU__crt_internal_free_policy@@@@QEBA_NXZ 000000018004a290 f i libucrt:environment_initialization.obj
 0001:0004929c       ??B?$__crt_unique_heap_ptr@_WU__crt_internal_free_policy@@@@QEBA_NXZ 000000018004a29c f i libucrt:environment_initialization.obj
 0001:000492a8       ?__crt_compute_required_transform_buffer_count@@YA_KIQEBD@Z 000000018004a2a8 f i libucrt:environment_initialization.obj
 0001:000492d0       ?__crt_compute_required_transform_buffer_count@@YA_KIQEB_W@Z 000000018004a2d0 f i libucrt:environment_initialization.obj
 0001:00049300       ?__crt_transform_string@@YA_KIQEBDQEA_W_K@Z 000000018004a300 f i libucrt:environment_initialization.obj
 0001:00049324       ?__crt_transform_string@@YA_KIQEB_WQEAD_K@Z 000000018004a324 f i libucrt:environment_initialization.obj
 0001:00049354       ?detach@?$__crt_unique_heap_ptr@DU__crt_internal_free_policy@@@@QEAAPEADXZ 000000018004a354 f i libucrt:environment_initialization.obj
 0001:0004935c       ?detach@?$__crt_unique_heap_ptr@PEADU__crt_internal_free_policy@@@@QEAAPEAPEADXZ 000000018004a35c f i libucrt:environment_initialization.obj
 0001:00049364       ?detach@?$__crt_unique_heap_ptr@PEA_WU__crt_internal_free_policy@@@@QEAAPEAPEA_WXZ 000000018004a364 f i libucrt:environment_initialization.obj
 0001:0004936c       ?detach@?$__crt_unique_heap_ptr@_WU__crt_internal_free_policy@@@@QEAAPEA_WXZ 000000018004a36c f i libucrt:environment_initialization.obj
 0001:00049374       ?get@?$__crt_unique_heap_ptr@PEADU__crt_internal_free_policy@@@@QEBAPEAPEADXZ 000000018004a374 f i libucrt:environment_initialization.obj
 0001:00049378       ?get@?$__crt_unique_heap_ptr@PEA_WU__crt_internal_free_policy@@@@QEBAPEAPEA_WXZ 000000018004a378 f i libucrt:environment_initialization.obj
 0001:0004937c       ?get@?$__crt_unique_heap_ptr@_WU__crt_internal_free_policy@@@@QEBAPEA_WXZ 000000018004a37c f i libucrt:environment_initialization.obj
 0001:00049380       ?get_current_state_index@__crt_state_management@@YA_KXZ 000000018004a380 f i libucrt:environment_initialization.obj
 0001:000493b4       ?initialize@?$dual_state_global@PEAPEAD@__crt_state_management@@QEAAXQEAPEAD@Z 000000018004a3b4 f i libucrt:environment_initialization.obj
 0001:000493e8       ?initialize@?$dual_state_global@PEAPEA_W@__crt_state_management@@QEAAXQEAPEA_W@Z 000000018004a3e8 f i libucrt:environment_initialization.obj
 0001:0004941c       ?is_valid@?$__crt_unique_heap_ptr@PEADU__crt_internal_free_policy@@@@QEBA_NXZ 000000018004a41c f i libucrt:environment_initialization.obj
 0001:00049428       ?is_valid@?$__crt_unique_heap_ptr@PEA_WU__crt_internal_free_policy@@@@QEBA_NXZ 000000018004a428 f i libucrt:environment_initialization.obj
 0001:00049434       ?is_valid@?$__crt_unique_heap_ptr@_WU__crt_internal_free_policy@@@@QEBA_NXZ 000000018004a434 f i libucrt:environment_initialization.obj
 0001:0004944c       ?release@?$__crt_unique_heap_ptr@PEADU__crt_internal_free_policy@@@@QEAAXXZ 000000018004a44c f i libucrt:environment_initialization.obj
 0001:00049468       ?release@?$__crt_unique_heap_ptr@PEA_WU__crt_internal_free_policy@@@@QEAAXXZ 000000018004a468 f i libucrt:environment_initialization.obj
 0001:00049484       ?release@?$__crt_unique_heap_ptr@_WU__crt_internal_free_policy@@@@QEAAXXZ 000000018004a484 f i libucrt:environment_initialization.obj
 0001:000494a0       ?value@?$dual_state_global@PEAPEAD@__crt_state_management@@QEAAAEAPEAPEADXZ 000000018004a4a0 f i libucrt:environment_initialization.obj
 0001:000494a4       ?value@?$dual_state_global@PEAPEA_W@__crt_state_management@@QEAAAEAPEAPEA_WXZ 000000018004a4a4 f i libucrt:environment_initialization.obj
 0001:000494a8       __dcrt_get_or_create_narrow_environment_nolock 000000018004a4a8 f   libucrt:environment_initialization.obj
 0001:000494b0       __dcrt_get_or_create_wide_environment_nolock 000000018004a4b0 f   libucrt:environment_initialization.obj
 0001:000494b8       __dcrt_uninitialize_environments_nolock 000000018004a4b8 f   libucrt:environment_initialization.obj
 0001:000494f0       __p__environ               000000018004a4f0 f   libucrt:environment_initialization.obj
 0001:000494f8       __p__wenviron              000000018004a4f8 f   libucrt:environment_initialization.obj
 0001:00049500       _get_initial_narrow_environment 000000018004a500 f   libucrt:environment_initialization.obj
 0001:00049524       _get_initial_wide_environment 000000018004a524 f   libucrt:environment_initialization.obj
 0001:00049548       _initialize_narrow_environment 000000018004a548 f   libucrt:environment_initialization.obj
 0001:00049550       _initialize_wide_environment 000000018004a550 f   libucrt:environment_initialization.obj
 0001:00049558       _invoke_watson_if_error    000000018004a558 f i libucrt:environment_initialization.obj
 0001:0004958c       ??$?BP6AXXZ@__crt_fast_encoded_nullptr_t@@QEBAPEAP6AXXZXZ 000000018004a58c f i libucrt:onexit.obj
 0001:000495a8       ??$?RP6AXXZ@__crt_internal_free_policy@@QEBAXQEBQ6AXXZ@Z 000000018004a5a8 f i libucrt:onexit.obj
 0001:000495b0       ??$?RV<lambda_b8c45f8f788dd370798f47cfe8ac3a86>@@AEAV<lambda_4e60a939b0d047cfe11ddc22648dfba9>@@V<lambda_332c3edc96d0294ec56c57d38c1cdfd5>@@@?$__crt_seh_guarded_call@H@@QEAAH$$QEAV<lambda_b8c45f8f788dd370798f47cfe8ac3a86>@@AEAV<lambda_4e60a939b0d047cfe11ddc22648dfba9>@@$$QEAV<lambda_332c3edc96d0294ec56c57d38c1cdfd5>@@@Z 000000018004a5b0 f i libucrt:onexit.obj
 0001:000495ec       ??$?RV<lambda_e24bbb7b643b32fcea6fa61b31d4c984>@@AEAV<lambda_275893d493268fdec8709772e3fcec0e>@@V<lambda_9d71df4d7cf3f480f8d633942495c3b0>@@@?$__crt_seh_guarded_call@H@@QEAAH$$QEAV<lambda_e24bbb7b643b32fcea6fa61b31d4c984>@@AEAV<lambda_275893d493268fdec8709772e3fcec0e>@@$$QEAV<lambda_9d71df4d7cf3f480f8d633942495c3b0>@@@Z 000000018004a5ec f i libucrt:onexit.obj
 0001:0004978c       ??$__acrt_lock_and_call@V<lambda_275893d493268fdec8709772e3fcec0e>@@@@YAHW4__acrt_lock_id@@$$QEAV<lambda_275893d493268fdec8709772e3fcec0e>@@@Z 000000018004a78c f i libucrt:onexit.obj
 0001:000497b4       ??$__acrt_lock_and_call@V<lambda_4e60a939b0d047cfe11ddc22648dfba9>@@@@YAHW4__acrt_lock_id@@$$QEAV<lambda_4e60a939b0d047cfe11ddc22648dfba9>@@@Z 000000018004a7b4 f i libucrt:onexit.obj
 0001:000497dc       ??$__crt_fast_encode_pointer@P6AHXZ@@YAP6AHXZQ6AHXZ@Z 000000018004a7dc f i libucrt:onexit.obj
 0001:00049830       ??0?$__crt_unique_heap_ptr@P6AXXZU__crt_internal_free_policy@@@@QEAA@QEAP6AXXZ@Z 000000018004a830 f i libucrt:onexit.obj
 0001:00049838       ??1?$__crt_unique_heap_ptr@P6AXXZU__crt_internal_free_policy@@@@QEAA@XZ 000000018004a838 f i libucrt:onexit.obj
 0001:00049ba0       ?detach@?$__crt_unique_heap_ptr@P6AXXZU__crt_internal_free_policy@@@@QEAAPEAP6AXXZXZ 000000018004aba0 f i libucrt:onexit.obj
 0001:00049ba8       ?release@?$__crt_unique_heap_ptr@P6AXXZU__crt_internal_free_policy@@@@QEAAXXZ 000000018004aba8 f i libucrt:onexit.obj
 0001:00049bc4       _crt_at_quick_exit         000000018004abc4 f   libucrt:onexit.obj
 0001:00049bd4       _crt_atexit                000000018004abd4 f   libucrt:onexit.obj
 0001:00049be4       _execute_onexit_table      000000018004abe4 f   libucrt:onexit.obj
 0001:00049c20       _initialize_onexit_table   000000018004ac20 f   libucrt:onexit.obj
 0001:00049c60       _register_onexit_function  000000018004ac60 f   libucrt:onexit.obj
 0001:00049df0       ?initialize@?$dual_state_global@PEAU__crt_locale_data@@@__crt_state_management@@QEAAXQEAU__crt_locale_data@@@Z 000000018004adf0 f i libucrt:initialization.obj
 0001:00049e24       __acrt_initialize          000000018004ae24 f   libucrt:initialization.obj
 0001:00049e38       __acrt_thread_attach       000000018004ae38 f   libucrt:initialization.obj
 0001:00049e4c       __acrt_thread_detach       000000018004ae4c f   libucrt:initialization.obj
 0001:00049e5c       __acrt_uninitialize        000000018004ae5c f   libucrt:initialization.obj
 0001:00049e70       __acrt_uninitialize_critical 000000018004ae70 f   libucrt:initialization.obj
 0001:00049e80       _initterm                  000000018004ae80 f   libucrt:initterm.obj
 0001:00049ef8       _initterm_e                000000018004aef8 f   libucrt:initterm.obj
 0001:00049f58       _get_terminate             000000018004af58 f   libucrt:terminate.obj
 0001:00049f7c       set_terminate              000000018004af7c f   libucrt:terminate.obj
 0001:00049fa8       terminate                  000000018004afa8 f   libucrt:terminate.obj
 0001:00049fd0       _set_abort_behavior        000000018004afd0 f   libucrt:abort.obj
 0001:00049fec       abort                      000000018004afec f   libucrt:abort.obj
 0001:0004a044       ??$__crt_interlocked_exchange_pointer@X$$T@@YAPEAXPEDSEAX$$T@Z 000000018004b044 f i libucrt:free_base.obj
 0001:0004a04c       ?__crt_interlocked_read_64@@YA_JPED_J@Z 000000018004b04c f i libucrt:free_base.obj
 0001:0004a058       __acrt_get_msvcrt_heap_handle 000000018004b058 f   libucrt:free_base.obj
 0001:0004a0c4       _free_base                 000000018004b0c4 f   libucrt:free_base.obj
 0001:0004a104       _malloc_base               000000018004b104 f   libucrt:malloc_base.obj
 0001:0004a1c8       strcpy_s                   000000018004b1c8 f   libucrt:strcpy_s.obj
 0001:0004a228       _calloc_base               000000018004b228 f   libucrt:calloc_base.obj
 0001:0004a2a0       ??$?0AEBV?$stream_output_adapter@D@__crt_stdio_output@@AEB_KAEBQEBDAEBQEAU__crt_locale_pointers@@AEBQEAD@?$format_validation_base@DV?$stream_output_adapter@D@__crt_stdio_output@@@__crt_stdio_output@@IEAA@AEBV?$stream_output_adapter@D@1@AEB_KAEBQEBDAEBQEAU__crt_locale_pointers@@AEBQEAD@Z 000000018004b2a0 f i libucrt:output.obj
 0001:0004a324       ??$?0AEBV?$stream_output_adapter@D@__crt_stdio_output@@AEB_KAEBQEBDAEBQEAU__crt_locale_pointers@@AEBQEAD@?$positional_parameter_base@DV?$stream_output_adapter@D@__crt_stdio_output@@@__crt_stdio_output@@IEAA@AEBV?$stream_output_adapter@D@1@AEB_KAEBQEBDAEBQEAU__crt_locale_pointers@@AEBQEAD@Z 000000018004b324 f i libucrt:output.obj
 0001:0004a3c4       ??$?0AEBV?$stream_output_adapter@D@__crt_stdio_output@@AEB_KAEBQEBDAEBQEAU__crt_locale_pointers@@AEBQEAD@?$standard_base@DV?$stream_output_adapter@D@__crt_stdio_output@@@__crt_stdio_output@@IEAA@AEBV?$stream_output_adapter@D@1@AEB_KAEBQEBDAEBQEAU__crt_locale_pointers@@AEBQEAD@Z 000000018004b3c4 f i libucrt:output.obj
 0001:0004a448       ??$?0AEBV?$stream_output_adapter@_W@__crt_stdio_output@@AEB_KAEBQEB_WAEBQEAU__crt_locale_pointers@@AEBQEAD@?$format_validation_base@_WV?$stream_output_adapter@_W@__crt_stdio_output@@@__crt_stdio_output@@IEAA@AEBV?$stream_output_adapter@_W@1@AEB_KAEBQEB_WAEBQEAU__crt_locale_pointers@@AEBQEAD@Z 000000018004b448 f i libucrt:output.obj
 0001:0004a4d0       ??$?0AEBV?$stream_output_adapter@_W@__crt_stdio_output@@AEB_KAEBQEB_WAEBQEAU__crt_locale_pointers@@AEBQEAD@?$positional_parameter_base@_WV?$stream_output_adapter@_W@__crt_stdio_output@@@__crt_stdio_output@@IEAA@AEBV?$stream_output_adapter@_W@1@AEB_KAEBQEB_WAEBQEAU__crt_locale_pointers@@AEBQEAD@Z 000000018004b4d0 f i libucrt:output.obj
 0001:0004a574       ??$?0AEBV?$stream_output_adapter@_W@__crt_stdio_output@@AEB_KAEBQEB_WAEBQEAU__crt_locale_pointers@@AEBQEAD@?$standard_base@_WV?$stream_output_adapter@_W@__crt_stdio_output@@@__crt_stdio_output@@IEAA@AEBV?$stream_output_adapter@_W@1@AEB_KAEBQEB_WAEBQEAU__crt_locale_pointers@@AEBQEAD@Z 000000018004b574 f i libucrt:output.obj
 0001:0004a5fc       ??$?0AEBV?$string_output_adapter@D@__crt_stdio_output@@AEB_KAEBQEBDAEBQEAU__crt_locale_pointers@@AEBQEAD@?$format_validation_base@DV?$string_output_adapter@D@__crt_stdio_output@@@__crt_stdio_output@@IEAA@AEBV?$string_output_adapter@D@1@AEB_KAEBQEBDAEBQEAU__crt_locale_pointers@@AEBQEAD@Z 000000018004b5fc f i libucrt:output.obj
 0001:0004a680       ??$?0AEBV?$string_output_adapter@D@__crt_stdio_output@@AEB_KAEBQEBDAEBQEAU__crt_locale_pointers@@AEBQEAD@?$positional_parameter_base@DV?$string_output_adapter@D@__crt_stdio_output@@@__crt_stdio_output@@IEAA@AEBV?$string_output_adapter@D@1@AEB_KAEBQEBDAEBQEAU__crt_locale_pointers@@AEBQEAD@Z 000000018004b680 f i libucrt:output.obj
 0001:0004a720       ??$?0AEBV?$string_output_adapter@D@__crt_stdio_output@@AEB_KAEBQEBDAEBQEAU__crt_locale_pointers@@AEBQEAD@?$standard_base@DV?$string_output_adapter@D@__crt_stdio_output@@@__crt_stdio_output@@IEAA@AEBV?$string_output_adapter@D@1@AEB_KAEBQEBDAEBQEAU__crt_locale_pointers@@AEBQEAD@Z 000000018004b720 f i libucrt:output.obj
 0001:0004a7a4       ??$?0AEBV?$string_output_adapter@_W@__crt_stdio_output@@AEB_KAEBQEB_WAEBQEAU__crt_locale_pointers@@AEBQEAD@?$format_validation_base@_WV?$string_output_adapter@_W@__crt_stdio_output@@@__crt_stdio_output@@IEAA@AEBV?$string_output_adapter@_W@1@AEB_KAEBQEB_WAEBQEAU__crt_locale_pointers@@AEBQEAD@Z 000000018004b7a4 f i libucrt:output.obj
 0001:0004a82c       ??$?0AEBV?$string_output_adapter@_W@__crt_stdio_output@@AEB_KAEBQEB_WAEBQEAU__crt_locale_pointers@@AEBQEAD@?$positional_parameter_base@_WV?$string_output_adapter@_W@__crt_stdio_output@@@__crt_stdio_output@@IEAA@AEBV?$string_output_adapter@_W@1@AEB_KAEBQEB_WAEBQEAU__crt_locale_pointers@@AEBQEAD@Z 000000018004b82c f i libucrt:output.obj
 0001:0004a8d0       ??$?0AEBV?$string_output_adapter@_W@__crt_stdio_output@@AEB_KAEBQEB_WAEBQEAU__crt_locale_pointers@@AEBQEAD@?$standard_base@_WV?$string_output_adapter@_W@__crt_stdio_output@@@__crt_stdio_output@@IEAA@AEBV?$string_output_adapter@_W@1@AEB_KAEBQEB_WAEBQEAU__crt_locale_pointers@@AEBQEAD@Z 000000018004b8d0 f i libucrt:output.obj
 0001:0004a958       ??$?RV<lambda_2647abb55a408a205467c4169a724277>@@AEAV<lambda_576477a770bb5ab586b2d9569451c7f7>@@V<lambda_c2b006f504a10a4cf14b9a1fbce2a01e>@@@?$__crt_seh_guarded_call@H@@QEAAH$$QEAV<lambda_2647abb55a408a205467c4169a724277>@@AEAV<lambda_576477a770bb5ab586b2d9569451c7f7>@@$$QEAV<lambda_c2b006f504a10a4cf14b9a1fbce2a01e>@@@Z 000000018004b958 f i libucrt:output.obj
 0001:0004a998       ??$?RV<lambda_2b8ba55cb2a29189d70f882b678c7350>@@AEAV<lambda_ab9668973a2a61b07c64846465621f55>@@V<lambda_748afda9c1ab82b4e15f74dcdf75db74>@@@?$__crt_seh_guarded_call@H@@QEAAH$$QEAV<lambda_2b8ba55cb2a29189d70f882b678c7350>@@AEAV<lambda_ab9668973a2a61b07c64846465621f55>@@$$QEAV<lambda_748afda9c1ab82b4e15f74dcdf75db74>@@@Z 000000018004b998 f i libucrt:output.obj
 0001:0004a9d8       ??$?RV<lambda_4942f9dcb8a83a0b649775421cdab7f2>@@AEAV<lambda_9fdeb54d99e6c7e515b8c19e0613d470>@@V<lambda_f61bc4569557b8ad96931f67d51af400>@@@?$__crt_seh_guarded_call@H@@QEAAH$$QEAV<lambda_4942f9dcb8a83a0b649775421cdab7f2>@@AEAV<lambda_9fdeb54d99e6c7e515b8c19e0613d470>@@$$QEAV<lambda_f61bc4569557b8ad96931f67d51af400>@@@Z 000000018004b9d8 f i libucrt:output.obj
 0001:0004aa18       ??$?RV<lambda_7b91131dde12e1c3dfc74ff76b3f2eac>@@AEAV<lambda_dd75445284c072d0bd3768540cc698fa>@@V<lambda_16bc4ecb55b4718497c16bceaea2ceaf>@@@?$__crt_seh_guarded_call@H@@QEAAH$$QEAV<lambda_7b91131dde12e1c3dfc74ff76b3f2eac>@@AEAV<lambda_dd75445284c072d0bd3768540cc698fa>@@$$QEAV<lambda_16bc4ecb55b4718497c16bceaea2ceaf>@@@Z 000000018004ba18 f i libucrt:output.obj
 0001:0004aa58       ??$?RV<lambda_aa279a7bcb127014629d5b1d62c7325d>@@AEAV<lambda_0a64b6a4deda75c01876f29c44fc5eb3>@@V<lambda_3323e69fbefe9d1a11713e670d47cdfa>@@@?$__crt_seh_guarded_call@H@@QEAAH$$QEAV<lambda_aa279a7bcb127014629d5b1d62c7325d>@@AEAV<lambda_0a64b6a4deda75c01876f29c44fc5eb3>@@$$QEAV<lambda_3323e69fbefe9d1a11713e670d47cdfa>@@@Z 000000018004ba58 f i libucrt:output.obj
 0001:0004aa98       ??$?RV<lambda_c232a0c49490a30f399a8430f51b50ba>@@AEAV<lambda_7b6c652cce95ef5b7c2ff34f92bf0578>@@V<lambda_c415c6f6d9d103d7e93818ef66b8cc8a>@@@?$__crt_seh_guarded_call@H@@QEAAH$$QEAV<lambda_c232a0c49490a30f399a8430f51b50ba>@@AEAV<lambda_7b6c652cce95ef5b7c2ff34f92bf0578>@@$$QEAV<lambda_c415c6f6d9d103d7e93818ef66b8cc8a>@@@Z 000000018004ba98 f i libucrt:output.obj
 0001:0004aad8       ??$__acrt_lock_stream_and_call@V<lambda_0a64b6a4deda75c01876f29c44fc5eb3>@@@@YAHQEAU_iobuf@@$$QEAV<lambda_0a64b6a4deda75c01876f29c44fc5eb3>@@@Z 000000018004bad8 f i libucrt:output.obj
 0001:0004ab00       ??$__acrt_lock_stream_and_call@V<lambda_576477a770bb5ab586b2d9569451c7f7>@@@@YAHQEAU_iobuf@@$$QEAV<lambda_576477a770bb5ab586b2d9569451c7f7>@@@Z 000000018004bb00 f i libucrt:output.obj
 0001:0004ab28       ??$__acrt_lock_stream_and_call@V<lambda_7b6c652cce95ef5b7c2ff34f92bf0578>@@@@YAHQEAU_iobuf@@$$QEAV<lambda_7b6c652cce95ef5b7c2ff34f92bf0578>@@@Z 000000018004bb28 f i libucrt:output.obj
 0001:0004ab50       ??$__acrt_lock_stream_and_call@V<lambda_9fdeb54d99e6c7e515b8c19e0613d470>@@@@YAHQEAU_iobuf@@$$QEAV<lambda_9fdeb54d99e6c7e515b8c19e0613d470>@@@Z 000000018004bb50 f i libucrt:output.obj
 0001:0004ab78       ??$__acrt_lock_stream_and_call@V<lambda_ab9668973a2a61b07c64846465621f55>@@@@YAHQEAU_iobuf@@$$QEAV<lambda_ab9668973a2a61b07c64846465621f55>@@@Z 000000018004bb78 f i libucrt:output.obj
 0001:0004aba0       ??$__acrt_lock_stream_and_call@V<lambda_dd75445284c072d0bd3768540cc698fa>@@@@YAHQEAU_iobuf@@$$QEAV<lambda_dd75445284c072d0bd3768540cc698fa>@@@Z 000000018004bba0 f i libucrt:output.obj
 0001:0004bc7c       ??$count@D@formatting_buffer@__crt_stdio_output@@QEBA_KXZ 000000018004cc7c f i libucrt:output.obj
 0001:0004bc98       ??$data@D@formatting_buffer@__crt_stdio_output@@QEAAPEADXZ 000000018004cc98 f i libucrt:output.obj
 0001:0004bca8       ??$data@_W@formatting_buffer@__crt_stdio_output@@QEAAPEA_WXZ 000000018004cca8 f i libucrt:output.obj
 0001:0004bcb8       ??$ensure_buffer_is_big_enough@D@formatting_buffer@__crt_stdio_output@@QEAA_N_K@Z 000000018004ccb8 f i libucrt:output.obj
 0001:0004bd64       ??$extract_argument_from_va_list@C_J@?$positional_parameter_base@DV?$stream_output_adapter@D@__crt_stdio_output@@@__crt_stdio_output@@IEAA_NAEA_J@Z 000000018004cd64 f i libucrt:output.obj
 0001:0004be28       ??$extract_argument_from_va_list@C_J@?$positional_parameter_base@DV?$string_output_adapter@D@__crt_stdio_output@@@__crt_stdio_output@@IEAA_NAEA_J@Z 000000018004ce28 f i libucrt:output.obj
 0001:0004beec       ??$extract_argument_from_va_list@C_J@?$positional_parameter_base@_WV?$stream_output_adapter@_W@__crt_stdio_output@@@__crt_stdio_output@@IEAA_NAEA_J@Z 000000018004ceec f i libucrt:output.obj
 0001:0004bfb4       ??$extract_argument_from_va_list@C_J@?$positional_parameter_base@_WV?$string_output_adapter@_W@__crt_stdio_output@@@__crt_stdio_output@@IEAA_NAEA_J@Z 000000018004cfb4 f i libucrt:output.obj
 0001:0004c07c       ??$extract_argument_from_va_list@C_J@?$standard_base@DV?$stream_output_adapter@D@__crt_stdio_output@@@__crt_stdio_output@@IEAA_NAEA_J@Z 000000018004d07c f i libucrt:output.obj
 0001:0004c090       ??$extract_argument_from_va_list@C_J@?$standard_base@DV?$string_output_adapter@D@__crt_stdio_output@@@__crt_stdio_output@@IEAA_NAEA_J@Z 000000018004d090 f i libucrt:output.obj
 0001:0004c0a4       ??$extract_argument_from_va_list@C_J@?$standard_base@_WV?$stream_output_adapter@_W@__crt_stdio_output@@@__crt_stdio_output@@IEAA_NAEA_J@Z 000000018004d0a4 f i libucrt:output.obj
 0001:0004c0b8       ??$extract_argument_from_va_list@C_J@?$standard_base@_WV?$string_output_adapter@_W@__crt_stdio_output@@@__crt_stdio_output@@IEAA_NAEA_J@Z 000000018004d0b8 f i libucrt:output.obj
 0001:0004c0cc       ??$extract_argument_from_va_list@E_J@?$positional_parameter_base@DV?$stream_output_adapter@D@__crt_stdio_output@@@__crt_stdio_output@@IEAA_NAEA_J@Z 000000018004d0cc f i libucrt:output.obj
 0001:0004c190       ??$extract_argument_from_va_list@E_J@?$positional_parameter_base@DV?$string_output_adapter@D@__crt_stdio_output@@@__crt_stdio_output@@IEAA_NAEA_J@Z 000000018004d190 f i libucrt:output.obj
 0001:0004c254       ??$extract_argument_from_va_list@E_J@?$positional_parameter_base@_WV?$stream_output_adapter@_W@__crt_stdio_output@@@__crt_stdio_output@@IEAA_NAEA_J@Z 000000018004d254 f i libucrt:output.obj
 0001:0004c318       ??$extract_argument_from_va_list@E_J@?$positional_parameter_base@_WV?$string_output_adapter@_W@__crt_stdio_output@@@__crt_stdio_output@@IEAA_NAEA_J@Z 000000018004d318 f i libucrt:output.obj
 0001:0004c3dc       ??$extract_argument_from_va_list@E_J@?$standard_base@DV?$stream_output_adapter@D@__crt_stdio_output@@@__crt_stdio_output@@IEAA_NAEA_J@Z 000000018004d3dc f i libucrt:output.obj
 0001:0004c3f0       ??$extract_argument_from_va_list@E_J@?$standard_base@DV?$string_output_adapter@D@__crt_stdio_output@@@__crt_stdio_output@@IEAA_NAEA_J@Z 000000018004d3f0 f i libucrt:output.obj
 0001:0004c404       ??$extract_argument_from_va_list@E_J@?$standard_base@_WV?$stream_output_adapter@_W@__crt_stdio_output@@@__crt_stdio_output@@IEAA_NAEA_J@Z 000000018004d404 f i libucrt:output.obj
 0001:0004c418       ??$extract_argument_from_va_list@E_J@?$standard_base@_WV?$string_output_adapter@_W@__crt_stdio_output@@@__crt_stdio_output@@IEAA_NAEA_J@Z 000000018004d418 f i libucrt:output.obj
 0001:0004c42c       ??$extract_argument_from_va_list@F_J@?$positional_parameter_base@DV?$stream_output_adapter@D@__crt_stdio_output@@@__crt_stdio_output@@IEAA_NAEA_J@Z 000000018004d42c f i libucrt:output.obj
 0001:0004c4f0       ??$extract_argument_from_va_list@F_J@?$positional_parameter_base@DV?$string_output_adapter@D@__crt_stdio_output@@@__crt_stdio_output@@IEAA_NAEA_J@Z 000000018004d4f0 f i libucrt:output.obj
 0001:0004c5b4       ??$extract_argument_from_va_list@F_J@?$positional_parameter_base@_WV?$stream_output_adapter@_W@__crt_stdio_output@@@__crt_stdio_output@@IEAA_NAEA_J@Z 000000018004d5b4 f i libucrt:output.obj
 0001:0004c67c       ??$extract_argument_from_va_list@F_J@?$positional_parameter_base@_WV?$string_output_adapter@_W@__crt_stdio_output@@@__crt_stdio_output@@IEAA_NAEA_J@Z 000000018004d67c f i libucrt:output.obj
 0001:0004c744       ??$extract_argument_from_va_list@F_J@?$standard_base@DV?$stream_output_adapter@D@__crt_stdio_output@@@__crt_stdio_output@@IEAA_NAEA_J@Z 000000018004d744 f i libucrt:output.obj
 0001:0004c758       ??$extract_argument_from_va_list@F_J@?$standard_base@DV?$string_output_adapter@D@__crt_stdio_output@@@__crt_stdio_output@@IEAA_NAEA_J@Z 000000018004d758 f i libucrt:output.obj
 0001:0004c76c       ??$extract_argument_from_va_list@F_J@?$standard_base@_WV?$stream_output_adapter@_W@__crt_stdio_output@@@__crt_stdio_output@@IEAA_NAEA_J@Z 000000018004d76c f i libucrt:output.obj
 0001:0004c780       ??$extract_argument_from_va_list@F_J@?$standard_base@_WV?$string_output_adapter@_W@__crt_stdio_output@@@__crt_stdio_output@@IEAA_NAEA_J@Z 000000018004d780 f i libucrt:output.obj
 0001:0004c794       ??$extract_argument_from_va_list@GD@?$positional_parameter_base@DV?$stream_output_adapter@D@__crt_stdio_output@@@__crt_stdio_output@@IEAA_NAEAD@Z 000000018004d794 f i libucrt:output.obj
 0001:0004c854       ??$extract_argument_from_va_list@GD@?$positional_parameter_base@DV?$string_output_adapter@D@__crt_stdio_output@@@__crt_stdio_output@@IEAA_NAEAD@Z 000000018004d854 f i libucrt:output.obj
 0001:0004c914       ??$extract_argument_from_va_list@GD@?$standard_base@DV?$stream_output_adapter@D@__crt_stdio_output@@@__crt_stdio_output@@IEAA_NAEAD@Z 000000018004d914 f i libucrt:output.obj
 0001:0004c928       ??$extract_argument_from_va_list@GD@?$standard_base@DV?$string_output_adapter@D@__crt_stdio_output@@@__crt_stdio_output@@IEAA_NAEAD@Z 000000018004d928 f i libucrt:output.obj
 0001:0004c93c       ??$extract_argument_from_va_list@G_J@?$positional_parameter_base@DV?$stream_output_adapter@D@__crt_stdio_output@@@__crt_stdio_output@@IEAA_NAEA_J@Z 000000018004d93c f i libucrt:output.obj
 0001:0004ca00       ??$extract_argument_from_va_list@G_J@?$positional_parameter_base@DV?$string_output_adapter@D@__crt_stdio_output@@@__crt_stdio_output@@IEAA_NAEA_J@Z 000000018004da00 f i libucrt:output.obj
 0001:0004cac4       ??$extract_argument_from_va_list@G_J@?$positional_parameter_base@_WV?$stream_output_adapter@_W@__crt_stdio_output@@@__crt_stdio_output@@IEAA_NAEA_J@Z 000000018004dac4 f i libucrt:output.obj
 0001:0004cb88       ??$extract_argument_from_va_list@G_J@?$positional_parameter_base@_WV?$string_output_adapter@_W@__crt_stdio_output@@@__crt_stdio_output@@IEAA_NAEA_J@Z 000000018004db88 f i libucrt:output.obj
 0001:0004cc4c       ??$extract_argument_from_va_list@G_J@?$standard_base@DV?$stream_output_adapter@D@__crt_stdio_output@@@__crt_stdio_output@@IEAA_NAEA_J@Z 000000018004dc4c f i libucrt:output.obj
 0001:0004cc60       ??$extract_argument_from_va_list@G_J@?$standard_base@DV?$string_output_adapter@D@__crt_stdio_output@@@__crt_stdio_output@@IEAA_NAEA_J@Z 000000018004dc60 f i libucrt:output.obj
 0001:0004cc74       ??$extract_argument_from_va_list@G_J@?$standard_base@_WV?$stream_output_adapter@_W@__crt_stdio_output@@@__crt_stdio_output@@IEAA_NAEA_J@Z 000000018004dc74 f i libucrt:output.obj
 0001:0004cc88       ??$extract_argument_from_va_list@G_J@?$standard_base@_WV?$string_output_adapter@_W@__crt_stdio_output@@@__crt_stdio_output@@IEAA_NAEA_J@Z 000000018004dc88 f i libucrt:output.obj
 0001:0004cc9c       ??$extract_argument_from_va_list@H_J@?$positional_parameter_base@DV?$stream_output_adapter@D@__crt_stdio_output@@@__crt_stdio_output@@IEAA_NAEA_J@Z 000000018004dc9c f i libucrt:output.obj
 0001:0004cd60       ??$extract_argument_from_va_list@H_J@?$positional_parameter_base@DV?$string_output_adapter@D@__crt_stdio_output@@@__crt_stdio_output@@IEAA_NAEA_J@Z 000000018004dd60 f i libucrt:output.obj
 0001:0004ce24       ??$extract_argument_from_va_list@H_J@?$positional_parameter_base@_WV?$stream_output_adapter@_W@__crt_stdio_output@@@__crt_stdio_output@@IEAA_NAEA_J@Z 000000018004de24 f i libucrt:output.obj
 0001:0004cee8       ??$extract_argument_from_va_list@H_J@?$positional_parameter_base@_WV?$string_output_adapter@_W@__crt_stdio_output@@@__crt_stdio_output@@IEAA_NAEA_J@Z 000000018004dee8 f i libucrt:output.obj
 0001:0004cfac       ??$extract_argument_from_va_list@H_J@?$standard_base@DV?$stream_output_adapter@D@__crt_stdio_output@@@__crt_stdio_output@@IEAA_NAEA_J@Z 000000018004dfac f i libucrt:output.obj
 0001:0004cfc0       ??$extract_argument_from_va_list@H_J@?$standard_base@DV?$string_output_adapter@D@__crt_stdio_output@@@__crt_stdio_output@@IEAA_NAEA_J@Z 000000018004dfc0 f i libucrt:output.obj
 0001:0004cfd4       ??$extract_argument_from_va_list@H_J@?$standard_base@_WV?$stream_output_adapter@_W@__crt_stdio_output@@@__crt_stdio_output@@IEAA_NAEA_J@Z 000000018004dfd4 f i libucrt:output.obj
 0001:0004cfe8       ??$extract_argument_from_va_list@H_J@?$standard_base@_WV?$string_output_adapter@_W@__crt_stdio_output@@@__crt_stdio_output@@IEAA_NAEA_J@Z 000000018004dfe8 f i libucrt:output.obj
 0001:0004cffc       ??$extract_argument_from_va_list@I_J@?$positional_parameter_base@DV?$stream_output_adapter@D@__crt_stdio_output@@@__crt_stdio_output@@IEAA_NAEA_J@Z 000000018004dffc f i libucrt:output.obj
 0001:0004d0bc       ??$extract_argument_from_va_list@I_J@?$positional_parameter_base@DV?$string_output_adapter@D@__crt_stdio_output@@@__crt_stdio_output@@IEAA_NAEA_J@Z 000000018004e0bc f i libucrt:output.obj
 0001:0004d17c       ??$extract_argument_from_va_list@I_J@?$positional_parameter_base@_WV?$stream_output_adapter@_W@__crt_stdio_output@@@__crt_stdio_output@@IEAA_NAEA_J@Z 000000018004e17c f i libucrt:output.obj
 0001:0004d240       ??$extract_argument_from_va_list@I_J@?$positional_parameter_base@_WV?$string_output_adapter@_W@__crt_stdio_output@@@__crt_stdio_output@@IEAA_NAEA_J@Z 000000018004e240 f i libucrt:output.obj
 0001:0004d304       ??$extract_argument_from_va_list@I_J@?$standard_base@DV?$stream_output_adapter@D@__crt_stdio_output@@@__crt_stdio_output@@IEAA_NAEA_J@Z 000000018004e304 f i libucrt:output.obj
 0001:0004d318       ??$extract_argument_from_va_list@I_J@?$standard_base@DV?$string_output_adapter@D@__crt_stdio_output@@@__crt_stdio_output@@IEAA_NAEA_J@Z 000000018004e318 f i libucrt:output.obj
 0001:0004d32c       ??$extract_argument_from_va_list@I_J@?$standard_base@_WV?$stream_output_adapter@_W@__crt_stdio_output@@@__crt_stdio_output@@IEAA_NAEA_J@Z 000000018004e32c f i libucrt:output.obj
 0001:0004d340       ??$extract_argument_from_va_list@I_J@?$standard_base@_WV?$string_output_adapter@_W@__crt_stdio_output@@@__crt_stdio_output@@IEAA_NAEA_J@Z 000000018004e340 f i libucrt:output.obj
 0001:0004d354       ??$extract_argument_from_va_list@PEADPEAD@?$positional_parameter_base@DV?$stream_output_adapter@D@__crt_stdio_output@@@__crt_stdio_output@@IEAA_NAEAPEAD@Z 000000018004e354 f i libucrt:output.obj
 0001:0004d418       ??$extract_argument_from_va_list@PEADPEAD@?$positional_parameter_base@DV?$string_output_adapter@D@__crt_stdio_output@@@__crt_stdio_output@@IEAA_NAEAPEAD@Z 000000018004e418 f i libucrt:output.obj
 0001:0004d4dc       ??$extract_argument_from_va_list@PEADPEAD@?$positional_parameter_base@_WV?$stream_output_adapter@_W@__crt_stdio_output@@@__crt_stdio_output@@IEAA_NAEAPEAD@Z 000000018004e4dc f i libucrt:output.obj
 0001:0004d5a0       ??$extract_argument_from_va_list@PEADPEAD@?$positional_parameter_base@_WV?$string_output_adapter@_W@__crt_stdio_output@@@__crt_stdio_output@@IEAA_NAEAPEAD@Z 000000018004e5a0 f i libucrt:output.obj
 0001:0004d664       ??$extract_argument_from_va_list@PEADPEAD@?$standard_base@DV?$stream_output_adapter@D@__crt_stdio_output@@@__crt_stdio_output@@IEAA_NAEAPEAD@Z 000000018004e664 f i libucrt:output.obj
 0001:0004d678       ??$extract_argument_from_va_list@PEADPEAD@?$standard_base@DV?$string_output_adapter@D@__crt_stdio_output@@@__crt_stdio_output@@IEAA_NAEAPEAD@Z 000000018004e678 f i libucrt:output.obj
 0001:0004d68c       ??$extract_argument_from_va_list@PEADPEAD@?$standard_base@_WV?$stream_output_adapter@_W@__crt_stdio_output@@@__crt_stdio_output@@IEAA_NAEAPEAD@Z 000000018004e68c f i libucrt:output.obj
 0001:0004d6a0       ??$extract_argument_from_va_list@PEADPEAD@?$standard_base@_WV?$string_output_adapter@_W@__crt_stdio_output@@@__crt_stdio_output@@IEAA_NAEAPEAD@Z 000000018004e6a0 f i libucrt:output.obj
 0001:0004d6b4       ??$extract_argument_from_va_list@PEAUansi_string@?1??type_case_Z@?$output_processor@DV?$stream_output_adapter@D@__crt_stdio_output@@V?$format_validation_base@DV?$stream_output_adapter@D@__crt_stdio_output@@@2@@__crt_stdio_output@@AEAA_NXZ@PEAU1?1??234@AEAA_NXZ@@?$standard_base@DV?$stream_output_adapter@D@__crt_stdio_output@@@__crt_stdio_output@@IEAA_NAEAPEAUansi_string@?1??type_case_Z@?$output_processor@DV?$stream_output_adapter@D@__crt_stdio_output@@V?$format_validation_base@DV?$stream_output_adapter@D@__crt_stdio_output@@@2@@1@AEAA_NXZ@@Z 000000018004e6b4 f i libucrt:output.obj
 0001:0004d6c8       ??$extract_argument_from_va_list@PEAUansi_string@?1??type_case_Z@?$output_processor@DV?$stream_output_adapter@D@__crt_stdio_output@@V?$positional_parameter_base@DV?$stream_output_adapter@D@__crt_stdio_output@@@2@@__crt_stdio_output@@AEAA_NXZ@PEAU1?1??234@AEAA_NXZ@@?$positional_parameter_base@DV?$stream_output_adapter@D@__crt_stdio_output@@@__crt_stdio_output@@IEAA_NAEAPEAUansi_string@?1??type_case_Z@?$output_processor@DV?$stream_output_adapter@D@__crt_stdio_output@@V?$positional_parameter_base@DV?$stream_output_adapter@D@__crt_stdio_output@@@2@@1@AEAA_NXZ@@Z 000000018004e6c8 f i libucrt:output.obj
 0001:0004d78c       ??$extract_argument_from_va_list@PEAUansi_string@?1??type_case_Z@?$output_processor@DV?$stream_output_adapter@D@__crt_stdio_output@@V?$positional_parameter_base@DV?$stream_output_adapter@D@__crt_stdio_output@@@2@@__crt_stdio_output@@AEAA_NXZ@PEAU1?1??234@AEAA_NXZ@@?$standard_base@DV?$stream_output_adapter@D@__crt_stdio_output@@@__crt_stdio_output@@IEAA_NAEAPEAUansi_string@?1??type_case_Z@?$output_processor@DV?$stream_output_adapter@D@__crt_stdio_output@@V?$positional_parameter_base@DV?$stream_output_adapter@D@__crt_stdio_output@@@2@@1@AEAA_NXZ@@Z 000000018004e78c f i libucrt:output.obj
 0001:0004d7a0       ??$extract_argument_from_va_list@PEAUansi_string@?1??type_case_Z@?$output_processor@DV?$stream_output_adapter@D@__crt_stdio_output@@V?$standard_base@DV?$stream_output_adapter@D@__crt_stdio_output@@@2@@__crt_stdio_output@@AEAA_NXZ@PEAU1?1??234@AEAA_NXZ@@?$standard_base@DV?$stream_output_adapter@D@__crt_stdio_output@@@__crt_stdio_output@@IEAA_NAEAPEAUansi_string@?1??type_case_Z@?$output_processor@DV?$stream_output_adapter@D@__crt_stdio_output@@V?$standard_base@DV?$stream_output_adapter@D@__crt_stdio_output@@@2@@1@AEAA_NXZ@@Z 000000018004e7a0 f i libucrt:output.obj
 0001:0004d7b4       ??$extract_argument_from_va_list@PEAUansi_string@?1??type_case_Z@?$output_processor@DV?$string_output_adapter@D@__crt_stdio_output@@V?$format_validation_base@DV?$string_output_adapter@D@__crt_stdio_output@@@2@@__crt_stdio_output@@AEAA_NXZ@PEAU1?1??234@AEAA_NXZ@@?$standard_base@DV?$string_output_adapter@D@__crt_stdio_output@@@__crt_stdio_output@@IEAA_NAEAPEAUansi_string@?1??type_case_Z@?$output_processor@DV?$string_output_adapter@D@__crt_stdio_output@@V?$format_validation_base@DV?$string_output_adapter@D@__crt_stdio_output@@@2@@1@AEAA_NXZ@@Z 000000018004e7b4 f i libucrt:output.obj
 0001:0004d7c8       ??$extract_argument_from_va_list@PEAUansi_string@?1??type_case_Z@?$output_processor@DV?$string_output_adapter@D@__crt_stdio_output@@V?$positional_parameter_base@DV?$string_output_adapter@D@__crt_stdio_output@@@2@@__crt_stdio_output@@AEAA_NXZ@PEAU1?1??234@AEAA_NXZ@@?$positional_parameter_base@DV?$string_output_adapter@D@__crt_stdio_output@@@__crt_stdio_output@@IEAA_NAEAPEAUansi_string@?1??type_case_Z@?$output_processor@DV?$string_output_adapter@D@__crt_stdio_output@@V?$positional_parameter_base@DV?$string_output_adapter@D@__crt_stdio_output@@@2@@1@AEAA_NXZ@@Z 000000018004e7c8 f i libucrt:output.obj
 0001:0004d88c       ??$extract_argument_from_va_list@PEAUansi_string@?1??type_case_Z@?$output_processor@DV?$string_output_adapter@D@__crt_stdio_output@@V?$positional_parameter_base@DV?$string_output_adapter@D@__crt_stdio_output@@@2@@__crt_stdio_output@@AEAA_NXZ@PEAU1?1??234@AEAA_NXZ@@?$standard_base@DV?$string_output_adapter@D@__crt_stdio_output@@@__crt_stdio_output@@IEAA_NAEAPEAUansi_string@?1??type_case_Z@?$output_processor@DV?$string_output_adapter@D@__crt_stdio_output@@V?$positional_parameter_base@DV?$string_output_adapter@D@__crt_stdio_output@@@2@@1@AEAA_NXZ@@Z 000000018004e88c f i libucrt:output.obj
 0001:0004d8a0       ??$extract_argument_from_va_list@PEAUansi_string@?1??type_case_Z@?$output_processor@DV?$string_output_adapter@D@__crt_stdio_output@@V?$standard_base@DV?$string_output_adapter@D@__crt_stdio_output@@@2@@__crt_stdio_output@@AEAA_NXZ@PEAU1?1??234@AEAA_NXZ@@?$standard_base@DV?$string_output_adapter@D@__crt_stdio_output@@@__crt_stdio_output@@IEAA_NAEAPEAUansi_string@?1??type_case_Z@?$output_processor@DV?$string_output_adapter@D@__crt_stdio_output@@V?$standard_base@DV?$string_output_adapter@D@__crt_stdio_output@@@2@@1@AEAA_NXZ@@Z 000000018004e8a0 f i libucrt:output.obj
 0001:0004d8b4       ??$extract_argument_from_va_list@PEAUansi_string@?1??type_case_Z@?$output_processor@_WV?$stream_output_adapter@_W@__crt_stdio_output@@V?$format_validation_base@_WV?$stream_output_adapter@_W@__crt_stdio_output@@@2@@__crt_stdio_output@@AEAA_NXZ@PEAU1?1??234@AEAA_NXZ@@?$standard_base@_WV?$stream_output_adapter@_W@__crt_stdio_output@@@__crt_stdio_output@@IEAA_NAEAPEAUansi_string@?1??type_case_Z@?$output_processor@_WV?$stream_output_adapter@_W@__crt_stdio_output@@V?$format_validation_base@_WV?$stream_output_adapter@_W@__crt_stdio_output@@@2@@1@AEAA_NXZ@@Z 000000018004e8b4 f i libucrt:output.obj
 0001:0004d8c8       ??$extract_argument_from_va_list@PEAUansi_string@?1??type_case_Z@?$output_processor@_WV?$stream_output_adapter@_W@__crt_stdio_output@@V?$positional_parameter_base@_WV?$stream_output_adapter@_W@__crt_stdio_output@@@2@@__crt_stdio_output@@AEAA_NXZ@PEAU1?1??234@AEAA_NXZ@@?$positional_parameter_base@_WV?$stream_output_adapter@_W@__crt_stdio_output@@@__crt_stdio_output@@IEAA_NAEAPEAUansi_string@?1??type_case_Z@?$output_processor@_WV?$stream_output_adapter@_W@__crt_stdio_output@@V?$positional_parameter_base@_WV?$stream_output_adapter@_W@__crt_stdio_output@@@2@@1@AEAA_NXZ@@Z 000000018004e8c8 f i libucrt:output.obj
 0001:0004d98c       ??$extract_argument_from_va_list@PEAUansi_string@?1??type_case_Z@?$output_processor@_WV?$stream_output_adapter@_W@__crt_stdio_output@@V?$positional_parameter_base@_WV?$stream_output_adapter@_W@__crt_stdio_output@@@2@@__crt_stdio_output@@AEAA_NXZ@PEAU1?1??234@AEAA_NXZ@@?$standard_base@_WV?$stream_output_adapter@_W@__crt_stdio_output@@@__crt_stdio_output@@IEAA_NAEAPEAUansi_string@?1??type_case_Z@?$output_processor@_WV?$stream_output_adapter@_W@__crt_stdio_output@@V?$positional_parameter_base@_WV?$stream_output_adapter@_W@__crt_stdio_output@@@2@@1@AEAA_NXZ@@Z 000000018004e98c f i libucrt:output.obj
 0001:0004d9a0       ??$extract_argument_from_va_list@PEAUansi_string@?1??type_case_Z@?$output_processor@_WV?$stream_output_adapter@_W@__crt_stdio_output@@V?$standard_base@_WV?$stream_output_adapter@_W@__crt_stdio_output@@@2@@__crt_stdio_output@@AEAA_NXZ@PEAU1?1??234@AEAA_NXZ@@?$standard_base@_WV?$stream_output_adapter@_W@__crt_stdio_output@@@__crt_stdio_output@@IEAA_NAEAPEAUansi_string@?1??type_case_Z@?$output_processor@_WV?$stream_output_adapter@_W@__crt_stdio_output@@V?$standard_base@_WV?$stream_output_adapter@_W@__crt_stdio_output@@@2@@1@AEAA_NXZ@@Z 000000018004e9a0 f i libucrt:output.obj
 0001:0004d9b4       ??$extract_argument_from_va_list@PEAUansi_string@?1??type_case_Z@?$output_processor@_WV?$string_output_adapter@_W@__crt_stdio_output@@V?$format_validation_base@_WV?$string_output_adapter@_W@__crt_stdio_output@@@2@@__crt_stdio_output@@AEAA_NXZ@PEAU1?1??234@AEAA_NXZ@@?$standard_base@_WV?$string_output_adapter@_W@__crt_stdio_output@@@__crt_stdio_output@@IEAA_NAEAPEAUansi_string@?1??type_case_Z@?$output_processor@_WV?$string_output_adapter@_W@__crt_stdio_output@@V?$format_validation_base@_WV?$string_output_adapter@_W@__crt_stdio_output@@@2@@1@AEAA_NXZ@@Z 000000018004e9b4 f i libucrt:output.obj
 0001:0004d9c8       ??$extract_argument_from_va_list@PEAUansi_string@?1??type_case_Z@?$output_processor@_WV?$string_output_adapter@_W@__crt_stdio_output@@V?$positional_parameter_base@_WV?$string_output_adapter@_W@__crt_stdio_output@@@2@@__crt_stdio_output@@AEAA_NXZ@PEAU1?1??234@AEAA_NXZ@@?$positional_parameter_base@_WV?$string_output_adapter@_W@__crt_stdio_output@@@__crt_stdio_output@@IEAA_NAEAPEAUansi_string@?1??type_case_Z@?$output_processor@_WV?$string_output_adapter@_W@__crt_stdio_output@@V?$positional_parameter_base@_WV?$string_output_adapter@_W@__crt_stdio_output@@@2@@1@AEAA_NXZ@@Z 000000018004e9c8 f i libucrt:output.obj
 0001:0004da8c       ??$extract_argument_from_va_list@PEAUansi_string@?1??type_case_Z@?$output_processor@_WV?$string_output_adapter@_W@__crt_stdio_output@@V?$positional_parameter_base@_WV?$string_output_adapter@_W@__crt_stdio_output@@@2@@__crt_stdio_output@@AEAA_NXZ@PEAU1?1??234@AEAA_NXZ@@?$standard_base@_WV?$string_output_adapter@_W@__crt_stdio_output@@@__crt_stdio_output@@IEAA_NAEAPEAUansi_string@?1??type_case_Z@?$output_processor@_WV?$string_output_adapter@_W@__crt_stdio_output@@V?$positional_parameter_base@_WV?$string_output_adapter@_W@__crt_stdio_output@@@2@@1@AEAA_NXZ@@Z 000000018004ea8c f i libucrt:output.obj
 0001:0004daa0       ??$extract_argument_from_va_list@PEAUansi_string@?1??type_case_Z@?$output_processor@_WV?$string_output_adapter@_W@__crt_stdio_output@@V?$standard_base@_WV?$string_output_adapter@_W@__crt_stdio_output@@@2@@__crt_stdio_output@@AEAA_NXZ@PEAU1?1??234@AEAA_NXZ@@?$standard_base@_WV?$string_output_adapter@_W@__crt_stdio_output@@@__crt_stdio_output@@IEAA_NAEAPEAUansi_string@?1??type_case_Z@?$output_processor@_WV?$string_output_adapter@_W@__crt_stdio_output@@V?$standard_base@_WV?$string_output_adapter@_W@__crt_stdio_output@@@2@@1@AEAA_NXZ@@Z 000000018004eaa0 f i libucrt:output.obj
 0001:0004dab4       ??$extract_argument_from_va_list@PEAXPEAX@?$positional_parameter_base@DV?$stream_output_adapter@D@__crt_stdio_output@@@__crt_stdio_output@@IEAA_NAEAPEAX@Z 000000018004eab4 f i libucrt:output.obj
 0001:0004db78       ??$extract_argument_from_va_list@PEAXPEAX@?$positional_parameter_base@DV?$string_output_adapter@D@__crt_stdio_output@@@__crt_stdio_output@@IEAA_NAEAPEAX@Z 000000018004eb78 f i libucrt:output.obj
 0001:0004dc3c       ??$extract_argument_from_va_list@PEAXPEAX@?$positional_parameter_base@_WV?$stream_output_adapter@_W@__crt_stdio_output@@@__crt_stdio_output@@IEAA_NAEAPEAX@Z 000000018004ec3c f i libucrt:output.obj
 0001:0004dd00       ??$extract_argument_from_va_list@PEAXPEAX@?$positional_parameter_base@_WV?$string_output_adapter@_W@__crt_stdio_output@@@__crt_stdio_output@@IEAA_NAEAPEAX@Z 000000018004ed00 f i libucrt:output.obj
 0001:0004ddc4       ??$extract_argument_from_va_list@PEAXPEAX@?$standard_base@DV?$stream_output_adapter@D@__crt_stdio_output@@@__crt_stdio_output@@IEAA_NAEAPEAX@Z 000000018004edc4 f i libucrt:output.obj
 0001:0004ddd8       ??$extract_argument_from_va_list@PEAXPEAX@?$standard_base@DV?$string_output_adapter@D@__crt_stdio_output@@@__crt_stdio_output@@IEAA_NAEAPEAX@Z 000000018004edd8 f i libucrt:output.obj
 0001:0004ddec       ??$extract_argument_from_va_list@PEAXPEAX@?$standard_base@_WV?$stream_output_adapter@_W@__crt_stdio_output@@@__crt_stdio_output@@IEAA_NAEAPEAX@Z 000000018004edec f i libucrt:output.obj
 0001:0004de00       ??$extract_argument_from_va_list@PEAXPEAX@?$standard_base@_WV?$string_output_adapter@_W@__crt_stdio_output@@@__crt_stdio_output@@IEAA_NAEAPEAX@Z 000000018004ee00 f i libucrt:output.obj
 0001:0004de14       ??$extract_argument_from_va_list@U_CRT_DOUBLE@@U1@@?$positional_parameter_base@DV?$stream_output_adapter@D@__crt_stdio_output@@@__crt_stdio_output@@IEAA_NAEAU_CRT_DOUBLE@@@Z 000000018004ee14 f i libucrt:output.obj
 0001:0004dedc       ??$extract_argument_from_va_list@U_CRT_DOUBLE@@U1@@?$positional_parameter_base@DV?$string_output_adapter@D@__crt_stdio_output@@@__crt_stdio_output@@IEAA_NAEAU_CRT_DOUBLE@@@Z 000000018004eedc f i libucrt:output.obj
 0001:0004dfa4       ??$extract_argument_from_va_list@U_CRT_DOUBLE@@U1@@?$positional_parameter_base@_WV?$stream_output_adapter@_W@__crt_stdio_output@@@__crt_stdio_output@@IEAA_NAEAU_CRT_DOUBLE@@@Z 000000018004efa4 f i libucrt:output.obj
 0001:0004e06c       ??$extract_argument_from_va_list@U_CRT_DOUBLE@@U1@@?$positional_parameter_base@_WV?$string_output_adapter@_W@__crt_stdio_output@@@__crt_stdio_output@@IEAA_NAEAU_CRT_DOUBLE@@@Z 000000018004f06c f i libucrt:output.obj
 0001:0004e134       ??$extract_argument_from_va_list@U_CRT_DOUBLE@@U1@@?$standard_base@DV?$stream_output_adapter@D@__crt_stdio_output@@@__crt_stdio_output@@IEAA_NAEAU_CRT_DOUBLE@@@Z 000000018004f134 f i libucrt:output.obj
 0001:0004e14c       ??$extract_argument_from_va_list@U_CRT_DOUBLE@@U1@@?$standard_base@DV?$string_output_adapter@D@__crt_stdio_output@@@__crt_stdio_output@@IEAA_NAEAU_CRT_DOUBLE@@@Z 000000018004f14c f i libucrt:output.obj
 0001:0004e164       ??$extract_argument_from_va_list@U_CRT_DOUBLE@@U1@@?$standard_base@_WV?$stream_output_adapter@_W@__crt_stdio_output@@@__crt_stdio_output@@IEAA_NAEAU_CRT_DOUBLE@@@Z 000000018004f164 f i libucrt:output.obj
 0001:0004e17c       ??$extract_argument_from_va_list@U_CRT_DOUBLE@@U1@@?$standard_base@_WV?$string_output_adapter@_W@__crt_stdio_output@@@__crt_stdio_output@@IEAA_NAEAU_CRT_DOUBLE@@@Z 000000018004f17c f i libucrt:output.obj
 0001:0004e194       ??$extract_argument_from_va_list@_J_J@?$positional_parameter_base@DV?$stream_output_adapter@D@__crt_stdio_output@@@__crt_stdio_output@@IEAA_NAEA_J@Z 000000018004f194 f i libucrt:output.obj
 0001:0004e258       ??$extract_argument_from_va_list@_J_J@?$positional_parameter_base@DV?$string_output_adapter@D@__crt_stdio_output@@@__crt_stdio_output@@IEAA_NAEA_J@Z 000000018004f258 f i libucrt:output.obj
 0001:0004e31c       ??$extract_argument_from_va_list@_J_J@?$positional_parameter_base@_WV?$stream_output_adapter@_W@__crt_stdio_output@@@__crt_stdio_output@@IEAA_NAEA_J@Z 000000018004f31c f i libucrt:output.obj
 0001:0004e3e0       ??$extract_argument_from_va_list@_J_J@?$positional_parameter_base@_WV?$string_output_adapter@_W@__crt_stdio_output@@@__crt_stdio_output@@IEAA_NAEA_J@Z 000000018004f3e0 f i libucrt:output.obj
 0001:0004e4a4       ??$extract_argument_from_va_list@_J_J@?$standard_base@DV?$stream_output_adapter@D@__crt_stdio_output@@@__crt_stdio_output@@IEAA_NAEA_J@Z 000000018004f4a4 f i libucrt:output.obj
 0001:0004e4b8       ??$extract_argument_from_va_list@_J_J@?$standard_base@DV?$string_output_adapter@D@__crt_stdio_output@@@__crt_stdio_output@@IEAA_NAEA_J@Z 000000018004f4b8 f i libucrt:output.obj
 0001:0004e4cc       ??$extract_argument_from_va_list@_J_J@?$standard_base@_WV?$stream_output_adapter@_W@__crt_stdio_output@@@__crt_stdio_output@@IEAA_NAEA_J@Z 000000018004f4cc f i libucrt:output.obj
 0001:0004e4e0       ??$extract_argument_from_va_list@_J_J@?$standard_base@_WV?$string_output_adapter@_W@__crt_stdio_output@@@__crt_stdio_output@@IEAA_NAEA_J@Z 000000018004f4e0 f i libucrt:output.obj
 0001:0004e4f4       ??$extract_argument_from_va_list@_K_J@?$positional_parameter_base@DV?$stream_output_adapter@D@__crt_stdio_output@@@__crt_stdio_output@@IEAA_NAEA_J@Z 000000018004f4f4 f i libucrt:output.obj
 0001:0004e5b8       ??$extract_argument_from_va_list@_K_J@?$positional_parameter_base@DV?$string_output_adapter@D@__crt_stdio_output@@@__crt_stdio_output@@IEAA_NAEA_J@Z 000000018004f5b8 f i libucrt:output.obj
 0001:0004e67c       ??$extract_argument_from_va_list@_K_J@?$positional_parameter_base@_WV?$stream_output_adapter@_W@__crt_stdio_output@@@__crt_stdio_output@@IEAA_NAEA_J@Z 000000018004f67c f i libucrt:output.obj
 0001:0004e740       ??$extract_argument_from_va_list@_K_J@?$positional_parameter_base@_WV?$string_output_adapter@_W@__crt_stdio_output@@@__crt_stdio_output@@IEAA_NAEA_J@Z 000000018004f740 f i libucrt:output.obj
 0001:0004e804       ??$extract_argument_from_va_list@_K_J@?$standard_base@DV?$stream_output_adapter@D@__crt_stdio_output@@@__crt_stdio_output@@IEAA_NAEA_J@Z 000000018004f804 f i libucrt:output.obj
 0001:0004e818       ??$extract_argument_from_va_list@_K_J@?$standard_base@DV?$string_output_adapter@D@__crt_stdio_output@@@__crt_stdio_output@@IEAA_NAEA_J@Z 000000018004f818 f i libucrt:output.obj
 0001:0004e82c       ??$extract_argument_from_va_list@_K_J@?$standard_base@_WV?$stream_output_adapter@_W@__crt_stdio_output@@@__crt_stdio_output@@IEAA_NAEA_J@Z 000000018004f82c f i libucrt:output.obj
 0001:0004e840       ??$extract_argument_from_va_list@_K_J@?$standard_base@_WV?$string_output_adapter@_W@__crt_stdio_output@@@__crt_stdio_output@@IEAA_NAEA_J@Z 000000018004f840 f i libucrt:output.obj
 0001:0004e854       ??$extract_argument_from_va_list@_W_W@?$positional_parameter_base@DV?$stream_output_adapter@D@__crt_stdio_output@@@__crt_stdio_output@@IEAA_NAEA_W@Z 000000018004f854 f i libucrt:output.obj
 0001:0004e918       ??$extract_argument_from_va_list@_W_W@?$positional_parameter_base@DV?$string_output_adapter@D@__crt_stdio_output@@@__crt_stdio_output@@IEAA_NAEA_W@Z 000000018004f918 f i libucrt:output.obj
 0001:0004e9dc       ??$extract_argument_from_va_list@_W_W@?$positional_parameter_base@_WV?$stream_output_adapter@_W@__crt_stdio_output@@@__crt_stdio_output@@IEAA_NAEA_W@Z 000000018004f9dc f i libucrt:output.obj
 0001:0004eaa4       ??$extract_argument_from_va_list@_W_W@?$positional_parameter_base@_WV?$string_output_adapter@_W@__crt_stdio_output@@@__crt_stdio_output@@IEAA_NAEA_W@Z 000000018004faa4 f i libucrt:output.obj
 0001:0004eb6c       ??$extract_argument_from_va_list@_W_W@?$standard_base@DV?$stream_output_adapter@D@__crt_stdio_output@@@__crt_stdio_output@@IEAA_NAEA_W@Z 000000018004fb6c f i libucrt:output.obj
 0001:0004eb80       ??$extract_argument_from_va_list@_W_W@?$standard_base@DV?$string_output_adapter@D@__crt_stdio_output@@@__crt_stdio_output@@IEAA_NAEA_W@Z 000000018004fb80 f i libucrt:output.obj
 0001:0004eb94       ??$extract_argument_from_va_list@_W_W@?$standard_base@_WV?$stream_output_adapter@_W@__crt_stdio_output@@@__crt_stdio_output@@IEAA_NAEA_W@Z 000000018004fb94 f i libucrt:output.obj
 0001:0004eba8       ??$extract_argument_from_va_list@_W_W@?$standard_base@_WV?$string_output_adapter@_W@__crt_stdio_output@@@__crt_stdio_output@@IEAA_NAEA_W@Z 000000018004fba8 f i libucrt:output.obj
 0001:0004ebbc       ??$get_parameter_type@D@?$positional_parameter_base@DV?$stream_output_adapter@D@__crt_stdio_output@@@__crt_stdio_output@@CA?AW4parameter_type@01@PEAD@Z 000000018004fbbc f i libucrt:output.obj
 0001:0004ebc4       ??$get_parameter_type@D@?$positional_parameter_base@DV?$string_output_adapter@D@__crt_stdio_output@@@__crt_stdio_output@@CA?AW4parameter_type@01@PEAD@Z 000000018004fbc4 f i libucrt:output.obj
 0001:0004ebcc       ??$get_parameter_type@D@?$positional_parameter_base@_WV?$stream_output_adapter@_W@__crt_stdio_output@@@__crt_stdio_output@@CA?AW4parameter_type@01@PEAD@Z 000000018004fbcc f i libucrt:output.obj
 0001:0004ebd4       ??$get_parameter_type@D@?$positional_parameter_base@_WV?$string_output_adapter@_W@__crt_stdio_output@@@__crt_stdio_output@@CA?AW4parameter_type@01@PEAD@Z 000000018004fbd4 f i libucrt:output.obj
 0001:0004ebdc       ??$get_parameter_type@Uansi_string@?1??type_case_Z@?$output_processor@DV?$stream_output_adapter@D@__crt_stdio_output@@V?$positional_parameter_base@DV?$stream_output_adapter@D@__crt_stdio_output@@@2@@__crt_stdio_output@@AEAA_NXZ@@?$positional_parameter_base@DV?$stream_output_adapter@D@__crt_stdio_output@@@__crt_stdio_output@@CA?AW4parameter_type@01@PEAUansi_string@?1??type_case_Z@?$output_processor@DV?$stream_output_adapter@D@__crt_stdio_output@@V?$positional_parameter_base@DV?$stream_output_adapter@D@__crt_stdio_output@@@2@@1@AEAA_NXZ@@Z 000000018004fbdc f i libucrt:output.obj
 0001:0004ebe4       ??$get_parameter_type@Uansi_string@?1??type_case_Z@?$output_processor@DV?$string_output_adapter@D@__crt_stdio_output@@V?$positional_parameter_base@DV?$string_output_adapter@D@__crt_stdio_output@@@2@@__crt_stdio_output@@AEAA_NXZ@@?$positional_parameter_base@DV?$string_output_adapter@D@__crt_stdio_output@@@__crt_stdio_output@@CA?AW4parameter_type@01@PEAUansi_string@?1??type_case_Z@?$output_processor@DV?$string_output_adapter@D@__crt_stdio_output@@V?$positional_parameter_base@DV?$string_output_adapter@D@__crt_stdio_output@@@2@@1@AEAA_NXZ@@Z 000000018004fbe4 f i libucrt:output.obj
 0001:0004ebec       ??$get_parameter_type@Uansi_string@?1??type_case_Z@?$output_processor@_WV?$stream_output_adapter@_W@__crt_stdio_output@@V?$positional_parameter_base@_WV?$stream_output_adapter@_W@__crt_stdio_output@@@2@@__crt_stdio_output@@AEAA_NXZ@@?$positional_parameter_base@_WV?$stream_output_adapter@_W@__crt_stdio_output@@@__crt_stdio_output@@CA?AW4parameter_type@01@PEAUansi_string@?1??type_case_Z@?$output_processor@_WV?$stream_output_adapter@_W@__crt_stdio_output@@V?$positional_parameter_base@_WV?$stream_output_adapter@_W@__crt_stdio_output@@@2@@1@AEAA_NXZ@@Z 000000018004fbec f i libucrt:output.obj
 0001:0004ebf4       ??$get_parameter_type@Uansi_string@?1??type_case_Z@?$output_processor@_WV?$string_output_adapter@_W@__crt_stdio_output@@V?$positional_parameter_base@_WV?$string_output_adapter@_W@__crt_stdio_output@@@2@@__crt_stdio_output@@AEAA_NXZ@@?$positional_parameter_base@_WV?$string_output_adapter@_W@__crt_stdio_output@@@__crt_stdio_output@@CA?AW4parameter_type@01@PEAUansi_string@?1??type_case_Z@?$output_processor@_WV?$string_output_adapter@_W@__crt_stdio_output@@V?$positional_parameter_base@_WV?$string_output_adapter@_W@__crt_stdio_output@@@2@@1@AEAA_NXZ@@Z 000000018004fbf4 f i libucrt:output.obj
 0001:0004ebfc       ??$get_parameter_type@X@?$positional_parameter_base@DV?$stream_output_adapter@D@__crt_stdio_output@@@__crt_stdio_output@@CA?AW4parameter_type@01@PEAX@Z 000000018004fbfc f i libucrt:output.obj
 0001:0004ec04       ??$get_parameter_type@X@?$positional_parameter_base@DV?$string_output_adapter@D@__crt_stdio_output@@@__crt_stdio_output@@CA?AW4parameter_type@01@PEAX@Z 000000018004fc04 f i libucrt:output.obj
 0001:0004ec0c       ??$get_parameter_type@X@?$positional_parameter_base@_WV?$stream_output_adapter@_W@__crt_stdio_output@@@__crt_stdio_output@@CA?AW4parameter_type@01@PEAX@Z 000000018004fc0c f i libucrt:output.obj
 0001:0004ec14       ??$get_parameter_type@X@?$positional_parameter_base@_WV?$string_output_adapter@_W@__crt_stdio_output@@@__crt_stdio_output@@CA?AW4parameter_type@01@PEAX@Z 000000018004fc14 f i libucrt:output.obj
 0001:0004ec1c       ??$is_character_specifier@D@?$positional_parameter_base@DV?$stream_output_adapter@D@__crt_stdio_output@@@__crt_stdio_output@@CA_ND@Z 000000018004fc1c f i libucrt:output.obj
 0001:0004ec28       ??$is_character_specifier@D@?$positional_parameter_base@DV?$string_output_adapter@D@__crt_stdio_output@@@__crt_stdio_output@@CA_ND@Z 000000018004fc28 f i libucrt:output.obj
 0001:0004ec34       ??$is_character_specifier@_W@?$positional_parameter_base@_WV?$stream_output_adapter@_W@__crt_stdio_output@@@__crt_stdio_output@@CA_N_W@Z 000000018004fc34 f i libucrt:output.obj
 0001:0004ec44       ??$is_character_specifier@_W@?$positional_parameter_base@_WV?$string_output_adapter@_W@__crt_stdio_output@@@__crt_stdio_output@@CA_N_W@Z 000000018004fc44 f i libucrt:output.obj
 0001:0004ec54       ??$is_integral_specifier@D@?$positional_parameter_base@DV?$stream_output_adapter@D@__crt_stdio_output@@@__crt_stdio_output@@CA_ND@Z 000000018004fc54 f i libucrt:output.obj
 0001:0004ec7c       ??$is_integral_specifier@D@?$positional_parameter_base@DV?$string_output_adapter@D@__crt_stdio_output@@@__crt_stdio_output@@CA_ND@Z 000000018004fc7c f i libucrt:output.obj
 0001:0004eca4       ??$is_integral_specifier@_W@?$positional_parameter_base@_WV?$stream_output_adapter@_W@__crt_stdio_output@@@__crt_stdio_output@@CA_N_W@Z 000000018004fca4 f i libucrt:output.obj
 0001:0004eccc       ??$is_integral_specifier@_W@?$positional_parameter_base@_WV?$string_output_adapter@_W@__crt_stdio_output@@@__crt_stdio_output@@CA_N_W@Z 000000018004fccc f i libucrt:output.obj
 0001:0004ecf4       ??$is_pointer_specifier@D@?$positional_parameter_base@DV?$stream_output_adapter@D@__crt_stdio_output@@@__crt_stdio_output@@CA_ND@Z 000000018004fcf4 f i libucrt:output.obj
 0001:0004ecfc       ??$is_pointer_specifier@D@?$positional_parameter_base@DV?$string_output_adapter@D@__crt_stdio_output@@@__crt_stdio_output@@CA_ND@Z 000000018004fcfc f i libucrt:output.obj
 0001:0004ed04       ??$is_pointer_specifier@_W@?$positional_parameter_base@_WV?$stream_output_adapter@_W@__crt_stdio_output@@@__crt_stdio_output@@CA_N_W@Z 000000018004fd04 f i libucrt:output.obj
 0001:0004ed0c       ??$is_pointer_specifier@_W@?$positional_parameter_base@_WV?$string_output_adapter@_W@__crt_stdio_output@@@__crt_stdio_output@@CA_N_W@Z 000000018004fd0c f i libucrt:output.obj
 0001:0004ed14       ??$is_string_specifier@D@?$positional_parameter_base@DV?$stream_output_adapter@D@__crt_stdio_output@@@__crt_stdio_output@@CA_ND@Z 000000018004fd14 f i libucrt:output.obj
 0001:0004ed20       ??$is_string_specifier@D@?$positional_parameter_base@DV?$string_output_adapter@D@__crt_stdio_output@@@__crt_stdio_output@@CA_ND@Z 000000018004fd20 f i libucrt:output.obj
 0001:0004ed2c       ??$is_string_specifier@_W@?$positional_parameter_base@_WV?$stream_output_adapter@_W@__crt_stdio_output@@@__crt_stdio_output@@CA_N_W@Z 000000018004fd2c f i libucrt:output.obj
 0001:0004ed3c       ??$is_string_specifier@_W@?$positional_parameter_base@_WV?$string_output_adapter@_W@__crt_stdio_output@@@__crt_stdio_output@@CA_N_W@Z 000000018004fd3c f i libucrt:output.obj
 0001:0004ed4c       ??$is_wide_character_specifier@D@__crt_stdio_output@@YA_N_KDW4length_modifier@0@@Z 000000018004fd4c f i libucrt:output.obj
 0001:0004ed7c       ??$is_wide_character_specifier@_W@__crt_stdio_output@@YA_N_K_WW4length_modifier@0@@Z 000000018004fd7c f i libucrt:output.obj
 0001:0004edc0       ??$peek_va_arg@C@__crt_stdio_output@@YACPEAD@Z 000000018004fdc0 f i libucrt:output.obj
 0001:0004edc4       ??$peek_va_arg@E@__crt_stdio_output@@YAEPEAD@Z 000000018004fdc4 f i libucrt:output.obj
 0001:0004edc8       ??$peek_va_arg@F@__crt_stdio_output@@YAFPEAD@Z 000000018004fdc8 f i libucrt:output.obj
 0001:0004edcc       ??$peek_va_arg@G@__crt_stdio_output@@YAGPEAD@Z 000000018004fdcc f i libucrt:output.obj
 0001:0004edd0       ??$peek_va_arg@H@__crt_stdio_output@@YAHPEAD@Z 000000018004fdd0 f i libucrt:output.obj
 0001:0004edd4       ??$peek_va_arg@I@__crt_stdio_output@@YAIPEAD@Z 000000018004fdd4 f i libucrt:output.obj
 0001:0004edd8       ??$peek_va_arg@PEAD@__crt_stdio_output@@YAPEADPEAD@Z 000000018004fdd8 f i libucrt:output.obj
 0001:0004eddc       ??$peek_va_arg@PEAUansi_string@?1??type_case_Z@?$output_processor@DV?$stream_output_adapter@D@__crt_stdio_output@@V?$positional_parameter_base@DV?$stream_output_adapter@D@__crt_stdio_output@@@2@@__crt_stdio_output@@AEAA_NXZ@@__crt_stdio_output@@YAPEAUansi_string@?1??type_case_Z@?$output_processor@DV?$stream_output_adapter@D@__crt_stdio_output@@V?$positional_parameter_base@DV?$stream_output_adapter@D@__crt_stdio_output@@@2@@0@AEAA_NXZ@PEAD@Z 000000018004fddc f i libucrt:output.obj
 0001:0004ede0       ??$peek_va_arg@PEAUansi_string@?1??type_case_Z@?$output_processor@DV?$string_output_adapter@D@__crt_stdio_output@@V?$positional_parameter_base@DV?$string_output_adapter@D@__crt_stdio_output@@@2@@__crt_stdio_output@@AEAA_NXZ@@__crt_stdio_output@@YAPEAUansi_string@?1??type_case_Z@?$output_processor@DV?$string_output_adapter@D@__crt_stdio_output@@V?$positional_parameter_base@DV?$string_output_adapter@D@__crt_stdio_output@@@2@@0@AEAA_NXZ@PEAD@Z 000000018004fde0 f i libucrt:output.obj
 0001:0004ede4       ??$peek_va_arg@PEAUansi_string@?1??type_case_Z@?$output_processor@_WV?$stream_output_adapter@_W@__crt_stdio_output@@V?$positional_parameter_base@_WV?$stream_output_adapter@_W@__crt_stdio_output@@@2@@__crt_stdio_output@@AEAA_NXZ@@__crt_stdio_output@@YAPEAUansi_string@?1??type_case_Z@?$output_processor@_WV?$stream_output_adapter@_W@__crt_stdio_output@@V?$positional_parameter_base@_WV?$stream_output_adapter@_W@__crt_stdio_output@@@2@@0@AEAA_NXZ@PEAD@Z 000000018004fde4 f i libucrt:output.obj
 0001:0004ede8       ??$peek_va_arg@PEAUansi_string@?1??type_case_Z@?$output_processor@_WV?$string_output_adapter@_W@__crt_stdio_output@@V?$positional_parameter_base@_WV?$string_output_adapter@_W@__crt_stdio_output@@@2@@__crt_stdio_output@@AEAA_NXZ@@__crt_stdio_output@@YAPEAUansi_string@?1??type_case_Z@?$output_processor@_WV?$string_output_adapter@_W@__crt_stdio_output@@V?$positional_parameter_base@_WV?$string_output_adapter@_W@__crt_stdio_output@@@2@@0@AEAA_NXZ@PEAD@Z 000000018004fde8 f i libucrt:output.obj
 0001:0004edec       ??$peek_va_arg@PEAX@__crt_stdio_output@@YAPEAXPEAD@Z 000000018004fdec f i libucrt:output.obj
 0001:0004edf0       ??$peek_va_arg@U_CRT_DOUBLE@@@__crt_stdio_output@@YA?AU_CRT_DOUBLE@@PEAD@Z 000000018004fdf0 f i libucrt:output.obj
 0001:0004edf4       ??$peek_va_arg@_J@__crt_stdio_output@@YA_JPEAD@Z 000000018004fdf4 f i libucrt:output.obj
 0001:0004edf8       ??$peek_va_arg@_K@__crt_stdio_output@@YA_KPEAD@Z 000000018004fdf8 f i libucrt:output.obj
 0001:0004edfc       ??$peek_va_arg@_W@__crt_stdio_output@@YA_WPEAD@Z 000000018004fdfc f i libucrt:output.obj
 0001:0004ee00       ??$puttc_nolock@AEBDPEAU_iobuf@@@?$__crt_char_traits@D@@SAHAEBD$$QEAPEAU_iobuf@@@Z 000000018004fe00 f i libucrt:output.obj
 0001:0004ee0c       ??$puttc_nolock@AEB_WPEAU_iobuf@@@?$__crt_char_traits@_W@@SAGAEB_W$$QEAPEAU_iobuf@@@Z 000000018004fe0c f i libucrt:output.obj
 0001:0004ee18       ??$read_va_arg@C@__crt_stdio_output@@YACAEAPEAD@Z 000000018004fe18 f i libucrt:output.obj
 0001:0004ee24       ??$read_va_arg@E@__crt_stdio_output@@YAEAEAPEAD@Z 000000018004fe24 f i libucrt:output.obj
 0001:0004ee30       ??$read_va_arg@F@__crt_stdio_output@@YAFAEAPEAD@Z 000000018004fe30 f i libucrt:output.obj
 0001:0004ee3c       ??$read_va_arg@G@__crt_stdio_output@@YAGAEAPEAD@Z 000000018004fe3c f i libucrt:output.obj
 0001:0004ee48       ??$read_va_arg@H@__crt_stdio_output@@YAHAEAPEAD@Z 000000018004fe48 f i libucrt:output.obj
 0001:0004ee54       ??$read_va_arg@I@__crt_stdio_output@@YAIAEAPEAD@Z 000000018004fe54 f i libucrt:output.obj
 0001:0004ee60       ??$read_va_arg@PEAD@__crt_stdio_output@@YAPEADAEAPEAD@Z 000000018004fe60 f i libucrt:output.obj
 0001:0004ee6c       ??$read_va_arg@PEAUansi_string@?1??type_case_Z@?$output_processor@DV?$stream_output_adapter@D@__crt_stdio_output@@V?$format_validation_base@DV?$stream_output_adapter@D@__crt_stdio_output@@@2@@__crt_stdio_output@@AEAA_NXZ@@__crt_stdio_output@@YAPEAUansi_string@?1??type_case_Z@?$output_processor@DV?$stream_output_adapter@D@__crt_stdio_output@@V?$format_validation_base@DV?$stream_output_adapter@D@__crt_stdio_output@@@2@@0@AEAA_NXZ@AEAPEAD@Z 000000018004fe6c f i libucrt:output.obj
 0001:0004ee78       ??$read_va_arg@PEAUansi_string@?1??type_case_Z@?$output_processor@DV?$stream_output_adapter@D@__crt_stdio_output@@V?$positional_parameter_base@DV?$stream_output_adapter@D@__crt_stdio_output@@@2@@__crt_stdio_output@@AEAA_NXZ@@__crt_stdio_output@@YAPEAUansi_string@?1??type_case_Z@?$output_processor@DV?$stream_output_adapter@D@__crt_stdio_output@@V?$positional_parameter_base@DV?$stream_output_adapter@D@__crt_stdio_output@@@2@@0@AEAA_NXZ@AEAPEAD@Z 000000018004fe78 f i libucrt:output.obj
 0001:0004ee84       ??$read_va_arg@PEAUansi_string@?1??type_case_Z@?$output_processor@DV?$stream_output_adapter@D@__crt_stdio_output@@V?$standard_base@DV?$stream_output_adapter@D@__crt_stdio_output@@@2@@__crt_stdio_output@@AEAA_NXZ@@__crt_stdio_output@@YAPEAUansi_string@?1??type_case_Z@?$output_processor@DV?$stream_output_adapter@D@__crt_stdio_output@@V?$standard_base@DV?$stream_output_adapter@D@__crt_stdio_output@@@2@@0@AEAA_NXZ@AEAPEAD@Z 000000018004fe84 f i libucrt:output.obj
 0001:0004ee90       ??$read_va_arg@PEAUansi_string@?1??type_case_Z@?$output_processor@DV?$string_output_adapter@D@__crt_stdio_output@@V?$format_validation_base@DV?$string_output_adapter@D@__crt_stdio_output@@@2@@__crt_stdio_output@@AEAA_NXZ@@__crt_stdio_output@@YAPEAUansi_string@?1??type_case_Z@?$output_processor@DV?$string_output_adapter@D@__crt_stdio_output@@V?$format_validation_base@DV?$string_output_adapter@D@__crt_stdio_output@@@2@@0@AEAA_NXZ@AEAPEAD@Z 000000018004fe90 f i libucrt:output.obj
 0001:0004ee9c       ??$read_va_arg@PEAUansi_string@?1??type_case_Z@?$output_processor@DV?$string_output_adapter@D@__crt_stdio_output@@V?$positional_parameter_base@DV?$string_output_adapter@D@__crt_stdio_output@@@2@@__crt_stdio_output@@AEAA_NXZ@@__crt_stdio_output@@YAPEAUansi_string@?1??type_case_Z@?$output_processor@DV?$string_output_adapter@D@__crt_stdio_output@@V?$positional_parameter_base@DV?$string_output_adapter@D@__crt_stdio_output@@@2@@0@AEAA_NXZ@AEAPEAD@Z 000000018004fe9c f i libucrt:output.obj
 0001:0004eea8       ??$read_va_arg@PEAUansi_string@?1??type_case_Z@?$output_processor@DV?$string_output_adapter@D@__crt_stdio_output@@V?$standard_base@DV?$string_output_adapter@D@__crt_stdio_output@@@2@@__crt_stdio_output@@AEAA_NXZ@@__crt_stdio_output@@YAPEAUansi_string@?1??type_case_Z@?$output_processor@DV?$string_output_adapter@D@__crt_stdio_output@@V?$standard_base@DV?$string_output_adapter@D@__crt_stdio_output@@@2@@0@AEAA_NXZ@AEAPEAD@Z 000000018004fea8 f i libucrt:output.obj
 0001:0004eeb4       ??$read_va_arg@PEAUansi_string@?1??type_case_Z@?$output_processor@_WV?$stream_output_adapter@_W@__crt_stdio_output@@V?$format_validation_base@_WV?$stream_output_adapter@_W@__crt_stdio_output@@@2@@__crt_stdio_output@@AEAA_NXZ@@__crt_stdio_output@@YAPEAUansi_string@?1??type_case_Z@?$output_processor@_WV?$stream_output_adapter@_W@__crt_stdio_output@@V?$format_validation_base@_WV?$stream_output_adapter@_W@__crt_stdio_output@@@2@@0@AEAA_NXZ@AEAPEAD@Z 000000018004feb4 f i libucrt:output.obj
 0001:0004eec0       ??$read_va_arg@PEAUansi_string@?1??type_case_Z@?$output_processor@_WV?$stream_output_adapter@_W@__crt_stdio_output@@V?$positional_parameter_base@_WV?$stream_output_adapter@_W@__crt_stdio_output@@@2@@__crt_stdio_output@@AEAA_NXZ@@__crt_stdio_output@@YAPEAUansi_string@?1??type_case_Z@?$output_processor@_WV?$stream_output_adapter@_W@__crt_stdio_output@@V?$positional_parameter_base@_WV?$stream_output_adapter@_W@__crt_stdio_output@@@2@@0@AEAA_NXZ@AEAPEAD@Z 000000018004fec0 f i libucrt:output.obj
 0001:0004eecc       ??$read_va_arg@PEAUansi_string@?1??type_case_Z@?$output_processor@_WV?$stream_output_adapter@_W@__crt_stdio_output@@V?$standard_base@_WV?$stream_output_adapter@_W@__crt_stdio_output@@@2@@__crt_stdio_output@@AEAA_NXZ@@__crt_stdio_output@@YAPEAUansi_string@?1??type_case_Z@?$output_processor@_WV?$stream_output_adapter@_W@__crt_stdio_output@@V?$standard_base@_WV?$stream_output_adapter@_W@__crt_stdio_output@@@2@@0@AEAA_NXZ@AEAPEAD@Z 000000018004fecc f i libucrt:output.obj
 0001:0004eed8       ??$read_va_arg@PEAUansi_string@?1??type_case_Z@?$output_processor@_WV?$string_output_adapter@_W@__crt_stdio_output@@V?$format_validation_base@_WV?$string_output_adapter@_W@__crt_stdio_output@@@2@@__crt_stdio_output@@AEAA_NXZ@@__crt_stdio_output@@YAPEAUansi_string@?1??type_case_Z@?$output_processor@_WV?$string_output_adapter@_W@__crt_stdio_output@@V?$format_validation_base@_WV?$string_output_adapter@_W@__crt_stdio_output@@@2@@0@AEAA_NXZ@AEAPEAD@Z 000000018004fed8 f i libucrt:output.obj
 0001:0004eee4       ??$read_va_arg@PEAUansi_string@?1??type_case_Z@?$output_processor@_WV?$string_output_adapter@_W@__crt_stdio_output@@V?$positional_parameter_base@_WV?$string_output_adapter@_W@__crt_stdio_output@@@2@@__crt_stdio_output@@AEAA_NXZ@@__crt_stdio_output@@YAPEAUansi_string@?1??type_case_Z@?$output_processor@_WV?$string_output_adapter@_W@__crt_stdio_output@@V?$positional_parameter_base@_WV?$string_output_adapter@_W@__crt_stdio_output@@@2@@0@AEAA_NXZ@AEAPEAD@Z 000000018004fee4 f i libucrt:output.obj
 0001:0004eef0       ??$read_va_arg@PEAUansi_string@?1??type_case_Z@?$output_processor@_WV?$string_output_adapter@_W@__crt_stdio_output@@V?$standard_base@_WV?$string_output_adapter@_W@__crt_stdio_output@@@2@@__crt_stdio_output@@AEAA_NXZ@@__crt_stdio_output@@YAPEAUansi_string@?1??type_case_Z@?$output_processor@_WV?$string_output_adapter@_W@__crt_stdio_output@@V?$standard_base@_WV?$string_output_adapter@_W@__crt_stdio_output@@@2@@0@AEAA_NXZ@AEAPEAD@Z 000000018004fef0 f i libucrt:output.obj
 0001:0004eefc       ??$read_va_arg@PEAX@__crt_stdio_output@@YAPEAXAEAPEAD@Z 000000018004fefc f i libucrt:output.obj
 0001:0004ef08       ??$read_va_arg@U_CRT_DOUBLE@@@__crt_stdio_output@@YA?AU_CRT_DOUBLE@@AEAPEAD@Z 000000018004ff08 f i libucrt:output.obj
 0001:0004ef14       ??$read_va_arg@_J@__crt_stdio_output@@YA_JAEAPEAD@Z 000000018004ff14 f i libucrt:output.obj
 0001:0004ef20       ??$read_va_arg@_K@__crt_stdio_output@@YA_KAEAPEAD@Z 000000018004ff20 f i libucrt:output.obj
 0001:0004ef2c       ??$read_va_arg@_W@__crt_stdio_output@@YA_WAEAPEAD@Z 000000018004ff2c f i libucrt:output.obj
 0001:0004ef38       ??$scratch_count@D@formatting_buffer@__crt_stdio_output@@QEBA_KXZ 000000018004ff38 f i libucrt:output.obj
 0001:0004ef54       ??$scratch_data@D@formatting_buffer@__crt_stdio_output@@QEAAPEADXZ 000000018004ff54 f i libucrt:output.obj
 0001:0004ef78       ??$tcstol@AEAPEBDPEAPEADH@?$__crt_char_traits@D@@SAJAEAPEBD$$QEAPEAPEAD$$QEAH@Z 000000018004ff78 f i libucrt:output.obj
 0001:0004ef88       ??$tcstol@AEAPEB_WPEAPEA_WH@?$__crt_char_traits@_W@@SAJAEAPEB_W$$QEAPEAPEA_W$$QEAH@Z 000000018004ff88 f i libucrt:output.obj
 0001:0004ef98       ??$tcstol@PEBDPEAPEADH@?$__crt_char_traits@D@@SAJ$$QEAPEBD$$QEAPEAPEAD$$QEAH@Z 000000018004ff98 f i libucrt:output.obj
 0001:0004efa8       ??$tcstol@PEB_WPEAPEA_WH@?$__crt_char_traits@_W@@SAJ$$QEAPEB_W$$QEAPEAPEA_W$$QEAH@Z 000000018004ffa8 f i libucrt:output.obj
 0001:0004efb8       ??$type_case_integer_parse_into_buffer@I@?$output_processor@DV?$stream_output_adapter@D@__crt_stdio_output@@V?$format_validation_base@DV?$stream_output_adapter@D@__crt_stdio_output@@@2@@__crt_stdio_output@@AEAAXII_N@Z 000000018004ffb8 f i libucrt:output.obj
 0001:0004f054       ??$type_case_integer_parse_into_buffer@I@?$output_processor@DV?$stream_output_adapter@D@__crt_stdio_output@@V?$positional_parameter_base@DV?$stream_output_adapter@D@__crt_stdio_output@@@2@@__crt_stdio_output@@AEAAXII_N@Z 0000000180050054 f i libucrt:output.obj
 0001:0004f0f0       ??$type_case_integer_parse_into_buffer@I@?$output_processor@DV?$stream_output_adapter@D@__crt_stdio_output@@V?$standard_base@DV?$stream_output_adapter@D@__crt_stdio_output@@@2@@__crt_stdio_output@@AEAAXII_N@Z 00000001800500f0 f i libucrt:output.obj
 0001:0004f18c       ??$type_case_integer_parse_into_buffer@I@?$output_processor@DV?$string_output_adapter@D@__crt_stdio_output@@V?$format_validation_base@DV?$string_output_adapter@D@__crt_stdio_output@@@2@@__crt_stdio_output@@AEAAXII_N@Z 000000018005018c f i libucrt:output.obj
 0001:0004f228       ??$type_case_integer_parse_into_buffer@I@?$output_processor@DV?$string_output_adapter@D@__crt_stdio_output@@V?$positional_parameter_base@DV?$string_output_adapter@D@__crt_stdio_output@@@2@@__crt_stdio_output@@AEAAXII_N@Z 0000000180050228 f i libucrt:output.obj
 0001:0004f2c4       ??$type_case_integer_parse_into_buffer@I@?$output_processor@DV?$string_output_adapter@D@__crt_stdio_output@@V?$standard_base@DV?$string_output_adapter@D@__crt_stdio_output@@@2@@__crt_stdio_output@@AEAAXII_N@Z 00000001800502c4 f i libucrt:output.obj
 0001:0004f360       ??$type_case_integer_parse_into_buffer@I@?$output_processor@_WV?$stream_output_adapter@_W@__crt_stdio_output@@V?$format_validation_base@_WV?$stream_output_adapter@_W@__crt_stdio_output@@@2@@__crt_stdio_output@@AEAAXII_N@Z 0000000180050360 f i libucrt:output.obj
 0001:0004f3fc       ??$type_case_integer_parse_into_buffer@I@?$output_processor@_WV?$stream_output_adapter@_W@__crt_stdio_output@@V?$positional_parameter_base@_WV?$stream_output_adapter@_W@__crt_stdio_output@@@2@@__crt_stdio_output@@AEAAXII_N@Z 00000001800503fc f i libucrt:output.obj
 0001:0004f498       ??$type_case_integer_parse_into_buffer@I@?$output_processor@_WV?$stream_output_adapter@_W@__crt_stdio_output@@V?$standard_base@_WV?$stream_output_adapter@_W@__crt_stdio_output@@@2@@__crt_stdio_output@@AEAAXII_N@Z 0000000180050498 f i libucrt:output.obj
 0001:0004f534       ??$type_case_integer_parse_into_buffer@I@?$output_processor@_WV?$string_output_adapter@_W@__crt_stdio_output@@V?$format_validation_base@_WV?$string_output_adapter@_W@__crt_stdio_output@@@2@@__crt_stdio_output@@AEAAXII_N@Z 0000000180050534 f i libucrt:output.obj
 0001:0004f5d0       ??$type_case_integer_parse_into_buffer@I@?$output_processor@_WV?$string_output_adapter@_W@__crt_stdio_output@@V?$positional_parameter_base@_WV?$string_output_adapter@_W@__crt_stdio_output@@@2@@__crt_stdio_output@@AEAAXII_N@Z 00000001800505d0 f i libucrt:output.obj
 0001:0004f66c       ??$type_case_integer_parse_into_buffer@I@?$output_processor@_WV?$string_output_adapter@_W@__crt_stdio_output@@V?$standard_base@_WV?$string_output_adapter@_W@__crt_stdio_output@@@2@@__crt_stdio_output@@AEAAXII_N@Z 000000018005066c f i libucrt:output.obj
 0001:0004f708       ??$type_case_integer_parse_into_buffer@_K@?$output_processor@DV?$stream_output_adapter@D@__crt_stdio_output@@V?$format_validation_base@DV?$stream_output_adapter@D@__crt_stdio_output@@@2@@__crt_stdio_output@@AEAAX_KI_N@Z 0000000180050708 f i libucrt:output.obj
 0001:0004f7a4       ??$type_case_integer_parse_into_buffer@_K@?$output_processor@DV?$stream_output_adapter@D@__crt_stdio_output@@V?$positional_parameter_base@DV?$stream_output_adapter@D@__crt_stdio_output@@@2@@__crt_stdio_output@@AEAAX_KI_N@Z 00000001800507a4 f i libucrt:output.obj
 0001:0004f840       ??$type_case_integer_parse_into_buffer@_K@?$output_processor@DV?$stream_output_adapter@D@__crt_stdio_output@@V?$standard_base@DV?$stream_output_adapter@D@__crt_stdio_output@@@2@@__crt_stdio_output@@AEAAX_KI_N@Z 0000000180050840 f i libucrt:output.obj
 0001:0004f8dc       ??$type_case_integer_parse_into_buffer@_K@?$output_processor@DV?$string_output_adapter@D@__crt_stdio_output@@V?$format_validation_base@DV?$string_output_adapter@D@__crt_stdio_output@@@2@@__crt_stdio_output@@AEAAX_KI_N@Z 00000001800508dc f i libucrt:output.obj
 0001:0004f978       ??$type_case_integer_parse_into_buffer@_K@?$output_processor@DV?$string_output_adapter@D@__crt_stdio_output@@V?$positional_parameter_base@DV?$string_output_adapter@D@__crt_stdio_output@@@2@@__crt_stdio_output@@AEAAX_KI_N@Z 0000000180050978 f i libucrt:output.obj
 0001:0004fa14       ??$type_case_integer_parse_into_buffer@_K@?$output_processor@DV?$string_output_adapter@D@__crt_stdio_output@@V?$standard_base@DV?$string_output_adapter@D@__crt_stdio_output@@@2@@__crt_stdio_output@@AEAAX_KI_N@Z 0000000180050a14 f i libucrt:output.obj
 0001:0004fab0       ??$type_case_integer_parse_into_buffer@_K@?$output_processor@_WV?$stream_output_adapter@_W@__crt_stdio_output@@V?$format_validation_base@_WV?$stream_output_adapter@_W@__crt_stdio_output@@@2@@__crt_stdio_output@@AEAAX_KI_N@Z 0000000180050ab0 f i libucrt:output.obj
 0001:0004fb4c       ??$type_case_integer_parse_into_buffer@_K@?$output_processor@_WV?$stream_output_adapter@_W@__crt_stdio_output@@V?$positional_parameter_base@_WV?$stream_output_adapter@_W@__crt_stdio_output@@@2@@__crt_stdio_output@@AEAAX_KI_N@Z 0000000180050b4c f i libucrt:output.obj
 0001:0004fbe8       ??$type_case_integer_parse_into_buffer@_K@?$output_processor@_WV?$stream_output_adapter@_W@__crt_stdio_output@@V?$standard_base@_WV?$stream_output_adapter@_W@__crt_stdio_output@@@2@@__crt_stdio_output@@AEAAX_KI_N@Z 0000000180050be8 f i libucrt:output.obj
 0001:0004fc84       ??$type_case_integer_parse_into_buffer@_K@?$output_processor@_WV?$string_output_adapter@_W@__crt_stdio_output@@V?$format_validation_base@_WV?$string_output_adapter@_W@__crt_stdio_output@@@2@@__crt_stdio_output@@AEAAX_KI_N@Z 0000000180050c84 f i libucrt:output.obj
 0001:0004fd20       ??$type_case_integer_parse_into_buffer@_K@?$output_processor@_WV?$string_output_adapter@_W@__crt_stdio_output@@V?$positional_parameter_base@_WV?$string_output_adapter@_W@__crt_stdio_output@@@2@@__crt_stdio_output@@AEAAX_KI_N@Z 0000000180050d20 f i libucrt:output.obj
 0001:0004fdbc       ??$type_case_integer_parse_into_buffer@_K@?$output_processor@_WV?$string_output_adapter@_W@__crt_stdio_output@@V?$standard_base@_WV?$string_output_adapter@_W@__crt_stdio_output@@@2@@__crt_stdio_output@@AEAAX_KI_N@Z 0000000180050dbc f i libucrt:output.obj
 0001:0004fe58       ??$write_multiple_characters@V?$stream_output_adapter@D@__crt_stdio_output@@D@__crt_stdio_output@@YAXAEBV?$stream_output_adapter@D@0@DHQEAH@Z 0000000180050e58 f i libucrt:output.obj
 0001:0004fedc       ??$write_multiple_characters@V?$stream_output_adapter@_W@__crt_stdio_output@@D@__crt_stdio_output@@YAXAEBV?$stream_output_adapter@_W@0@DHQEAH@Z 0000000180050edc f i libucrt:output.obj
 0001:0004ff6c       ??$write_multiple_characters@V?$string_output_adapter@D@__crt_stdio_output@@D@__crt_stdio_output@@YAXAEBV?$string_output_adapter@D@0@DHQEAH@Z 0000000180050f6c f i libucrt:output.obj
 0001:0004ffc8       ??$write_multiple_characters@V?$string_output_adapter@_W@__crt_stdio_output@@D@__crt_stdio_output@@YAXAEBV?$string_output_adapter@_W@0@DHQEAH@Z 0000000180050fc8 f i libucrt:output.obj
 0001:000501a0       ??0?$common_data@D@__crt_stdio_output@@IEAA@XZ 00000001800511a0 f i libucrt:output.obj
 0001:000501dc       ??0?$common_data@_W@__crt_stdio_output@@IEAA@XZ 00000001800511dc f i libucrt:output.obj
 0001:0005021c       ??0?$output_adapter_data@DV?$stream_output_adapter@D@__crt_stdio_output@@@__crt_stdio_output@@IEAA@AEBV?$stream_output_adapter@D@1@_KQEBDQEAU__crt_locale_pointers@@QEAD@Z 000000018005121c f i libucrt:output.obj
 0001:0005027c       ??0?$output_adapter_data@DV?$string_output_adapter@D@__crt_stdio_output@@@__crt_stdio_output@@IEAA@AEBV?$string_output_adapter@D@1@_KQEBDQEAU__crt_locale_pointers@@QEAD@Z 000000018005127c f i libucrt:output.obj
 0001:000502dc       ??0?$output_adapter_data@_WV?$stream_output_adapter@_W@__crt_stdio_output@@@__crt_stdio_output@@IEAA@AEBV?$stream_output_adapter@_W@1@_KQEB_WQEAU__crt_locale_pointers@@QEAD@Z 00000001800512dc f i libucrt:output.obj
 0001:00050340       ??0?$output_adapter_data@_WV?$string_output_adapter@_W@__crt_stdio_output@@@__crt_stdio_output@@IEAA@AEBV?$string_output_adapter@_W@1@_KQEB_WQEAU__crt_locale_pointers@@QEAD@Z 0000000180051340 f i libucrt:output.obj
 0001:000503a4       ??0?$output_processor@DV?$stream_output_adapter@D@__crt_stdio_output@@V?$format_validation_base@DV?$stream_output_adapter@D@__crt_stdio_output@@@2@@__crt_stdio_output@@QEAA@AEBV?$stream_output_adapter@D@1@_KQEBDQEAU__crt_locale_pointers@@QEAD@Z 00000001800513a4 f i libucrt:output.obj
 0001:00050420       ??0?$output_processor@DV?$stream_output_adapter@D@__crt_stdio_output@@V?$positional_parameter_base@DV?$stream_output_adapter@D@__crt_stdio_output@@@2@@__crt_stdio_output@@QEAA@AEBV?$stream_output_adapter@D@1@_KQEBDQEAU__crt_locale_pointers@@QEAD@Z 0000000180051420 f i libucrt:output.obj
 0001:000504bc       ??0?$output_processor@DV?$stream_output_adapter@D@__crt_stdio_output@@V?$standard_base@DV?$stream_output_adapter@D@__crt_stdio_output@@@2@@__crt_stdio_output@@QEAA@AEBV?$stream_output_adapter@D@1@_KQEBDQEAU__crt_locale_pointers@@QEAD@Z 00000001800514bc f i libucrt:output.obj
 0001:00050538       ??0?$output_processor@DV?$string_output_adapter@D@__crt_stdio_output@@V?$format_validation_base@DV?$string_output_adapter@D@__crt_stdio_output@@@2@@__crt_stdio_output@@QEAA@AEBV?$string_output_adapter@D@1@_KQEBDQEAU__crt_locale_pointers@@QEAD@Z 0000000180051538 f i libucrt:output.obj
 0001:000505b4       ??0?$output_processor@DV?$string_output_adapter@D@__crt_stdio_output@@V?$positional_parameter_base@DV?$string_output_adapter@D@__crt_stdio_output@@@2@@__crt_stdio_output@@QEAA@AEBV?$string_output_adapter@D@1@_KQEBDQEAU__crt_locale_pointers@@QEAD@Z 00000001800515b4 f i libucrt:output.obj
 0001:00050650       ??0?$output_processor@DV?$string_output_adapter@D@__crt_stdio_output@@V?$standard_base@DV?$string_output_adapter@D@__crt_stdio_output@@@2@@__crt_stdio_output@@QEAA@AEBV?$string_output_adapter@D@1@_KQEBDQEAU__crt_locale_pointers@@QEAD@Z 0000000180051650 f i libucrt:output.obj
 0001:000506cc       ??0?$output_processor@_WV?$stream_output_adapter@_W@__crt_stdio_output@@V?$format_validation_base@_WV?$stream_output_adapter@_W@__crt_stdio_output@@@2@@__crt_stdio_output@@QEAA@AEBV?$stream_output_adapter@_W@1@_KQEB_WQEAU__crt_locale_pointers@@QEAD@Z 00000001800516cc f i libucrt:output.obj
 0001:0005074c       ??0?$output_processor@_WV?$stream_output_adapter@_W@__crt_stdio_output@@V?$positional_parameter_base@_WV?$stream_output_adapter@_W@__crt_stdio_output@@@2@@__crt_stdio_output@@QEAA@AEBV?$stream_output_adapter@_W@1@_KQEB_WQEAU__crt_locale_pointers@@QEAD@Z 000000018005174c f i libucrt:output.obj
 0001:000507e8       ??0?$output_processor@_WV?$stream_output_adapter@_W@__crt_stdio_output@@V?$standard_base@_WV?$stream_output_adapter@_W@__crt_stdio_output@@@2@@__crt_stdio_output@@QEAA@AEBV?$stream_output_adapter@_W@1@_KQEB_WQEAU__crt_locale_pointers@@QEAD@Z 00000001800517e8 f i libucrt:output.obj
 0001:00050868       ??0?$output_processor@_WV?$string_output_adapter@_W@__crt_stdio_output@@V?$format_validation_base@_WV?$string_output_adapter@_W@__crt_stdio_output@@@2@@__crt_stdio_output@@QEAA@AEBV?$string_output_adapter@_W@1@_KQEB_WQEAU__crt_locale_pointers@@QEAD@Z 0000000180051868 f i libucrt:output.obj
 0001:000508e8       ??0?$output_processor@_WV?$string_output_adapter@_W@__crt_stdio_output@@V?$positional_parameter_base@_WV?$string_output_adapter@_W@__crt_stdio_output@@@2@@__crt_stdio_output@@QEAA@AEBV?$string_output_adapter@_W@1@_KQEB_WQEAU__crt_locale_pointers@@QEAD@Z 00000001800518e8 f i libucrt:output.obj
 0001:00050984       ??0?$output_processor@_WV?$string_output_adapter@_W@__crt_stdio_output@@V?$standard_base@_WV?$string_output_adapter@_W@__crt_stdio_output@@@2@@__crt_stdio_output@@QEAA@AEBV?$string_output_adapter@_W@1@_KQEB_WQEAU__crt_locale_pointers@@QEAD@Z 0000000180051984 f i libucrt:output.obj
 0001:00050a04       ??0?$stream_output_adapter@D@__crt_stdio_output@@QEAA@QEAU_iobuf@@@Z 0000000180051a04 f i libucrt:output.obj
 0001:00050a0c       ??0?$stream_output_adapter@_W@__crt_stdio_output@@QEAA@QEAU_iobuf@@@Z 0000000180051a0c f i libucrt:output.obj
 0001:00050a14       ??0?$string_output_adapter@D@__crt_stdio_output@@QEAA@QEAU?$string_output_adapter_context@D@1@@Z 0000000180051a14 f i libucrt:output.obj
 0001:00050a1c       ??0?$string_output_adapter@_W@__crt_stdio_output@@QEAA@QEAU?$string_output_adapter_context@_W@1@@Z 0000000180051a1c f i libucrt:output.obj
 0001:00050a24       ??0__acrt_stdio_temporary_buffering_guard@@QEAA@QEAU_iobuf@@@Z 0000000180051a24 f i libucrt:output.obj
 0001:00050a44       ??0__crt_errno_guard@@QEAA@QEAH@Z 0000000180051a44 f i libucrt:output.obj
 0001:00050a54       ??0__crt_stdio_stream@@QEAA@QEAU_iobuf@@@Z 0000000180051a54 f i libucrt:output.obj
 0001:00050a5c       ??0formatting_buffer@__crt_stdio_output@@QEAA@XZ 0000000180051a5c f i libucrt:output.obj
 0001:00050a70       ??1?$common_data@D@__crt_stdio_output@@QEAA@XZ 0000000180051a70 f i libucrt:output.obj
 0001:00050a94       ??1?$common_data@_W@__crt_stdio_output@@QEAA@XZ 0000000180051a94 f i libucrt:output.obj
 0001:00050ab8       ??1?$format_validation_base@DV?$stream_output_adapter@D@__crt_stdio_output@@@__crt_stdio_output@@QEAA@XZ 0000000180051ab8 f i libucrt:output.obj
 0001:00050adc       ??1?$format_validation_base@DV?$string_output_adapter@D@__crt_stdio_output@@@__crt_stdio_output@@QEAA@XZ 0000000180051adc f i libucrt:output.obj
 0001:00050b00       ??1?$format_validation_base@_WV?$stream_output_adapter@_W@__crt_stdio_output@@@__crt_stdio_output@@QEAA@XZ 0000000180051b00 f i libucrt:output.obj
 0001:00050b24       ??1?$format_validation_base@_WV?$string_output_adapter@_W@__crt_stdio_output@@@__crt_stdio_output@@QEAA@XZ 0000000180051b24 f i libucrt:output.obj
 0001:00050b48       ??1?$output_adapter_data@DV?$stream_output_adapter@D@__crt_stdio_output@@@__crt_stdio_output@@QEAA@XZ 0000000180051b48 f i libucrt:output.obj
 0001:00050b6c       ??1?$output_adapter_data@DV?$string_output_adapter@D@__crt_stdio_output@@@__crt_stdio_output@@QEAA@XZ 0000000180051b6c f i libucrt:output.obj
 0001:00050b90       ??1?$output_adapter_data@_WV?$stream_output_adapter@_W@__crt_stdio_output@@@__crt_stdio_output@@QEAA@XZ 0000000180051b90 f i libucrt:output.obj
 0001:00050bb4       ??1?$output_adapter_data@_WV?$string_output_adapter@_W@__crt_stdio_output@@@__crt_stdio_output@@QEAA@XZ 0000000180051bb4 f i libucrt:output.obj
 0001:00050bd8       ??1?$output_processor@DV?$stream_output_adapter@D@__crt_stdio_output@@V?$format_validation_base@DV?$stream_output_adapter@D@__crt_stdio_output@@@2@@__crt_stdio_output@@QEAA@XZ 0000000180051bd8 f i libucrt:output.obj
 0001:00050bfc       ??1?$output_processor@DV?$stream_output_adapter@D@__crt_stdio_output@@V?$positional_parameter_base@DV?$stream_output_adapter@D@__crt_stdio_output@@@2@@__crt_stdio_output@@QEAA@XZ 0000000180051bfc f i libucrt:output.obj
 0001:00050c20       ??1?$output_processor@DV?$stream_output_adapter@D@__crt_stdio_output@@V?$standard_base@DV?$stream_output_adapter@D@__crt_stdio_output@@@2@@__crt_stdio_output@@QEAA@XZ 0000000180051c20 f i libucrt:output.obj
 0001:00050c44       ??1?$output_processor@DV?$string_output_adapter@D@__crt_stdio_output@@V?$format_validation_base@DV?$string_output_adapter@D@__crt_stdio_output@@@2@@__crt_stdio_output@@QEAA@XZ 0000000180051c44 f i libucrt:output.obj
 0001:00050c68       ??1?$output_processor@DV?$string_output_adapter@D@__crt_stdio_output@@V?$positional_parameter_base@DV?$string_output_adapter@D@__crt_stdio_output@@@2@@__crt_stdio_output@@QEAA@XZ 0000000180051c68 f i libucrt:output.obj
 0001:00050c8c       ??1?$output_processor@DV?$string_output_adapter@D@__crt_stdio_output@@V?$standard_base@DV?$string_output_adapter@D@__crt_stdio_output@@@2@@__crt_stdio_output@@QEAA@XZ 0000000180051c8c f i libucrt:output.obj
 0001:00050cb0       ??1?$output_processor@_WV?$stream_output_adapter@_W@__crt_stdio_output@@V?$format_validation_base@_WV?$stream_output_adapter@_W@__crt_stdio_output@@@2@@__crt_stdio_output@@QEAA@XZ 0000000180051cb0 f i libucrt:output.obj
 0001:00050cd4       ??1?$output_processor@_WV?$stream_output_adapter@_W@__crt_stdio_output@@V?$positional_parameter_base@_WV?$stream_output_adapter@_W@__crt_stdio_output@@@2@@__crt_stdio_output@@QEAA@XZ 0000000180051cd4 f i libucrt:output.obj
 0001:00050cf8       ??1?$output_processor@_WV?$stream_output_adapter@_W@__crt_stdio_output@@V?$standard_base@_WV?$stream_output_adapter@_W@__crt_stdio_output@@@2@@__crt_stdio_output@@QEAA@XZ 0000000180051cf8 f i libucrt:output.obj
 0001:00050d1c       ??1?$output_processor@_WV?$string_output_adapter@_W@__crt_stdio_output@@V?$format_validation_base@_WV?$string_output_adapter@_W@__crt_stdio_output@@@2@@__crt_stdio_output@@QEAA@XZ 0000000180051d1c f i libucrt:output.obj
 0001:00050d40       ??1?$output_processor@_WV?$string_output_adapter@_W@__crt_stdio_output@@V?$positional_parameter_base@_WV?$string_output_adapter@_W@__crt_stdio_output@@@2@@__crt_stdio_output@@QEAA@XZ 0000000180051d40 f i libucrt:output.obj
 0001:00050d64       ??1?$output_processor@_WV?$string_output_adapter@_W@__crt_stdio_output@@V?$standard_base@_WV?$string_output_adapter@_W@__crt_stdio_output@@@2@@__crt_stdio_output@@QEAA@XZ 0000000180051d64 f i libucrt:output.obj
 0001:00050d88       ??1?$positional_parameter_base@DV?$stream_output_adapter@D@__crt_stdio_output@@@__crt_stdio_output@@QEAA@XZ 0000000180051d88 f i libucrt:output.obj
 0001:00050dac       ??1?$positional_parameter_base@DV?$string_output_adapter@D@__crt_stdio_output@@@__crt_stdio_output@@QEAA@XZ 0000000180051dac f i libucrt:output.obj
 0001:00050dd0       ??1?$positional_parameter_base@_WV?$stream_output_adapter@_W@__crt_stdio_output@@@__crt_stdio_output@@QEAA@XZ 0000000180051dd0 f i libucrt:output.obj
 0001:00050df4       ??1?$positional_parameter_base@_WV?$string_output_adapter@_W@__crt_stdio_output@@@__crt_stdio_output@@QEAA@XZ 0000000180051df4 f i libucrt:output.obj
 0001:00050e18       ??1?$standard_base@DV?$stream_output_adapter@D@__crt_stdio_output@@@__crt_stdio_output@@QEAA@XZ 0000000180051e18 f i libucrt:output.obj
 0001:00050e3c       ??1?$standard_base@DV?$string_output_adapter@D@__crt_stdio_output@@@__crt_stdio_output@@QEAA@XZ 0000000180051e3c f i libucrt:output.obj
 0001:00050e60       ??1?$standard_base@_WV?$stream_output_adapter@_W@__crt_stdio_output@@@__crt_stdio_output@@QEAA@XZ 0000000180051e60 f i libucrt:output.obj
 0001:00050e84       ??1?$standard_base@_WV?$string_output_adapter@_W@__crt_stdio_output@@@__crt_stdio_output@@QEAA@XZ 0000000180051e84 f i libucrt:output.obj
 0001:00050ea8       ??1__acrt_stdio_temporary_buffering_guard@@QEAA@XZ 0000000180051ea8 f i libucrt:output.obj
 0001:00050eb4       ??1__crt_errno_guard@@QEAA@XZ 0000000180051eb4 f i libucrt:output.obj
 0001:00050ec8       ??1formatting_buffer@__crt_stdio_output@@QEAA@XZ 0000000180051ec8 f i libucrt:output.obj
 0001:00050eec       ??4?$__crt_unique_heap_ptr@DU__crt_internal_free_policy@@@@QEAAAEAV0@$$QEAV0@@Z 0000000180051eec f i libucrt:output.obj
 0001:00050f20       ??C__crt_stdio_stream@@QEBAPEAU__crt_stdio_stream_data@@XZ 0000000180051f20 f i libucrt:output.obj
 0001:00051524       ?adjust_hexit@?$output_processor@DV?$stream_output_adapter@D@__crt_stdio_output@@V?$format_validation_base@DV?$stream_output_adapter@D@__crt_stdio_output@@@2@@__crt_stdio_output@@CADH_N@Z 0000000180052524 f i libucrt:output.obj
 0001:00051534       ?adjust_hexit@?$output_processor@DV?$stream_output_adapter@D@__crt_stdio_output@@V?$positional_parameter_base@DV?$stream_output_adapter@D@__crt_stdio_output@@@2@@__crt_stdio_output@@CADH_N@Z 0000000180052534 f i libucrt:output.obj
 0001:00051544       ?adjust_hexit@?$output_processor@DV?$stream_output_adapter@D@__crt_stdio_output@@V?$standard_base@DV?$stream_output_adapter@D@__crt_stdio_output@@@2@@__crt_stdio_output@@CADH_N@Z 0000000180052544 f i libucrt:output.obj
 0001:00051554       ?adjust_hexit@?$output_processor@DV?$string_output_adapter@D@__crt_stdio_output@@V?$format_validation_base@DV?$string_output_adapter@D@__crt_stdio_output@@@2@@__crt_stdio_output@@CADH_N@Z 0000000180052554 f i libucrt:output.obj
 0001:00051564       ?adjust_hexit@?$output_processor@DV?$string_output_adapter@D@__crt_stdio_output@@V?$positional_parameter_base@DV?$string_output_adapter@D@__crt_stdio_output@@@2@@__crt_stdio_output@@CADH_N@Z 0000000180052564 f i libucrt:output.obj
 0001:00051574       ?adjust_hexit@?$output_processor@DV?$string_output_adapter@D@__crt_stdio_output@@V?$standard_base@DV?$string_output_adapter@D@__crt_stdio_output@@@2@@__crt_stdio_output@@CADH_N@Z 0000000180052574 f i libucrt:output.obj
 0001:00051584       ?adjust_hexit@?$output_processor@_WV?$stream_output_adapter@_W@__crt_stdio_output@@V?$format_validation_base@_WV?$stream_output_adapter@_W@__crt_stdio_output@@@2@@__crt_stdio_output@@CADH_N@Z 0000000180052584 f i libucrt:output.obj
 0001:00051594       ?adjust_hexit@?$output_processor@_WV?$stream_output_adapter@_W@__crt_stdio_output@@V?$positional_parameter_base@_WV?$stream_output_adapter@_W@__crt_stdio_output@@@2@@__crt_stdio_output@@CADH_N@Z 0000000180052594 f i libucrt:output.obj
 0001:000515a4       ?adjust_hexit@?$output_processor@_WV?$stream_output_adapter@_W@__crt_stdio_output@@V?$standard_base@_WV?$stream_output_adapter@_W@__crt_stdio_output@@@2@@__crt_stdio_output@@CADH_N@Z 00000001800525a4 f i libucrt:output.obj
 0001:000515b4       ?adjust_hexit@?$output_processor@_WV?$string_output_adapter@_W@__crt_stdio_output@@V?$format_validation_base@_WV?$string_output_adapter@_W@__crt_stdio_output@@@2@@__crt_stdio_output@@CADH_N@Z 00000001800525b4 f i libucrt:output.obj
 0001:000515c4       ?adjust_hexit@?$output_processor@_WV?$string_output_adapter@_W@__crt_stdio_output@@V?$positional_parameter_base@_WV?$string_output_adapter@_W@__crt_stdio_output@@@2@@__crt_stdio_output@@CADH_N@Z 00000001800525c4 f i libucrt:output.obj
 0001:000515d4       ?adjust_hexit@?$output_processor@_WV?$string_output_adapter@_W@__crt_stdio_output@@V?$standard_base@_WV?$string_output_adapter@_W@__crt_stdio_output@@@2@@__crt_stdio_output@@CADH_N@Z 00000001800525d4 f i libucrt:output.obj
 0001:000515e4       ?advance_to_next_pass@?$positional_parameter_base@DV?$stream_output_adapter@D@__crt_stdio_output@@@__crt_stdio_output@@IEAA_NXZ 00000001800525e4 f i libucrt:output.obj
 0001:00051634       ?advance_to_next_pass@?$positional_parameter_base@DV?$string_output_adapter@D@__crt_stdio_output@@@__crt_stdio_output@@IEAA_NXZ 0000000180052634 f i libucrt:output.obj
 0001:00051684       ?advance_to_next_pass@?$positional_parameter_base@_WV?$stream_output_adapter@_W@__crt_stdio_output@@@__crt_stdio_output@@IEAA_NXZ 0000000180052684 f i libucrt:output.obj
 0001:000516d4       ?advance_to_next_pass@?$positional_parameter_base@_WV?$string_output_adapter@_W@__crt_stdio_output@@@__crt_stdio_output@@IEAA_NXZ 00000001800526d4 f i libucrt:output.obj
 0001:00051724       ?advance_to_next_pass@?$standard_base@DV?$stream_output_adapter@D@__crt_stdio_output@@@__crt_stdio_output@@IEAA_NXZ 0000000180052724 f i libucrt:output.obj
 0001:00051738       ?advance_to_next_pass@?$standard_base@DV?$string_output_adapter@D@__crt_stdio_output@@@__crt_stdio_output@@IEAA_NXZ 0000000180052738 f i libucrt:output.obj
 0001:0005174c       ?advance_to_next_pass@?$standard_base@_WV?$stream_output_adapter@_W@__crt_stdio_output@@@__crt_stdio_output@@IEAA_NXZ 000000018005274c f i libucrt:output.obj
 0001:00051760       ?advance_to_next_pass@?$standard_base@_WV?$string_output_adapter@_W@__crt_stdio_output@@@__crt_stdio_output@@IEAA_NXZ 0000000180052760 f i libucrt:output.obj
 0001:00051774       ?crop_zeroes@__crt_stdio_output@@YAXPEADQEAU__crt_locale_pointers@@@Z 0000000180052774 f i libucrt:output.obj
 0001:000517d0       ?find_next_state@?$output_processor@DV?$stream_output_adapter@D@__crt_stdio_output@@V?$format_validation_base@DV?$stream_output_adapter@D@__crt_stdio_output@@@2@@__crt_stdio_output@@AEBA?AW4state@2@DW432@@Z 00000001800527d0 f i libucrt:output.obj
 0001:00051800       ?find_next_state@?$output_processor@DV?$stream_output_adapter@D@__crt_stdio_output@@V?$positional_parameter_base@DV?$stream_output_adapter@D@__crt_stdio_output@@@2@@__crt_stdio_output@@AEBA?AW4state@2@DW432@@Z 0000000180052800 f i libucrt:output.obj
 0001:00051830       ?find_next_state@?$output_processor@DV?$stream_output_adapter@D@__crt_stdio_output@@V?$standard_base@DV?$stream_output_adapter@D@__crt_stdio_output@@@2@@__crt_stdio_output@@AEBA?AW4state@2@DW432@@Z 0000000180052830 f i libucrt:output.obj
 0001:0005185c       ?find_next_state@?$output_processor@DV?$string_output_adapter@D@__crt_stdio_output@@V?$format_validation_base@DV?$string_output_adapter@D@__crt_stdio_output@@@2@@__crt_stdio_output@@AEBA?AW4state@2@DW432@@Z 000000018005285c f i libucrt:output.obj
 0001:0005188c       ?find_next_state@?$output_processor@DV?$string_output_adapter@D@__crt_stdio_output@@V?$positional_parameter_base@DV?$string_output_adapter@D@__crt_stdio_output@@@2@@__crt_stdio_output@@AEBA?AW4state@2@DW432@@Z 000000018005288c f i libucrt:output.obj
 0001:000518bc       ?find_next_state@?$output_processor@DV?$string_output_adapter@D@__crt_stdio_output@@V?$standard_base@DV?$string_output_adapter@D@__crt_stdio_output@@@2@@__crt_stdio_output@@AEBA?AW4state@2@DW432@@Z 00000001800528bc f i libucrt:output.obj
 0001:000518e8       ?find_next_state@?$output_processor@_WV?$stream_output_adapter@_W@__crt_stdio_output@@V?$format_validation_base@_WV?$stream_output_adapter@_W@__crt_stdio_output@@@2@@__crt_stdio_output@@AEBA?AW4state@2@_WW432@@Z 00000001800528e8 f i libucrt:output.obj
 0001:00051918       ?find_next_state@?$output_processor@_WV?$stream_output_adapter@_W@__crt_stdio_output@@V?$positional_parameter_base@_WV?$stream_output_adapter@_W@__crt_stdio_output@@@2@@__crt_stdio_output@@AEBA?AW4state@2@_WW432@@Z 0000000180052918 f i libucrt:output.obj
 0001:00051948       ?find_next_state@?$output_processor@_WV?$stream_output_adapter@_W@__crt_stdio_output@@V?$standard_base@_WV?$stream_output_adapter@_W@__crt_stdio_output@@@2@@__crt_stdio_output@@AEBA?AW4state@2@_WW432@@Z 0000000180052948 f i libucrt:output.obj
 0001:00051978       ?find_next_state@?$output_processor@_WV?$string_output_adapter@_W@__crt_stdio_output@@V?$format_validation_base@_WV?$string_output_adapter@_W@__crt_stdio_output@@@2@@__crt_stdio_output@@AEBA?AW4state@2@_WW432@@Z 0000000180052978 f i libucrt:output.obj
 0001:000519a8       ?find_next_state@?$output_processor@_WV?$string_output_adapter@_W@__crt_stdio_output@@V?$positional_parameter_base@_WV?$string_output_adapter@_W@__crt_stdio_output@@@2@@__crt_stdio_output@@AEBA?AW4state@2@_WW432@@Z 00000001800529a8 f i libucrt:output.obj
 0001:000519d8       ?find_next_state@?$output_processor@_WV?$string_output_adapter@_W@__crt_stdio_output@@V?$standard_base@_WV?$string_output_adapter@_W@__crt_stdio_output@@@2@@__crt_stdio_output@@AEBA?AW4state@2@_WW432@@Z 00000001800529d8 f i libucrt:output.obj
 0001:00051a08       ?force_decimal_point@__crt_stdio_output@@YAXPEADQEAU__crt_locale_pointers@@@Z 0000000180052a08 f i libucrt:output.obj
 0001:00051a78       ?get_flags@__crt_stdio_stream@@QEBAJXZ 0000000180052a78 f i libucrt:output.obj
 0001:00051a80       ?get_parameter_type@?$positional_parameter_base@DV?$stream_output_adapter@D@__crt_stdio_output@@@__crt_stdio_output@@CA?AW4parameter_type@12@F@Z 0000000180052a80 f i libucrt:output.obj
 0001:00051a88       ?get_parameter_type@?$positional_parameter_base@DV?$stream_output_adapter@D@__crt_stdio_output@@@__crt_stdio_output@@CA?AW4parameter_type@12@G@Z 0000000180052a88 f i libucrt:output.obj
 0001:00051a90       ?get_parameter_type@?$positional_parameter_base@DV?$stream_output_adapter@D@__crt_stdio_output@@@__crt_stdio_output@@CA?AW4parameter_type@12@H@Z 0000000180052a90 f i libucrt:output.obj
 0001:00051a98       ?get_parameter_type@?$positional_parameter_base@DV?$stream_output_adapter@D@__crt_stdio_output@@@__crt_stdio_output@@CA?AW4parameter_type@12@I@Z 0000000180052a98 f i libucrt:output.obj
 0001:00051aa0       ?get_parameter_type@?$positional_parameter_base@DV?$stream_output_adapter@D@__crt_stdio_output@@@__crt_stdio_output@@CA?AW4parameter_type@12@U_CRT_DOUBLE@@@Z 0000000180052aa0 f i libucrt:output.obj
 0001:00051aa8       ?get_parameter_type@?$positional_parameter_base@DV?$stream_output_adapter@D@__crt_stdio_output@@@__crt_stdio_output@@CA?AW4parameter_type@12@_J@Z 0000000180052aa8 f i libucrt:output.obj
 0001:00051ab0       ?get_parameter_type@?$positional_parameter_base@DV?$stream_output_adapter@D@__crt_stdio_output@@@__crt_stdio_output@@CA?AW4parameter_type@12@_K@Z 0000000180052ab0 f i libucrt:output.obj
 0001:00051ab8       ?get_parameter_type@?$positional_parameter_base@DV?$stream_output_adapter@D@__crt_stdio_output@@@__crt_stdio_output@@CA?AW4parameter_type@12@_W@Z 0000000180052ab8 f i libucrt:output.obj
 0001:00051ac0       ?get_parameter_type@?$positional_parameter_base@DV?$string_output_adapter@D@__crt_stdio_output@@@__crt_stdio_output@@CA?AW4parameter_type@12@F@Z 0000000180052ac0 f i libucrt:output.obj
 0001:00051ac8       ?get_parameter_type@?$positional_parameter_base@DV?$string_output_adapter@D@__crt_stdio_output@@@__crt_stdio_output@@CA?AW4parameter_type@12@G@Z 0000000180052ac8 f i libucrt:output.obj
 0001:00051ad0       ?get_parameter_type@?$positional_parameter_base@DV?$string_output_adapter@D@__crt_stdio_output@@@__crt_stdio_output@@CA?AW4parameter_type@12@H@Z 0000000180052ad0 f i libucrt:output.obj
 0001:00051ad8       ?get_parameter_type@?$positional_parameter_base@DV?$string_output_adapter@D@__crt_stdio_output@@@__crt_stdio_output@@CA?AW4parameter_type@12@I@Z 0000000180052ad8 f i libucrt:output.obj
 0001:00051ae0       ?get_parameter_type@?$positional_parameter_base@DV?$string_output_adapter@D@__crt_stdio_output@@@__crt_stdio_output@@CA?AW4parameter_type@12@U_CRT_DOUBLE@@@Z 0000000180052ae0 f i libucrt:output.obj
 0001:00051ae8       ?get_parameter_type@?$positional_parameter_base@DV?$string_output_adapter@D@__crt_stdio_output@@@__crt_stdio_output@@CA?AW4parameter_type@12@_J@Z 0000000180052ae8 f i libucrt:output.obj
 0001:00051af0       ?get_parameter_type@?$positional_parameter_base@DV?$string_output_adapter@D@__crt_stdio_output@@@__crt_stdio_output@@CA?AW4parameter_type@12@_K@Z 0000000180052af0 f i libucrt:output.obj
 0001:00051af8       ?get_parameter_type@?$positional_parameter_base@DV?$string_output_adapter@D@__crt_stdio_output@@@__crt_stdio_output@@CA?AW4parameter_type@12@_W@Z 0000000180052af8 f i libucrt:output.obj
 0001:00051b00       ?get_parameter_type@?$positional_parameter_base@_WV?$stream_output_adapter@_W@__crt_stdio_output@@@__crt_stdio_output@@CA?AW4parameter_type@12@F@Z 0000000180052b00 f i libucrt:output.obj
 0001:00051b08       ?get_parameter_type@?$positional_parameter_base@_WV?$stream_output_adapter@_W@__crt_stdio_output@@@__crt_stdio_output@@CA?AW4parameter_type@12@G@Z 0000000180052b08 f i libucrt:output.obj
 0001:00051b10       ?get_parameter_type@?$positional_parameter_base@_WV?$stream_output_adapter@_W@__crt_stdio_output@@@__crt_stdio_output@@CA?AW4parameter_type@12@H@Z 0000000180052b10 f i libucrt:output.obj
 0001:00051b18       ?get_parameter_type@?$positional_parameter_base@_WV?$stream_output_adapter@_W@__crt_stdio_output@@@__crt_stdio_output@@CA?AW4parameter_type@12@I@Z 0000000180052b18 f i libucrt:output.obj
 0001:00051b20       ?get_parameter_type@?$positional_parameter_base@_WV?$stream_output_adapter@_W@__crt_stdio_output@@@__crt_stdio_output@@CA?AW4parameter_type@12@U_CRT_DOUBLE@@@Z 0000000180052b20 f i libucrt:output.obj
 0001:00051b28       ?get_parameter_type@?$positional_parameter_base@_WV?$stream_output_adapter@_W@__crt_stdio_output@@@__crt_stdio_output@@CA?AW4parameter_type@12@_J@Z 0000000180052b28 f i libucrt:output.obj
 0001:00051b30       ?get_parameter_type@?$positional_parameter_base@_WV?$stream_output_adapter@_W@__crt_stdio_output@@@__crt_stdio_output@@CA?AW4parameter_type@12@_K@Z 0000000180052b30 f i libucrt:output.obj
 0001:00051b38       ?get_parameter_type@?$positional_parameter_base@_WV?$stream_output_adapter@_W@__crt_stdio_output@@@__crt_stdio_output@@CA?AW4parameter_type@12@_W@Z 0000000180052b38 f i libucrt:output.obj
 0001:00051b40       ?get_parameter_type@?$positional_parameter_base@_WV?$string_output_adapter@_W@__crt_stdio_output@@@__crt_stdio_output@@CA?AW4parameter_type@12@F@Z 0000000180052b40 f i libucrt:output.obj
 0001:00051b48       ?get_parameter_type@?$positional_parameter_base@_WV?$string_output_adapter@_W@__crt_stdio_output@@@__crt_stdio_output@@CA?AW4parameter_type@12@G@Z 0000000180052b48 f i libucrt:output.obj
 0001:00051b50       ?get_parameter_type@?$positional_parameter_base@_WV?$string_output_adapter@_W@__crt_stdio_output@@@__crt_stdio_output@@CA?AW4parameter_type@12@H@Z 0000000180052b50 f i libucrt:output.obj
 0001:00051b58       ?get_parameter_type@?$positional_parameter_base@_WV?$string_output_adapter@_W@__crt_stdio_output@@@__crt_stdio_output@@CA?AW4parameter_type@12@I@Z 0000000180052b58 f i libucrt:output.obj
 0001:00051b60       ?get_parameter_type@?$positional_parameter_base@_WV?$string_output_adapter@_W@__crt_stdio_output@@@__crt_stdio_output@@CA?AW4parameter_type@12@U_CRT_DOUBLE@@@Z 0000000180052b60 f i libucrt:output.obj
 0001:00051b68       ?get_parameter_type@?$positional_parameter_base@_WV?$string_output_adapter@_W@__crt_stdio_output@@@__crt_stdio_output@@CA?AW4parameter_type@12@_J@Z 0000000180052b68 f i libucrt:output.obj
 0001:00051b70       ?get_parameter_type@?$positional_parameter_base@_WV?$string_output_adapter@_W@__crt_stdio_output@@@__crt_stdio_output@@CA?AW4parameter_type@12@_K@Z 0000000180052b70 f i libucrt:output.obj
 0001:00051b78       ?get_parameter_type@?$positional_parameter_base@_WV?$string_output_adapter@_W@__crt_stdio_output@@@__crt_stdio_output@@CA?AW4parameter_type@12@_W@Z 0000000180052b78 f i libucrt:output.obj
 0001:00051b80       ?has_flag@?$output_processor@DV?$stream_output_adapter@D@__crt_stdio_output@@V?$format_validation_base@DV?$stream_output_adapter@D@__crt_stdio_output@@@2@@__crt_stdio_output@@AEBA_NI@Z 0000000180052b80 f i libucrt:output.obj
 0001:00051b88       ?has_flag@?$output_processor@DV?$stream_output_adapter@D@__crt_stdio_output@@V?$positional_parameter_base@DV?$stream_output_adapter@D@__crt_stdio_output@@@2@@__crt_stdio_output@@AEBA_NI@Z 0000000180052b88 f i libucrt:output.obj
 0001:00051b90       ?has_flag@?$output_processor@DV?$stream_output_adapter@D@__crt_stdio_output@@V?$standard_base@DV?$stream_output_adapter@D@__crt_stdio_output@@@2@@__crt_stdio_output@@AEBA_NI@Z 0000000180052b90 f i libucrt:output.obj
 0001:00051b98       ?has_flag@?$output_processor@DV?$string_output_adapter@D@__crt_stdio_output@@V?$format_validation_base@DV?$string_output_adapter@D@__crt_stdio_output@@@2@@__crt_stdio_output@@AEBA_NI@Z 0000000180052b98 f i libucrt:output.obj
 0001:00051ba0       ?has_flag@?$output_processor@DV?$string_output_adapter@D@__crt_stdio_output@@V?$positional_parameter_base@DV?$string_output_adapter@D@__crt_stdio_output@@@2@@__crt_stdio_output@@AEBA_NI@Z 0000000180052ba0 f i libucrt:output.obj
 0001:00051ba8       ?has_flag@?$output_processor@DV?$string_output_adapter@D@__crt_stdio_output@@V?$standard_base@DV?$string_output_adapter@D@__crt_stdio_output@@@2@@__crt_stdio_output@@AEBA_NI@Z 0000000180052ba8 f i libucrt:output.obj
 0001:00051bb0       ?has_flag@?$output_processor@_WV?$stream_output_adapter@_W@__crt_stdio_output@@V?$format_validation_base@_WV?$stream_output_adapter@_W@__crt_stdio_output@@@2@@__crt_stdio_output@@AEBA_NI@Z 0000000180052bb0 f i libucrt:output.obj
 0001:00051bb8       ?has_flag@?$output_processor@_WV?$stream_output_adapter@_W@__crt_stdio_output@@V?$positional_parameter_base@_WV?$stream_output_adapter@_W@__crt_stdio_output@@@2@@__crt_stdio_output@@AEBA_NI@Z 0000000180052bb8 f i libucrt:output.obj
 0001:00051bc0       ?has_flag@?$output_processor@_WV?$stream_output_adapter@_W@__crt_stdio_output@@V?$standard_base@_WV?$stream_output_adapter@_W@__crt_stdio_output@@@2@@__crt_stdio_output@@AEBA_NI@Z 0000000180052bc0 f i libucrt:output.obj
 0001:00051bc8       ?has_flag@?$output_processor@_WV?$string_output_adapter@_W@__crt_stdio_output@@V?$format_validation_base@_WV?$string_output_adapter@_W@__crt_stdio_output@@@2@@__crt_stdio_output@@AEBA_NI@Z 0000000180052bc8 f i libucrt:output.obj
 0001:00051bd0       ?has_flag@?$output_processor@_WV?$string_output_adapter@_W@__crt_stdio_output@@V?$positional_parameter_base@_WV?$string_output_adapter@_W@__crt_stdio_output@@@2@@__crt_stdio_output@@AEBA_NI@Z 0000000180052bd0 f i libucrt:output.obj
 0001:00051bd8       ?has_flag@?$output_processor@_WV?$string_output_adapter@_W@__crt_stdio_output@@V?$standard_base@_WV?$string_output_adapter@_W@__crt_stdio_output@@@2@@__crt_stdio_output@@AEBA_NI@Z 0000000180052bd8 f i libucrt:output.obj
 0001:00051be0       ?is_positional_parameter_reappearance_consistent@?$positional_parameter_base@DV?$stream_output_adapter@D@__crt_stdio_output@@@__crt_stdio_output@@AEAA_NAEBUparameter_data@12@W4parameter_type@12@DW4length_modifier@2@@Z 0000000180052be0 f i libucrt:output.obj
 0001:00051dd0       ?is_positional_parameter_reappearance_consistent@?$positional_parameter_base@DV?$string_output_adapter@D@__crt_stdio_output@@@__crt_stdio_output@@AEAA_NAEBUparameter_data@12@W4parameter_type@12@DW4length_modifier@2@@Z 0000000180052dd0 f i libucrt:output.obj
 0001:00051fc0       ?is_positional_parameter_reappearance_consistent@?$positional_parameter_base@_WV?$stream_output_adapter@_W@__crt_stdio_output@@@__crt_stdio_output@@AEAA_NAEBUparameter_data@12@W4parameter_type@12@_WW4length_modifier@2@@Z 0000000180052fc0 f i libucrt:output.obj
 0001:000521c8       ?is_positional_parameter_reappearance_consistent@?$positional_parameter_base@_WV?$string_output_adapter@_W@__crt_stdio_output@@@__crt_stdio_output@@AEAA_NAEBUparameter_data@12@W4parameter_type@12@_WW4length_modifier@2@@Z 00000001800531c8 f i libucrt:output.obj
 0001:000523d0       ?is_string_backed@__crt_stdio_stream@@QEBA_NXZ 00000001800533d0 f i libucrt:output.obj
 0001:000523e0       ?narrow_null_string@?$output_processor@DV?$stream_output_adapter@D@__crt_stdio_output@@V?$format_validation_base@DV?$stream_output_adapter@D@__crt_stdio_output@@@2@@__crt_stdio_output@@CAPEADXZ 00000001800533e0 f i libucrt:output.obj
 0001:000523e8       ?narrow_null_string@?$output_processor@DV?$stream_output_adapter@D@__crt_stdio_output@@V?$positional_parameter_base@DV?$stream_output_adapter@D@__crt_stdio_output@@@2@@__crt_stdio_output@@CAPEADXZ 00000001800533e8 f i libucrt:output.obj
 0001:000523f0       ?narrow_null_string@?$output_processor@DV?$stream_output_adapter@D@__crt_stdio_output@@V?$standard_base@DV?$stream_output_adapter@D@__crt_stdio_output@@@2@@__crt_stdio_output@@CAPEADXZ 00000001800533f0 f i libucrt:output.obj
 0001:000523f8       ?narrow_null_string@?$output_processor@DV?$string_output_adapter@D@__crt_stdio_output@@V?$format_validation_base@DV?$string_output_adapter@D@__crt_stdio_output@@@2@@__crt_stdio_output@@CAPEADXZ 00000001800533f8 f i libucrt:output.obj
 0001:00052400       ?narrow_null_string@?$output_processor@DV?$string_output_adapter@D@__crt_stdio_output@@V?$positional_parameter_base@DV?$string_output_adapter@D@__crt_stdio_output@@@2@@__crt_stdio_output@@CAPEADXZ 0000000180053400 f i libucrt:output.obj
 0001:00052408       ?narrow_null_string@?$output_processor@DV?$string_output_adapter@D@__crt_stdio_output@@V?$standard_base@DV?$string_output_adapter@D@__crt_stdio_output@@@2@@__crt_stdio_output@@CAPEADXZ 0000000180053408 f i libucrt:output.obj
 0001:00052410       ?narrow_null_string@?$output_processor@_WV?$stream_output_adapter@_W@__crt_stdio_output@@V?$format_validation_base@_WV?$stream_output_adapter@_W@__crt_stdio_output@@@2@@__crt_stdio_output@@CAPEADXZ 0000000180053410 f i libucrt:output.obj
 0001:00052418       ?narrow_null_string@?$output_processor@_WV?$stream_output_adapter@_W@__crt_stdio_output@@V?$positional_parameter_base@_WV?$stream_output_adapter@_W@__crt_stdio_output@@@2@@__crt_stdio_output@@CAPEADXZ 0000000180053418 f i libucrt:output.obj
 0001:00052420       ?narrow_null_string@?$output_processor@_WV?$stream_output_adapter@_W@__crt_stdio_output@@V?$standard_base@_WV?$stream_output_adapter@_W@__crt_stdio_output@@@2@@__crt_stdio_output@@CAPEADXZ 0000000180053420 f i libucrt:output.obj
 0001:00052428       ?narrow_null_string@?$output_processor@_WV?$string_output_adapter@_W@__crt_stdio_output@@V?$format_validation_base@_WV?$string_output_adapter@_W@__crt_stdio_output@@@2@@__crt_stdio_output@@CAPEADXZ 0000000180053428 f i libucrt:output.obj
 0001:00052430       ?narrow_null_string@?$output_processor@_WV?$string_output_adapter@_W@__crt_stdio_output@@V?$positional_parameter_base@_WV?$string_output_adapter@_W@__crt_stdio_output@@@2@@__crt_stdio_output@@CAPEADXZ 0000000180053430 f i libucrt:output.obj
 0001:00052438       ?narrow_null_string@?$output_processor@_WV?$string_output_adapter@_W@__crt_stdio_output@@V?$standard_base@_WV?$string_output_adapter@_W@__crt_stdio_output@@@2@@__crt_stdio_output@@CAPEADXZ 0000000180053438 f i libucrt:output.obj
 0001:00052440       ?parse_int_from_format_string@?$output_processor@DV?$stream_output_adapter@D@__crt_stdio_output@@V?$format_validation_base@DV?$stream_output_adapter@D@__crt_stdio_output@@@2@@__crt_stdio_output@@AEAA_NQEAH@Z 0000000180053440 f i libucrt:output.obj
 0001:000524c4       ?parse_int_from_format_string@?$output_processor@DV?$stream_output_adapter@D@__crt_stdio_output@@V?$positional_parameter_base@DV?$stream_output_adapter@D@__crt_stdio_output@@@2@@__crt_stdio_output@@AEAA_NQEAH@Z 00000001800534c4 f i libucrt:output.obj
 0001:00052548       ?parse_int_from_format_string@?$output_processor@DV?$stream_output_adapter@D@__crt_stdio_output@@V?$standard_base@DV?$stream_output_adapter@D@__crt_stdio_output@@@2@@__crt_stdio_output@@AEAA_NQEAH@Z 0000000180053548 f i libucrt:output.obj
 0001:000525cc       ?parse_int_from_format_string@?$output_processor@DV?$string_output_adapter@D@__crt_stdio_output@@V?$format_validation_base@DV?$string_output_adapter@D@__crt_stdio_output@@@2@@__crt_stdio_output@@AEAA_NQEAH@Z 00000001800535cc f i libucrt:output.obj
 0001:00052650       ?parse_int_from_format_string@?$output_processor@DV?$string_output_adapter@D@__crt_stdio_output@@V?$positional_parameter_base@DV?$string_output_adapter@D@__crt_stdio_output@@@2@@__crt_stdio_output@@AEAA_NQEAH@Z 0000000180053650 f i libucrt:output.obj
 0001:000526d4       ?parse_int_from_format_string@?$output_processor@DV?$string_output_adapter@D@__crt_stdio_output@@V?$standard_base@DV?$string_output_adapter@D@__crt_stdio_output@@@2@@__crt_stdio_output@@AEAA_NQEAH@Z 00000001800536d4 f i libucrt:output.obj
 0001:00052758       ?parse_int_from_format_string@?$output_processor@_WV?$stream_output_adapter@_W@__crt_stdio_output@@V?$format_validation_base@_WV?$stream_output_adapter@_W@__crt_stdio_output@@@2@@__crt_stdio_output@@AEAA_NQEAH@Z 0000000180053758 f i libucrt:output.obj
 0001:000527d8       ?parse_int_from_format_string@?$output_processor@_WV?$stream_output_adapter@_W@__crt_stdio_output@@V?$positional_parameter_base@_WV?$stream_output_adapter@_W@__crt_stdio_output@@@2@@__crt_stdio_output@@AEAA_NQEAH@Z 00000001800537d8 f i libucrt:output.obj
 0001:00052858       ?parse_int_from_format_string@?$output_processor@_WV?$stream_output_adapter@_W@__crt_stdio_output@@V?$standard_base@_WV?$stream_output_adapter@_W@__crt_stdio_output@@@2@@__crt_stdio_output@@AEAA_NQEAH@Z 0000000180053858 f i libucrt:output.obj
 0001:000528d8       ?parse_int_from_format_string@?$output_processor@_WV?$string_output_adapter@_W@__crt_stdio_output@@V?$format_validation_base@_WV?$string_output_adapter@_W@__crt_stdio_output@@@2@@__crt_stdio_output@@AEAA_NQEAH@Z 00000001800538d8 f i libucrt:output.obj
 0001:00052958       ?parse_int_from_format_string@?$output_processor@_WV?$string_output_adapter@_W@__crt_stdio_output@@V?$positional_parameter_base@_WV?$string_output_adapter@_W@__crt_stdio_output@@@2@@__crt_stdio_output@@AEAA_NQEAH@Z 0000000180053958 f i libucrt:output.obj
 0001:000529d8       ?parse_int_from_format_string@?$output_processor@_WV?$string_output_adapter@_W@__crt_stdio_output@@V?$standard_base@_WV?$string_output_adapter@_W@__crt_stdio_output@@@2@@__crt_stdio_output@@AEAA_NQEAH@Z 00000001800539d8 f i libucrt:output.obj
 0001:00052a58       ?process@?$output_processor@DV?$stream_output_adapter@D@__crt_stdio_output@@V?$format_validation_base@DV?$stream_output_adapter@D@__crt_stdio_output@@@2@@__crt_stdio_output@@QEAAHXZ 0000000180053a58 f i libucrt:output.obj
 0001:00052c78       ?process@?$output_processor@DV?$stream_output_adapter@D@__crt_stdio_output@@V?$positional_parameter_base@DV?$stream_output_adapter@D@__crt_stdio_output@@@2@@__crt_stdio_output@@QEAAHXZ 0000000180053c78 f i libucrt:output.obj
 0001:00052f18       ?process@?$output_processor@DV?$stream_output_adapter@D@__crt_stdio_output@@V?$standard_base@DV?$stream_output_adapter@D@__crt_stdio_output@@@2@@__crt_stdio_output@@QEAAHXZ 0000000180053f18 f i libucrt:output.obj
 0001:00053128       ?process@?$output_processor@DV?$string_output_adapter@D@__crt_stdio_output@@V?$format_validation_base@DV?$string_output_adapter@D@__crt_stdio_output@@@2@@__crt_stdio_output@@QEAAHXZ 0000000180054128 f i libucrt:output.obj
 0001:0005333c       ?process@?$output_processor@DV?$string_output_adapter@D@__crt_stdio_output@@V?$positional_parameter_base@DV?$string_output_adapter@D@__crt_stdio_output@@@2@@__crt_stdio_output@@QEAAHXZ 000000018005433c f i libucrt:output.obj
 0001:000535cc       ?process@?$output_processor@DV?$string_output_adapter@D@__crt_stdio_output@@V?$standard_base@DV?$string_output_adapter@D@__crt_stdio_output@@@2@@__crt_stdio_output@@QEAAHXZ 00000001800545cc f i libucrt:output.obj
 0001:000537d0       ?process@?$output_processor@_WV?$stream_output_adapter@_W@__crt_stdio_output@@V?$format_validation_base@_WV?$stream_output_adapter@_W@__crt_stdio_output@@@2@@__crt_stdio_output@@QEAAHXZ 00000001800547d0 f i libucrt:output.obj
 0001:00053a54       ?process@?$output_processor@_WV?$stream_output_adapter@_W@__crt_stdio_output@@V?$positional_parameter_base@_WV?$stream_output_adapter@_W@__crt_stdio_output@@@2@@__crt_stdio_output@@QEAAHXZ 0000000180054a54 f i libucrt:output.obj
 0001:00053d08       ?process@?$output_processor@_WV?$stream_output_adapter@_W@__crt_stdio_output@@V?$standard_base@_WV?$stream_output_adapter@_W@__crt_stdio_output@@@2@@__crt_stdio_output@@QEAAHXZ 0000000180054d08 f i libucrt:output.obj
 0001:00053f80       ?process@?$output_processor@_WV?$string_output_adapter@_W@__crt_stdio_output@@V?$format_validation_base@_WV?$string_output_adapter@_W@__crt_stdio_output@@@2@@__crt_stdio_output@@QEAAHXZ 0000000180054f80 f i libucrt:output.obj
 0001:00054208       ?process@?$output_processor@_WV?$string_output_adapter@_W@__crt_stdio_output@@V?$positional_parameter_base@_WV?$string_output_adapter@_W@__crt_stdio_output@@@2@@__crt_stdio_output@@QEAAHXZ 0000000180055208 f i libucrt:output.obj
 0001:000544bc       ?process@?$output_processor@_WV?$string_output_adapter@_W@__crt_stdio_output@@V?$standard_base@_WV?$string_output_adapter@_W@__crt_stdio_output@@@2@@__crt_stdio_output@@QEAAHXZ 00000001800554bc f i libucrt:output.obj
 0001:00054738       ?public_stream@__crt_stdio_stream@@QEBAPEAU_iobuf@@XZ 0000000180055738 f i libucrt:output.obj
 0001:0005473c       ?set_flag@?$output_processor@DV?$stream_output_adapter@D@__crt_stdio_output@@V?$format_validation_base@DV?$stream_output_adapter@D@__crt_stdio_output@@@2@@__crt_stdio_output@@AEAAXI@Z 000000018005573c f i libucrt:output.obj
 0001:00054740       ?set_flag@?$output_processor@DV?$stream_output_adapter@D@__crt_stdio_output@@V?$positional_parameter_base@DV?$stream_output_adapter@D@__crt_stdio_output@@@2@@__crt_stdio_output@@AEAAXI@Z 0000000180055740 f i libucrt:output.obj
 0001:00054744       ?set_flag@?$output_processor@DV?$stream_output_adapter@D@__crt_stdio_output@@V?$standard_base@DV?$stream_output_adapter@D@__crt_stdio_output@@@2@@__crt_stdio_output@@AEAAXI@Z 0000000180055744 f i libucrt:output.obj
 0001:00054748       ?set_flag@?$output_processor@DV?$string_output_adapter@D@__crt_stdio_output@@V?$format_validation_base@DV?$string_output_adapter@D@__crt_stdio_output@@@2@@__crt_stdio_output@@AEAAXI@Z 0000000180055748 f i libucrt:output.obj
 0001:0005474c       ?set_flag@?$output_processor@DV?$string_output_adapter@D@__crt_stdio_output@@V?$positional_parameter_base@DV?$string_output_adapter@D@__crt_stdio_output@@@2@@__crt_stdio_output@@AEAAXI@Z 000000018005574c f i libucrt:output.obj
 0001:00054750       ?set_flag@?$output_processor@DV?$string_output_adapter@D@__crt_stdio_output@@V?$standard_base@DV?$string_output_adapter@D@__crt_stdio_output@@@2@@__crt_stdio_output@@AEAAXI@Z 0000000180055750 f i libucrt:output.obj
 0001:00054754       ?set_flag@?$output_processor@_WV?$stream_output_adapter@_W@__crt_stdio_output@@V?$format_validation_base@_WV?$stream_output_adapter@_W@__crt_stdio_output@@@2@@__crt_stdio_output@@AEAAXI@Z 0000000180055754 f i libucrt:output.obj
 0001:00054758       ?set_flag@?$output_processor@_WV?$stream_output_adapter@_W@__crt_stdio_output@@V?$positional_parameter_base@_WV?$stream_output_adapter@_W@__crt_stdio_output@@@2@@__crt_stdio_output@@AEAAXI@Z 0000000180055758 f i libucrt:output.obj
 0001:0005475c       ?set_flag@?$output_processor@_WV?$stream_output_adapter@_W@__crt_stdio_output@@V?$standard_base@_WV?$stream_output_adapter@_W@__crt_stdio_output@@@2@@__crt_stdio_output@@AEAAXI@Z 000000018005575c f i libucrt:output.obj
 0001:00054760       ?set_flag@?$output_processor@_WV?$string_output_adapter@_W@__crt_stdio_output@@V?$format_validation_base@_WV?$string_output_adapter@_W@__crt_stdio_output@@@2@@__crt_stdio_output@@AEAAXI@Z 0000000180055760 f i libucrt:output.obj
 0001:00054764       ?set_flag@?$output_processor@_WV?$string_output_adapter@_W@__crt_stdio_output@@V?$positional_parameter_base@_WV?$string_output_adapter@_W@__crt_stdio_output@@@2@@__crt_stdio_output@@AEAAXI@Z 0000000180055764 f i libucrt:output.obj
 0001:00054768       ?set_flag@?$output_processor@_WV?$string_output_adapter@_W@__crt_stdio_output@@V?$standard_base@_WV?$string_output_adapter@_W@__crt_stdio_output@@@2@@__crt_stdio_output@@AEAAXI@Z 0000000180055768 f i libucrt:output.obj
 0001:0005476c       ?should_format@?$positional_parameter_base@DV?$stream_output_adapter@D@__crt_stdio_output@@@__crt_stdio_output@@IEAA_NXZ 000000018005576c f i libucrt:output.obj
 0001:00054784       ?should_format@?$positional_parameter_base@DV?$string_output_adapter@D@__crt_stdio_output@@@__crt_stdio_output@@IEAA_NXZ 0000000180055784 f i libucrt:output.obj
 0001:0005479c       ?should_format@?$positional_parameter_base@_WV?$stream_output_adapter@_W@__crt_stdio_output@@@__crt_stdio_output@@IEAA_NXZ 000000018005579c f i libucrt:output.obj
 0001:000547b4       ?should_format@?$positional_parameter_base@_WV?$string_output_adapter@_W@__crt_stdio_output@@@__crt_stdio_output@@IEAA_NXZ 00000001800557b4 f i libucrt:output.obj
 0001:000547cc       ?should_format@?$standard_base@DV?$stream_output_adapter@D@__crt_stdio_output@@@__crt_stdio_output@@IEAA_NXZ 00000001800557cc f i libucrt:output.obj
 0001:000547d0       ?should_format@?$standard_base@DV?$string_output_adapter@D@__crt_stdio_output@@@__crt_stdio_output@@IEAA_NXZ 00000001800557d0 f i libucrt:output.obj
 0001:000547d4       ?should_format@?$standard_base@_WV?$stream_output_adapter@_W@__crt_stdio_output@@@__crt_stdio_output@@IEAA_NXZ 00000001800557d4 f i libucrt:output.obj
 0001:000547d8       ?should_format@?$standard_base@_WV?$string_output_adapter@_W@__crt_stdio_output@@@__crt_stdio_output@@IEAA_NXZ 00000001800557d8 f i libucrt:output.obj
 0001:000547dc       ?should_skip_normal_state_processing@?$positional_parameter_base@DV?$stream_output_adapter@D@__crt_stdio_output@@@__crt_stdio_output@@IEAA_NXZ 00000001800557dc f i libucrt:output.obj
 0001:00054804       ?should_skip_normal_state_processing@?$positional_parameter_base@DV?$string_output_adapter@D@__crt_stdio_output@@@__crt_stdio_output@@IEAA_NXZ 0000000180055804 f i libucrt:output.obj
 0001:0005482c       ?should_skip_normal_state_processing@?$positional_parameter_base@_WV?$stream_output_adapter@_W@__crt_stdio_output@@@__crt_stdio_output@@IEAA_NXZ 000000018005582c f i libucrt:output.obj
 0001:00054854       ?should_skip_normal_state_processing@?$positional_parameter_base@_WV?$string_output_adapter@_W@__crt_stdio_output@@@__crt_stdio_output@@IEAA_NXZ 0000000180055854 f i libucrt:output.obj
 0001:0005487c       ?should_skip_normal_state_processing@?$standard_base@DV?$stream_output_adapter@D@__crt_stdio_output@@@__crt_stdio_output@@IEAA_NXZ 000000018005587c f i libucrt:output.obj
 0001:00054880       ?should_skip_normal_state_processing@?$standard_base@DV?$string_output_adapter@D@__crt_stdio_output@@@__crt_stdio_output@@IEAA_NXZ 0000000180055880 f i libucrt:output.obj
 0001:00054884       ?should_skip_normal_state_processing@?$standard_base@_WV?$stream_output_adapter@_W@__crt_stdio_output@@@__crt_stdio_output@@IEAA_NXZ 0000000180055884 f i libucrt:output.obj
 0001:00054888       ?should_skip_normal_state_processing@?$standard_base@_WV?$string_output_adapter@_W@__crt_stdio_output@@@__crt_stdio_output@@IEAA_NXZ 0000000180055888 f i libucrt:output.obj
 0001:0005488c       ?should_skip_type_state_output@?$positional_parameter_base@DV?$stream_output_adapter@D@__crt_stdio_output@@@__crt_stdio_output@@IEBA_NXZ 000000018005588c f i libucrt:output.obj
 0001:000548a8       ?should_skip_type_state_output@?$positional_parameter_base@DV?$string_output_adapter@D@__crt_stdio_output@@@__crt_stdio_output@@IEBA_NXZ 00000001800558a8 f i libucrt:output.obj
 0001:000548c4       ?should_skip_type_state_output@?$positional_parameter_base@_WV?$stream_output_adapter@_W@__crt_stdio_output@@@__crt_stdio_output@@IEBA_NXZ 00000001800558c4 f i libucrt:output.obj
 0001:000548e0       ?should_skip_type_state_output@?$positional_parameter_base@_WV?$string_output_adapter@_W@__crt_stdio_output@@@__crt_stdio_output@@IEBA_NXZ 00000001800558e0 f i libucrt:output.obj
 0001:000548fc       ?should_skip_type_state_output@?$standard_base@DV?$stream_output_adapter@D@__crt_stdio_output@@@__crt_stdio_output@@IEBA_NXZ 00000001800558fc f i libucrt:output.obj
 0001:00054900       ?should_skip_type_state_output@?$standard_base@DV?$string_output_adapter@D@__crt_stdio_output@@@__crt_stdio_output@@IEBA_NXZ 0000000180055900 f i libucrt:output.obj
 0001:00054904       ?should_skip_type_state_output@?$standard_base@_WV?$stream_output_adapter@_W@__crt_stdio_output@@@__crt_stdio_output@@IEBA_NXZ 0000000180055904 f i libucrt:output.obj
 0001:00054908       ?should_skip_type_state_output@?$standard_base@_WV?$string_output_adapter@_W@__crt_stdio_output@@@__crt_stdio_output@@IEBA_NXZ 0000000180055908 f i libucrt:output.obj
 0001:0005490c       ?state_case_dot@?$output_processor@DV?$stream_output_adapter@D@__crt_stdio_output@@V?$format_validation_base@DV?$stream_output_adapter@D@__crt_stdio_output@@@2@@__crt_stdio_output@@AEAA_NXZ 000000018005590c f i libucrt:output.obj
 0001:00054914       ?state_case_dot@?$output_processor@DV?$stream_output_adapter@D@__crt_stdio_output@@V?$positional_parameter_base@DV?$stream_output_adapter@D@__crt_stdio_output@@@2@@__crt_stdio_output@@AEAA_NXZ 0000000180055914 f i libucrt:output.obj
 0001:0005491c       ?state_case_dot@?$output_processor@DV?$stream_output_adapter@D@__crt_stdio_output@@V?$standard_base@DV?$stream_output_adapter@D@__crt_stdio_output@@@2@@__crt_stdio_output@@AEAA_NXZ 000000018005591c f i libucrt:output.obj
 0001:00054924       ?state_case_dot@?$output_processor@DV?$string_output_adapter@D@__crt_stdio_output@@V?$format_validation_base@DV?$string_output_adapter@D@__crt_stdio_output@@@2@@__crt_stdio_output@@AEAA_NXZ 0000000180055924 f i libucrt:output.obj
 0001:0005492c       ?state_case_dot@?$output_processor@DV?$string_output_adapter@D@__crt_stdio_output@@V?$positional_parameter_base@DV?$string_output_adapter@D@__crt_stdio_output@@@2@@__crt_stdio_output@@AEAA_NXZ 000000018005592c f i libucrt:output.obj
 0001:00054934       ?state_case_dot@?$output_processor@DV?$string_output_adapter@D@__crt_stdio_output@@V?$standard_base@DV?$string_output_adapter@D@__crt_stdio_output@@@2@@__crt_stdio_output@@AEAA_NXZ 0000000180055934 f i libucrt:output.obj
 0001:0005493c       ?state_case_dot@?$output_processor@_WV?$stream_output_adapter@_W@__crt_stdio_output@@V?$format_validation_base@_WV?$stream_output_adapter@_W@__crt_stdio_output@@@2@@__crt_stdio_output@@AEAA_NXZ 000000018005593c f i libucrt:output.obj
 0001:00054944       ?state_case_dot@?$output_processor@_WV?$stream_output_adapter@_W@__crt_stdio_output@@V?$positional_parameter_base@_WV?$stream_output_adapter@_W@__crt_stdio_output@@@2@@__crt_stdio_output@@AEAA_NXZ 0000000180055944 f i libucrt:output.obj
 0001:0005494c       ?state_case_dot@?$output_processor@_WV?$stream_output_adapter@_W@__crt_stdio_output@@V?$standard_base@_WV?$stream_output_adapter@_W@__crt_stdio_output@@@2@@__crt_stdio_output@@AEAA_NXZ 000000018005594c f i libucrt:output.obj
 0001:00054954       ?state_case_dot@?$output_processor@_WV?$string_output_adapter@_W@__crt_stdio_output@@V?$format_validation_base@_WV?$string_output_adapter@_W@__crt_stdio_output@@@2@@__crt_stdio_output@@AEAA_NXZ 0000000180055954 f i libucrt:output.obj
 0001:0005495c       ?state_case_dot@?$output_processor@_WV?$string_output_adapter@_W@__crt_stdio_output@@V?$positional_parameter_base@_WV?$string_output_adapter@_W@__crt_stdio_output@@@2@@__crt_stdio_output@@AEAA_NXZ 000000018005595c f i libucrt:output.obj
 0001:00054964       ?state_case_dot@?$output_processor@_WV?$string_output_adapter@_W@__crt_stdio_output@@V?$standard_base@_WV?$string_output_adapter@_W@__crt_stdio_output@@@2@@__crt_stdio_output@@AEAA_NXZ 0000000180055964 f i libucrt:output.obj
 0001:0005496c       ?state_case_flag@?$output_processor@DV?$stream_output_adapter@D@__crt_stdio_output@@V?$format_validation_base@DV?$stream_output_adapter@D@__crt_stdio_output@@@2@@__crt_stdio_output@@AEAA_NXZ 000000018005596c f i libucrt:output.obj
 0001:000549a4       ?state_case_flag@?$output_processor@DV?$stream_output_adapter@D@__crt_stdio_output@@V?$positional_parameter_base@DV?$stream_output_adapter@D@__crt_stdio_output@@@2@@__crt_stdio_output@@AEAA_NXZ 00000001800559a4 f i libucrt:output.obj
 0001:000549dc       ?state_case_flag@?$output_processor@DV?$stream_output_adapter@D@__crt_stdio_output@@V?$standard_base@DV?$stream_output_adapter@D@__crt_stdio_output@@@2@@__crt_stdio_output@@AEAA_NXZ 00000001800559dc f i libucrt:output.obj
 0001:00054a14       ?state_case_flag@?$output_processor@DV?$string_output_adapter@D@__crt_stdio_output@@V?$format_validation_base@DV?$string_output_adapter@D@__crt_stdio_output@@@2@@__crt_stdio_output@@AEAA_NXZ 0000000180055a14 f i libucrt:output.obj
 0001:00054a4c       ?state_case_flag@?$output_processor@DV?$string_output_adapter@D@__crt_stdio_output@@V?$positional_parameter_base@DV?$string_output_adapter@D@__crt_stdio_output@@@2@@__crt_stdio_output@@AEAA_NXZ 0000000180055a4c f i libucrt:output.obj
 0001:00054a84       ?state_case_flag@?$output_processor@DV?$string_output_adapter@D@__crt_stdio_output@@V?$standard_base@DV?$string_output_adapter@D@__crt_stdio_output@@@2@@__crt_stdio_output@@AEAA_NXZ 0000000180055a84 f i libucrt:output.obj
 0001:00054abc       ?state_case_flag@?$output_processor@_WV?$stream_output_adapter@_W@__crt_stdio_output@@V?$format_validation_base@_WV?$stream_output_adapter@_W@__crt_stdio_output@@@2@@__crt_stdio_output@@AEAA_NXZ 0000000180055abc f i libucrt:output.obj
 0001:00054af8       ?state_case_flag@?$output_processor@_WV?$stream_output_adapter@_W@__crt_stdio_output@@V?$positional_parameter_base@_WV?$stream_output_adapter@_W@__crt_stdio_output@@@2@@__crt_stdio_output@@AEAA_NXZ 0000000180055af8 f i libucrt:output.obj
 0001:00054b34       ?state_case_flag@?$output_processor@_WV?$stream_output_adapter@_W@__crt_stdio_output@@V?$standard_base@_WV?$stream_output_adapter@_W@__crt_stdio_output@@@2@@__crt_stdio_output@@AEAA_NXZ 0000000180055b34 f i libucrt:output.obj
 0001:00054b70       ?state_case_flag@?$output_processor@_WV?$string_output_adapter@_W@__crt_stdio_output@@V?$format_validation_base@_WV?$string_output_adapter@_W@__crt_stdio_output@@@2@@__crt_stdio_output@@AEAA_NXZ 0000000180055b70 f i libucrt:output.obj
 0001:00054bac       ?state_case_flag@?$output_processor@_WV?$string_output_adapter@_W@__crt_stdio_output@@V?$positional_parameter_base@_WV?$string_output_adapter@_W@__crt_stdio_output@@@2@@__crt_stdio_output@@AEAA_NXZ 0000000180055bac f i libucrt:output.obj
 0001:00054be8       ?state_case_flag@?$output_processor@_WV?$string_output_adapter@_W@__crt_stdio_output@@V?$standard_base@_WV?$string_output_adapter@_W@__crt_stdio_output@@@2@@__crt_stdio_output@@AEAA_NXZ 0000000180055be8 f i libucrt:output.obj
 0001:00054c24       ?state_case_normal@?$output_processor@DV?$stream_output_adapter@D@__crt_stdio_output@@V?$format_validation_base@DV?$stream_output_adapter@D@__crt_stdio_output@@@2@@__crt_stdio_output@@AEAA_NXZ 0000000180055c24 f i libucrt:output.obj
 0001:00054c94       ?state_case_normal@?$output_processor@DV?$stream_output_adapter@D@__crt_stdio_output@@V?$positional_parameter_base@DV?$stream_output_adapter@D@__crt_stdio_output@@@2@@__crt_stdio_output@@AEAA_NXZ 0000000180055c94 f i libucrt:output.obj
 0001:00054d2c       ?state_case_normal@?$output_processor@DV?$stream_output_adapter@D@__crt_stdio_output@@V?$standard_base@DV?$stream_output_adapter@D@__crt_stdio_output@@@2@@__crt_stdio_output@@AEAA_NXZ 0000000180055d2c f i libucrt:output.obj
 0001:00054d9c       ?state_case_normal@?$output_processor@DV?$string_output_adapter@D@__crt_stdio_output@@V?$format_validation_base@DV?$string_output_adapter@D@__crt_stdio_output@@@2@@__crt_stdio_output@@AEAA_NXZ 0000000180055d9c f i libucrt:output.obj
 0001:00054e10       ?state_case_normal@?$output_processor@DV?$string_output_adapter@D@__crt_stdio_output@@V?$positional_parameter_base@DV?$string_output_adapter@D@__crt_stdio_output@@@2@@__crt_stdio_output@@AEAA_NXZ 0000000180055e10 f i libucrt:output.obj
 0001:00054eac       ?state_case_normal@?$output_processor@DV?$string_output_adapter@D@__crt_stdio_output@@V?$standard_base@DV?$string_output_adapter@D@__crt_stdio_output@@@2@@__crt_stdio_output@@AEAA_NXZ 0000000180055eac f i libucrt:output.obj
 0001:00054f20       ?state_case_normal@?$output_processor@_WV?$stream_output_adapter@_W@__crt_stdio_output@@V?$format_validation_base@_WV?$stream_output_adapter@_W@__crt_stdio_output@@@2@@__crt_stdio_output@@AEAA_NXZ 0000000180055f20 f i libucrt:output.obj
 0001:00054f78       ?state_case_normal@?$output_processor@_WV?$stream_output_adapter@_W@__crt_stdio_output@@V?$positional_parameter_base@_WV?$stream_output_adapter@_W@__crt_stdio_output@@@2@@__crt_stdio_output@@AEAA_NXZ 0000000180055f78 f i libucrt:output.obj
 0001:00054ff8       ?state_case_normal@?$output_processor@_WV?$stream_output_adapter@_W@__crt_stdio_output@@V?$standard_base@_WV?$stream_output_adapter@_W@__crt_stdio_output@@@2@@__crt_stdio_output@@AEAA_NXZ 0000000180055ff8 f i libucrt:output.obj
 0001:00055050       ?state_case_normal@?$output_processor@_WV?$string_output_adapter@_W@__crt_stdio_output@@V?$format_validation_base@_WV?$string_output_adapter@_W@__crt_stdio_output@@@2@@__crt_stdio_output@@AEAA_NXZ 0000000180056050 f i libucrt:output.obj
 0001:000550a4       ?state_case_normal@?$output_processor@_WV?$string_output_adapter@_W@__crt_stdio_output@@V?$positional_parameter_base@_WV?$string_output_adapter@_W@__crt_stdio_output@@@2@@__crt_stdio_output@@AEAA_NXZ 00000001800560a4 f i libucrt:output.obj
 0001:00055118       ?state_case_normal@?$output_processor@_WV?$string_output_adapter@_W@__crt_stdio_output@@V?$standard_base@_WV?$string_output_adapter@_W@__crt_stdio_output@@@2@@__crt_stdio_output@@AEAA_NXZ 0000000180056118 f i libucrt:output.obj
 0001:0005516c       ?state_case_normal_common@?$output_processor@DV?$stream_output_adapter@D@__crt_stdio_output@@V?$format_validation_base@DV?$stream_output_adapter@D@__crt_stdio_output@@@2@@__crt_stdio_output@@AEAA_NXZ 000000018005616c f i libucrt:output.obj
 0001:000551c8       ?state_case_normal_common@?$output_processor@DV?$stream_output_adapter@D@__crt_stdio_output@@V?$positional_parameter_base@DV?$stream_output_adapter@D@__crt_stdio_output@@@2@@__crt_stdio_output@@AEAA_NXZ 00000001800561c8 f i libucrt:output.obj
 0001:00055224       ?state_case_normal_common@?$output_processor@DV?$stream_output_adapter@D@__crt_stdio_output@@V?$standard_base@DV?$stream_output_adapter@D@__crt_stdio_output@@@2@@__crt_stdio_output@@AEAA_NXZ 0000000180056224 f i libucrt:output.obj
 0001:00055280       ?state_case_normal_common@?$output_processor@DV?$string_output_adapter@D@__crt_stdio_output@@V?$format_validation_base@DV?$string_output_adapter@D@__crt_stdio_output@@@2@@__crt_stdio_output@@AEAA_NXZ 0000000180056280 f i libucrt:output.obj
 0001:000552e0       ?state_case_normal_common@?$output_processor@DV?$string_output_adapter@D@__crt_stdio_output@@V?$positional_parameter_base@DV?$string_output_adapter@D@__crt_stdio_output@@@2@@__crt_stdio_output@@AEAA_NXZ 00000001800562e0 f i libucrt:output.obj
 0001:00055340       ?state_case_normal_common@?$output_processor@DV?$string_output_adapter@D@__crt_stdio_output@@V?$standard_base@DV?$string_output_adapter@D@__crt_stdio_output@@@2@@__crt_stdio_output@@AEAA_NXZ 0000000180056340 f i libucrt:output.obj
 0001:000553a0       ?state_case_normal_common@?$output_processor@_WV?$stream_output_adapter@_W@__crt_stdio_output@@V?$format_validation_base@_WV?$stream_output_adapter@_W@__crt_stdio_output@@@2@@__crt_stdio_output@@AEAA_NXZ 00000001800563a0 f i libucrt:output.obj
 0001:000553f8       ?state_case_normal_common@?$output_processor@_WV?$stream_output_adapter@_W@__crt_stdio_output@@V?$positional_parameter_base@_WV?$stream_output_adapter@_W@__crt_stdio_output@@@2@@__crt_stdio_output@@AEAA_NXZ 00000001800563f8 f i libucrt:output.obj
 0001:00055450       ?state_case_normal_common@?$output_processor@_WV?$stream_output_adapter@_W@__crt_stdio_output@@V?$standard_base@_WV?$stream_output_adapter@_W@__crt_stdio_output@@@2@@__crt_stdio_output@@AEAA_NXZ 0000000180056450 f i libucrt:output.obj
 0001:000554a8       ?state_case_normal_common@?$output_processor@_WV?$string_output_adapter@_W@__crt_stdio_output@@V?$format_validation_base@_WV?$string_output_adapter@_W@__crt_stdio_output@@@2@@__crt_stdio_output@@AEAA_NXZ 00000001800564a8 f i libucrt:output.obj
 0001:000554fc       ?state_case_normal_common@?$output_processor@_WV?$string_output_adapter@_W@__crt_stdio_output@@V?$positional_parameter_base@_WV?$string_output_adapter@_W@__crt_stdio_output@@@2@@__crt_stdio_output@@AEAA_NXZ 00000001800564fc f i libucrt:output.obj
 0001:00055550       ?state_case_normal_common@?$output_processor@_WV?$string_output_adapter@_W@__crt_stdio_output@@V?$standard_base@_WV?$string_output_adapter@_W@__crt_stdio_output@@@2@@__crt_stdio_output@@AEAA_NXZ 0000000180056550 f i libucrt:output.obj
 0001:000555a4       ?state_case_normal_tchar@?$output_processor@DV?$stream_output_adapter@D@__crt_stdio_output@@V?$format_validation_base@DV?$stream_output_adapter@D@__crt_stdio_output@@@2@@__crt_stdio_output@@AEAA_ND@Z 00000001800565a4 f i libucrt:output.obj
 0001:00055638       ?state_case_normal_tchar@?$output_processor@DV?$stream_output_adapter@D@__crt_stdio_output@@V?$positional_parameter_base@DV?$stream_output_adapter@D@__crt_stdio_output@@@2@@__crt_stdio_output@@AEAA_ND@Z 0000000180056638 f i libucrt:output.obj
 0001:000556cc       ?state_case_normal_tchar@?$output_processor@DV?$stream_output_adapter@D@__crt_stdio_output@@V?$standard_base@DV?$stream_output_adapter@D@__crt_stdio_output@@@2@@__crt_stdio_output@@AEAA_ND@Z 00000001800566cc f i libucrt:output.obj
 0001:00055760       ?state_case_normal_tchar@?$output_processor@DV?$string_output_adapter@D@__crt_stdio_output@@V?$format_validation_base@DV?$string_output_adapter@D@__crt_stdio_output@@@2@@__crt_stdio_output@@AEAA_ND@Z 0000000180056760 f i libucrt:output.obj
 0001:000557f8       ?state_case_normal_tchar@?$output_processor@DV?$string_output_adapter@D@__crt_stdio_output@@V?$positional_parameter_base@DV?$string_output_adapter@D@__crt_stdio_output@@@2@@__crt_stdio_output@@AEAA_ND@Z 00000001800567f8 f i libucrt:output.obj
 0001:00055890       ?state_case_normal_tchar@?$output_processor@DV?$string_output_adapter@D@__crt_stdio_output@@V?$standard_base@DV?$string_output_adapter@D@__crt_stdio_output@@@2@@__crt_stdio_output@@AEAA_ND@Z 0000000180056890 f i libucrt:output.obj
 0001:00055928       ?state_case_normal_tchar@?$output_processor@_WV?$stream_output_adapter@_W@__crt_stdio_output@@V?$format_validation_base@_WV?$stream_output_adapter@_W@__crt_stdio_output@@@2@@__crt_stdio_output@@AEAA_N_W@Z 0000000180056928 f i libucrt:output.obj
 0001:00055930       ?state_case_normal_tchar@?$output_processor@_WV?$stream_output_adapter@_W@__crt_stdio_output@@V?$positional_parameter_base@_WV?$stream_output_adapter@_W@__crt_stdio_output@@@2@@__crt_stdio_output@@AEAA_N_W@Z 0000000180056930 f i libucrt:output.obj
 0001:00055938       ?state_case_normal_tchar@?$output_processor@_WV?$stream_output_adapter@_W@__crt_stdio_output@@V?$standard_base@_WV?$stream_output_adapter@_W@__crt_stdio_output@@@2@@__crt_stdio_output@@AEAA_N_W@Z 0000000180056938 f i libucrt:output.obj
 0001:00055940       ?state_case_normal_tchar@?$output_processor@_WV?$string_output_adapter@_W@__crt_stdio_output@@V?$format_validation_base@_WV?$string_output_adapter@_W@__crt_stdio_output@@@2@@__crt_stdio_output@@AEAA_N_W@Z 0000000180056940 f i libucrt:output.obj
 0001:00055948       ?state_case_normal_tchar@?$output_processor@_WV?$string_output_adapter@_W@__crt_stdio_output@@V?$positional_parameter_base@_WV?$string_output_adapter@_W@__crt_stdio_output@@@2@@__crt_stdio_output@@AEAA_N_W@Z 0000000180056948 f i libucrt:output.obj
 0001:00055950       ?state_case_normal_tchar@?$output_processor@_WV?$string_output_adapter@_W@__crt_stdio_output@@V?$standard_base@_WV?$string_output_adapter@_W@__crt_stdio_output@@@2@@__crt_stdio_output@@AEAA_N_W@Z 0000000180056950 f i libucrt:output.obj
 0001:00055958       ?state_case_percent@?$output_processor@DV?$stream_output_adapter@D@__crt_stdio_output@@V?$format_validation_base@DV?$stream_output_adapter@D@__crt_stdio_output@@@2@@__crt_stdio_output@@AEAA_NXZ 0000000180056958 f i libucrt:output.obj
 0001:00055970       ?state_case_percent@?$output_processor@DV?$stream_output_adapter@D@__crt_stdio_output@@V?$positional_parameter_base@DV?$stream_output_adapter@D@__crt_stdio_output@@@2@@__crt_stdio_output@@AEAA_NXZ 0000000180056970 f i libucrt:output.obj
 0001:00055988       ?state_case_percent@?$output_processor@DV?$stream_output_adapter@D@__crt_stdio_output@@V?$standard_base@DV?$stream_output_adapter@D@__crt_stdio_output@@@2@@__crt_stdio_output@@AEAA_NXZ 0000000180056988 f i libucrt:output.obj
 0001:000559a0       ?state_case_percent@?$output_processor@DV?$string_output_adapter@D@__crt_stdio_output@@V?$format_validation_base@DV?$string_output_adapter@D@__crt_stdio_output@@@2@@__crt_stdio_output@@AEAA_NXZ 00000001800569a0 f i libucrt:output.obj
 0001:000559b8       ?state_case_percent@?$output_processor@DV?$string_output_adapter@D@__crt_stdio_output@@V?$positional_parameter_base@DV?$string_output_adapter@D@__crt_stdio_output@@@2@@__crt_stdio_output@@AEAA_NXZ 00000001800569b8 f i libucrt:output.obj
 0001:000559d0       ?state_case_percent@?$output_processor@DV?$string_output_adapter@D@__crt_stdio_output@@V?$standard_base@DV?$string_output_adapter@D@__crt_stdio_output@@@2@@__crt_stdio_output@@AEAA_NXZ 00000001800569d0 f i libucrt:output.obj
 0001:000559e8       ?state_case_percent@?$output_processor@_WV?$stream_output_adapter@_W@__crt_stdio_output@@V?$format_validation_base@_WV?$stream_output_adapter@_W@__crt_stdio_output@@@2@@__crt_stdio_output@@AEAA_NXZ 00000001800569e8 f i libucrt:output.obj
 0001:00055a00       ?state_case_percent@?$output_processor@_WV?$stream_output_adapter@_W@__crt_stdio_output@@V?$positional_parameter_base@_WV?$stream_output_adapter@_W@__crt_stdio_output@@@2@@__crt_stdio_output@@AEAA_NXZ 0000000180056a00 f i libucrt:output.obj
 0001:00055a18       ?state_case_percent@?$output_processor@_WV?$stream_output_adapter@_W@__crt_stdio_output@@V?$standard_base@_WV?$stream_output_adapter@_W@__crt_stdio_output@@@2@@__crt_stdio_output@@AEAA_NXZ 0000000180056a18 f i libucrt:output.obj
 0001:00055a30       ?state_case_percent@?$output_processor@_WV?$string_output_adapter@_W@__crt_stdio_output@@V?$format_validation_base@_WV?$string_output_adapter@_W@__crt_stdio_output@@@2@@__crt_stdio_output@@AEAA_NXZ 0000000180056a30 f i libucrt:output.obj
 0001:00055a48       ?state_case_percent@?$output_processor@_WV?$string_output_adapter@_W@__crt_stdio_output@@V?$positional_parameter_base@_WV?$string_output_adapter@_W@__crt_stdio_output@@@2@@__crt_stdio_output@@AEAA_NXZ 0000000180056a48 f i libucrt:output.obj
 0001:00055a60       ?state_case_percent@?$output_processor@_WV?$string_output_adapter@_W@__crt_stdio_output@@V?$standard_base@_WV?$string_output_adapter@_W@__crt_stdio_output@@@2@@__crt_stdio_output@@AEAA_NXZ 0000000180056a60 f i libucrt:output.obj
 0001:00055a78       ?state_case_precision@?$output_processor@DV?$stream_output_adapter@D@__crt_stdio_output@@V?$format_validation_base@DV?$stream_output_adapter@D@__crt_stdio_output@@@2@@__crt_stdio_output@@AEAA_NXZ 0000000180056a78 f i libucrt:output.obj
 0001:00055aa8       ?state_case_precision@?$output_processor@DV?$stream_output_adapter@D@__crt_stdio_output@@V?$positional_parameter_base@DV?$stream_output_adapter@D@__crt_stdio_output@@@2@@__crt_stdio_output@@AEAA_NXZ 0000000180056aa8 f i libucrt:output.obj
 0001:00055af4       ?state_case_precision@?$output_processor@DV?$stream_output_adapter@D@__crt_stdio_output@@V?$standard_base@DV?$stream_output_adapter@D@__crt_stdio_output@@@2@@__crt_stdio_output@@AEAA_NXZ 0000000180056af4 f i libucrt:output.obj
 0001:00055b24       ?state_case_precision@?$output_processor@DV?$string_output_adapter@D@__crt_stdio_output@@V?$format_validation_base@DV?$string_output_adapter@D@__crt_stdio_output@@@2@@__crt_stdio_output@@AEAA_NXZ 0000000180056b24 f i libucrt:output.obj
 0001:00055b54       ?state_case_precision@?$output_processor@DV?$string_output_adapter@D@__crt_stdio_output@@V?$positional_parameter_base@DV?$string_output_adapter@D@__crt_stdio_output@@@2@@__crt_stdio_output@@AEAA_NXZ 0000000180056b54 f i libucrt:output.obj
 0001:00055ba0       ?state_case_precision@?$output_processor@DV?$string_output_adapter@D@__crt_stdio_output@@V?$standard_base@DV?$string_output_adapter@D@__crt_stdio_output@@@2@@__crt_stdio_output@@AEAA_NXZ 0000000180056ba0 f i libucrt:output.obj
 0001:00055bd0       ?state_case_precision@?$output_processor@_WV?$stream_output_adapter@_W@__crt_stdio_output@@V?$format_validation_base@_WV?$stream_output_adapter@_W@__crt_stdio_output@@@2@@__crt_stdio_output@@AEAA_NXZ 0000000180056bd0 f i libucrt:output.obj
 0001:00055c00       ?state_case_precision@?$output_processor@_WV?$stream_output_adapter@_W@__crt_stdio_output@@V?$positional_parameter_base@_WV?$stream_output_adapter@_W@__crt_stdio_output@@@2@@__crt_stdio_output@@AEAA_NXZ 0000000180056c00 f i libucrt:output.obj
 0001:00055c4c       ?state_case_precision@?$output_processor@_WV?$stream_output_adapter@_W@__crt_stdio_output@@V?$standard_base@_WV?$stream_output_adapter@_W@__crt_stdio_output@@@2@@__crt_stdio_output@@AEAA_NXZ 0000000180056c4c f i libucrt:output.obj
 0001:00055c7c       ?state_case_precision@?$output_processor@_WV?$string_output_adapter@_W@__crt_stdio_output@@V?$format_validation_base@_WV?$string_output_adapter@_W@__crt_stdio_output@@@2@@__crt_stdio_output@@AEAA_NXZ 0000000180056c7c f i libucrt:output.obj
 0001:00055cac       ?state_case_precision@?$output_processor@_WV?$string_output_adapter@_W@__crt_stdio_output@@V?$positional_parameter_base@_WV?$string_output_adapter@_W@__crt_stdio_output@@@2@@__crt_stdio_output@@AEAA_NXZ 0000000180056cac f i libucrt:output.obj
 0001:00055cf8       ?state_case_precision@?$output_processor@_WV?$string_output_adapter@_W@__crt_stdio_output@@V?$standard_base@_WV?$string_output_adapter@_W@__crt_stdio_output@@@2@@__crt_stdio_output@@AEAA_NXZ 0000000180056cf8 f i libucrt:output.obj
 0001:00055d28       ?state_case_size@?$output_processor@DV?$stream_output_adapter@D@__crt_stdio_output@@V?$format_validation_base@DV?$stream_output_adapter@D@__crt_stdio_output@@@2@@__crt_stdio_output@@AEAA_NXZ 0000000180056d28 f i libucrt:output.obj
 0001:00055ea4       ?state_case_size@?$output_processor@DV?$stream_output_adapter@D@__crt_stdio_output@@V?$positional_parameter_base@DV?$stream_output_adapter@D@__crt_stdio_output@@@2@@__crt_stdio_output@@AEAA_NXZ 0000000180056ea4 f i libucrt:output.obj
 0001:00056020       ?state_case_size@?$output_processor@DV?$stream_output_adapter@D@__crt_stdio_output@@V?$standard_base@DV?$stream_output_adapter@D@__crt_stdio_output@@@2@@__crt_stdio_output@@AEAA_NXZ 0000000180057020 f i libucrt:output.obj
 0001:0005619c       ?state_case_size@?$output_processor@DV?$string_output_adapter@D@__crt_stdio_output@@V?$format_validation_base@DV?$string_output_adapter@D@__crt_stdio_output@@@2@@__crt_stdio_output@@AEAA_NXZ 000000018005719c f i libucrt:output.obj
 0001:00056318       ?state_case_size@?$output_processor@DV?$string_output_adapter@D@__crt_stdio_output@@V?$positional_parameter_base@DV?$string_output_adapter@D@__crt_stdio_output@@@2@@__crt_stdio_output@@AEAA_NXZ 0000000180057318 f i libucrt:output.obj
 0001:00056494       ?state_case_size@?$output_processor@DV?$string_output_adapter@D@__crt_stdio_output@@V?$standard_base@DV?$string_output_adapter@D@__crt_stdio_output@@@2@@__crt_stdio_output@@AEAA_NXZ 0000000180057494 f i libucrt:output.obj
 0001:00056610       ?state_case_size@?$output_processor@_WV?$stream_output_adapter@_W@__crt_stdio_output@@V?$format_validation_base@_WV?$stream_output_adapter@_W@__crt_stdio_output@@@2@@__crt_stdio_output@@AEAA_NXZ 0000000180057610 f i libucrt:output.obj
 0001:000567b4       ?state_case_size@?$output_processor@_WV?$stream_output_adapter@_W@__crt_stdio_output@@V?$positional_parameter_base@_WV?$stream_output_adapter@_W@__crt_stdio_output@@@2@@__crt_stdio_output@@AEAA_NXZ 00000001800577b4 f i libucrt:output.obj
 0001:00056958       ?state_case_size@?$output_processor@_WV?$stream_output_adapter@_W@__crt_stdio_output@@V?$standard_base@_WV?$stream_output_adapter@_W@__crt_stdio_output@@@2@@__crt_stdio_output@@AEAA_NXZ 0000000180057958 f i libucrt:output.obj
 0001:00056afc       ?state_case_size@?$output_processor@_WV?$string_output_adapter@_W@__crt_stdio_output@@V?$format_validation_base@_WV?$string_output_adapter@_W@__crt_stdio_output@@@2@@__crt_stdio_output@@AEAA_NXZ 0000000180057afc f i libucrt:output.obj
 0001:00056ca0       ?state_case_size@?$output_processor@_WV?$string_output_adapter@_W@__crt_stdio_output@@V?$positional_parameter_base@_WV?$string_output_adapter@_W@__crt_stdio_output@@@2@@__crt_stdio_output@@AEAA_NXZ 0000000180057ca0 f i libucrt:output.obj
 0001:00056e44       ?state_case_size@?$output_processor@_WV?$string_output_adapter@_W@__crt_stdio_output@@V?$standard_base@_WV?$string_output_adapter@_W@__crt_stdio_output@@@2@@__crt_stdio_output@@AEAA_NXZ 0000000180057e44 f i libucrt:output.obj
 0001:00056fe8       ?state_case_type@?$output_processor@DV?$stream_output_adapter@D@__crt_stdio_output@@V?$format_validation_base@DV?$stream_output_adapter@D@__crt_stdio_output@@@2@@__crt_stdio_output@@AEAA_NXZ 0000000180057fe8 f i libucrt:output.obj
 0001:00057264       ?state_case_type@?$output_processor@DV?$stream_output_adapter@D@__crt_stdio_output@@V?$positional_parameter_base@DV?$stream_output_adapter@D@__crt_stdio_output@@@2@@__crt_stdio_output@@AEAA_NXZ 0000000180058264 f i libucrt:output.obj
 0001:000574f4       ?state_case_type@?$output_processor@DV?$stream_output_adapter@D@__crt_stdio_output@@V?$standard_base@DV?$stream_output_adapter@D@__crt_stdio_output@@@2@@__crt_stdio_output@@AEAA_NXZ 00000001800584f4 f i libucrt:output.obj
 0001:00057770       ?state_case_type@?$output_processor@DV?$string_output_adapter@D@__crt_stdio_output@@V?$format_validation_base@DV?$string_output_adapter@D@__crt_stdio_output@@@2@@__crt_stdio_output@@AEAA_NXZ 0000000180058770 f i libucrt:output.obj
 0001:000579ec       ?state_case_type@?$output_processor@DV?$string_output_adapter@D@__crt_stdio_output@@V?$positional_parameter_base@DV?$string_output_adapter@D@__crt_stdio_output@@@2@@__crt_stdio_output@@AEAA_NXZ 00000001800589ec f i libucrt:output.obj
 0001:00057c7c       ?state_case_type@?$output_processor@DV?$string_output_adapter@D@__crt_stdio_output@@V?$standard_base@DV?$string_output_adapter@D@__crt_stdio_output@@@2@@__crt_stdio_output@@AEAA_NXZ 0000000180058c7c f i libucrt:output.obj
 0001:00057ef8       ?state_case_type@?$output_processor@_WV?$stream_output_adapter@_W@__crt_stdio_output@@V?$format_validation_base@_WV?$stream_output_adapter@_W@__crt_stdio_output@@@2@@__crt_stdio_output@@AEAA_NXZ 0000000180058ef8 f i libucrt:output.obj
 0001:000581c4       ?state_case_type@?$output_processor@_WV?$stream_output_adapter@_W@__crt_stdio_output@@V?$positional_parameter_base@_WV?$stream_output_adapter@_W@__crt_stdio_output@@@2@@__crt_stdio_output@@AEAA_NXZ 00000001800591c4 f i libucrt:output.obj
 0001:000584a4       ?state_case_type@?$output_processor@_WV?$stream_output_adapter@_W@__crt_stdio_output@@V?$standard_base@_WV?$stream_output_adapter@_W@__crt_stdio_output@@@2@@__crt_stdio_output@@AEAA_NXZ 00000001800594a4 f i libucrt:output.obj
 0001:00058770       ?state_case_type@?$output_processor@_WV?$string_output_adapter@_W@__crt_stdio_output@@V?$format_validation_base@_WV?$string_output_adapter@_W@__crt_stdio_output@@@2@@__crt_stdio_output@@AEAA_NXZ 0000000180059770 f i libucrt:output.obj
 0001:00058a3c       ?state_case_type@?$output_processor@_WV?$string_output_adapter@_W@__crt_stdio_output@@V?$positional_parameter_base@_WV?$string_output_adapter@_W@__crt_stdio_output@@@2@@__crt_stdio_output@@AEAA_NXZ 0000000180059a3c f i libucrt:output.obj
 0001:00058d1c       ?state_case_type@?$output_processor@_WV?$string_output_adapter@_W@__crt_stdio_output@@V?$standard_base@_WV?$string_output_adapter@_W@__crt_stdio_output@@@2@@__crt_stdio_output@@AEAA_NXZ 0000000180059d1c f i libucrt:output.obj
 0001:00058fe8       ?state_case_width@?$output_processor@DV?$stream_output_adapter@D@__crt_stdio_output@@V?$format_validation_base@DV?$stream_output_adapter@D@__crt_stdio_output@@@2@@__crt_stdio_output@@AEAA_NXZ 0000000180059fe8 f i libucrt:output.obj
 0001:00059018       ?state_case_width@?$output_processor@DV?$stream_output_adapter@D@__crt_stdio_output@@V?$positional_parameter_base@DV?$stream_output_adapter@D@__crt_stdio_output@@@2@@__crt_stdio_output@@AEAA_NXZ 000000018005a018 f i libucrt:output.obj
 0001:00059068       ?state_case_width@?$output_processor@DV?$stream_output_adapter@D@__crt_stdio_output@@V?$standard_base@DV?$stream_output_adapter@D@__crt_stdio_output@@@2@@__crt_stdio_output@@AEAA_NXZ 000000018005a068 f i libucrt:output.obj
 0001:00059098       ?state_case_width@?$output_processor@DV?$string_output_adapter@D@__crt_stdio_output@@V?$format_validation_base@DV?$string_output_adapter@D@__crt_stdio_output@@@2@@__crt_stdio_output@@AEAA_NXZ 000000018005a098 f i libucrt:output.obj
 0001:000590c8       ?state_case_width@?$output_processor@DV?$string_output_adapter@D@__crt_stdio_output@@V?$positional_parameter_base@DV?$string_output_adapter@D@__crt_stdio_output@@@2@@__crt_stdio_output@@AEAA_NXZ 000000018005a0c8 f i libucrt:output.obj
 0001:00059118       ?state_case_width@?$output_processor@DV?$string_output_adapter@D@__crt_stdio_output@@V?$standard_base@DV?$string_output_adapter@D@__crt_stdio_output@@@2@@__crt_stdio_output@@AEAA_NXZ 000000018005a118 f i libucrt:output.obj
 0001:00059148       ?state_case_width@?$output_processor@_WV?$stream_output_adapter@_W@__crt_stdio_output@@V?$format_validation_base@_WV?$stream_output_adapter@_W@__crt_stdio_output@@@2@@__crt_stdio_output@@AEAA_NXZ 000000018005a148 f i libucrt:output.obj
 0001:00059178       ?state_case_width@?$output_processor@_WV?$stream_output_adapter@_W@__crt_stdio_output@@V?$positional_parameter_base@_WV?$stream_output_adapter@_W@__crt_stdio_output@@@2@@__crt_stdio_output@@AEAA_NXZ 000000018005a178 f i libucrt:output.obj
 0001:000591cc       ?state_case_width@?$output_processor@_WV?$stream_output_adapter@_W@__crt_stdio_output@@V?$standard_base@_WV?$stream_output_adapter@_W@__crt_stdio_output@@@2@@__crt_stdio_output@@AEAA_NXZ 000000018005a1cc f i libucrt:output.obj
 0001:000591fc       ?state_case_width@?$output_processor@_WV?$string_output_adapter@_W@__crt_stdio_output@@V?$format_validation_base@_WV?$string_output_adapter@_W@__crt_stdio_output@@@2@@__crt_stdio_output@@AEAA_NXZ 000000018005a1fc f i libucrt:output.obj
 0001:0005922c       ?state_case_width@?$output_processor@_WV?$string_output_adapter@_W@__crt_stdio_output@@V?$positional_parameter_base@_WV?$string_output_adapter@_W@__crt_stdio_output@@@2@@__crt_stdio_output@@AEAA_NXZ 000000018005a22c f i libucrt:output.obj
 0001:00059280       ?state_case_width@?$output_processor@_WV?$string_output_adapter@_W@__crt_stdio_output@@V?$standard_base@_WV?$string_output_adapter@_W@__crt_stdio_output@@@2@@__crt_stdio_output@@AEAA_NXZ 000000018005a280 f i libucrt:output.obj
 0001:000592b0       ?state_count@?$format_validation_base@DV?$stream_output_adapter@D@__crt_stdio_output@@@__crt_stdio_output@@KAIXZ 000000018005a2b0 f i libucrt:output.obj
 0001:000592b8       ?state_count@?$format_validation_base@DV?$string_output_adapter@D@__crt_stdio_output@@@__crt_stdio_output@@KAIXZ 000000018005a2b8 f i libucrt:output.obj
 0001:000592c0       ?state_count@?$format_validation_base@_WV?$stream_output_adapter@_W@__crt_stdio_output@@@__crt_stdio_output@@KAIXZ 000000018005a2c0 f i libucrt:output.obj
 0001:000592c8       ?state_count@?$format_validation_base@_WV?$string_output_adapter@_W@__crt_stdio_output@@@__crt_stdio_output@@KAIXZ 000000018005a2c8 f i libucrt:output.obj
 0001:000592d0       ?state_count@?$standard_base@DV?$stream_output_adapter@D@__crt_stdio_output@@@__crt_stdio_output@@KAIXZ 000000018005a2d0 f i libucrt:output.obj
 0001:000592d8       ?state_count@?$standard_base@DV?$string_output_adapter@D@__crt_stdio_output@@@__crt_stdio_output@@KAIXZ 000000018005a2d8 f i libucrt:output.obj
 0001:000592e0       ?state_count@?$standard_base@_WV?$stream_output_adapter@_W@__crt_stdio_output@@@__crt_stdio_output@@KAIXZ 000000018005a2e0 f i libucrt:output.obj
 0001:000592e8       ?state_count@?$standard_base@_WV?$string_output_adapter@_W@__crt_stdio_output@@@__crt_stdio_output@@KAIXZ 000000018005a2e8 f i libucrt:output.obj
 0001:000592f0       ?state_transition_table@?$format_validation_base@DV?$stream_output_adapter@D@__crt_stdio_output@@@__crt_stdio_output@@KAPEBEXZ 000000018005a2f0 f i libucrt:output.obj
 0001:000592f8       ?state_transition_table@?$format_validation_base@DV?$string_output_adapter@D@__crt_stdio_output@@@__crt_stdio_output@@KAPEBEXZ 000000018005a2f8 f i libucrt:output.obj
 0001:00059300       ?state_transition_table@?$format_validation_base@_WV?$stream_output_adapter@_W@__crt_stdio_output@@@__crt_stdio_output@@KAPEBEXZ 000000018005a300 f i libucrt:output.obj
 0001:00059308       ?state_transition_table@?$format_validation_base@_WV?$string_output_adapter@_W@__crt_stdio_output@@@__crt_stdio_output@@KAPEBEXZ 000000018005a308 f i libucrt:output.obj
 0001:00059310       ?state_transition_table@?$standard_base@DV?$stream_output_adapter@D@__crt_stdio_output@@@__crt_stdio_output@@KAPEBEXZ 000000018005a310 f i libucrt:output.obj
 0001:00059318       ?state_transition_table@?$standard_base@DV?$string_output_adapter@D@__crt_stdio_output@@@__crt_stdio_output@@KAPEBEXZ 000000018005a318 f i libucrt:output.obj
 0001:00059320       ?state_transition_table@?$standard_base@_WV?$stream_output_adapter@_W@__crt_stdio_output@@@__crt_stdio_output@@KAPEBEXZ 000000018005a320 f i libucrt:output.obj
 0001:00059328       ?state_transition_table@?$standard_base@_WV?$string_output_adapter@_W@__crt_stdio_output@@@__crt_stdio_output@@KAPEBEXZ 000000018005a328 f i libucrt:output.obj
 0001:00059330       ?to_integer_size@__crt_stdio_output@@YA_KW4length_modifier@1@@Z 000000018005a330 f i libucrt:output.obj
 0001:0005937c       ?type_case_X@?$output_processor@DV?$stream_output_adapter@D@__crt_stdio_output@@V?$format_validation_base@DV?$stream_output_adapter@D@__crt_stdio_output@@@2@@__crt_stdio_output@@AEAA_NXZ 000000018005a37c f i libucrt:output.obj
 0001:0005938c       ?type_case_X@?$output_processor@DV?$stream_output_adapter@D@__crt_stdio_output@@V?$positional_parameter_base@DV?$stream_output_adapter@D@__crt_stdio_output@@@2@@__crt_stdio_output@@AEAA_NXZ 000000018005a38c f i libucrt:output.obj
 0001:0005939c       ?type_case_X@?$output_processor@DV?$stream_output_adapter@D@__crt_stdio_output@@V?$standard_base@DV?$stream_output_adapter@D@__crt_stdio_output@@@2@@__crt_stdio_output@@AEAA_NXZ 000000018005a39c f i libucrt:output.obj
 0001:000593ac       ?type_case_X@?$output_processor@DV?$string_output_adapter@D@__crt_stdio_output@@V?$format_validation_base@DV?$string_output_adapter@D@__crt_stdio_output@@@2@@__crt_stdio_output@@AEAA_NXZ 000000018005a3ac f i libucrt:output.obj
 0001:000593bc       ?type_case_X@?$output_processor@DV?$string_output_adapter@D@__crt_stdio_output@@V?$positional_parameter_base@DV?$string_output_adapter@D@__crt_stdio_output@@@2@@__crt_stdio_output@@AEAA_NXZ 000000018005a3bc f i libucrt:output.obj
 0001:000593cc       ?type_case_X@?$output_processor@DV?$string_output_adapter@D@__crt_stdio_output@@V?$standard_base@DV?$string_output_adapter@D@__crt_stdio_output@@@2@@__crt_stdio_output@@AEAA_NXZ 000000018005a3cc f i libucrt:output.obj
 0001:000593dc       ?type_case_X@?$output_processor@_WV?$stream_output_adapter@_W@__crt_stdio_output@@V?$format_validation_base@_WV?$stream_output_adapter@_W@__crt_stdio_output@@@2@@__crt_stdio_output@@AEAA_NXZ 000000018005a3dc f i libucrt:output.obj
 0001:000593ec       ?type_case_X@?$output_processor@_WV?$stream_output_adapter@_W@__crt_stdio_output@@V?$positional_parameter_base@_WV?$stream_output_adapter@_W@__crt_stdio_output@@@2@@__crt_stdio_output@@AEAA_NXZ 000000018005a3ec f i libucrt:output.obj
 0001:000593fc       ?type_case_X@?$output_processor@_WV?$stream_output_adapter@_W@__crt_stdio_output@@V?$standard_base@_WV?$stream_output_adapter@_W@__crt_stdio_output@@@2@@__crt_stdio_output@@AEAA_NXZ 000000018005a3fc f i libucrt:output.obj
 0001:0005940c       ?type_case_X@?$output_processor@_WV?$string_output_adapter@_W@__crt_stdio_output@@V?$format_validation_base@_WV?$string_output_adapter@_W@__crt_stdio_output@@@2@@__crt_stdio_output@@AEAA_NXZ 000000018005a40c f i libucrt:output.obj
 0001:0005941c       ?type_case_X@?$output_processor@_WV?$string_output_adapter@_W@__crt_stdio_output@@V?$positional_parameter_base@_WV?$string_output_adapter@_W@__crt_stdio_output@@@2@@__crt_stdio_output@@AEAA_NXZ 000000018005a41c f i libucrt:output.obj
 0001:0005942c       ?type_case_X@?$output_processor@_WV?$string_output_adapter@_W@__crt_stdio_output@@V?$standard_base@_WV?$string_output_adapter@_W@__crt_stdio_output@@@2@@__crt_stdio_output@@AEAA_NXZ 000000018005a42c f i libucrt:output.obj
 0001:0005943c       ?type_case_Z@?$output_processor@DV?$stream_output_adapter@D@__crt_stdio_output@@V?$format_validation_base@DV?$stream_output_adapter@D@__crt_stdio_output@@@2@@__crt_stdio_output@@AEAA_NXZ 000000018005a43c f i libucrt:output.obj
 0001:000594bc       ?type_case_Z@?$output_processor@DV?$stream_output_adapter@D@__crt_stdio_output@@V?$positional_parameter_base@DV?$stream_output_adapter@D@__crt_stdio_output@@@2@@__crt_stdio_output@@AEAA_NXZ 000000018005a4bc f i libucrt:output.obj
 0001:00059558       ?type_case_Z@?$output_processor@DV?$stream_output_adapter@D@__crt_stdio_output@@V?$standard_base@DV?$stream_output_adapter@D@__crt_stdio_output@@@2@@__crt_stdio_output@@AEAA_NXZ 000000018005a558 f i libucrt:output.obj
 0001:000595d8       ?type_case_Z@?$output_processor@DV?$string_output_adapter@D@__crt_stdio_output@@V?$format_validation_base@DV?$string_output_adapter@D@__crt_stdio_output@@@2@@__crt_stdio_output@@AEAA_NXZ 000000018005a5d8 f i libucrt:output.obj
 0001:00059658       ?type_case_Z@?$output_processor@DV?$string_output_adapter@D@__crt_stdio_output@@V?$positional_parameter_base@DV?$string_output_adapter@D@__crt_stdio_output@@@2@@__crt_stdio_output@@AEAA_NXZ 000000018005a658 f i libucrt:output.obj
 0001:000596f4       ?type_case_Z@?$output_processor@DV?$string_output_adapter@D@__crt_stdio_output@@V?$standard_base@DV?$string_output_adapter@D@__crt_stdio_output@@@2@@__crt_stdio_output@@AEAA_NXZ 000000018005a6f4 f i libucrt:output.obj
 0001:00059774       ?type_case_Z@?$output_processor@_WV?$stream_output_adapter@_W@__crt_stdio_output@@V?$format_validation_base@_WV?$stream_output_adapter@_W@__crt_stdio_output@@@2@@__crt_stdio_output@@AEAA_NXZ 000000018005a774 f i libucrt:output.obj
 0001:000597f4       ?type_case_Z@?$output_processor@_WV?$stream_output_adapter@_W@__crt_stdio_output@@V?$positional_parameter_base@_WV?$stream_output_adapter@_W@__crt_stdio_output@@@2@@__crt_stdio_output@@AEAA_NXZ 000000018005a7f4 f i libucrt:output.obj
 0001:00059894       ?type_case_Z@?$output_processor@_WV?$stream_output_adapter@_W@__crt_stdio_output@@V?$standard_base@_WV?$stream_output_adapter@_W@__crt_stdio_output@@@2@@__crt_stdio_output@@AEAA_NXZ 000000018005a894 f i libucrt:output.obj
 0001:00059914       ?type_case_Z@?$output_processor@_WV?$string_output_adapter@_W@__crt_stdio_output@@V?$format_validation_base@_WV?$string_output_adapter@_W@__crt_stdio_output@@@2@@__crt_stdio_output@@AEAA_NXZ 000000018005a914 f i libucrt:output.obj
 0001:00059994       ?type_case_Z@?$output_processor@_WV?$string_output_adapter@_W@__crt_stdio_output@@V?$positional_parameter_base@_WV?$string_output_adapter@_W@__crt_stdio_output@@@2@@__crt_stdio_output@@AEAA_NXZ 000000018005a994 f i libucrt:output.obj
 0001:00059a34       ?type_case_Z@?$output_processor@_WV?$string_output_adapter@_W@__crt_stdio_output@@V?$standard_base@_WV?$string_output_adapter@_W@__crt_stdio_output@@@2@@__crt_stdio_output@@AEAA_NXZ 000000018005aa34 f i libucrt:output.obj
 0001:00059ab4       ?type_case_a@?$output_processor@DV?$stream_output_adapter@D@__crt_stdio_output@@V?$format_validation_base@DV?$stream_output_adapter@D@__crt_stdio_output@@@2@@__crt_stdio_output@@AEAA_NXZ 000000018005aab4 f i libucrt:output.obj
 0001:00059cd0       ?type_case_a@?$output_processor@DV?$stream_output_adapter@D@__crt_stdio_output@@V?$positional_parameter_base@DV?$stream_output_adapter@D@__crt_stdio_output@@@2@@__crt_stdio_output@@AEAA_NXZ 000000018005acd0 f i libucrt:output.obj
 0001:00059f1c       ?type_case_a@?$output_processor@DV?$stream_output_adapter@D@__crt_stdio_output@@V?$standard_base@DV?$stream_output_adapter@D@__crt_stdio_output@@@2@@__crt_stdio_output@@AEAA_NXZ 000000018005af1c f i libucrt:output.obj
 0001:0005a138       ?type_case_a@?$output_processor@DV?$string_output_adapter@D@__crt_stdio_output@@V?$format_validation_base@DV?$string_output_adapter@D@__crt_stdio_output@@@2@@__crt_stdio_output@@AEAA_NXZ 000000018005b138 f i libucrt:output.obj
 0001:0005a354       ?type_case_a@?$output_processor@DV?$string_output_adapter@D@__crt_stdio_output@@V?$positional_parameter_base@DV?$string_output_adapter@D@__crt_stdio_output@@@2@@__crt_stdio_output@@AEAA_NXZ 000000018005b354 f i libucrt:output.obj
 0001:0005a5a0       ?type_case_a@?$output_processor@DV?$string_output_adapter@D@__crt_stdio_output@@V?$standard_base@DV?$string_output_adapter@D@__crt_stdio_output@@@2@@__crt_stdio_output@@AEAA_NXZ 000000018005b5a0 f i libucrt:output.obj
 0001:0005a7bc       ?type_case_a@?$output_processor@_WV?$stream_output_adapter@_W@__crt_stdio_output@@V?$format_validation_base@_WV?$stream_output_adapter@_W@__crt_stdio_output@@@2@@__crt_stdio_output@@AEAA_NXZ 000000018005b7bc f i libucrt:output.obj
 0001:0005aa00       ?type_case_a@?$output_processor@_WV?$stream_output_adapter@_W@__crt_stdio_output@@V?$positional_parameter_base@_WV?$stream_output_adapter@_W@__crt_stdio_output@@@2@@__crt_stdio_output@@AEAA_NXZ 000000018005ba00 f i libucrt:output.obj
 0001:0005ac70       ?type_case_a@?$output_processor@_WV?$stream_output_adapter@_W@__crt_stdio_output@@V?$standard_base@_WV?$stream_output_adapter@_W@__crt_stdio_output@@@2@@__crt_stdio_output@@AEAA_NXZ 000000018005bc70 f i libucrt:output.obj
 0001:0005aeb4       ?type_case_a@?$output_processor@_WV?$string_output_adapter@_W@__crt_stdio_output@@V?$format_validation_base@_WV?$string_output_adapter@_W@__crt_stdio_output@@@2@@__crt_stdio_output@@AEAA_NXZ 000000018005beb4 f i libucrt:output.obj
 0001:0005b0f8       ?type_case_a@?$output_processor@_WV?$string_output_adapter@_W@__crt_stdio_output@@V?$positional_parameter_base@_WV?$string_output_adapter@_W@__crt_stdio_output@@@2@@__crt_stdio_output@@AEAA_NXZ 000000018005c0f8 f i libucrt:output.obj
 0001:0005b368       ?type_case_a@?$output_processor@_WV?$string_output_adapter@_W@__crt_stdio_output@@V?$standard_base@_WV?$string_output_adapter@_W@__crt_stdio_output@@@2@@__crt_stdio_output@@AEAA_NXZ 000000018005c368 f i libucrt:output.obj
 0001:0005b5ac       ?type_case_c@?$output_processor@DV?$stream_output_adapter@D@__crt_stdio_output@@V?$format_validation_base@DV?$stream_output_adapter@D@__crt_stdio_output@@@2@@__crt_stdio_output@@AEAA_NXZ 000000018005c5ac f i libucrt:output.obj
 0001:0005b5b4       ?type_case_c@?$output_processor@DV?$stream_output_adapter@D@__crt_stdio_output@@V?$positional_parameter_base@DV?$stream_output_adapter@D@__crt_stdio_output@@@2@@__crt_stdio_output@@AEAA_NXZ 000000018005c5b4 f i libucrt:output.obj
 0001:0005b5bc       ?type_case_c@?$output_processor@DV?$stream_output_adapter@D@__crt_stdio_output@@V?$standard_base@DV?$stream_output_adapter@D@__crt_stdio_output@@@2@@__crt_stdio_output@@AEAA_NXZ 000000018005c5bc f i libucrt:output.obj
 0001:0005b5c4       ?type_case_c@?$output_processor@DV?$string_output_adapter@D@__crt_stdio_output@@V?$format_validation_base@DV?$string_output_adapter@D@__crt_stdio_output@@@2@@__crt_stdio_output@@AEAA_NXZ 000000018005c5c4 f i libucrt:output.obj
 0001:0005b5cc       ?type_case_c@?$output_processor@DV?$string_output_adapter@D@__crt_stdio_output@@V?$positional_parameter_base@DV?$string_output_adapter@D@__crt_stdio_output@@@2@@__crt_stdio_output@@AEAA_NXZ 000000018005c5cc f i libucrt:output.obj
 0001:0005b5d4       ?type_case_c@?$output_processor@DV?$string_output_adapter@D@__crt_stdio_output@@V?$standard_base@DV?$string_output_adapter@D@__crt_stdio_output@@@2@@__crt_stdio_output@@AEAA_NXZ 000000018005c5d4 f i libucrt:output.obj
 0001:0005b5dc       ?type_case_c@?$output_processor@_WV?$stream_output_adapter@_W@__crt_stdio_output@@V?$format_validation_base@_WV?$stream_output_adapter@_W@__crt_stdio_output@@@2@@__crt_stdio_output@@AEAA_NXZ 000000018005c5dc f i libucrt:output.obj
 0001:0005b5e4       ?type_case_c@?$output_processor@_WV?$stream_output_adapter@_W@__crt_stdio_output@@V?$positional_parameter_base@_WV?$stream_output_adapter@_W@__crt_stdio_output@@@2@@__crt_stdio_output@@AEAA_NXZ 000000018005c5e4 f i libucrt:output.obj
 0001:0005b5ec       ?type_case_c@?$output_processor@_WV?$stream_output_adapter@_W@__crt_stdio_output@@V?$standard_base@_WV?$stream_output_adapter@_W@__crt_stdio_output@@@2@@__crt_stdio_output@@AEAA_NXZ 000000018005c5ec f i libucrt:output.obj
 0001:0005b5f4       ?type_case_c@?$output_processor@_WV?$string_output_adapter@_W@__crt_stdio_output@@V?$format_validation_base@_WV?$string_output_adapter@_W@__crt_stdio_output@@@2@@__crt_stdio_output@@AEAA_NXZ 000000018005c5f4 f i libucrt:output.obj
 0001:0005b5fc       ?type_case_c@?$output_processor@_WV?$string_output_adapter@_W@__crt_stdio_output@@V?$positional_parameter_base@_WV?$string_output_adapter@_W@__crt_stdio_output@@@2@@__crt_stdio_output@@AEAA_NXZ 000000018005c5fc f i libucrt:output.obj
 0001:0005b604       ?type_case_c@?$output_processor@_WV?$string_output_adapter@_W@__crt_stdio_output@@V?$standard_base@_WV?$string_output_adapter@_W@__crt_stdio_output@@@2@@__crt_stdio_output@@AEAA_NXZ 000000018005c604 f i libucrt:output.obj
 0001:0005b60c       ?type_case_c_tchar@?$output_processor@DV?$stream_output_adapter@D@__crt_stdio_output@@V?$format_validation_base@DV?$stream_output_adapter@D@__crt_stdio_output@@@2@@__crt_stdio_output@@AEAA_ND@Z 000000018005c60c f i libucrt:output.obj
 0001:0005b6c0       ?type_case_c_tchar@?$output_processor@DV?$stream_output_adapter@D@__crt_stdio_output@@V?$positional_parameter_base@DV?$stream_output_adapter@D@__crt_stdio_output@@@2@@__crt_stdio_output@@AEAA_ND@Z 000000018005c6c0 f i libucrt:output.obj
 0001:0005b7b8       ?type_case_c_tchar@?$output_processor@DV?$stream_output_adapter@D@__crt_stdio_output@@V?$standard_base@DV?$stream_output_adapter@D@__crt_stdio_output@@@2@@__crt_stdio_output@@AEAA_ND@Z 000000018005c7b8 f i libucrt:output.obj
 0001:0005b86c       ?type_case_c_tchar@?$output_processor@DV?$string_output_adapter@D@__crt_stdio_output@@V?$format_validation_base@DV?$string_output_adapter@D@__crt_stdio_output@@@2@@__crt_stdio_output@@AEAA_ND@Z 000000018005c86c f i libucrt:output.obj
 0001:0005b920       ?type_case_c_tchar@?$output_processor@DV?$string_output_adapter@D@__crt_stdio_output@@V?$positional_parameter_base@DV?$string_output_adapter@D@__crt_stdio_output@@@2@@__crt_stdio_output@@AEAA_ND@Z 000000018005c920 f i libucrt:output.obj
 0001:0005ba18       ?type_case_c_tchar@?$output_processor@DV?$string_output_adapter@D@__crt_stdio_output@@V?$standard_base@DV?$string_output_adapter@D@__crt_stdio_output@@@2@@__crt_stdio_output@@AEAA_ND@Z 000000018005ca18 f i libucrt:output.obj
 0001:0005bacc       ?type_case_c_tchar@?$output_processor@_WV?$stream_output_adapter@_W@__crt_stdio_output@@V?$format_validation_base@_WV?$stream_output_adapter@_W@__crt_stdio_output@@@2@@__crt_stdio_output@@AEAA_N_W@Z 000000018005cacc f i libucrt:output.obj
 0001:0005bb74       ?type_case_c_tchar@?$output_processor@_WV?$stream_output_adapter@_W@__crt_stdio_output@@V?$positional_parameter_base@_WV?$stream_output_adapter@_W@__crt_stdio_output@@@2@@__crt_stdio_output@@AEAA_N_W@Z 000000018005cb74 f i libucrt:output.obj
 0001:0005bc40       ?type_case_c_tchar@?$output_processor@_WV?$stream_output_adapter@_W@__crt_stdio_output@@V?$standard_base@_WV?$stream_output_adapter@_W@__crt_stdio_output@@@2@@__crt_stdio_output@@AEAA_N_W@Z 000000018005cc40 f i libucrt:output.obj
 0001:0005bce8       ?type_case_c_tchar@?$output_processor@_WV?$string_output_adapter@_W@__crt_stdio_output@@V?$format_validation_base@_WV?$string_output_adapter@_W@__crt_stdio_output@@@2@@__crt_stdio_output@@AEAA_N_W@Z 000000018005cce8 f i libucrt:output.obj
 0001:0005bd90       ?type_case_c_tchar@?$output_processor@_WV?$string_output_adapter@_W@__crt_stdio_output@@V?$positional_parameter_base@_WV?$string_output_adapter@_W@__crt_stdio_output@@@2@@__crt_stdio_output@@AEAA_N_W@Z 000000018005cd90 f i libucrt:output.obj
 0001:0005be5c       ?type_case_c_tchar@?$output_processor@_WV?$string_output_adapter@_W@__crt_stdio_output@@V?$standard_base@_WV?$string_output_adapter@_W@__crt_stdio_output@@@2@@__crt_stdio_output@@AEAA_N_W@Z 000000018005ce5c f i libucrt:output.obj
 0001:0005bf04       ?type_case_d@?$output_processor@DV?$stream_output_adapter@D@__crt_stdio_output@@V?$format_validation_base@DV?$stream_output_adapter@D@__crt_stdio_output@@@2@@__crt_stdio_output@@AEAA_NXZ 000000018005cf04 f i libucrt:output.obj
 0001:0005bf14       ?type_case_d@?$output_processor@DV?$stream_output_adapter@D@__crt_stdio_output@@V?$positional_parameter_base@DV?$stream_output_adapter@D@__crt_stdio_output@@@2@@__crt_stdio_output@@AEAA_NXZ 000000018005cf14 f i libucrt:output.obj
 0001:0005bf24       ?type_case_d@?$output_processor@DV?$stream_output_adapter@D@__crt_stdio_output@@V?$standard_base@DV?$stream_output_adapter@D@__crt_stdio_output@@@2@@__crt_stdio_output@@AEAA_NXZ 000000018005cf24 f i libucrt:output.obj
 0001:0005bf34       ?type_case_d@?$output_processor@DV?$string_output_adapter@D@__crt_stdio_output@@V?$format_validation_base@DV?$string_output_adapter@D@__crt_stdio_output@@@2@@__crt_stdio_output@@AEAA_NXZ 000000018005cf34 f i libucrt:output.obj
 0001:0005bf44       ?type_case_d@?$output_processor@DV?$string_output_adapter@D@__crt_stdio_output@@V?$positional_parameter_base@DV?$string_output_adapter@D@__crt_stdio_output@@@2@@__crt_stdio_output@@AEAA_NXZ 000000018005cf44 f i libucrt:output.obj
 0001:0005bf54       ?type_case_d@?$output_processor@DV?$string_output_adapter@D@__crt_stdio_output@@V?$standard_base@DV?$string_output_adapter@D@__crt_stdio_output@@@2@@__crt_stdio_output@@AEAA_NXZ 000000018005cf54 f i libucrt:output.obj
 0001:0005bf64       ?type_case_d@?$output_processor@_WV?$stream_output_adapter@_W@__crt_stdio_output@@V?$format_validation_base@_WV?$stream_output_adapter@_W@__crt_stdio_output@@@2@@__crt_stdio_output@@AEAA_NXZ 000000018005cf64 f i libucrt:output.obj
 0001:0005bf74       ?type_case_d@?$output_processor@_WV?$stream_output_adapter@_W@__crt_stdio_output@@V?$positional_parameter_base@_WV?$stream_output_adapter@_W@__crt_stdio_output@@@2@@__crt_stdio_output@@AEAA_NXZ 000000018005cf74 f i libucrt:output.obj
 0001:0005bf84       ?type_case_d@?$output_processor@_WV?$stream_output_adapter@_W@__crt_stdio_output@@V?$standard_base@_WV?$stream_output_adapter@_W@__crt_stdio_output@@@2@@__crt_stdio_output@@AEAA_NXZ 000000018005cf84 f i libucrt:output.obj
 0001:0005bf94       ?type_case_d@?$output_processor@_WV?$string_output_adapter@_W@__crt_stdio_output@@V?$format_validation_base@_WV?$string_output_adapter@_W@__crt_stdio_output@@@2@@__crt_stdio_output@@AEAA_NXZ 000000018005cf94 f i libucrt:output.obj
 0001:0005bfa4       ?type_case_d@?$output_processor@_WV?$string_output_adapter@_W@__crt_stdio_output@@V?$positional_parameter_base@_WV?$string_output_adapter@_W@__crt_stdio_output@@@2@@__crt_stdio_output@@AEAA_NXZ 000000018005cfa4 f i libucrt:output.obj
 0001:0005bfb4       ?type_case_d@?$output_processor@_WV?$string_output_adapter@_W@__crt_stdio_output@@V?$standard_base@_WV?$string_output_adapter@_W@__crt_stdio_output@@@2@@__crt_stdio_output@@AEAA_NXZ 000000018005cfb4 f i libucrt:output.obj
 0001:0005bfc4       ?type_case_integer@?$output_processor@DV?$stream_output_adapter@D@__crt_stdio_output@@V?$format_validation_base@DV?$stream_output_adapter@D@__crt_stdio_output@@@2@@__crt_stdio_output@@AEAA_NI_N@Z 000000018005cfc4 f i libucrt:output.obj
 0001:0005c164       ?type_case_integer@?$output_processor@DV?$stream_output_adapter@D@__crt_stdio_output@@V?$positional_parameter_base@DV?$stream_output_adapter@D@__crt_stdio_output@@@2@@__crt_stdio_output@@AEAA_NI_N@Z 000000018005d164 f i libucrt:output.obj
 0001:0005c368       ?type_case_integer@?$output_processor@DV?$stream_output_adapter@D@__crt_stdio_output@@V?$standard_base@DV?$stream_output_adapter@D@__crt_stdio_output@@@2@@__crt_stdio_output@@AEAA_NI_N@Z 000000018005d368 f i libucrt:output.obj
 0001:0005c508       ?type_case_integer@?$output_processor@DV?$string_output_adapter@D@__crt_stdio_output@@V?$format_validation_base@DV?$string_output_adapter@D@__crt_stdio_output@@@2@@__crt_stdio_output@@AEAA_NI_N@Z 000000018005d508 f i libucrt:output.obj
 0001:0005c6a8       ?type_case_integer@?$output_processor@DV?$string_output_adapter@D@__crt_stdio_output@@V?$positional_parameter_base@DV?$string_output_adapter@D@__crt_stdio_output@@@2@@__crt_stdio_output@@AEAA_NI_N@Z 000000018005d6a8 f i libucrt:output.obj
 0001:0005c8ac       ?type_case_integer@?$output_processor@DV?$string_output_adapter@D@__crt_stdio_output@@V?$standard_base@DV?$string_output_adapter@D@__crt_stdio_output@@@2@@__crt_stdio_output@@AEAA_NI_N@Z 000000018005d8ac f i libucrt:output.obj
 0001:0005ca4c       ?type_case_integer@?$output_processor@_WV?$stream_output_adapter@_W@__crt_stdio_output@@V?$format_validation_base@_WV?$stream_output_adapter@_W@__crt_stdio_output@@@2@@__crt_stdio_output@@AEAA_NI_N@Z 000000018005da4c f i libucrt:output.obj
 0001:0005cbec       ?type_case_integer@?$output_processor@_WV?$stream_output_adapter@_W@__crt_stdio_output@@V?$positional_parameter_base@_WV?$stream_output_adapter@_W@__crt_stdio_output@@@2@@__crt_stdio_output@@AEAA_NI_N@Z 000000018005dbec f i libucrt:output.obj
 0001:0005cdf0       ?type_case_integer@?$output_processor@_WV?$stream_output_adapter@_W@__crt_stdio_output@@V?$standard_base@_WV?$stream_output_adapter@_W@__crt_stdio_output@@@2@@__crt_stdio_output@@AEAA_NI_N@Z 000000018005ddf0 f i libucrt:output.obj
 0001:0005cf90       ?type_case_integer@?$output_processor@_WV?$string_output_adapter@_W@__crt_stdio_output@@V?$format_validation_base@_WV?$string_output_adapter@_W@__crt_stdio_output@@@2@@__crt_stdio_output@@AEAA_NI_N@Z 000000018005df90 f i libucrt:output.obj
 0001:0005d130       ?type_case_integer@?$output_processor@_WV?$string_output_adapter@_W@__crt_stdio_output@@V?$positional_parameter_base@_WV?$string_output_adapter@_W@__crt_stdio_output@@@2@@__crt_stdio_output@@AEAA_NI_N@Z 000000018005e130 f i libucrt:output.obj
 0001:0005d334       ?type_case_integer@?$output_processor@_WV?$string_output_adapter@_W@__crt_stdio_output@@V?$standard_base@_WV?$string_output_adapter@_W@__crt_stdio_output@@@2@@__crt_stdio_output@@AEAA_NI_N@Z 000000018005e334 f i libucrt:output.obj
 0001:0005d4d4       ?type_case_n@?$output_processor@DV?$stream_output_adapter@D@__crt_stdio_output@@V?$format_validation_base@DV?$stream_output_adapter@D@__crt_stdio_output@@@2@@__crt_stdio_output@@AEAA_NXZ 000000018005e4d4 f i libucrt:output.obj
 0001:0005d5b0       ?type_case_n@?$output_processor@DV?$stream_output_adapter@D@__crt_stdio_output@@V?$positional_parameter_base@DV?$stream_output_adapter@D@__crt_stdio_output@@@2@@__crt_stdio_output@@AEAA_NXZ 000000018005e5b0 f i libucrt:output.obj
 0001:0005d6b4       ?type_case_n@?$output_processor@DV?$stream_output_adapter@D@__crt_stdio_output@@V?$standard_base@DV?$stream_output_adapter@D@__crt_stdio_output@@@2@@__crt_stdio_output@@AEAA_NXZ 000000018005e6b4 f i libucrt:output.obj
 0001:0005d790       ?type_case_n@?$output_processor@DV?$string_output_adapter@D@__crt_stdio_output@@V?$format_validation_base@DV?$string_output_adapter@D@__crt_stdio_output@@@2@@__crt_stdio_output@@AEAA_NXZ 000000018005e790 f i libucrt:output.obj
 0001:0005d86c       ?type_case_n@?$output_processor@DV?$string_output_adapter@D@__crt_stdio_output@@V?$positional_parameter_base@DV?$string_output_adapter@D@__crt_stdio_output@@@2@@__crt_stdio_output@@AEAA_NXZ 000000018005e86c f i libucrt:output.obj
 0001:0005d970       ?type_case_n@?$output_processor@DV?$string_output_adapter@D@__crt_stdio_output@@V?$standard_base@DV?$string_output_adapter@D@__crt_stdio_output@@@2@@__crt_stdio_output@@AEAA_NXZ 000000018005e970 f i libucrt:output.obj
 0001:0005da4c       ?type_case_n@?$output_processor@_WV?$stream_output_adapter@_W@__crt_stdio_output@@V?$format_validation_base@_WV?$stream_output_adapter@_W@__crt_stdio_output@@@2@@__crt_stdio_output@@AEAA_NXZ 000000018005ea4c f i libucrt:output.obj
 0001:0005db28       ?type_case_n@?$output_processor@_WV?$stream_output_adapter@_W@__crt_stdio_output@@V?$positional_parameter_base@_WV?$stream_output_adapter@_W@__crt_stdio_output@@@2@@__crt_stdio_output@@AEAA_NXZ 000000018005eb28 f i libucrt:output.obj
 0001:0005dc2c       ?type_case_n@?$output_processor@_WV?$stream_output_adapter@_W@__crt_stdio_output@@V?$standard_base@_WV?$stream_output_adapter@_W@__crt_stdio_output@@@2@@__crt_stdio_output@@AEAA_NXZ 000000018005ec2c f i libucrt:output.obj
 0001:0005dd08       ?type_case_n@?$output_processor@_WV?$string_output_adapter@_W@__crt_stdio_output@@V?$format_validation_base@_WV?$string_output_adapter@_W@__crt_stdio_output@@@2@@__crt_stdio_output@@AEAA_NXZ 000000018005ed08 f i libucrt:output.obj
 0001:0005dde4       ?type_case_n@?$output_processor@_WV?$string_output_adapter@_W@__crt_stdio_output@@V?$positional_parameter_base@_WV?$string_output_adapter@_W@__crt_stdio_output@@@2@@__crt_stdio_output@@AEAA_NXZ 000000018005ede4 f i libucrt:output.obj
 0001:0005dee8       ?type_case_n@?$output_processor@_WV?$string_output_adapter@_W@__crt_stdio_output@@V?$standard_base@_WV?$string_output_adapter@_W@__crt_stdio_output@@@2@@__crt_stdio_output@@AEAA_NXZ 000000018005eee8 f i libucrt:output.obj
 0001:0005dfc4       ?type_case_o@?$output_processor@DV?$stream_output_adapter@D@__crt_stdio_output@@V?$format_validation_base@DV?$stream_output_adapter@D@__crt_stdio_output@@@2@@__crt_stdio_output@@AEAA_NXZ 000000018005efc4 f i libucrt:output.obj
 0001:0005dfe4       ?type_case_o@?$output_processor@DV?$stream_output_adapter@D@__crt_stdio_output@@V?$positional_parameter_base@DV?$stream_output_adapter@D@__crt_stdio_output@@@2@@__crt_stdio_output@@AEAA_NXZ 000000018005efe4 f i libucrt:output.obj
 0001:0005e004       ?type_case_o@?$output_processor@DV?$stream_output_adapter@D@__crt_stdio_output@@V?$standard_base@DV?$stream_output_adapter@D@__crt_stdio_output@@@2@@__crt_stdio_output@@AEAA_NXZ 000000018005f004 f i libucrt:output.obj
 0001:0005e024       ?type_case_o@?$output_processor@DV?$string_output_adapter@D@__crt_stdio_output@@V?$format_validation_base@DV?$string_output_adapter@D@__crt_stdio_output@@@2@@__crt_stdio_output@@AEAA_NXZ 000000018005f024 f i libucrt:output.obj
 0001:0005e044       ?type_case_o@?$output_processor@DV?$string_output_adapter@D@__crt_stdio_output@@V?$positional_parameter_base@DV?$string_output_adapter@D@__crt_stdio_output@@@2@@__crt_stdio_output@@AEAA_NXZ 000000018005f044 f i libucrt:output.obj
 0001:0005e064       ?type_case_o@?$output_processor@DV?$string_output_adapter@D@__crt_stdio_output@@V?$standard_base@DV?$string_output_adapter@D@__crt_stdio_output@@@2@@__crt_stdio_output@@AEAA_NXZ 000000018005f064 f i libucrt:output.obj
 0001:0005e084       ?type_case_o@?$output_processor@_WV?$stream_output_adapter@_W@__crt_stdio_output@@V?$format_validation_base@_WV?$stream_output_adapter@_W@__crt_stdio_output@@@2@@__crt_stdio_output@@AEAA_NXZ 000000018005f084 f i libucrt:output.obj
 0001:0005e0a4       ?type_case_o@?$output_processor@_WV?$stream_output_adapter@_W@__crt_stdio_output@@V?$positional_parameter_base@_WV?$stream_output_adapter@_W@__crt_stdio_output@@@2@@__crt_stdio_output@@AEAA_NXZ 000000018005f0a4 f i libucrt:output.obj
 0001:0005e0c4       ?type_case_o@?$output_processor@_WV?$stream_output_adapter@_W@__crt_stdio_output@@V?$standard_base@_WV?$stream_output_adapter@_W@__crt_stdio_output@@@2@@__crt_stdio_output@@AEAA_NXZ 000000018005f0c4 f i libucrt:output.obj
 0001:0005e0e4       ?type_case_o@?$output_processor@_WV?$string_output_adapter@_W@__crt_stdio_output@@V?$format_validation_base@_WV?$string_output_adapter@_W@__crt_stdio_output@@@2@@__crt_stdio_output@@AEAA_NXZ 000000018005f0e4 f i libucrt:output.obj
 0001:0005e104       ?type_case_o@?$output_processor@_WV?$string_output_adapter@_W@__crt_stdio_output@@V?$positional_parameter_base@_WV?$string_output_adapter@_W@__crt_stdio_output@@@2@@__crt_stdio_output@@AEAA_NXZ 000000018005f104 f i libucrt:output.obj
 0001:0005e124       ?type_case_o@?$output_processor@_WV?$string_output_adapter@_W@__crt_stdio_output@@V?$standard_base@_WV?$string_output_adapter@_W@__crt_stdio_output@@@2@@__crt_stdio_output@@AEAA_NXZ 000000018005f124 f i libucrt:output.obj
 0001:0005e144       ?type_case_p@?$output_processor@DV?$stream_output_adapter@D@__crt_stdio_output@@V?$format_validation_base@DV?$stream_output_adapter@D@__crt_stdio_output@@@2@@__crt_stdio_output@@AEAA_NXZ 000000018005f144 f i libucrt:output.obj
 0001:0005e15c       ?type_case_p@?$output_processor@DV?$stream_output_adapter@D@__crt_stdio_output@@V?$positional_parameter_base@DV?$stream_output_adapter@D@__crt_stdio_output@@@2@@__crt_stdio_output@@AEAA_NXZ 000000018005f15c f i libucrt:output.obj
 0001:0005e174       ?type_case_p@?$output_processor@DV?$stream_output_adapter@D@__crt_stdio_output@@V?$standard_base@DV?$stream_output_adapter@D@__crt_stdio_output@@@2@@__crt_stdio_output@@AEAA_NXZ 000000018005f174 f i libucrt:output.obj
 0001:0005e18c       ?type_case_p@?$output_processor@DV?$string_output_adapter@D@__crt_stdio_output@@V?$format_validation_base@DV?$string_output_adapter@D@__crt_stdio_output@@@2@@__crt_stdio_output@@AEAA_NXZ 000000018005f18c f i libucrt:output.obj
 0001:0005e1a4       ?type_case_p@?$output_processor@DV?$string_output_adapter@D@__crt_stdio_output@@V?$positional_parameter_base@DV?$string_output_adapter@D@__crt_stdio_output@@@2@@__crt_stdio_output@@AEAA_NXZ 000000018005f1a4 f i libucrt:output.obj
 0001:0005e1bc       ?type_case_p@?$output_processor@DV?$string_output_adapter@D@__crt_stdio_output@@V?$standard_base@DV?$string_output_adapter@D@__crt_stdio_output@@@2@@__crt_stdio_output@@AEAA_NXZ 000000018005f1bc f i libucrt:output.obj
 0001:0005e1d4       ?type_case_p@?$output_processor@_WV?$stream_output_adapter@_W@__crt_stdio_output@@V?$format_validation_base@_WV?$stream_output_adapter@_W@__crt_stdio_output@@@2@@__crt_stdio_output@@AEAA_NXZ 000000018005f1d4 f i libucrt:output.obj
 0001:0005e1ec       ?type_case_p@?$output_processor@_WV?$stream_output_adapter@_W@__crt_stdio_output@@V?$positional_parameter_base@_WV?$stream_output_adapter@_W@__crt_stdio_output@@@2@@__crt_stdio_output@@AEAA_NXZ 000000018005f1ec f i libucrt:output.obj
 0001:0005e204       ?type_case_p@?$output_processor@_WV?$stream_output_adapter@_W@__crt_stdio_output@@V?$standard_base@_WV?$stream_output_adapter@_W@__crt_stdio_output@@@2@@__crt_stdio_output@@AEAA_NXZ 000000018005f204 f i libucrt:output.obj
 0001:0005e21c       ?type_case_p@?$output_processor@_WV?$string_output_adapter@_W@__crt_stdio_output@@V?$format_validation_base@_WV?$string_output_adapter@_W@__crt_stdio_output@@@2@@__crt_stdio_output@@AEAA_NXZ 000000018005f21c f i libucrt:output.obj
 0001:0005e234       ?type_case_p@?$output_processor@_WV?$string_output_adapter@_W@__crt_stdio_output@@V?$positional_parameter_base@_WV?$string_output_adapter@_W@__crt_stdio_output@@@2@@__crt_stdio_output@@AEAA_NXZ 000000018005f234 f i libucrt:output.obj
 0001:0005e24c       ?type_case_p@?$output_processor@_WV?$string_output_adapter@_W@__crt_stdio_output@@V?$standard_base@_WV?$string_output_adapter@_W@__crt_stdio_output@@@2@@__crt_stdio_output@@AEAA_NXZ 000000018005f24c f i libucrt:output.obj
 0001:0005e264       ?type_case_s@?$output_processor@DV?$stream_output_adapter@D@__crt_stdio_output@@V?$format_validation_base@DV?$stream_output_adapter@D@__crt_stdio_output@@@2@@__crt_stdio_output@@AEAA_NXZ 000000018005f264 f i libucrt:output.obj
 0001:0005e2f4       ?type_case_s@?$output_processor@DV?$stream_output_adapter@D@__crt_stdio_output@@V?$positional_parameter_base@DV?$stream_output_adapter@D@__crt_stdio_output@@@2@@__crt_stdio_output@@AEAA_NXZ 000000018005f2f4 f i libucrt:output.obj
 0001:0005e39c       ?type_case_s@?$output_processor@DV?$stream_output_adapter@D@__crt_stdio_output@@V?$standard_base@DV?$stream_output_adapter@D@__crt_stdio_output@@@2@@__crt_stdio_output@@AEAA_NXZ 000000018005f39c f i libucrt:output.obj
 0001:0005e42c       ?type_case_s@?$output_processor@DV?$string_output_adapter@D@__crt_stdio_output@@V?$format_validation_base@DV?$string_output_adapter@D@__crt_stdio_output@@@2@@__crt_stdio_output@@AEAA_NXZ 000000018005f42c f i libucrt:output.obj
 0001:0005e4bc       ?type_case_s@?$output_processor@DV?$string_output_adapter@D@__crt_stdio_output@@V?$positional_parameter_base@DV?$string_output_adapter@D@__crt_stdio_output@@@2@@__crt_stdio_output@@AEAA_NXZ 000000018005f4bc f i libucrt:output.obj
 0001:0005e564       ?type_case_s@?$output_processor@DV?$string_output_adapter@D@__crt_stdio_output@@V?$standard_base@DV?$string_output_adapter@D@__crt_stdio_output@@@2@@__crt_stdio_output@@AEAA_NXZ 000000018005f564 f i libucrt:output.obj
 0001:0005e5f4       ?type_case_s@?$output_processor@_WV?$stream_output_adapter@_W@__crt_stdio_output@@V?$format_validation_base@_WV?$stream_output_adapter@_W@__crt_stdio_output@@@2@@__crt_stdio_output@@AEAA_NXZ 000000018005f5f4 f i libucrt:output.obj
 0001:0005e6bc       ?type_case_s@?$output_processor@_WV?$stream_output_adapter@_W@__crt_stdio_output@@V?$positional_parameter_base@_WV?$stream_output_adapter@_W@__crt_stdio_output@@@2@@__crt_stdio_output@@AEAA_NXZ 000000018005f6bc f i libucrt:output.obj
 0001:0005e79c       ?type_case_s@?$output_processor@_WV?$stream_output_adapter@_W@__crt_stdio_output@@V?$standard_base@_WV?$stream_output_adapter@_W@__crt_stdio_output@@@2@@__crt_stdio_output@@AEAA_NXZ 000000018005f79c f i libucrt:output.obj
 0001:0005e864       ?type_case_s@?$output_processor@_WV?$string_output_adapter@_W@__crt_stdio_output@@V?$format_validation_base@_WV?$string_output_adapter@_W@__crt_stdio_output@@@2@@__crt_stdio_output@@AEAA_NXZ 000000018005f864 f i libucrt:output.obj
 0001:0005e92c       ?type_case_s@?$output_processor@_WV?$string_output_adapter@_W@__crt_stdio_output@@V?$positional_parameter_base@_WV?$string_output_adapter@_W@__crt_stdio_output@@@2@@__crt_stdio_output@@AEAA_NXZ 000000018005f92c f i libucrt:output.obj
 0001:0005ea0c       ?type_case_s@?$output_processor@_WV?$string_output_adapter@_W@__crt_stdio_output@@V?$standard_base@_WV?$string_output_adapter@_W@__crt_stdio_output@@@2@@__crt_stdio_output@@AEAA_NXZ 000000018005fa0c f i libucrt:output.obj
 0001:0005ead4       ?type_case_s_compute_narrow_string_length@?$output_processor@DV?$stream_output_adapter@D@__crt_stdio_output@@V?$format_validation_base@DV?$stream_output_adapter@D@__crt_stdio_output@@@2@@__crt_stdio_output@@AEBAHHD@Z 000000018005fad4 f i libucrt:output.obj
 0001:0005eae0       ?type_case_s_compute_narrow_string_length@?$output_processor@DV?$stream_output_adapter@D@__crt_stdio_output@@V?$positional_parameter_base@DV?$stream_output_adapter@D@__crt_stdio_output@@@2@@__crt_stdio_output@@AEBAHHD@Z 000000018005fae0 f i libucrt:output.obj
 0001:0005eaec       ?type_case_s_compute_narrow_string_length@?$output_processor@DV?$stream_output_adapter@D@__crt_stdio_output@@V?$standard_base@DV?$stream_output_adapter@D@__crt_stdio_output@@@2@@__crt_stdio_output@@AEBAHHD@Z 000000018005faec f i libucrt:output.obj
 0001:0005eaf8       ?type_case_s_compute_narrow_string_length@?$output_processor@DV?$string_output_adapter@D@__crt_stdio_output@@V?$format_validation_base@DV?$string_output_adapter@D@__crt_stdio_output@@@2@@__crt_stdio_output@@AEBAHHD@Z 000000018005faf8 f i libucrt:output.obj
 0001:0005eb04       ?type_case_s_compute_narrow_string_length@?$output_processor@DV?$string_output_adapter@D@__crt_stdio_output@@V?$positional_parameter_base@DV?$string_output_adapter@D@__crt_stdio_output@@@2@@__crt_stdio_output@@AEBAHHD@Z 000000018005fb04 f i libucrt:output.obj
 0001:0005eb10       ?type_case_s_compute_narrow_string_length@?$output_processor@DV?$string_output_adapter@D@__crt_stdio_output@@V?$standard_base@DV?$string_output_adapter@D@__crt_stdio_output@@@2@@__crt_stdio_output@@AEBAHHD@Z 000000018005fb10 f i libucrt:output.obj
 0001:0005eb1c       ?type_case_s_compute_narrow_string_length@?$output_processor@_WV?$stream_output_adapter@_W@__crt_stdio_output@@V?$format_validation_base@_WV?$stream_output_adapter@_W@__crt_stdio_output@@@2@@__crt_stdio_output@@AEBAHH_W@Z 000000018005fb1c f i libucrt:output.obj
 0001:0005eb60       ?type_case_s_compute_narrow_string_length@?$output_processor@_WV?$stream_output_adapter@_W@__crt_stdio_output@@V?$positional_parameter_base@_WV?$stream_output_adapter@_W@__crt_stdio_output@@@2@@__crt_stdio_output@@AEBAHH_W@Z 000000018005fb60 f i libucrt:output.obj
 0001:0005eba4       ?type_case_s_compute_narrow_string_length@?$output_processor@_WV?$stream_output_adapter@_W@__crt_stdio_output@@V?$standard_base@_WV?$stream_output_adapter@_W@__crt_stdio_output@@@2@@__crt_stdio_output@@AEBAHH_W@Z 000000018005fba4 f i libucrt:output.obj
 0001:0005ebe8       ?type_case_s_compute_narrow_string_length@?$output_processor@_WV?$string_output_adapter@_W@__crt_stdio_output@@V?$format_validation_base@_WV?$string_output_adapter@_W@__crt_stdio_output@@@2@@__crt_stdio_output@@AEBAHH_W@Z 000000018005fbe8 f i libucrt:output.obj
 0001:0005ec2c       ?type_case_s_compute_narrow_string_length@?$output_processor@_WV?$string_output_adapter@_W@__crt_stdio_output@@V?$positional_parameter_base@_WV?$string_output_adapter@_W@__crt_stdio_output@@@2@@__crt_stdio_output@@AEBAHH_W@Z 000000018005fc2c f i libucrt:output.obj
 0001:0005ec70       ?type_case_s_compute_narrow_string_length@?$output_processor@_WV?$string_output_adapter@_W@__crt_stdio_output@@V?$standard_base@_WV?$string_output_adapter@_W@__crt_stdio_output@@@2@@__crt_stdio_output@@AEBAHH_W@Z 000000018005fc70 f i libucrt:output.obj
 0001:0005ecb4       ?type_case_u@?$output_processor@DV?$stream_output_adapter@D@__crt_stdio_output@@V?$format_validation_base@DV?$stream_output_adapter@D@__crt_stdio_output@@@2@@__crt_stdio_output@@AEAA_NXZ 000000018005fcb4 f i libucrt:output.obj
 0001:0005ecc0       ?type_case_u@?$output_processor@DV?$stream_output_adapter@D@__crt_stdio_output@@V?$positional_parameter_base@DV?$stream_output_adapter@D@__crt_stdio_output@@@2@@__crt_stdio_output@@AEAA_NXZ 000000018005fcc0 f i libucrt:output.obj
 0001:0005eccc       ?type_case_u@?$output_processor@DV?$stream_output_adapter@D@__crt_stdio_output@@V?$standard_base@DV?$stream_output_adapter@D@__crt_stdio_output@@@2@@__crt_stdio_output@@AEAA_NXZ 000000018005fccc f i libucrt:output.obj
 0001:0005ecd8       ?type_case_u@?$output_processor@DV?$string_output_adapter@D@__crt_stdio_output@@V?$format_validation_base@DV?$string_output_adapter@D@__crt_stdio_output@@@2@@__crt_stdio_output@@AEAA_NXZ 000000018005fcd8 f i libucrt:output.obj
 0001:0005ece4       ?type_case_u@?$output_processor@DV?$string_output_adapter@D@__crt_stdio_output@@V?$positional_parameter_base@DV?$string_output_adapter@D@__crt_stdio_output@@@2@@__crt_stdio_output@@AEAA_NXZ 000000018005fce4 f i libucrt:output.obj
 0001:0005ecf0       ?type_case_u@?$output_processor@DV?$string_output_adapter@D@__crt_stdio_output@@V?$standard_base@DV?$string_output_adapter@D@__crt_stdio_output@@@2@@__crt_stdio_output@@AEAA_NXZ 000000018005fcf0 f i libucrt:output.obj
 0001:0005ecfc       ?type_case_u@?$output_processor@_WV?$stream_output_adapter@_W@__crt_stdio_output@@V?$format_validation_base@_WV?$stream_output_adapter@_W@__crt_stdio_output@@@2@@__crt_stdio_output@@AEAA_NXZ 000000018005fcfc f i libucrt:output.obj
 0001:0005ed08       ?type_case_u@?$output_processor@_WV?$stream_output_adapter@_W@__crt_stdio_output@@V?$positional_parameter_base@_WV?$stream_output_adapter@_W@__crt_stdio_output@@@2@@__crt_stdio_output@@AEAA_NXZ 000000018005fd08 f i libucrt:output.obj
 0001:0005ed14       ?type_case_u@?$output_processor@_WV?$stream_output_adapter@_W@__crt_stdio_output@@V?$standard_base@_WV?$stream_output_adapter@_W@__crt_stdio_output@@@2@@__crt_stdio_output@@AEAA_NXZ 000000018005fd14 f i libucrt:output.obj
 0001:0005ed20       ?type_case_u@?$output_processor@_WV?$string_output_adapter@_W@__crt_stdio_output@@V?$format_validation_base@_WV?$string_output_adapter@_W@__crt_stdio_output@@@2@@__crt_stdio_output@@AEAA_NXZ 000000018005fd20 f i libucrt:output.obj
 0001:0005ed2c       ?type_case_u@?$output_processor@_WV?$string_output_adapter@_W@__crt_stdio_output@@V?$positional_parameter_base@_WV?$string_output_adapter@_W@__crt_stdio_output@@@2@@__crt_stdio_output@@AEAA_NXZ 000000018005fd2c f i libucrt:output.obj
 0001:0005ed38       ?type_case_u@?$output_processor@_WV?$string_output_adapter@_W@__crt_stdio_output@@V?$standard_base@_WV?$string_output_adapter@_W@__crt_stdio_output@@@2@@__crt_stdio_output@@AEAA_NXZ 000000018005fd38 f i libucrt:output.obj
 0001:0005ed44       ?type_case_x@?$output_processor@DV?$stream_output_adapter@D@__crt_stdio_output@@V?$format_validation_base@DV?$stream_output_adapter@D@__crt_stdio_output@@@2@@__crt_stdio_output@@AEAA_NXZ 000000018005fd44 f i libucrt:output.obj
 0001:0005ed50       ?type_case_x@?$output_processor@DV?$stream_output_adapter@D@__crt_stdio_output@@V?$positional_parameter_base@DV?$stream_output_adapter@D@__crt_stdio_output@@@2@@__crt_stdio_output@@AEAA_NXZ 000000018005fd50 f i libucrt:output.obj
 0001:0005ed5c       ?type_case_x@?$output_processor@DV?$stream_output_adapter@D@__crt_stdio_output@@V?$standard_base@DV?$stream_output_adapter@D@__crt_stdio_output@@@2@@__crt_stdio_output@@AEAA_NXZ 000000018005fd5c f i libucrt:output.obj
 0001:0005ed68       ?type_case_x@?$output_processor@DV?$string_output_adapter@D@__crt_stdio_output@@V?$format_validation_base@DV?$string_output_adapter@D@__crt_stdio_output@@@2@@__crt_stdio_output@@AEAA_NXZ 000000018005fd68 f i libucrt:output.obj
 0001:0005ed74       ?type_case_x@?$output_processor@DV?$string_output_adapter@D@__crt_stdio_output@@V?$positional_parameter_base@DV?$string_output_adapter@D@__crt_stdio_output@@@2@@__crt_stdio_output@@AEAA_NXZ 000000018005fd74 f i libucrt:output.obj
 0001:0005ed80       ?type_case_x@?$output_processor@DV?$string_output_adapter@D@__crt_stdio_output@@V?$standard_base@DV?$string_output_adapter@D@__crt_stdio_output@@@2@@__crt_stdio_output@@AEAA_NXZ 000000018005fd80 f i libucrt:output.obj
 0001:0005ed8c       ?type_case_x@?$output_processor@_WV?$stream_output_adapter@_W@__crt_stdio_output@@V?$format_validation_base@_WV?$stream_output_adapter@_W@__crt_stdio_output@@@2@@__crt_stdio_output@@AEAA_NXZ 000000018005fd8c f i libucrt:output.obj
 0001:0005ed98       ?type_case_x@?$output_processor@_WV?$stream_output_adapter@_W@__crt_stdio_output@@V?$positional_parameter_base@_WV?$stream_output_adapter@_W@__crt_stdio_output@@@2@@__crt_stdio_output@@AEAA_NXZ 000000018005fd98 f i libucrt:output.obj
 0001:0005eda4       ?type_case_x@?$output_processor@_WV?$stream_output_adapter@_W@__crt_stdio_output@@V?$standard_base@_WV?$stream_output_adapter@_W@__crt_stdio_output@@@2@@__crt_stdio_output@@AEAA_NXZ 000000018005fda4 f i libucrt:output.obj
 0001:0005edb0       ?type_case_x@?$output_processor@_WV?$string_output_adapter@_W@__crt_stdio_output@@V?$format_validation_base@_WV?$string_output_adapter@_W@__crt_stdio_output@@@2@@__crt_stdio_output@@AEAA_NXZ 000000018005fdb0 f i libucrt:output.obj
 0001:0005edbc       ?type_case_x@?$output_processor@_WV?$string_output_adapter@_W@__crt_stdio_output@@V?$positional_parameter_base@_WV?$string_output_adapter@_W@__crt_stdio_output@@@2@@__crt_stdio_output@@AEAA_NXZ 000000018005fdbc f i libucrt:output.obj
 0001:0005edc8       ?type_case_x@?$output_processor@_WV?$string_output_adapter@_W@__crt_stdio_output@@V?$standard_base@_WV?$string_output_adapter@_W@__crt_stdio_output@@@2@@__crt_stdio_output@@AEAA_NXZ 000000018005fdc8 f i libucrt:output.obj
 0001:0005edd4       ?unset_flag@?$output_processor@DV?$stream_output_adapter@D@__crt_stdio_output@@V?$format_validation_base@DV?$stream_output_adapter@D@__crt_stdio_output@@@2@@__crt_stdio_output@@AEAAXI@Z 000000018005fdd4 f i libucrt:output.obj
 0001:0005eddc       ?unset_flag@?$output_processor@DV?$stream_output_adapter@D@__crt_stdio_output@@V?$positional_parameter_base@DV?$stream_output_adapter@D@__crt_stdio_output@@@2@@__crt_stdio_output@@AEAAXI@Z 000000018005fddc f i libucrt:output.obj
 0001:0005ede4       ?unset_flag@?$output_processor@DV?$stream_output_adapter@D@__crt_stdio_output@@V?$standard_base@DV?$stream_output_adapter@D@__crt_stdio_output@@@2@@__crt_stdio_output@@AEAAXI@Z 000000018005fde4 f i libucrt:output.obj
 0001:0005edec       ?unset_flag@?$output_processor@DV?$string_output_adapter@D@__crt_stdio_output@@V?$format_validation_base@DV?$string_output_adapter@D@__crt_stdio_output@@@2@@__crt_stdio_output@@AEAAXI@Z 000000018005fdec f i libucrt:output.obj
 0001:0005edf4       ?unset_flag@?$output_processor@DV?$string_output_adapter@D@__crt_stdio_output@@V?$positional_parameter_base@DV?$string_output_adapter@D@__crt_stdio_output@@@2@@__crt_stdio_output@@AEAAXI@Z 000000018005fdf4 f i libucrt:output.obj
 0001:0005edfc       ?unset_flag@?$output_processor@DV?$string_output_adapter@D@__crt_stdio_output@@V?$standard_base@DV?$string_output_adapter@D@__crt_stdio_output@@@2@@__crt_stdio_output@@AEAAXI@Z 000000018005fdfc f i libucrt:output.obj
 0001:0005ee04       ?unset_flag@?$output_processor@_WV?$stream_output_adapter@_W@__crt_stdio_output@@V?$format_validation_base@_WV?$stream_output_adapter@_W@__crt_stdio_output@@@2@@__crt_stdio_output@@AEAAXI@Z 000000018005fe04 f i libucrt:output.obj
 0001:0005ee0c       ?unset_flag@?$output_processor@_WV?$stream_output_adapter@_W@__crt_stdio_output@@V?$positional_parameter_base@_WV?$stream_output_adapter@_W@__crt_stdio_output@@@2@@__crt_stdio_output@@AEAAXI@Z 000000018005fe0c f i libucrt:output.obj
 0001:0005ee14       ?unset_flag@?$output_processor@_WV?$stream_output_adapter@_W@__crt_stdio_output@@V?$standard_base@_WV?$stream_output_adapter@_W@__crt_stdio_output@@@2@@__crt_stdio_output@@AEAAXI@Z 000000018005fe14 f i libucrt:output.obj
 0001:0005ee1c       ?unset_flag@?$output_processor@_WV?$string_output_adapter@_W@__crt_stdio_output@@V?$format_validation_base@_WV?$string_output_adapter@_W@__crt_stdio_output@@@2@@__crt_stdio_output@@AEAAXI@Z 000000018005fe1c f i libucrt:output.obj
 0001:0005ee24       ?unset_flag@?$output_processor@_WV?$string_output_adapter@_W@__crt_stdio_output@@V?$positional_parameter_base@_WV?$string_output_adapter@_W@__crt_stdio_output@@@2@@__crt_stdio_output@@AEAAXI@Z 000000018005fe24 f i libucrt:output.obj
 0001:0005ee2c       ?unset_flag@?$output_processor@_WV?$string_output_adapter@_W@__crt_stdio_output@@V?$standard_base@_WV?$string_output_adapter@_W@__crt_stdio_output@@@2@@__crt_stdio_output@@AEAAXI@Z 000000018005fe2c f i libucrt:output.obj
 0001:0005ee34       ?update_field_width@?$positional_parameter_base@DV?$stream_output_adapter@D@__crt_stdio_output@@@__crt_stdio_output@@IEAA_NXZ 000000018005fe34 f i libucrt:output.obj
 0001:0005ef48       ?update_field_width@?$positional_parameter_base@DV?$string_output_adapter@D@__crt_stdio_output@@@__crt_stdio_output@@IEAA_NXZ 000000018005ff48 f i libucrt:output.obj
 0001:0005f05c       ?update_field_width@?$positional_parameter_base@_WV?$stream_output_adapter@_W@__crt_stdio_output@@@__crt_stdio_output@@IEAA_NXZ 000000018006005c f i libucrt:output.obj
 0001:0005f174       ?update_field_width@?$positional_parameter_base@_WV?$string_output_adapter@_W@__crt_stdio_output@@@__crt_stdio_output@@IEAA_NXZ 0000000180060174 f i libucrt:output.obj
 0001:0005f28c       ?update_field_width@?$standard_base@DV?$stream_output_adapter@D@__crt_stdio_output@@@__crt_stdio_output@@IEAA_NXZ 000000018006028c f i libucrt:output.obj
 0001:0005f2a0       ?update_field_width@?$standard_base@DV?$string_output_adapter@D@__crt_stdio_output@@@__crt_stdio_output@@IEAA_NXZ 00000001800602a0 f i libucrt:output.obj
 0001:0005f2b4       ?update_field_width@?$standard_base@_WV?$stream_output_adapter@_W@__crt_stdio_output@@@__crt_stdio_output@@IEAA_NXZ 00000001800602b4 f i libucrt:output.obj
 0001:0005f2c8       ?update_field_width@?$standard_base@_WV?$string_output_adapter@_W@__crt_stdio_output@@@__crt_stdio_output@@IEAA_NXZ 00000001800602c8 f i libucrt:output.obj
 0001:0005f2dc       ?update_precision@?$positional_parameter_base@DV?$stream_output_adapter@D@__crt_stdio_output@@@__crt_stdio_output@@IEAA_NXZ 00000001800602dc f i libucrt:output.obj
 0001:0005f3f0       ?update_precision@?$positional_parameter_base@DV?$string_output_adapter@D@__crt_stdio_output@@@__crt_stdio_output@@IEAA_NXZ 00000001800603f0 f i libucrt:output.obj
 0001:0005f504       ?update_precision@?$positional_parameter_base@_WV?$stream_output_adapter@_W@__crt_stdio_output@@@__crt_stdio_output@@IEAA_NXZ 0000000180060504 f i libucrt:output.obj
 0001:0005f61c       ?update_precision@?$positional_parameter_base@_WV?$string_output_adapter@_W@__crt_stdio_output@@@__crt_stdio_output@@IEAA_NXZ 000000018006061c f i libucrt:output.obj
 0001:0005f734       ?update_precision@?$standard_base@DV?$stream_output_adapter@D@__crt_stdio_output@@@__crt_stdio_output@@IEAA_NXZ 0000000180060734 f i libucrt:output.obj
 0001:0005f748       ?update_precision@?$standard_base@DV?$string_output_adapter@D@__crt_stdio_output@@@__crt_stdio_output@@IEAA_NXZ 0000000180060748 f i libucrt:output.obj
 0001:0005f75c       ?update_precision@?$standard_base@_WV?$stream_output_adapter@_W@__crt_stdio_output@@@__crt_stdio_output@@IEAA_NXZ 000000018006075c f i libucrt:output.obj
 0001:0005f770       ?update_precision@?$standard_base@_WV?$string_output_adapter@_W@__crt_stdio_output@@@__crt_stdio_output@@IEAA_NXZ 0000000180060770 f i libucrt:output.obj
 0001:0005f784       ?valid@__crt_stdio_stream@@QEBA_NXZ 0000000180060784 f i libucrt:output.obj
 0001:0005f790       ?validate@?$stream_output_adapter@D@__crt_stdio_output@@QEBA_NXZ 0000000180060790 f i libucrt:output.obj
 0001:0005f7bc       ?validate@?$stream_output_adapter@_W@__crt_stdio_output@@QEBA_NXZ 00000001800607bc f i libucrt:output.obj
 0001:0005f7e4       ?validate@?$string_output_adapter@D@__crt_stdio_output@@QEBA_NXZ 00000001800607e4 f i libucrt:output.obj
 0001:0005f80c       ?validate@?$string_output_adapter@_W@__crt_stdio_output@@QEBA_NXZ 000000018006080c f i libucrt:output.obj
 0001:0005f834       ?validate_and_store_parameter_data@?$positional_parameter_base@DV?$stream_output_adapter@D@__crt_stdio_output@@@__crt_stdio_output@@AEAA_NAEAUparameter_data@12@W4parameter_type@12@DW4length_modifier@2@@Z 0000000180060834 f i libucrt:output.obj
 0001:0005f874       ?validate_and_store_parameter_data@?$positional_parameter_base@DV?$string_output_adapter@D@__crt_stdio_output@@@__crt_stdio_output@@AEAA_NAEAUparameter_data@12@W4parameter_type@12@DW4length_modifier@2@@Z 0000000180060874 f i libucrt:output.obj
 0001:0005f8b4       ?validate_and_store_parameter_data@?$positional_parameter_base@_WV?$stream_output_adapter@_W@__crt_stdio_output@@@__crt_stdio_output@@AEAA_NAEAUparameter_data@12@W4parameter_type@12@_WW4length_modifier@2@@Z 00000001800608b4 f i libucrt:output.obj
 0001:0005f8f4       ?validate_and_store_parameter_data@?$positional_parameter_base@_WV?$string_output_adapter@_W@__crt_stdio_output@@@__crt_stdio_output@@AEAA_NAEAUparameter_data@12@W4parameter_type@12@_WW4length_modifier@2@@Z 00000001800608f4 f i libucrt:output.obj
 0001:0005f934       ?validate_and_update_state_at_beginning_of_format_character@?$positional_parameter_base@DV?$stream_output_adapter@D@__crt_stdio_output@@@__crt_stdio_output@@IEAA_NXZ 0000000180060934 f i libucrt:output.obj
 0001:0005fa38       ?validate_and_update_state_at_beginning_of_format_character@?$positional_parameter_base@DV?$string_output_adapter@D@__crt_stdio_output@@@__crt_stdio_output@@IEAA_NXZ 0000000180060a38 f i libucrt:output.obj
 0001:0005fb3c       ?validate_and_update_state_at_beginning_of_format_character@?$positional_parameter_base@_WV?$stream_output_adapter@_W@__crt_stdio_output@@@__crt_stdio_output@@IEAA_NXZ 0000000180060b3c f i libucrt:output.obj
 0001:0005fc4c       ?validate_and_update_state_at_beginning_of_format_character@?$positional_parameter_base@_WV?$string_output_adapter@_W@__crt_stdio_output@@@__crt_stdio_output@@IEAA_NXZ 0000000180060c4c f i libucrt:output.obj
 0001:0005fd5c       ?validate_and_update_state_at_beginning_of_format_character@?$standard_base@DV?$stream_output_adapter@D@__crt_stdio_output@@@__crt_stdio_output@@IEAA_NXZ 0000000180060d5c f i libucrt:output.obj
 0001:0005fd60       ?validate_and_update_state_at_beginning_of_format_character@?$standard_base@DV?$string_output_adapter@D@__crt_stdio_output@@@__crt_stdio_output@@IEAA_NXZ 0000000180060d60 f i libucrt:output.obj
 0001:0005fd64       ?validate_and_update_state_at_beginning_of_format_character@?$standard_base@_WV?$stream_output_adapter@_W@__crt_stdio_output@@@__crt_stdio_output@@IEAA_NXZ 0000000180060d64 f i libucrt:output.obj
 0001:0005fd68       ?validate_and_update_state_at_beginning_of_format_character@?$standard_base@_WV?$string_output_adapter@_W@__crt_stdio_output@@@__crt_stdio_output@@IEAA_NXZ 0000000180060d68 f i libucrt:output.obj
 0001:0005fd6c       ?validate_and_update_state_at_end_of_format_string@?$format_validation_base@DV?$stream_output_adapter@D@__crt_stdio_output@@@__crt_stdio_output@@IEBA_NXZ 0000000180060d6c f i libucrt:output.obj
 0001:0005fd98       ?validate_and_update_state_at_end_of_format_string@?$format_validation_base@DV?$string_output_adapter@D@__crt_stdio_output@@@__crt_stdio_output@@IEBA_NXZ 0000000180060d98 f i libucrt:output.obj
 0001:0005fdc4       ?validate_and_update_state_at_end_of_format_string@?$format_validation_base@_WV?$stream_output_adapter@_W@__crt_stdio_output@@@__crt_stdio_output@@IEBA_NXZ 0000000180060dc4 f i libucrt:output.obj
 0001:0005fdf0       ?validate_and_update_state_at_end_of_format_string@?$format_validation_base@_WV?$string_output_adapter@_W@__crt_stdio_output@@@__crt_stdio_output@@IEBA_NXZ 0000000180060df0 f i libucrt:output.obj
 0001:0005fe1c       ?validate_and_update_state_at_end_of_format_string@?$positional_parameter_base@DV?$stream_output_adapter@D@__crt_stdio_output@@@__crt_stdio_output@@IEAA_NXZ 0000000180060e1c f i libucrt:output.obj
 0001:0005fea8       ?validate_and_update_state_at_end_of_format_string@?$positional_parameter_base@DV?$string_output_adapter@D@__crt_stdio_output@@@__crt_stdio_output@@IEAA_NXZ 0000000180060ea8 f i libucrt:output.obj
 0001:0005ff34       ?validate_and_update_state_at_end_of_format_string@?$positional_parameter_base@_WV?$stream_output_adapter@_W@__crt_stdio_output@@@__crt_stdio_output@@IEAA_NXZ 0000000180060f34 f i libucrt:output.obj
 0001:0005ffc0       ?validate_and_update_state_at_end_of_format_string@?$positional_parameter_base@_WV?$string_output_adapter@_W@__crt_stdio_output@@@__crt_stdio_output@@IEAA_NXZ 0000000180060fc0 f i libucrt:output.obj
 0001:0006004c       ?validate_and_update_state_at_end_of_format_string@?$standard_base@DV?$stream_output_adapter@D@__crt_stdio_output@@@__crt_stdio_output@@IEBA_NXZ 000000018006104c f i libucrt:output.obj
 0001:00060050       ?validate_and_update_state_at_end_of_format_string@?$standard_base@DV?$string_output_adapter@D@__crt_stdio_output@@@__crt_stdio_output@@IEBA_NXZ 0000000180061050 f i libucrt:output.obj
 0001:00060054       ?validate_and_update_state_at_end_of_format_string@?$standard_base@_WV?$stream_output_adapter@_W@__crt_stdio_output@@@__crt_stdio_output@@IEBA_NXZ 0000000180061054 f i libucrt:output.obj
 0001:00060058       ?validate_and_update_state_at_end_of_format_string@?$standard_base@_WV?$string_output_adapter@_W@__crt_stdio_output@@@__crt_stdio_output@@IEBA_NXZ 0000000180061058 f i libucrt:output.obj
 0001:0006005c       ?validate_state_for_type_case_a@?$positional_parameter_base@DV?$stream_output_adapter@D@__crt_stdio_output@@@__crt_stdio_output@@IEAA_NXZ 000000018006105c f i libucrt:output.obj
 0001:000600f8       ?validate_state_for_type_case_a@?$positional_parameter_base@DV?$string_output_adapter@D@__crt_stdio_output@@@__crt_stdio_output@@IEAA_NXZ 00000001800610f8 f i libucrt:output.obj
 0001:00060194       ?validate_state_for_type_case_a@?$positional_parameter_base@_WV?$stream_output_adapter@_W@__crt_stdio_output@@@__crt_stdio_output@@IEAA_NXZ 0000000180061194 f i libucrt:output.obj
 0001:00060234       ?validate_state_for_type_case_a@?$positional_parameter_base@_WV?$string_output_adapter@_W@__crt_stdio_output@@@__crt_stdio_output@@IEAA_NXZ 0000000180061234 f i libucrt:output.obj
 0001:000602d4       ?validate_state_for_type_case_a@?$standard_base@DV?$stream_output_adapter@D@__crt_stdio_output@@@__crt_stdio_output@@IEBA_NXZ 00000001800612d4 f i libucrt:output.obj
 0001:000602d8       ?validate_state_for_type_case_a@?$standard_base@DV?$string_output_adapter@D@__crt_stdio_output@@@__crt_stdio_output@@IEBA_NXZ 00000001800612d8 f i libucrt:output.obj
 0001:000602dc       ?validate_state_for_type_case_a@?$standard_base@_WV?$stream_output_adapter@_W@__crt_stdio_output@@@__crt_stdio_output@@IEBA_NXZ 00000001800612dc f i libucrt:output.obj
 0001:000602e0       ?validate_state_for_type_case_a@?$standard_base@_WV?$string_output_adapter@_W@__crt_stdio_output@@@__crt_stdio_output@@IEBA_NXZ 00000001800612e0 f i libucrt:output.obj
 0001:000602e4       ?validate_stream_is_ansi_if_required@?$__acrt_stdio_char_traits@D@@SA_NQEAU_iobuf@@@Z 00000001800612e4 f i libucrt:output.obj
 0001:00060370       ?validate_stream_is_ansi_if_required@?$__acrt_stdio_char_traits@_W@@SA_NQEAU_iobuf@@@Z 0000000180061370 f i libucrt:output.obj
 0001:00060374       ?wide_null_string@?$output_processor@DV?$stream_output_adapter@D@__crt_stdio_output@@V?$format_validation_base@DV?$stream_output_adapter@D@__crt_stdio_output@@@2@@__crt_stdio_output@@CAPEA_WXZ 0000000180061374 f i libucrt:output.obj
 0001:0006037c       ?wide_null_string@?$output_processor@DV?$stream_output_adapter@D@__crt_stdio_output@@V?$positional_parameter_base@DV?$stream_output_adapter@D@__crt_stdio_output@@@2@@__crt_stdio_output@@CAPEA_WXZ 000000018006137c f i libucrt:output.obj
 0001:00060384       ?wide_null_string@?$output_processor@DV?$stream_output_adapter@D@__crt_stdio_output@@V?$standard_base@DV?$stream_output_adapter@D@__crt_stdio_output@@@2@@__crt_stdio_output@@CAPEA_WXZ 0000000180061384 f i libucrt:output.obj
 0001:0006038c       ?wide_null_string@?$output_processor@DV?$string_output_adapter@D@__crt_stdio_output@@V?$format_validation_base@DV?$string_output_adapter@D@__crt_stdio_output@@@2@@__crt_stdio_output@@CAPEA_WXZ 000000018006138c f i libucrt:output.obj
 0001:00060394       ?wide_null_string@?$output_processor@DV?$string_output_adapter@D@__crt_stdio_output@@V?$positional_parameter_base@DV?$string_output_adapter@D@__crt_stdio_output@@@2@@__crt_stdio_output@@CAPEA_WXZ 0000000180061394 f i libucrt:output.obj
 0001:0006039c       ?wide_null_string@?$output_processor@DV?$string_output_adapter@D@__crt_stdio_output@@V?$standard_base@DV?$string_output_adapter@D@__crt_stdio_output@@@2@@__crt_stdio_output@@CAPEA_WXZ 000000018006139c f i libucrt:output.obj
 0001:000603a4       ?wide_null_string@?$output_processor@_WV?$stream_output_adapter@_W@__crt_stdio_output@@V?$format_validation_base@_WV?$stream_output_adapter@_W@__crt_stdio_output@@@2@@__crt_stdio_output@@CAPEA_WXZ 00000001800613a4 f i libucrt:output.obj
 0001:000603ac       ?wide_null_string@?$output_processor@_WV?$stream_output_adapter@_W@__crt_stdio_output@@V?$positional_parameter_base@_WV?$stream_output_adapter@_W@__crt_stdio_output@@@2@@__crt_stdio_output@@CAPEA_WXZ 00000001800613ac f i libucrt:output.obj
 0001:000603b4       ?wide_null_string@?$output_processor@_WV?$stream_output_adapter@_W@__crt_stdio_output@@V?$standard_base@_WV?$stream_output_adapter@_W@__crt_stdio_output@@@2@@__crt_stdio_output@@CAPEA_WXZ 00000001800613b4 f i libucrt:output.obj
 0001:000603bc       ?wide_null_string@?$output_processor@_WV?$string_output_adapter@_W@__crt_stdio_output@@V?$format_validation_base@_WV?$string_output_adapter@_W@__crt_stdio_output@@@2@@__crt_stdio_output@@CAPEA_WXZ 00000001800613bc f i libucrt:output.obj
 0001:000603c4       ?wide_null_string@?$output_processor@_WV?$string_output_adapter@_W@__crt_stdio_output@@V?$positional_parameter_base@_WV?$string_output_adapter@_W@__crt_stdio_output@@@2@@__crt_stdio_output@@CAPEA_WXZ 00000001800613c4 f i libucrt:output.obj
 0001:000603cc       ?wide_null_string@?$output_processor@_WV?$string_output_adapter@_W@__crt_stdio_output@@V?$standard_base@_WV?$string_output_adapter@_W@__crt_stdio_output@@@2@@__crt_stdio_output@@CAPEA_WXZ 00000001800613cc f i libucrt:output.obj
 0001:000603d4       ?write_character@?$stream_output_adapter@D@__crt_stdio_output@@QEBAXDQEAH@Z 00000001800613d4 f i libucrt:output.obj
 0001:0006041c       ?write_character@?$stream_output_adapter@_W@__crt_stdio_output@@QEBAX_WQEAH@Z 000000018006141c f i libucrt:output.obj
 0001:00060468       ?write_character@?$string_output_adapter@D@__crt_stdio_output@@QEBA_NDQEAH@Z 0000000180061468 f i libucrt:output.obj
 0001:000604b0       ?write_character@?$string_output_adapter@_W@__crt_stdio_output@@QEBA_N_WQEAH@Z 00000001800614b0 f i libucrt:output.obj
 0001:000604f8       ?write_stored_string_tchar@?$output_processor@DV?$stream_output_adapter@D@__crt_stdio_output@@V?$format_validation_base@DV?$stream_output_adapter@D@__crt_stdio_output@@@2@@__crt_stdio_output@@AEAA_ND@Z 00000001800614f8 f i libucrt:output.obj
 0001:000605d0       ?write_stored_string_tchar@?$output_processor@DV?$stream_output_adapter@D@__crt_stdio_output@@V?$positional_parameter_base@DV?$stream_output_adapter@D@__crt_stdio_output@@@2@@__crt_stdio_output@@AEAA_ND@Z 00000001800615d0 f i libucrt:output.obj
 0001:000606a8       ?write_stored_string_tchar@?$output_processor@DV?$stream_output_adapter@D@__crt_stdio_output@@V?$standard_base@DV?$stream_output_adapter@D@__crt_stdio_output@@@2@@__crt_stdio_output@@AEAA_ND@Z 00000001800616a8 f i libucrt:output.obj
 0001:00060780       ?write_stored_string_tchar@?$output_processor@DV?$string_output_adapter@D@__crt_stdio_output@@V?$format_validation_base@DV?$string_output_adapter@D@__crt_stdio_output@@@2@@__crt_stdio_output@@AEAA_ND@Z 0000000180061780 f i libucrt:output.obj
 0001:00060858       ?write_stored_string_tchar@?$output_processor@DV?$string_output_adapter@D@__crt_stdio_output@@V?$positional_parameter_base@DV?$string_output_adapter@D@__crt_stdio_output@@@2@@__crt_stdio_output@@AEAA_ND@Z 0000000180061858 f i libucrt:output.obj
 0001:00060930       ?write_stored_string_tchar@?$output_processor@DV?$string_output_adapter@D@__crt_stdio_output@@V?$standard_base@DV?$string_output_adapter@D@__crt_stdio_output@@@2@@__crt_stdio_output@@AEAA_ND@Z 0000000180061930 f i libucrt:output.obj
 0001:00060a08       ?write_stored_string_tchar@?$output_processor@_WV?$stream_output_adapter@_W@__crt_stdio_output@@V?$format_validation_base@_WV?$stream_output_adapter@_W@__crt_stdio_output@@@2@@__crt_stdio_output@@AEAA_N_W@Z 0000000180061a08 f i libucrt:output.obj
 0001:00060af4       ?write_stored_string_tchar@?$output_processor@_WV?$stream_output_adapter@_W@__crt_stdio_output@@V?$positional_parameter_base@_WV?$stream_output_adapter@_W@__crt_stdio_output@@@2@@__crt_stdio_output@@AEAA_N_W@Z 0000000180061af4 f i libucrt:output.obj
 0001:00060be0       ?write_stored_string_tchar@?$output_processor@_WV?$stream_output_adapter@_W@__crt_stdio_output@@V?$standard_base@_WV?$stream_output_adapter@_W@__crt_stdio_output@@@2@@__crt_stdio_output@@AEAA_N_W@Z 0000000180061be0 f i libucrt:output.obj
 0001:00060ccc       ?write_stored_string_tchar@?$output_processor@_WV?$string_output_adapter@_W@__crt_stdio_output@@V?$format_validation_base@_WV?$string_output_adapter@_W@__crt_stdio_output@@@2@@__crt_stdio_output@@AEAA_N_W@Z 0000000180061ccc f i libucrt:output.obj
 0001:00060dbc       ?write_stored_string_tchar@?$output_processor@_WV?$string_output_adapter@_W@__crt_stdio_output@@V?$positional_parameter_base@_WV?$string_output_adapter@_W@__crt_stdio_output@@@2@@__crt_stdio_output@@AEAA_N_W@Z 0000000180061dbc f i libucrt:output.obj
 0001:00060eac       ?write_stored_string_tchar@?$output_processor@_WV?$string_output_adapter@_W@__crt_stdio_output@@V?$standard_base@_WV?$string_output_adapter@_W@__crt_stdio_output@@@2@@__crt_stdio_output@@AEAA_N_W@Z 0000000180061eac f i libucrt:output.obj
 0001:00060f9c       ?write_string@?$stream_output_adapter@D@__crt_stdio_output@@QEBAXQEBDHQEAH1@Z 0000000180061f9c f i libucrt:output.obj
 0001:00061094       ?write_string@?$stream_output_adapter@_W@__crt_stdio_output@@QEBAXQEB_WHQEAH1@Z 0000000180062094 f i libucrt:output.obj
 0001:000611a0       ?write_string@?$string_output_adapter@D@__crt_stdio_output@@QEBAXQEBDHQEAH1@Z 00000001800621a0 f i libucrt:output.obj
 0001:0006125c       ?write_string@?$string_output_adapter@_W@__crt_stdio_output@@QEBAXQEB_WHQEAH1@Z 000000018006225c f i libucrt:output.obj
 0001:0006131c       __acrt_isleadbyte_l_noupdate 000000018006231c f i libucrt:output.obj
 0001:00061334       __stdio_common_vfprintf    0000000180062334 f   libucrt:output.obj
 0001:000613c0       __stdio_common_vfprintf_p  00000001800623c0 f   libucrt:output.obj
 0001:0006144c       __stdio_common_vfprintf_s  000000018006244c f   libucrt:output.obj
 0001:000614d8       __stdio_common_vfwprintf   00000001800624d8 f   libucrt:output.obj
 0001:00061564       __stdio_common_vfwprintf_p 0000000180062564 f   libucrt:output.obj
 0001:000615f0       __stdio_common_vfwprintf_s 00000001800625f0 f   libucrt:output.obj
 0001:0006167c       __stdio_common_vsnprintf_s 000000018006267c f   libucrt:output.obj
 0001:000617d8       __stdio_common_vsnwprintf_s 00000001800627d8 f   libucrt:output.obj
 0001:00061944       __stdio_common_vsprintf    0000000180062944 f   libucrt:output.obj
 0001:00061b78       __stdio_common_vsprintf_p  0000000180062b78 f   libucrt:output.obj
 0001:00061dac       __stdio_common_vsprintf_s  0000000180062dac f   libucrt:output.obj
 0001:00061e10       __stdio_common_vswprintf   0000000180062e10 f   libucrt:output.obj
 0001:00062048       __stdio_common_vswprintf_p 0000000180063048 f   libucrt:output.obj
 0001:00062280       __stdio_common_vswprintf_s 0000000180063280 f   libucrt:output.obj
 0001:000622f0       ??$make_c_string_character_source@D$$T@__crt_strtox@@YA?AV?$c_string_character_source@D@0@QEBD$$T@Z 00000001800632f0 f i libucrt:atox.obj
 0001:00062304       ??$make_c_string_character_source@_W$$T@__crt_strtox@@YA?AV?$c_string_character_source@_W@0@QEB_W$$T@Z 0000000180063304 f i libucrt:atox.obj
 0001:00062318       ??$parse_integer_from_string@JD$$T@__crt_strtox@@YAJQEBD$$THQEAU__crt_locale_pointers@@@Z 0000000180063318 f i libucrt:atox.obj
 0001:00062354       ??$parse_integer_from_string@J_W$$T@__crt_strtox@@YAJQEB_W$$THQEAU__crt_locale_pointers@@@Z 0000000180063354 f i libucrt:atox.obj
 0001:00062390       ??$parse_integer_from_string@_JD$$T@__crt_strtox@@YA_JQEBD$$THQEAU__crt_locale_pointers@@@Z 0000000180063390 f i libucrt:atox.obj
 0001:000623cc       ??$parse_integer_from_string@_J_W$$T@__crt_strtox@@YA_JQEB_W$$THQEAU__crt_locale_pointers@@@Z 00000001800633cc f i libucrt:atox.obj
 0001:00062408       _atoi64                    0000000180063408 f   libucrt:atox.obj
 0001:00062434       _atoi64_l                  0000000180063434 f   libucrt:atox.obj
 0001:00062468       _atoi_l                    0000000180063468 f   libucrt:atox.obj
 0001:0006249c       _atol_l                    000000018006349c f   libucrt:atox.obj
 0001:000624d0       _atoll_l                   00000001800634d0 f   libucrt:atox.obj
 0001:00062504       _wtoi                      0000000180063504 f   libucrt:atox.obj
 0001:00062530       _wtoi64                    0000000180063530 f   libucrt:atox.obj
 0001:0006255c       _wtoi64_l                  000000018006355c f   libucrt:atox.obj
 0001:00062590       _wtoi_l                    0000000180063590 f   libucrt:atox.obj
 0001:000625c4       _wtol                      00000001800635c4 f   libucrt:atox.obj
 0001:000625f0       _wtol_l                    00000001800635f0 f   libucrt:atox.obj
 0001:00062624       _wtoll                     0000000180063624 f   libucrt:atox.obj
 0001:00062650       _wtoll_l                   0000000180063650 f   libucrt:atox.obj
 0001:00062684       atoi                       0000000180063684 f   libucrt:atox.obj
 0001:000626b0       atol                       00000001800636b0 f   libucrt:atox.obj
 0001:000626dc       atoll                      00000001800636dc f   libucrt:atox.obj
 0001:00062708       ??$__crt_fast_decode_pointer@P6AXPEB_W00I_K@Z@@YAP6AXPEB_W00I_K@ZQ6AX000I1@Z@Z 0000000180063708 f i libucrt:invalid_parameter.obj
 0001:00062720       ??$__crt_fast_encode_pointer@P6AXPEB_W00I_K@Z@@YAP6AXPEB_W00I_K@ZQ6AX000I1@Z@Z 0000000180063720 f i libucrt:invalid_parameter.obj
 0001:000627b0       ?initialize@?$dual_state_global@P6AXPEB_W00I_K@Z@__crt_state_management@@QEAAXQ6AXPEB_W00I_K@Z@Z 00000001800637b0 f i libucrt:invalid_parameter.obj
 0001:000627e4       ?value@?$dual_state_global@P6AXPEB_W00I_K@Z@__crt_state_management@@QEAAAEAP6AXPEB_W00I_K@ZXZ 00000001800637e4 f i libucrt:invalid_parameter.obj
 0001:000627e8       __acrt_call_reportfault    00000001800637e8 f   libucrt:invalid_parameter.obj
 0001:00062944       __acrt_initialize_invalid_parameter_handler 0000000180063944 f   libucrt:invalid_parameter.obj
 0001:0006294c       _get_invalid_parameter_handler 000000018006394c f   libucrt:invalid_parameter.obj
 0001:00062964       _get_thread_local_invalid_parameter_handler 0000000180063964 f   libucrt:invalid_parameter.obj
 0001:00062980       _invalid_parameter         0000000180063980 f   libucrt:invalid_parameter.obj
 0001:00062a28       _invalid_parameter_noinfo  0000000180063a28 f   libucrt:invalid_parameter.obj
 0001:00062a48       _invalid_parameter_noinfo_noreturn 0000000180063a48 f   libucrt:invalid_parameter.obj
 0001:00062a78       _invoke_watson             0000000180063a78 f   libucrt:invalid_parameter.obj
 0001:00062ac0       _set_invalid_parameter_handler 0000000180063ac0 f   libucrt:invalid_parameter.obj
 0001:00062af4       _set_thread_local_invalid_parameter_handler 0000000180063af4 f   libucrt:invalid_parameter.obj
 0001:00062b1c       __acrt_errno_from_os_error 0000000180063b1c f   libucrt:errno.obj
 0001:00062b64       __acrt_errno_map_os_error  0000000180063b64 f   libucrt:errno.obj
 0001:00062bb4       __doserrno                 0000000180063bb4 f   libucrt:errno.obj
 0001:00062bd4       _errno                     0000000180063bd4 f   libucrt:errno.obj
 0001:00062bf4       _get_doserrno              0000000180063bf4 f   libucrt:errno.obj
 0001:00062c30       _get_errno                 0000000180063c30 f   libucrt:errno.obj
 0001:00062c6c       _set_doserrno              0000000180063c6c f   libucrt:errno.obj
 0001:00062ca8       _set_errno                 0000000180063ca8 f   libucrt:errno.obj
 0001:00062ce4       __pctype_func              0000000180063ce4 f   libucrt:ctype.obj
 0001:00062d14       __pwctype_func             0000000180063d14 f   libucrt:ctype.obj
 0001:00062d1c       _iswctype_l                0000000180063d1c f   libucrt:iswctype.obj
 0001:00062d24       iswctype                   0000000180063d24 f   libucrt:iswctype.obj
 0001:00062d94       _isctype                   0000000180063d94 f   libucrt:isctype.obj
 0001:00062db8       _isctype_l                 0000000180063db8 f   libucrt:isctype.obj
 0001:00062ec8       ??$?RU__acrt_ptd@@@__crt_internal_free_policy@@QEBAXQEBU__acrt_ptd@@@Z 0000000180063ec8 f i libucrt:per_thread_data.obj
 0001:00062ed0       ??$?RV<lambda_46352004c1216016012b18bd6f87e700>@@AEAV<lambda_3bd07e1a1191394380780325891bf33f>@@V<lambda_334532d3f185bcaa59b5be82d7d22bff>@@@?$__crt_seh_guarded_call@X@@QEAAX$$QEAV<lambda_46352004c1216016012b18bd6f87e700>@@AEAV<lambda_3bd07e1a1191394380780325891bf33f>@@$$QEAV<lambda_334532d3f185bcaa59b5be82d7d22bff>@@@Z 0000000180063ed0 f i libucrt:per_thread_data.obj
 0001:00062f30       ??$?RV<lambda_5e887d1dcbef67a5eb4283622ba103bf>@@AEAV<lambda_4466841279450cc726390878d4a41900>@@V<lambda_341c25c0346d94847f1f3c463c57e077>@@@?$__crt_seh_guarded_call@X@@QEAAX$$QEAV<lambda_5e887d1dcbef67a5eb4283622ba103bf>@@AEAV<lambda_4466841279450cc726390878d4a41900>@@$$QEAV<lambda_341c25c0346d94847f1f3c463c57e077>@@@Z 0000000180063f30 f i libucrt:per_thread_data.obj
 0001:00062f78       ??$?RV<lambda_72d1df2b273a38828b1ce30cbf4cdab5>@@AEAV<lambda_876a65b173b8412d3a47c70a915b0cf4>@@V<lambda_41932305e351933ebe8f8be3ed8bb5dc>@@@?$__crt_seh_guarded_call@X@@QEAAX$$QEAV<lambda_72d1df2b273a38828b1ce30cbf4cdab5>@@AEAV<lambda_876a65b173b8412d3a47c70a915b0cf4>@@$$QEAV<lambda_41932305e351933ebe8f8be3ed8bb5dc>@@@Z 0000000180063f78 f i libucrt:per_thread_data.obj
 0001:00062fb8       ??$?RV<lambda_fb3a7dec4e47f37f22dae91bb15c9095>@@AEAV<lambda_698284760c8add0bfb0756c19673e34b>@@V<lambda_dfb8eca1e75fef3034a8fb18dd509707>@@@?$__crt_seh_guarded_call@X@@QEAAX$$QEAV<lambda_fb3a7dec4e47f37f22dae91bb15c9095>@@AEAV<lambda_698284760c8add0bfb0756c19673e34b>@@$$QEAV<lambda_dfb8eca1e75fef3034a8fb18dd509707>@@@Z 0000000180063fb8 f i libucrt:per_thread_data.obj
 0001:00062ff8       ??$__acrt_lock_and_call@V<lambda_3bd07e1a1191394380780325891bf33f>@@@@YAXW4__acrt_lock_id@@$$QEAV<lambda_3bd07e1a1191394380780325891bf33f>@@@Z 0000000180063ff8 f i libucrt:per_thread_data.obj
 0001:00063020       ??$__acrt_lock_and_call@V<lambda_4466841279450cc726390878d4a41900>@@@@YAXW4__acrt_lock_id@@$$QEAV<lambda_4466841279450cc726390878d4a41900>@@@Z 0000000180064020 f i libucrt:per_thread_data.obj
 0001:00063048       ??$__acrt_lock_and_call@V<lambda_698284760c8add0bfb0756c19673e34b>@@@@YAXW4__acrt_lock_id@@$$QEAV<lambda_698284760c8add0bfb0756c19673e34b>@@@Z 0000000180064048 f i libucrt:per_thread_data.obj
 0001:00063070       ??$__acrt_lock_and_call@V<lambda_876a65b173b8412d3a47c70a915b0cf4>@@@@YAXW4__acrt_lock_id@@$$QEAV<lambda_876a65b173b8412d3a47c70a915b0cf4>@@@Z 0000000180064070 f i libucrt:per_thread_data.obj
 0001:000630fc       ??0?$__crt_unique_heap_ptr@U__acrt_ptd@@U__crt_internal_free_policy@@@@QEAA@QEAU__acrt_ptd@@@Z 00000001800640fc f i libucrt:per_thread_data.obj
 0001:00063104       ??0__crt_scoped_get_last_error_reset@@QEAA@XZ 0000000180064104 f i libucrt:per_thread_data.obj
 0001:00063120       ??1?$__crt_unique_heap_ptr@U__acrt_ptd@@U__crt_internal_free_policy@@@@QEAA@XZ 0000000180064120 f i libucrt:per_thread_data.obj
 0001:0006313c       ??1__crt_scoped_get_last_error_reset@@QEAA@XZ 000000018006413c f i libucrt:per_thread_data.obj
 0001:00063148       ??B?$__crt_unique_heap_ptr@U__acrt_ptd@@U__crt_internal_free_policy@@@@QEBA_NXZ 0000000180064148 f i libucrt:per_thread_data.obj
 0001:000633a0       ?dangerous_get_state_array@?$dual_state_global@PEAU__crt_locale_data@@@__crt_state_management@@QEAAPEAPEAU__crt_locale_data@@XZ 00000001800643a0 f i libucrt:per_thread_data.obj
 0001:000635b4       ?detach@?$__crt_unique_heap_ptr@U__acrt_ptd@@U__crt_internal_free_policy@@@@QEAAPEAU__acrt_ptd@@XZ 00000001800645b4 f i libucrt:per_thread_data.obj
 0001:000635bc       ?get@?$__crt_unique_heap_ptr@U__acrt_ptd@@U__crt_internal_free_policy@@@@QEBAPEAU__acrt_ptd@@XZ 00000001800645bc f i libucrt:per_thread_data.obj
 0001:000636c8       ?is_valid@?$__crt_unique_heap_ptr@U__acrt_ptd@@U__crt_internal_free_policy@@@@QEBA_NXZ 00000001800646c8 f i libucrt:per_thread_data.obj
 0001:000636d4       ?release@?$__crt_unique_heap_ptr@U__acrt_ptd@@U__crt_internal_free_policy@@@@QEAAXXZ 00000001800646d4 f i libucrt:per_thread_data.obj
 0001:0006376c       ?value@?$dual_state_global@PEAU__crt_locale_data@@@__crt_state_management@@QEAAAEAPEAU__crt_locale_data@@XZ 000000018006476c f i libucrt:per_thread_data.obj
 0001:00063770       __acrt_freeptd             0000000180064770 f   libucrt:per_thread_data.obj
 0001:000637b4       __acrt_getptd              00000001800647b4 f   libucrt:per_thread_data.obj
 0001:00063848       __acrt_getptd_noexit       0000000180064848 f   libucrt:per_thread_data.obj
 0001:000638e8       __acrt_initialize_ptd      00000001800648e8 f   libucrt:per_thread_data.obj
 0001:00063924       __acrt_uninitialize_ptd    0000000180064924 f   libucrt:per_thread_data.obj
 0001:00063948       __threadhandle             0000000180064948 f   libucrt:per_thread_data.obj
 0001:00063950       __threadid                 0000000180064950 f   libucrt:per_thread_data.obj
 0001:00063958       __acrt_update_locale_info  0000000180064958 f   libucrt:locale_update.obj
 0001:0006398c       __acrt_update_multibyte_info 000000018006498c f   libucrt:locale_update.obj
 0001:000639c4       ??$?RU__crt_locale_data@@@__crt_internal_free_policy@@QEBAXQEBU__crt_locale_data@@@Z 00000001800649c4 f i libucrt:wsetlocale.obj
 0001:000639cc       ??$?RU__crt_locale_pointers@@@__crt_internal_free_policy@@QEBAXQEBU__crt_locale_pointers@@@Z 00000001800649cc f i libucrt:wsetlocale.obj
 0001:000639d4       ??$?RU__crt_multibyte_data@@@__crt_internal_free_policy@@QEBAXQEBU__crt_multibyte_data@@@Z 00000001800649d4 f i libucrt:wsetlocale.obj
 0001:000639dc       ??$?RV<lambda_3e0436e1742da57cd73032a8c01babf8>@@AEAV<lambda_b7fb1a997d3ebc0cc0186c5835178808>@@V<lambda_eece23d6871d1810c6784d81edd5a05e>@@@?$__crt_seh_guarded_call@X@@QEAAX$$QEAV<lambda_3e0436e1742da57cd73032a8c01babf8>@@AEAV<lambda_b7fb1a997d3ebc0cc0186c5835178808>@@$$QEAV<lambda_eece23d6871d1810c6784d81edd5a05e>@@@Z 00000001800649dc f i libucrt:wsetlocale.obj
 0001:00063a20       ??$?RV<lambda_5df02c53a8f32f81fd64e5bbb78039f1>@@AEAV<lambda_2af78c5f5901b1372d98f9ab3177dfa6>@@AEAV<lambda_f51fe5fd7c79a33db34fc9310f277369>@@@?$__crt_seh_guarded_call@X@@QEAAX$$QEAV<lambda_5df02c53a8f32f81fd64e5bbb78039f1>@@AEAV<lambda_2af78c5f5901b1372d98f9ab3177dfa6>@@AEAV<lambda_f51fe5fd7c79a33db34fc9310f277369>@@@Z 0000000180064a20 f i libucrt:wsetlocale.obj
 0001:00063a4c       ??$?RV<lambda_d67e8342c384adda8f857579ab50b2ae>@@AEAV<lambda_30712929f77e709619002f448b6a9510>@@V<lambda_4525336fd7e478d965fb7ca7a337cad8>@@@?$__crt_seh_guarded_call@X@@QEAAX$$QEAV<lambda_d67e8342c384adda8f857579ab50b2ae>@@AEAV<lambda_30712929f77e709619002f448b6a9510>@@$$QEAV<lambda_4525336fd7e478d965fb7ca7a337cad8>@@@Z 0000000180064a4c f i libucrt:wsetlocale.obj
 0001:00063b88       ??$?RV<lambda_ede63489d7330338e618311e15f0c366>@@AEAV<lambda_176e34f99554166dd2fac165c457248c>@@V<lambda_b0463272cb7667df9361a74a62ea8ca5>@@@?$__crt_seh_guarded_call@X@@QEAAX$$QEAV<lambda_ede63489d7330338e618311e15f0c366>@@AEAV<lambda_176e34f99554166dd2fac165c457248c>@@$$QEAV<lambda_b0463272cb7667df9361a74a62ea8ca5>@@@Z 0000000180064b88 f i libucrt:wsetlocale.obj
 0001:00063bc8       ??$__acrt_lock_and_call@V<lambda_176e34f99554166dd2fac165c457248c>@@@@YAXW4__acrt_lock_id@@$$QEAV<lambda_176e34f99554166dd2fac165c457248c>@@@Z 0000000180064bc8 f i libucrt:wsetlocale.obj
 0001:00063bf0       ??$__acrt_lock_and_call@V<lambda_30712929f77e709619002f448b6a9510>@@@@YAXW4__acrt_lock_id@@$$QEAV<lambda_30712929f77e709619002f448b6a9510>@@@Z 0000000180064bf0 f i libucrt:wsetlocale.obj
 0001:00063c18       ??$__acrt_lock_and_call@V<lambda_b7fb1a997d3ebc0cc0186c5835178808>@@@@YAXW4__acrt_lock_id@@$$QEAV<lambda_b7fb1a997d3ebc0cc0186c5835178808>@@@Z 0000000180064c18 f i libucrt:wsetlocale.obj
 0001:00063c40       ??$__crt_call_and_cleanup@V<lambda_2af78c5f5901b1372d98f9ab3177dfa6>@@V<lambda_f51fe5fd7c79a33db34fc9310f277369>@@@@YAX$$QEAV<lambda_2af78c5f5901b1372d98f9ab3177dfa6>@@$$QEAV<lambda_f51fe5fd7c79a33db34fc9310f277369>@@@Z 0000000180064c40 f i libucrt:wsetlocale.obj
 0001:00063c58       ??$__vcrt_va_start_verify_argument_type@H@@YAXXZ 0000000180064c58 f i libucrt:wsetlocale.obj
 0001:00063cec       ??0?$__crt_unique_heap_ptr@U__crt_locale_data@@U__crt_internal_free_policy@@@@QEAA@QEAU__crt_locale_data@@@Z 0000000180064cec f i libucrt:wsetlocale.obj
 0001:00063cf4       ??0?$__crt_unique_heap_ptr@U__crt_locale_pointers@@U__crt_internal_free_policy@@@@QEAA@QEAU__crt_locale_pointers@@@Z 0000000180064cf4 f i libucrt:wsetlocale.obj
 0001:00063cfc       ??0?$__crt_unique_heap_ptr@U__crt_multibyte_data@@U__crt_internal_free_policy@@@@QEAA@QEAU__crt_multibyte_data@@@Z 0000000180064cfc f i libucrt:wsetlocale.obj
 0001:00063d04       ??1?$__crt_unique_heap_ptr@U__crt_locale_data@@U__crt_internal_free_policy@@@@QEAA@XZ 0000000180064d04 f i libucrt:wsetlocale.obj
 0001:00063d20       ??1?$__crt_unique_heap_ptr@U__crt_locale_pointers@@U__crt_internal_free_policy@@@@QEAA@XZ 0000000180064d20 f i libucrt:wsetlocale.obj
 0001:00063d3c       ??1?$__crt_unique_heap_ptr@U__crt_multibyte_data@@U__crt_internal_free_policy@@@@QEAA@XZ 0000000180064d3c f i libucrt:wsetlocale.obj
 0001:00063d58       ??B?$__crt_unique_heap_ptr@U__crt_locale_data@@U__crt_internal_free_policy@@@@QEBA_NXZ 0000000180064d58 f i libucrt:wsetlocale.obj
 0001:00063d64       ??B?$__crt_unique_heap_ptr@U__crt_locale_pointers@@U__crt_internal_free_policy@@@@QEBA_NXZ 0000000180064d64 f i libucrt:wsetlocale.obj
 0001:00063d70       ??B?$__crt_unique_heap_ptr@U__crt_multibyte_data@@U__crt_internal_free_policy@@@@QEBA_NXZ 0000000180064d70 f i libucrt:wsetlocale.obj
 0001:00063f90       ?detach@?$__crt_unique_heap_ptr@U__crt_locale_data@@U__crt_internal_free_policy@@@@QEAAPEAU__crt_locale_data@@XZ 0000000180064f90 f i libucrt:wsetlocale.obj
 0001:00063f98       ?detach@?$__crt_unique_heap_ptr@U__crt_locale_pointers@@U__crt_internal_free_policy@@@@QEAAPEAU__crt_locale_pointers@@XZ 0000000180064f98 f i libucrt:wsetlocale.obj
 0001:00063fa0       ?detach@?$__crt_unique_heap_ptr@U__crt_multibyte_data@@U__crt_internal_free_policy@@@@QEAAPEAU__crt_multibyte_data@@XZ 0000000180064fa0 f i libucrt:wsetlocale.obj
 0001:00063fa8       ?get@?$__crt_unique_heap_ptr@U__crt_locale_data@@U__crt_internal_free_policy@@@@QEBAPEAU__crt_locale_data@@XZ 0000000180064fa8 f i libucrt:wsetlocale.obj
 0001:00063fac       ?get@?$__crt_unique_heap_ptr@U__crt_locale_pointers@@U__crt_internal_free_policy@@@@QEBAPEAU__crt_locale_pointers@@XZ 0000000180064fac f i libucrt:wsetlocale.obj
 0001:00063fb0       ?get@?$__crt_unique_heap_ptr@U__crt_multibyte_data@@U__crt_internal_free_policy@@@@QEBAPEAU__crt_multibyte_data@@XZ 0000000180064fb0 f i libucrt:wsetlocale.obj
 0001:00063fb4       ?is_valid@?$__crt_unique_heap_ptr@U__crt_locale_data@@U__crt_internal_free_policy@@@@QEBA_NXZ 0000000180064fb4 f i libucrt:wsetlocale.obj
 0001:00063fc0       ?is_valid@?$__crt_unique_heap_ptr@U__crt_locale_pointers@@U__crt_internal_free_policy@@@@QEBA_NXZ 0000000180064fc0 f i libucrt:wsetlocale.obj
 0001:00063fcc       ?is_valid@?$__crt_unique_heap_ptr@U__crt_multibyte_data@@U__crt_internal_free_policy@@@@QEBA_NXZ 0000000180064fcc f i libucrt:wsetlocale.obj
 0001:00063fd8       ?release@?$__crt_unique_heap_ptr@U__crt_locale_data@@U__crt_internal_free_policy@@@@QEAAXXZ 0000000180064fd8 f i libucrt:wsetlocale.obj
 0001:00063ff4       ?release@?$__crt_unique_heap_ptr@U__crt_locale_pointers@@U__crt_internal_free_policy@@@@QEAAXXZ 0000000180064ff4 f i libucrt:wsetlocale.obj
 0001:00064010       ?release@?$__crt_unique_heap_ptr@U__crt_multibyte_data@@U__crt_internal_free_policy@@@@QEAAXXZ 0000000180065010 f i libucrt:wsetlocale.obj
 0001:0006402c       __acrt_copy_locale_name    000000018006502c f   libucrt:wsetlocale.obj
 0001:000640b0       __acrt_set_locale_changed  00000001800650b0 f   libucrt:wsetlocale.obj
 0001:000640bc       __acrt_uninitialize_locale 00000001800650bc f   libucrt:wsetlocale.obj
 0001:00064104       __lc_lctowcs               0000000180065104 f   libucrt:wsetlocale.obj
 0001:000641a8       __lc_wcstolc               00000001800651a8 f   libucrt:wsetlocale.obj
 0001:00064360       _configthreadlocale        0000000180065360 f   libucrt:wsetlocale.obj
 0001:0006448c       _create_locale             000000018006548c f   libucrt:wsetlocale.obj
 0001:00064504       _expandlocale              0000000180065504 f   libucrt:wsetlocale.obj
 0001:00064900       _free_locale               0000000180065900 f   libucrt:wsetlocale.obj
 0001:000649a4       _get_current_locale        00000001800659a4 f   libucrt:wsetlocale.obj
 0001:00064a60       _wcreate_locale            0000000180065a60 f   libucrt:wsetlocale.obj
 0001:00064ba8       _wcscats                   0000000180065ba8 f   libucrt:wsetlocale.obj
 0001:00064c10       _wsetlocale                0000000180065c10 f   libucrt:wsetlocale.obj
 0001:00065488       __p___mb_cur_max           0000000180066488 f   libucrt:nlsdata.obj
 0001:000654b8       __acrt_initialize_locks    00000001800664b8 f   libucrt:locks.obj
 0001:00065500       __acrt_lock                0000000180066500 f   libucrt:locks.obj
 0001:0006551c       __acrt_uninitialize_locks  000000018006651c f   libucrt:locks.obj
 0001:00065554       __acrt_unlock              0000000180066554 f   libucrt:locks.obj
 0001:00065570       _lock_locales              0000000180066570 f   libucrt:locks.obj
 0001:00065580       _unlock_locales            0000000180066580 f   libucrt:locks.obj
 0001:000655d4       ??$?B$$A6AHPEA_WK_J@Z@__crt_fast_encoded_nullptr_t@@QEBAP6AHPEA_WK_J@ZXZ 00000001800665d4 f i libucrt:winapi_thunks.obj
 0001:000655f0       ??$?RV<lambda_630b2aca97f6d20d5b5ea6529ea6b6af>@@AEAV<lambda_af91936f1d075d609f72d9d8cba980af>@@V<lambda_e82fa975f615b5c7c7b0e4d178fdae67>@@@?$__crt_seh_guarded_call@H@@QEAAH$$QEAV<lambda_630b2aca97f6d20d5b5ea6529ea6b6af>@@AEAV<lambda_af91936f1d075d609f72d9d8cba980af>@@$$QEAV<lambda_e82fa975f615b5c7c7b0e4d178fdae67>@@@Z 00000001800665f0 f i libucrt:winapi_thunks.obj
 0001:00065688       ??$__acrt_lock_and_call@V<lambda_af91936f1d075d609f72d9d8cba980af>@@@@YAHW4__acrt_lock_id@@$$QEAV<lambda_af91936f1d075d609f72d9d8cba980af>@@@Z 0000000180066688 f i libucrt:winapi_thunks.obj
 0001:000656b0       ??$__crt_fast_decode_pointer@P6AHPEA_WK_J@Z@@YAP6AHPEA_WK_J@ZQ6AH0K1@Z@Z 00000001800666b0 f i libucrt:winapi_thunks.obj
 0001:000656c8       ??$__crt_fast_encode_pointer@P6AHPEA_WK_J@Z@@YAP6AHPEA_WK_J@ZQ6AH0K1@Z@Z 00000001800666c8 f i libucrt:winapi_thunks.obj
 0001:00066080       __acrt_AreFileApisANSI     0000000180067080 f   libucrt:winapi_thunks.obj
 0001:000660cc       __acrt_CompareStringEx     00000001800670cc f   libucrt:winapi_thunks.obj
 0001:000661bc       __acrt_EnumSystemLocalesEx 00000001800671bc f   libucrt:winapi_thunks.obj
 0001:00066264       __acrt_FlsAlloc            0000000180067264 f   libucrt:winapi_thunks.obj
 0001:000662bc       __acrt_FlsFree             00000001800672bc f   libucrt:winapi_thunks.obj
 0001:00066314       __acrt_FlsGetValue         0000000180067314 f   libucrt:winapi_thunks.obj
 0001:0006636c       __acrt_FlsSetValue         000000018006736c f   libucrt:winapi_thunks.obj
 0001:000663d4       __acrt_GetDateFormatEx     00000001800673d4 f   libucrt:winapi_thunks.obj
 0001:000664a0       __acrt_GetEnabledXStateFeatures 00000001800674a0 f   libucrt:winapi_thunks.obj
 0001:000664e8       __acrt_GetFileInformationByHandleEx 00000001800674e8 f   libucrt:winapi_thunks.obj
 0001:00066574       __acrt_GetLocaleInfoEx     0000000180067574 f   libucrt:winapi_thunks.obj
 0001:0006660c       __acrt_GetSystemTimePreciseAsFileTime 000000018006760c f   libucrt:winapi_thunks.obj
 0001:00066664       __acrt_GetTimeFormatEx     0000000180067664 f   libucrt:winapi_thunks.obj
 0001:00066720       __acrt_GetUserDefaultLocaleName 0000000180067720 f   libucrt:winapi_thunks.obj
 0001:00066794       __acrt_GetXStateFeaturesMask 0000000180067794 f   libucrt:winapi_thunks.obj
 0001:000667fc       __acrt_InitializeCriticalSectionEx 00000001800677fc f   libucrt:winapi_thunks.obj
 0001:00066874       __acrt_IsValidLocaleName   0000000180067874 f   libucrt:winapi_thunks.obj
 0001:000668dc       __acrt_LCIDToLocaleName    00000001800678dc f   libucrt:winapi_thunks.obj
 0001:00066968       __acrt_LCMapStringEx       0000000180067968 f   libucrt:winapi_thunks.obj
 0001:00066a58       __acrt_LocaleNameToLCID    0000000180067a58 f   libucrt:winapi_thunks.obj
 0001:00066ac0       __acrt_LocateXStateFeature 0000000180067ac0 f   libucrt:winapi_thunks.obj
 0001:00066b34       __acrt_MessageBoxA         0000000180067b34 f   libucrt:winapi_thunks.obj
 0001:00066bbc       __acrt_MessageBoxW         0000000180067bbc f   libucrt:winapi_thunks.obj
 0001:00066c44       __acrt_RoInitialize        0000000180067c44 f   libucrt:winapi_thunks.obj
 0001:00066c90       __acrt_RoUninitialize      0000000180067c90 f   libucrt:winapi_thunks.obj
 0001:00066cd0       __acrt_RtlGenRandom        0000000180067cd0 f   libucrt:winapi_thunks.obj
 0001:00066d34       __acrt_SetThreadStackGuarantee 0000000180067d34 f   libucrt:winapi_thunks.obj
 0001:00066d84       __acrt_can_show_message_box 0000000180067d84 f   libucrt:winapi_thunks.obj
 0001:00066de0       __acrt_can_use_vista_locale_apis 0000000180067de0 f   libucrt:winapi_thunks.obj
 0001:00066e10       __acrt_can_use_xstate_apis 0000000180067e10 f   libucrt:winapi_thunks.obj
 0001:00066e40       __acrt_get_parent_window   0000000180067e40 f   libucrt:winapi_thunks.obj
 0001:00066ed0       __acrt_initialize_winapi_thunks 0000000180067ed0 f   libucrt:winapi_thunks.obj
 0001:00066f08       __acrt_is_interactive      0000000180067f08 f   libucrt:winapi_thunks.obj
 0001:00066fdc       __acrt_is_packaged_app     0000000180067fdc f   libucrt:winapi_thunks.obj
 0001:00067064       __acrt_uninitialize_winapi_thunks 0000000180068064 f   libucrt:winapi_thunks.obj
 0001:00067114       wcscpy_s                   0000000180068114 f   libucrt:wcscpy_s.obj
 0001:0006717c       ??$?RV<lambda_99476a1ad63dd22509b5d3e65b0ffc95>@@AEAV<lambda_ad1ced32f4ac17aa236e5ef05d6b3b7c>@@V<lambda_f7424dd8d45958661754dc4f2697e9c3>@@@?$__crt_seh_guarded_call@X@@QEAAX$$QEAV<lambda_99476a1ad63dd22509b5d3e65b0ffc95>@@AEAV<lambda_ad1ced32f4ac17aa236e5ef05d6b3b7c>@@$$QEAV<lambda_f7424dd8d45958661754dc4f2697e9c3>@@@Z 000000018006817c f i libucrt:mbctype.obj
 0001:000671b4       ??$__acrt_lock_and_call@V<lambda_ad1ced32f4ac17aa236e5ef05d6b3b7c>@@@@YAXW4__acrt_lock_id@@$$QEAV<lambda_ad1ced32f4ac17aa236e5ef05d6b3b7c>@@@Z 00000001800681b4 f i libucrt:mbctype.obj
 0001:00067904       __acrt_initialize_multibyte 0000000180068904 f   libucrt:mbctype.obj
 0001:0006792c       __acrt_update_thread_multibyte_data 000000018006892c f   libucrt:mbctype.obj
 0001:000679ec       __p__mbcasemap             00000001800689ec f   libucrt:mbctype.obj
 0001:000679f4       __p__mbctype               00000001800689f4 f   libucrt:mbctype.obj
 0001:000679fc       _getmbcp                   00000001800689fc f   libucrt:mbctype.obj
 0001:00067a38       _setmbcp                   0000000180068a38 f   libucrt:mbctype.obj
 0001:00067a40       _setmbcp_nolock            0000000180068a40 f   libucrt:mbctype.obj
 0001:00067d70       ??0?$__crt_unique_handle_t@Uenvironment_strings_traits@?A0x17d69fb8@@@@QEAA@QEA_W@Z 0000000180068d70 f i libucrt:get_environment_from_os.obj
 0001:00067d78       ??1?$__crt_unique_handle_t@Uenvironment_strings_traits@?A0x17d69fb8@@@@QEAA@XZ 0000000180068d78 f i libucrt:get_environment_from_os.obj
 0001:00067d9c       ??B?$__crt_unique_handle_t@Uenvironment_strings_traits@?A0x17d69fb8@@@@QEBA_NXZ 0000000180068d9c f i libucrt:get_environment_from_os.obj
 0001:00067da8       ?close@?$__crt_unique_handle_t@Uenvironment_strings_traits@?A0x17d69fb8@@@@QEAAXXZ 0000000180068da8 f i libucrt:get_environment_from_os.obj
 0001:00067dcc       ?close@environment_strings_traits@?A0x17d69fb8@@SA_NPEA_W@Z 0000000180068dcc f i libucrt:get_environment_from_os.obj
 0001:00067e04       ?get@?$__crt_unique_handle_t@Uenvironment_strings_traits@?A0x17d69fb8@@@@QEBAPEA_WXZ 0000000180068e04 f i libucrt:get_environment_from_os.obj
 0001:00067e08       ?get_invalid_value@environment_strings_traits@?A0x17d69fb8@@SAPEA_WXZ 0000000180068e08 f i libucrt:get_environment_from_os.obj
 0001:00067e0c       ?is_valid@?$__crt_unique_handle_t@Uenvironment_strings_traits@?A0x17d69fb8@@@@QEBA_NXZ 0000000180068e0c f i libucrt:get_environment_from_os.obj
 0001:00067e18       __dcrt_get_narrow_environment_from_os 0000000180068e18 f   libucrt:get_environment_from_os.obj
 0001:00067f1c       __dcrt_get_wide_environment_from_os 0000000180068f1c f   libucrt:get_environment_from_os.obj
 0001:00068884       ??$get_or_create_environment_nolock@$$$V@?$__crt_char_traits@D@@SAPEAPEADXZ 0000000180069884 f i libucrt:setenv.obj
 0001:0006888c       ??$get_or_create_environment_nolock@$$$V@?$__crt_char_traits@_W@@SAPEAPEA_WXZ 000000018006988c f i libucrt:setenv.obj
 0001:00068894       ??$set_environment_variable@AEBQEADQEAD@?$__crt_char_traits@D@@SAHAEBQEAD$$QEBQEAD@Z 0000000180069894 f i libucrt:setenv.obj
 0001:000688a4       ??$set_environment_variable@AEBQEA_WQEA_W@?$__crt_char_traits@_W@@SAHAEBQEA_W$$QEBQEA_W@Z 00000001800698a4 f i libucrt:setenv.obj
 0001:000688b4       ??$tcschr@AEBQEADD@?$__crt_char_traits@D@@SAPEADAEBQEAD$$QEAD@Z 00000001800698b4 f i libucrt:setenv.obj
 0001:000688c0       ??$tcschr@AEBQEA_WD@?$__crt_char_traits@_W@@SAPEA_WAEBQEA_W$$QEAD@Z 00000001800698c0 f i libucrt:setenv.obj
 0001:000688cc       ??$tcscpy_s@AEAPEADAEB_KAEAPEAD@?$__crt_char_traits@D@@SAHAEAPEADAEB_K0@Z 00000001800698cc f i libucrt:setenv.obj
 0001:000688dc       ??$tcscpy_s@AEAPEA_WAEB_KAEAPEA_W@?$__crt_char_traits@_W@@SAHAEAPEA_WAEB_K0@Z 00000001800698dc f i libucrt:setenv.obj
 0001:000688ec       ??$tcscpy_s@AEBQEADAEB_KAEBQEAD@?$__crt_char_traits@D@@SAHAEBQEADAEB_K0@Z 00000001800698ec f i libucrt:setenv.obj
 0001:000688fc       ??$tcscpy_s@AEBQEA_WAEB_KAEBQEA_W@?$__crt_char_traits@_W@@SAHAEBQEA_WAEB_K0@Z 00000001800698fc f i libucrt:setenv.obj
 0001:0006890c       ??$tcslen@AEBQEAD@?$__crt_char_traits@D@@SA_KAEBQEAD@Z 000000018006990c f i libucrt:setenv.obj
 0001:00068920       ??$tcslen@AEBQEA_W@?$__crt_char_traits@_W@@SA_KAEBQEA_W@Z 0000000180069920 f i libucrt:setenv.obj
 0001:00068934       ??$tcsnicoll@AEBQEBDAEAPEADAEB_K@?$__crt_char_traits@D@@SAHAEBQEBDAEAPEADAEB_K@Z 0000000180069934 f i libucrt:setenv.obj
 0001:00068944       ??$tcsnicoll@AEBQEB_WAEAPEA_WAEB_K@?$__crt_char_traits@_W@@SAHAEBQEB_WAEAPEA_WAEB_K@Z 0000000180069944 f i libucrt:setenv.obj
 0001:00068984       ?strchr@@YAPEADQEADH@Z     0000000180069984 f i libucrt:setenv.obj
 0001:0006898c       __dcrt_set_variable_in_narrow_environment_nolock 000000018006998c f   libucrt:setenv.obj
 0001:00068994       __dcrt_set_variable_in_wide_environment_nolock 0000000180069994 f   libucrt:setenv.obj
 0001:0006899c       _recalloc                  000000018006999c f   libucrt:recalloc.obj
 0001:000689a4       _recalloc_base             00000001800699a4 f   libucrt:recalloc.obj
 0001:00068a3c       __acrt_getheap             0000000180069a3c f   libucrt:heap_handle.obj
 0001:00068a44       __acrt_initialize_heap     0000000180069a44 f   libucrt:heap_handle.obj
 0001:00068a60       __acrt_uninitialize_heap   0000000180069a60 f   libucrt:heap_handle.obj
 0001:00068a6c       _get_heap_handle           0000000180069a6c f   libucrt:heap_handle.obj
 0001:00068c78       __acrt_initialize_lowio    0000000180069c78 f   libucrt:ioinit.obj
 0001:00068cb4       __acrt_uninitialize_lowio  0000000180069cb4 f   libucrt:ioinit.obj
 0001:00068cf4       __acrt_initialize_command_line 0000000180069cf4 f   libucrt:argv_data.obj
 0001:00068d1c       __acrt_uninitialize_command_line 0000000180069d1c f   libucrt:argv_data.obj
 0001:00068d20       __p___argc                 0000000180069d20 f   libucrt:argv_data.obj
 0001:00068d28       __p___argv                 0000000180069d28 f   libucrt:argv_data.obj
 0001:00068d30       __p___wargv                0000000180069d30 f   libucrt:argv_data.obj
 0001:00068d38       __p__acmdln                0000000180069d38 f   libucrt:argv_data.obj
 0001:00068d40       __p__pgmptr                0000000180069d40 f   libucrt:argv_data.obj
 0001:00068d48       __p__wcmdln                0000000180069d48 f   libucrt:argv_data.obj
 0001:00068d50       __p__wpgmptr               0000000180069d50 f   libucrt:argv_data.obj
 0001:00068d58       _get_pgmptr                0000000180069d58 f   libucrt:argv_data.obj
 0001:00068d90       _get_wpgmptr               0000000180069d90 f   libucrt:argv_data.obj
 0001:00068dc8       __acrt_execute_initializers 0000000180069dc8 f   libucrt:shared_initialization.obj
 0001:00068e5c       __acrt_execute_uninitializers 0000000180069e5c f   libucrt:shared_initialization.obj
 0001:00068eac       ??$?B$$A6AH_K@Z@__crt_fast_encoded_nullptr_t@@QEBAP6AH_K@ZXZ 0000000180069eac f i libucrt:new_handler.obj
 0001:00068ec8       ??$__crt_fast_decode_pointer@P6AH_K@Z@@YAP6AH_K@ZQ6AH0@Z@Z 0000000180069ec8 f i libucrt:new_handler.obj
 0001:00068ee0       ??$__crt_fast_encode_pointer@P6AH_K@Z@@YAP6AH_K@ZQ6AH0@Z@Z 0000000180069ee0 f i libucrt:new_handler.obj
 0001:00068f00       ?_set_new_handler@@YAP6AH_K@ZH@Z 0000000180069f00 f   libucrt:new_handler.obj
 0001:00068f24       ?initialize@?$dual_state_global@P6AH_K@Z@__crt_state_management@@QEAAXQ6AH_K@Z@Z 0000000180069f24 f i libucrt:new_handler.obj
 0001:00068f58       ?value@?$dual_state_global@P6AH_K@Z@__crt_state_management@@QEAAAEAP6AH_K@ZXZ 0000000180069f58 f i libucrt:new_handler.obj
 0001:00068f5c       __acrt_initialize_new_handler 0000000180069f5c f   libucrt:new_handler.obj
 0001:00068f64       _callnewh                  0000000180069f64 f   libucrt:new_handler.obj
 0001:00068fa4       _query_new_handler         0000000180069fa4 f   libucrt:new_handler.obj
 0001:00068fd8       _set_new_handler           0000000180069fd8 f   libucrt:new_handler.obj
 0001:00069034       ??$?B$$A6AXH@Z@__crt_fast_encoded_nullptr_t@@QEBAP6AXH@ZXZ 000000018006a034 f i libucrt:signal.obj
 0001:00069050       ??$?RV<lambda_c36588078e9f5dfd39652860aa6b3aaf>@@AEAV<lambda_ec61778202f4f5fc7e7711acc23c3bca>@@V<lambda_dc9d2797ccde5d239b4a0efae8ebd7db>@@@?$__crt_seh_guarded_call@P6AXH@Z@@QEAAP6AXH@Z$$QEAV<lambda_c36588078e9f5dfd39652860aa6b3aaf>@@AEAV<lambda_ec61778202f4f5fc7e7711acc23c3bca>@@$$QEAV<lambda_dc9d2797ccde5d239b4a0efae8ebd7db>@@@Z 000000018006a050 f i libucrt:signal.obj
 0001:00069098       ??$__acrt_lock_and_call@V<lambda_ec61778202f4f5fc7e7711acc23c3bca>@@@@YAP6AXH@ZW4__acrt_lock_id@@$$QEAV<lambda_ec61778202f4f5fc7e7711acc23c3bca>@@@Z 000000018006a098 f i libucrt:signal.obj
 0001:000690c0       ??$__crt_fast_decode_pointer@P6AXH@Z@@YAP6AXH@ZQ6AXH@Z@Z 000000018006a0c0 f i libucrt:signal.obj
 0001:000690d8       ??$__crt_fast_encode_pointer@P6AXH@Z@@YAP6AXH@ZQ6AXH@Z@Z 000000018006a0d8 f i libucrt:signal.obj
 0001:00069214       ?initialize@?$dual_state_global@P6AXH@Z@__crt_state_management@@QEAAXQ6AXH@Z@Z 000000018006a214 f i libucrt:signal.obj
 0001:00069298       ?value@?$dual_state_global@P6AXH@Z@__crt_state_management@@QEAAAEAP6AXH@ZXZ 000000018006a298 f i libucrt:signal.obj
 0001:0006929c       __acrt_get_sigabrt_handler 000000018006a29c f   libucrt:signal.obj
 0001:000692cc       __acrt_initialize_signal_handlers 000000018006a2cc f   libucrt:signal.obj
 0001:000692ec       __fpecode                  000000018006a2ec f   libucrt:signal.obj
 0001:00069300       __pxcptinfoptrs            000000018006a300 f   libucrt:signal.obj
 0001:00069314       raise                      000000018006a314 f   libucrt:signal.obj
 0001:000695b0       signal                     000000018006a5b0 f   libucrt:signal.obj
 0001:0006979c       ??$__crt_fast_decode_pointer@P6AHPEAU_exception@@@Z@@YAP6AHPEAU_exception@@@ZQ6AH0@Z@Z 000000018006a79c f i libucrt:matherr.obj
 0001:000697b4       ??$__crt_fast_encode_pointer@P6AHPEAU_exception@@@Z@@YAP6AHPEAU_exception@@@ZQ6AH0@Z@Z 000000018006a7b4 f i libucrt:matherr.obj
 0001:000697d4       ?initialize@?$dual_state_global@P6AHPEAU_exception@@@Z@__crt_state_management@@QEAAXQ6AHPEAU_exception@@@Z@Z 000000018006a7d4 f i libucrt:matherr.obj
 0001:00069808       ?value@?$dual_state_global@P6AHPEAU_exception@@@Z@__crt_state_management@@QEAAAEAP6AHPEAU_exception@@@ZXZ 000000018006a808 f i libucrt:matherr.obj
 0001:0006980c       __acrt_has_user_matherr    000000018006a80c f   libucrt:matherr.obj
 0001:0006982c       __acrt_initialize_user_matherr 000000018006a82c f   libucrt:matherr.obj
 0001:00069834       __acrt_invoke_user_matherr 000000018006a834 f   libucrt:matherr.obj
 0001:0006987c       __setusermatherr           000000018006a87c f   libucrt:matherr.obj
 0001:000698a4       ?has_any_buffer@__crt_stdio_stream@@QEBA_NXZ 000000018006a8a4 f i libucrt:_sftbuf.obj
 0001:000698b4       ?has_any_of@__crt_stdio_stream@@QEBA_NJ@Z 000000018006a8b4 f i libucrt:_sftbuf.obj
 0001:000698c0       ?has_temporary_buffer@__crt_stdio_stream@@QEBA_NXZ 000000018006a8c0 f i libucrt:_sftbuf.obj
 0001:000698d0       ?set_flags@__crt_stdio_stream@@QEBA_NJ@Z 000000018006a8d0 f i libucrt:_sftbuf.obj
 0001:000698f0       ?unset_flags@__crt_stdio_stream@@QEBA_NJ@Z 000000018006a8f0 f i libucrt:_sftbuf.obj
 0001:00069918       __acrt_stdio_begin_temporary_buffering_nolock 000000018006a918 f   libucrt:_sftbuf.obj
 0001:000699e8       __acrt_stdio_end_temporary_buffering_nolock 000000018006a9e8 f   libucrt:_sftbuf.obj
 0001:00069a24       ?value@?$dual_state_global@J@__crt_state_management@@QEAAAEAJXZ 000000018006aa24 f i libucrt:new_mode.obj
 0001:00069a28       _query_new_mode            000000018006aa28 f   libucrt:new_mode.obj
 0001:00069a30       _set_new_mode              000000018006aa30 f   libucrt:new_mode.obj
 0001:00069a70       __isascii                  000000018006aa70 f i libucrt:_ctype.obj
 0001:00069a7c       __iscsym                   000000018006aa7c f i libucrt:_ctype.obj
 0001:00069aa4       __iscsymf                  000000018006aaa4 f i libucrt:_ctype.obj
 0001:00069acc       __toascii                  000000018006aacc f i libucrt:_ctype.obj
 0001:00069ad4       _isalnum_l                 000000018006aad4 f i libucrt:_ctype.obj
 0001:00069b30       _isalpha_l                 000000018006ab30 f i libucrt:_ctype.obj
 0001:00069b8c       _isblank_l                 000000018006ab8c f i libucrt:_ctype.obj
 0001:00069bf4       _iscntrl_l                 000000018006abf4 f i libucrt:_ctype.obj
 0001:00069c4c       _iscsym_l                  000000018006ac4c f i libucrt:_ctype.obj
 0001:00069cb8       _iscsymf_l                 000000018006acb8 f i libucrt:_ctype.obj
 0001:00069d24       _isdigit_l                 000000018006ad24 f i libucrt:_ctype.obj
 0001:00069d7c       _isgraph_l                 000000018006ad7c f i libucrt:_ctype.obj
 0001:00069dd8       _islower_l                 000000018006add8 f i libucrt:_ctype.obj
 0001:00069e30       _isprint_l                 000000018006ae30 f i libucrt:_ctype.obj
 0001:00069e8c       _ispunct_l                 000000018006ae8c f i libucrt:_ctype.obj
 0001:00069ee4       _isspace_l                 000000018006aee4 f i libucrt:_ctype.obj
 0001:00069f3c       _isupper_l                 000000018006af3c f i libucrt:_ctype.obj
 0001:00069f94       _isxdigit_l                000000018006af94 f i libucrt:_ctype.obj
 0001:00069ff0       isalnum                    000000018006aff0 f i libucrt:_ctype.obj
 0001:0006a06c       isalpha                    000000018006b06c f i libucrt:_ctype.obj
 0001:0006a0e8       isblank                    000000018006b0e8 f i libucrt:_ctype.obj
 0001:0006a174       iscntrl                    000000018006b174 f i libucrt:_ctype.obj
 0001:0006a1e8       isdigit                    000000018006b1e8 f i libucrt:_ctype.obj
 0001:0006a25c       isgraph                    000000018006b25c f i libucrt:_ctype.obj
 0001:0006a2d8       islower                    000000018006b2d8 f i libucrt:_ctype.obj
 0001:0006a34c       isprint                    000000018006b34c f i libucrt:_ctype.obj
 0001:0006a3c8       ispunct                    000000018006b3c8 f i libucrt:_ctype.obj
 0001:0006a43c       isspace                    000000018006b43c f i libucrt:_ctype.obj
 0001:0006a4b0       isupper                    000000018006b4b0 f i libucrt:_ctype.obj
 0001:0006a524       isxdigit                   000000018006b524 f i libucrt:_ctype.obj
 0001:0006a8e8       _tolower                   000000018006b8e8 f   libucrt:tolower_toupper.obj
 0001:0006a8ec       _tolower_l                 000000018006b8ec f   libucrt:tolower_toupper.obj
 0001:0006aa2c       _toupper                   000000018006ba2c f   libucrt:tolower_toupper.obj
 0001:0006aa30       _toupper_l                 000000018006ba30 f   libucrt:tolower_toupper.obj
 0001:0006ab70       tolower                    000000018006bb70 f   libucrt:tolower_toupper.obj
 0001:0006ab9c       toupper                    000000018006bb9c f   libucrt:tolower_toupper.obj
 0001:0006abc8       _mbtowc_l                  000000018006bbc8 f   libucrt:mbtowc.obj
 0001:0006ad10       mbtowc                     000000018006bd10 f   libucrt:mbtowc.obj
 0001:0006ad18       _wctomb_l                  000000018006bd18 f   libucrt:wctomb.obj
 0001:0006ad8c       _wctomb_s_l                000000018006bd8c f   libucrt:wctomb.obj
 0001:0006af10       wctomb                     000000018006bf10 f   libucrt:wctomb.obj
 0001:0006af60       wctomb_s                   000000018006bf60 f   libucrt:wctomb.obj
 0001:0006b5f0       ??1?$__crt_simd_cleanup_guard@$00@@QEAA@XZ 000000018006c5f0 f i libucrt:strnlen.obj
 0001:0006b5f4       ??1?$__crt_simd_cleanup_guard@$0A@@@QEAA@XZ 000000018006c5f4 f i libucrt:strnlen.obj
 0001:0006b5f8       ?compare_equals@?$__crt_simd_traits@$00E@@SA?AT__m256i@@T2@0@Z 000000018006c5f8 f i libucrt:strnlen.obj
 0001:0006b618       ?compare_equals@?$__crt_simd_traits@$00G@@SA?AT__m256i@@T2@0@Z 000000018006c618 f i libucrt:strnlen.obj
 0001:0006b638       ?compare_equals@?$__crt_simd_traits@$0A@E@@SA?AT__m128i@@T2@0@Z 000000018006c638 f i libucrt:strnlen.obj
 0001:0006b644       ?compare_equals@?$__crt_simd_traits@$0A@G@@SA?AT__m128i@@T2@0@Z 000000018006c644 f i libucrt:strnlen.obj
 0001:0006b650       ?compute_byte_mask@?$__crt_simd_pack_traits@$00@@SAHT__m256i@@@Z 000000018006c650 f i libucrt:strnlen.obj
 0001:0006b65c       ?compute_byte_mask@?$__crt_simd_pack_traits@$0A@@@SAHT__m128i@@@Z 000000018006c65c f i libucrt:strnlen.obj
 0001:0006b668       ?get_zero_pack@?$__crt_simd_pack_traits@$00@@SA?AT__m256i@@XZ 000000018006c668 f i libucrt:strnlen.obj
 0001:0006b684       ?get_zero_pack@?$__crt_simd_pack_traits@$0A@@@SA?AT__m128i@@XZ 000000018006c684 f i libucrt:strnlen.obj
 0001:0006b688       strnlen                    000000018006c688 f   libucrt:strnlen.obj
 0001:0006b7e4       wcsnlen                    000000018006c7e4 f   libucrt:strnlen.obj
 0001:0006b9d4       ?__acrt_fp_classify@@YA?AW4__acrt_fp_class@@AEBN@Z 000000018006c9d4 f i libucrt:cvt.obj
 0001:0006ba3c       ?__acrt_fp_is_negative@@YA_NAEBN@Z 000000018006ca3c f i libucrt:cvt.obj
 0001:0006c4f0       ?strrchr@@YAPEADQEADH@Z    000000018006d4f0 f i libucrt:cvt.obj
 0001:0006c4f8       __acrt_fp_format           000000018006d4f8 f   libucrt:cvt.obj
 0001:0006c770       _fputwc_nolock             000000018006d770 f   libucrt:fputwc.obj
 0001:0006c8ec       _fputwchar                 000000018006d8ec f   libucrt:fputwc.obj
 0001:0006c910       _putwc_nolock              000000018006d910 f   libucrt:fputwc.obj
 0001:0006c918       fputwc                     000000018006d918 f   libucrt:fputwc.obj
 0001:0006c980       putwc                      000000018006d980 f   libucrt:fputwc.obj
 0001:0006c988       putwchar                   000000018006d988 f   libucrt:fputwc.obj
 0001:0006c990       ?lowio_handle@__crt_stdio_stream@@QEBAHXZ 000000018006d990 f i libucrt:fileno.obj
 0001:0006c998       _fileno                    000000018006d998 f   libucrt:fileno.obj
 0001:0006c9c0       ??$?RPEAU__crt_stdio_stream_data@@@__crt_internal_free_policy@@QEBAXQEBQEAU__crt_stdio_stream_data@@@Z 000000018006d9c0 f i libucrt:_file.obj
 0001:0006c9c8       ??0?$__crt_unique_heap_ptr@PEAU__crt_stdio_stream_data@@U__crt_internal_free_policy@@@@QEAA@QEAPEAU__crt_stdio_stream_data@@@Z 000000018006d9c8 f i libucrt:_file.obj
 0001:0006c9d0       ??1?$__crt_unique_heap_ptr@PEAU__crt_stdio_stream_data@@U__crt_internal_free_policy@@@@QEAA@XZ 000000018006d9d0 f i libucrt:_file.obj
 0001:0006c9ec       ?detach@?$__crt_unique_heap_ptr@PEAU__crt_stdio_stream_data@@U__crt_internal_free_policy@@@@QEAAPEAPEAU__crt_stdio_stream_data@@XZ 000000018006d9ec f i libucrt:_file.obj
 0001:0006c9f4       ?release@?$__crt_unique_heap_ptr@PEAU__crt_stdio_stream_data@@U__crt_internal_free_policy@@@@QEAAXXZ 000000018006d9f4 f i libucrt:_file.obj
 0001:0006ca10       __acrt_initialize_stdio    000000018006da10 f   libucrt:_file.obj
 0001:0006cb30       __acrt_iob_func            000000018006db30 f   libucrt:_file.obj
 0001:0006cb44       __acrt_uninitialize_stdio  000000018006db44 f   libucrt:_file.obj
 0001:0006cba0       _get_stream_buffer_pointers 000000018006dba0 f   libucrt:_file.obj
 0001:0006cbe8       _lock_file                 000000018006dbe8 f   libucrt:_file.obj
 0001:0006cbf4       _unlock_file               000000018006dbf4 f   libucrt:_file.obj
 0001:0006cc00       _fputc_nolock              000000018006dc00 f   libucrt:fputc.obj
 0001:0006cc18       _fputchar                  000000018006dc18 f   libucrt:fputc.obj
 0001:0006cc3c       _putc_nolock               000000018006dc3c f   libucrt:fputc.obj
 0001:0006cc54       fputc                      000000018006dc54 f   libucrt:fputc.obj
 0001:0006cd74       putc                       000000018006dd74 f   libucrt:fputc.obj
 0001:0006cd7c       putchar                    000000018006dd7c f   libucrt:fputc.obj
 0001:0006cd84       _get_printf_count_output   000000018006dd84 f   libucrt:printf_count_output.obj
 0001:0006cd9c       _set_printf_count_output   000000018006dd9c f   libucrt:printf_count_output.obj
 0001:0006cdc4       __iswcsym                  000000018006ddc4 f i libucrt:_wctype.obj
 0001:0006cdf0       __iswcsymf                 000000018006ddf0 f i libucrt:_wctype.obj
 0001:0006ce1c       _isleadbyte_l              000000018006de1c f i libucrt:_wctype.obj
 0001:0006ce5c       _iswalnum_l                000000018006de5c f i libucrt:_wctype.obj
 0001:0006ce68       _iswalpha_l                000000018006de68 f i libucrt:_wctype.obj
 0001:0006ce74       _iswblank_l                000000018006de74 f i libucrt:_wctype.obj
 0001:0006ce8c       _iswcntrl_l                000000018006de8c f i libucrt:_wctype.obj
 0001:0006ce98       _iswcsym_l                 000000018006de98 f i libucrt:_wctype.obj
 0001:0006cec4       _iswcsymf_l                000000018006dec4 f i libucrt:_wctype.obj
 0001:0006cef0       _iswdigit_l                000000018006def0 f i libucrt:_wctype.obj
 0001:0006cefc       _iswgraph_l                000000018006defc f i libucrt:_wctype.obj
 0001:0006cf08       _iswlower_l                000000018006df08 f i libucrt:_wctype.obj
 0001:0006cf14       _iswprint_l                000000018006df14 f i libucrt:_wctype.obj
 0001:0006cf20       _iswpunct_l                000000018006df20 f i libucrt:_wctype.obj
 0001:0006cf2c       _iswspace_l                000000018006df2c f i libucrt:_wctype.obj
 0001:0006cf38       _iswupper_l                000000018006df38 f i libucrt:_wctype.obj
 0001:0006cf44       _iswxdigit_l               000000018006df44 f i libucrt:_wctype.obj
 0001:0006cf50       isleadbyte                 000000018006df50 f i libucrt:_wctype.obj
 0001:0006cf94       iswalnum                   000000018006df94 f i libucrt:_wctype.obj
 0001:0006cfa0       iswalpha                   000000018006dfa0 f i libucrt:_wctype.obj
 0001:0006cfac       iswascii                   000000018006dfac f i libucrt:_wctype.obj
 0001:0006cfbc       iswblank                   000000018006dfbc f i libucrt:_wctype.obj
 0001:0006cfd4       iswcntrl                   000000018006dfd4 f i libucrt:_wctype.obj
 0001:0006cfe0       iswdigit                   000000018006dfe0 f i libucrt:_wctype.obj
 0001:0006cfec       iswgraph                   000000018006dfec f i libucrt:_wctype.obj
 0001:0006cff8       iswlower                   000000018006dff8 f i libucrt:_wctype.obj
 0001:0006d004       iswprint                   000000018006e004 f i libucrt:_wctype.obj
 0001:0006d010       iswpunct                   000000018006e010 f i libucrt:_wctype.obj
 0001:0006d01c       iswspace                   000000018006e01c f i libucrt:_wctype.obj
 0001:0006d028       iswupper                   000000018006e028 f i libucrt:_wctype.obj
 0001:0006d034       iswxdigit                  000000018006e034 f i libucrt:_wctype.obj
 0001:0006d040       ??0?$__crt_scoped_stack_ptr@_W@@QEAA@U?$__crt_scoped_stack_ptr_tag@_W@@@Z 000000018006e040 f i libucrt:getstringtypea.obj
 0001:0006d048       ??0?$__crt_scoped_stack_ptr_tag@_W@@QEAA@QEA_W@Z 000000018006e048 f i libucrt:getstringtypea.obj
 0001:0006d050       ??1?$__crt_scoped_stack_ptr@_W@@QEAA@XZ 000000018006e050 f i libucrt:getstringtypea.obj
 0001:0006d074       ?get@?$__crt_scoped_stack_ptr@_W@@QEBAPEA_WXZ 000000018006e074 f i libucrt:getstringtypea.obj
 0001:0006d078       _MallocaComputeSize        000000018006e078 f i libucrt:getstringtypea.obj
 0001:0006d088       _MarkAllocaS               000000018006e088 f i libucrt:getstringtypea.obj
 0001:0006d098       __acrt_GetStringTypeA      000000018006e098 f   libucrt:getstringtypea.obj
 0001:0006d24c       _freea_crt                 000000018006e24c f i libucrt:getstringtypea.obj
 0001:0006d26c       __acrt_add_locale_ref      000000018006e26c f   libucrt:locale_refcounting.obj
 0001:0006d2f8       __acrt_free_locale         000000018006e2f8 f   libucrt:locale_refcounting.obj
 0001:0006d470       __acrt_locale_add_lc_time_reference 000000018006e470 f   libucrt:locale_refcounting.obj
 0001:0006d498       __acrt_locale_free_lc_time_if_unreferenced 000000018006e498 f   libucrt:locale_refcounting.obj
 0001:0006d4d0       __acrt_locale_release_lc_time_reference 000000018006e4d0 f   libucrt:locale_refcounting.obj
 0001:0006d4f8       __acrt_release_locale_ref  000000018006e4f8 f   libucrt:locale_refcounting.obj
 0001:0006d5a0       __acrt_update_thread_locale_data 000000018006e5a0 f   libucrt:locale_refcounting.obj
 0001:0006d610       _updatetlocinfoEx_nolock   000000018006e610 f   libucrt:locale_refcounting.obj
 0001:0006d678       ??$?RE@__crt_internal_free_policy@@QEBAXQEBE@Z 000000018006e678 f i libucrt:initctype.obj
 0001:0006d680       ??$?RG@__crt_internal_free_policy@@QEBAXQEBG@Z 000000018006e680 f i libucrt:initctype.obj
 0001:0006d688       ??$?RJ@__crt_internal_free_policy@@QEBAXQEBJ@Z 000000018006e688 f i libucrt:initctype.obj
 0001:0006d690       ??0?$__crt_unique_heap_ptr@EU__crt_internal_free_policy@@@@QEAA@QEAE@Z 000000018006e690 f i libucrt:initctype.obj
 0001:0006d698       ??0?$__crt_unique_heap_ptr@GU__crt_internal_free_policy@@@@QEAA@QEAG@Z 000000018006e698 f i libucrt:initctype.obj
 0001:0006d6a0       ??0?$__crt_unique_heap_ptr@JU__crt_internal_free_policy@@@@QEAA@QEAJ@Z 000000018006e6a0 f i libucrt:initctype.obj
 0001:0006d6a8       ??1?$__crt_unique_heap_ptr@EU__crt_internal_free_policy@@@@QEAA@XZ 000000018006e6a8 f i libucrt:initctype.obj
 0001:0006d6c4       ??1?$__crt_unique_heap_ptr@GU__crt_internal_free_policy@@@@QEAA@XZ 000000018006e6c4 f i libucrt:initctype.obj
 0001:0006d6e0       ??1?$__crt_unique_heap_ptr@JU__crt_internal_free_policy@@@@QEAA@XZ 000000018006e6e0 f i libucrt:initctype.obj
 0001:0006d6fc       ?detach@?$__crt_unique_heap_ptr@EU__crt_internal_free_policy@@@@QEAAPEAEXZ 000000018006e6fc f i libucrt:initctype.obj
 0001:0006d704       ?detach@?$__crt_unique_heap_ptr@GU__crt_internal_free_policy@@@@QEAAPEAGXZ 000000018006e704 f i libucrt:initctype.obj
 0001:0006d70c       ?detach@?$__crt_unique_heap_ptr@JU__crt_internal_free_policy@@@@QEAAPEAJXZ 000000018006e70c f i libucrt:initctype.obj
 0001:0006d714       ?release@?$__crt_unique_heap_ptr@EU__crt_internal_free_policy@@@@QEAAXXZ 000000018006e714 f i libucrt:initctype.obj
 0001:0006d730       ?release@?$__crt_unique_heap_ptr@GU__crt_internal_free_policy@@@@QEAAXXZ 000000018006e730 f i libucrt:initctype.obj
 0001:0006d74c       ?release@?$__crt_unique_heap_ptr@JU__crt_internal_free_policy@@@@QEAAXXZ 000000018006e74c f i libucrt:initctype.obj
 0001:0006d768       ___lc_codepage_func        000000018006e768 f   libucrt:initctype.obj
 0001:0006d798       ___lc_collate_cp_func      000000018006e798 f   libucrt:initctype.obj
 0001:0006d7c8       ___lc_locale_name_func     000000018006e7c8 f   libucrt:initctype.obj
 0001:0006d7fc       ___mb_cur_max_func         000000018006e7fc f   libucrt:initctype.obj
 0001:0006d82c       ___mb_cur_max_l_func       000000018006e82c f   libucrt:initctype.obj
 0001:0006d83c       __acrt_locale_initialize_ctype 000000018006e83c f   libucrt:initctype.obj
 0001:0006de10       ??$?RUlconv@@@__crt_internal_free_policy@@QEBAXQEBUlconv@@@Z 000000018006ee10 f i libucrt:initmon.obj
 0001:0006de18       ??0?$__crt_unique_heap_ptr@Ulconv@@U__crt_internal_free_policy@@@@QEAA@QEAUlconv@@@Z 000000018006ee18 f i libucrt:initmon.obj
 0001:0006de20       ??1?$__crt_unique_heap_ptr@Ulconv@@U__crt_internal_free_policy@@@@QEAA@XZ 000000018006ee20 f i libucrt:initmon.obj
 0001:0006de3c       ?detach@?$__crt_unique_heap_ptr@Ulconv@@U__crt_internal_free_policy@@@@QEAAPEAUlconv@@XZ 000000018006ee3c f i libucrt:initmon.obj
 0001:0006de44       ?release@?$__crt_unique_heap_ptr@Ulconv@@U__crt_internal_free_policy@@@@QEAAXXZ 000000018006ee44 f i libucrt:initmon.obj
 0001:0006de60       __acrt_locale_free_monetary 000000018006ee60 f   libucrt:initmon.obj
 0001:0006df6c       __acrt_locale_initialize_monetary 000000018006ef6c f   libucrt:initmon.obj
 0001:0006e4e0       __acrt_locale_free_numeric 000000018006f4e0 f   libucrt:initnum.obj
 0001:0006e54c       __acrt_locale_initialize_numeric 000000018006f54c f   libucrt:initnum.obj
 0001:0006e868       ??$?RU__crt_lc_time_data@@@__crt_internal_free_policy@@QEBAXQEBU__crt_lc_time_data@@@Z 000000018006f868 f i libucrt:inittime.obj
 0001:0006e8b8       ??0?$__crt_unique_heap_ptr@U__crt_lc_time_data@@U__crt_internal_free_policy@@@@QEAA@QEAU__crt_lc_time_data@@@Z 000000018006f8b8 f i libucrt:inittime.obj
 0001:0006e8c0       ??1?$__crt_unique_heap_ptr@U__crt_lc_time_data@@U__crt_internal_free_policy@@@@QEAA@XZ 000000018006f8c0 f i libucrt:inittime.obj
 0001:0006e8dc       ??B?$__crt_unique_heap_ptr@U__crt_lc_time_data@@U__crt_internal_free_policy@@@@QEBA_NXZ 000000018006f8dc f i libucrt:inittime.obj
 0001:0006e8e8       ?detach@?$__crt_unique_heap_ptr@U__crt_lc_time_data@@U__crt_internal_free_policy@@@@QEAAPEAU__crt_lc_time_data@@XZ 000000018006f8e8 f i libucrt:inittime.obj
 0001:0006e948       ?get@?$__crt_unique_heap_ptr@U__crt_lc_time_data@@U__crt_internal_free_policy@@@@QEBAPEAU__crt_lc_time_data@@XZ 000000018006f948 f i libucrt:inittime.obj
 0001:0006ed10       ?is_valid@?$__crt_unique_heap_ptr@U__crt_lc_time_data@@U__crt_internal_free_policy@@@@QEBA_NXZ 000000018006fd10 f i libucrt:inittime.obj
 0001:0006ed1c       ?release@?$__crt_unique_heap_ptr@U__crt_lc_time_data@@U__crt_internal_free_policy@@@@QEAAXXZ 000000018006fd1c f i libucrt:inittime.obj
 0001:0006ed38       __acrt_locale_free_time    000000018006fd38 f   libucrt:inittime.obj
 0001:0006ee40       __acrt_locale_initialize_time 000000018006fe40 f   libucrt:inittime.obj
 0001:0006ef5c       wcscat_s                   000000018006ff5c f   libucrt:wcscat_s.obj
 0001:0006f0b8       wcsncpy_s                  00000001800700b8 f   libucrt:wcsncpy_s.obj
 0001:0006f19c       wcscspn                    000000018007019c f   libucrt:wcscspn.obj
 0001:0006faf0       __acrt_get_qualified_locale 0000000180070af0 f   libucrt:get_qualified_locale.obj
 0001:000705b0       __acrt_get_qualified_locale_downlevel 00000001800715b0 f   libucrt:getqloc_downlevel.obj
 0001:00070840       localeconv                 0000000180071840 f   libucrt:localeconv.obj
 0001:000709d8       __acrt_DownlevelLCIDToLocaleName 00000001800719d8 f   libucrt:lcidtoname_downlevel.obj
 0001:00070abc       __acrt_DownlevelLocaleNameToLCID 0000000180071abc f   libucrt:lcidtoname_downlevel.obj
 0001:00070b08       ??B?$__crt_scoped_stack_ptr@_W@@QEBA_NXZ 0000000180071b08 f i libucrt:lcmapstringa.obj
 0001:00070e70       __acrt_LCMapStringA        0000000180071e70 f   libucrt:lcmapstringa.obj
 0001:00070f08       _wcsnicoll                 0000000180071f08 f   libucrt:wcsnicol.obj
 0001:00070f9c       _wcsnicoll_l               0000000180071f9c f   libucrt:wcsnicol.obj
 0001:000710d0       _strnicoll                 00000001800720d0 f   libucrt:strnicol.obj
 0001:000710e8       _strnicoll_l               00000001800720e8 f   libucrt:strnicol.obj
 0001:00071224       _msize                     0000000180072224 f   libucrt:msize.obj
 0001:00071260       _realloc_base              0000000180072260 f   libucrt:realloc_base.obj
 0001:000712e4       ??$?RU__crt_lowio_handle_data@@@__crt_internal_free_policy@@QEBAXQEBU__crt_lowio_handle_data@@@Z 00000001800722e4 f i libucrt:osfinfo.obj
 0001:000712ec       ??0?$__crt_unique_heap_ptr@U__crt_lowio_handle_data@@U__crt_internal_free_policy@@@@QEAA@QEAU__crt_lowio_handle_data@@@Z 00000001800722ec f i libucrt:osfinfo.obj
 0001:000712f4       ??1?$__crt_unique_heap_ptr@U__crt_lowio_handle_data@@U__crt_internal_free_policy@@@@QEAA@XZ 00000001800722f4 f i libucrt:osfinfo.obj
 0001:00071310       ??B?$__crt_unique_heap_ptr@U__crt_lowio_handle_data@@U__crt_internal_free_policy@@@@QEBA_NXZ 0000000180072310 f i libucrt:osfinfo.obj
 0001:0007131c       ?detach@?$__crt_unique_heap_ptr@U__crt_lowio_handle_data@@U__crt_internal_free_policy@@@@QEAAPEAU__crt_lowio_handle_data@@XZ 000000018007231c f i libucrt:osfinfo.obj
 0001:00071324       ?get@?$__crt_unique_heap_ptr@U__crt_lowio_handle_data@@U__crt_internal_free_policy@@@@QEBAPEAU__crt_lowio_handle_data@@XZ 0000000180072324 f i libucrt:osfinfo.obj
 0001:00071328       ?is_valid@?$__crt_unique_heap_ptr@U__crt_lowio_handle_data@@U__crt_internal_free_policy@@@@QEBA_NXZ 0000000180072328 f i libucrt:osfinfo.obj
 0001:00071334       ?release@?$__crt_unique_heap_ptr@U__crt_lowio_handle_data@@U__crt_internal_free_policy@@@@QEAAXXZ 0000000180072334 f i libucrt:osfinfo.obj
 0001:00071350       __acrt_lowio_create_handle_array 0000000180072350 f   libucrt:osfinfo.obj
 0001:000713e8       __acrt_lowio_destroy_handle_array 00000001800723e8 f   libucrt:osfinfo.obj
 0001:00071438       __acrt_lowio_ensure_fh_exists 0000000180072438 f   libucrt:osfinfo.obj
 0001:000714f0       __acrt_lowio_lock_fh       00000001800724f0 f   libucrt:osfinfo.obj
 0001:00071514       __acrt_lowio_set_os_handle 0000000180072514 f   libucrt:osfinfo.obj
 0001:000715d4       __acrt_lowio_unlock_fh     00000001800725d4 f   libucrt:osfinfo.obj
 0001:000715f8       _alloc_osfhnd              00000001800725f8 f   libucrt:osfinfo.obj
 0001:00071728       _free_osfhnd               0000000180072728 f   libucrt:osfinfo.obj
 0001:000717e4       _get_osfhandle             00000001800727e4 f   libucrt:osfinfo.obj
 0001:0007185c       _open_osfhandle            000000018007285c f   libucrt:osfinfo.obj
 0001:00071958       _isatty                    0000000180072958 f   libucrt:isatty.obj
 0001:000719b8       ??0__crt_stdio_stream@@QEAA@QEAU__crt_stdio_stream_data@@@Z 00000001800729b8 f i libucrt:fflush.obj
 0001:000719c0       ?__acrt_stdio_reset_buffer@@YAXV__crt_stdio_stream@@@Z 00000001800729c0 f i libucrt:fflush.obj
 0001:000719d8       ?has_all_of@__crt_stdio_stream@@QEBA_NJ@Z 00000001800729d8 f i libucrt:fflush.obj
 0001:000719e8       ?has_big_buffer@__crt_stdio_stream@@QEBA_NXZ 00000001800729e8 f i libucrt:fflush.obj
 0001:000719f8       ?is_in_use@__crt_stdio_stream@@QEBA_NXZ 00000001800729f8 f i libucrt:fflush.obj
 0001:00071a08       __acrt_stdio_flush_nolock  0000000180072a08 f   libucrt:fflush.obj
 0001:00071a80       _fflush_nolock             0000000180072a80 f   libucrt:fflush.obj
 0001:00071acc       _flushall                  0000000180072acc f   libucrt:fflush.obj
 0001:00071bbc       fflush                     0000000180072bbc f   libucrt:fflush.obj
 0001:00071c00       __acrt_fp_strflt_to_string 0000000180072c00 f   libucrt:_fptostr.obj
 0001:00072e40       ??0big_integer@__crt_strtox@@QEAA@AEBU01@@Z 0000000180073e40 f i libucrt:cfout.obj
 0001:00072e70       ??0big_integer@__crt_strtox@@QEAA@XZ 0000000180073e70 f i libucrt:cfout.obj
 0001:00072e7c       ??0scoped_fp_state_reset@?A0x202f3722@@QEAA@XZ 0000000180073e7c f i libucrt:cfout.obj
 0001:00072eb0       ??1scoped_fp_state_reset@?A0x202f3722@@QEAA@XZ 0000000180073eb0 f i libucrt:cfout.obj
 0001:00072ed0       ??4big_integer@__crt_strtox@@QEAAAEAU01@AEBU01@@Z 0000000180073ed0 f i libucrt:cfout.obj
 0001:00072f00       ??8__crt_strtox@@YA_NAEBUbig_integer@0@0@Z 0000000180073f00 f i libucrt:cfout.obj
 0001:00072f40       ??9__crt_strtox@@YA_NAEBUbig_integer@0@0@Z 0000000180073f40 f i libucrt:cfout.obj
 0001:00072f90       ?add_carry@__crt_strtox@@YAIAEAIII@Z 0000000180073f90 f i libucrt:cfout.obj
 0001:00072fb0       ?add_multiply_carry@__crt_strtox@@YAIAEAIIII@Z 0000000180073fb0 f i libucrt:cfout.obj
 0001:00072fe0       ?bit_scan_reverse@__crt_strtox@@YAII@Z 0000000180073fe0 f i libucrt:cfout.obj
 0001:00073000       ?count_sequential_high_zeroes@__crt_strtox@@YAII@Z 0000000180074000 f i libucrt:cfout.obj
 0001:00073020       ?divide@__crt_strtox@@YA_KAEAUbig_integer@1@AEBU21@@Z 0000000180074020 f i libucrt:cfout.obj
 0001:000734f0       ?is_zero@__crt_strtox@@YA_NAEBUbig_integer@1@@Z 00000001800744f0 f i libucrt:cfout.obj
 0001:00073500       ?make_big_integer@__crt_strtox@@YA?AUbig_integer@1@_K@Z 0000000180074500 f i libucrt:cfout.obj
 0001:00073520       ?make_big_integer_power_of_two@__crt_strtox@@YA?AUbig_integer@1@I@Z 0000000180074520 f i libucrt:cfout.obj
 0001:00073590       ?multiply@__crt_strtox@@YA_NAEAUbig_integer@1@AEBU21@@Z 0000000180074590 f i libucrt:cfout.obj
 0001:00073900       ?multiply@__crt_strtox@@YA_NAEAUbig_integer@1@I@Z 0000000180074900 f i libucrt:cfout.obj
 0001:00073a00       ?multiply_64_32@__crt_strtox@@YA_K_KI@Z 0000000180074a00 f i libucrt:cfout.obj
 0001:00073a10       ?multiply_by_power_of_ten@__crt_strtox@@YA_NAEAUbig_integer@1@I@Z 0000000180074a10 f i libucrt:cfout.obj
 0001:00073fd0       ?multiply_core@__crt_strtox@@YAIQEAIII@Z 0000000180074fd0 f i libucrt:cfout.obj
 0001:00074020       ?shift_left@__crt_strtox@@YA_NAEAUbig_integer@1@I@Z 0000000180075020 f i libucrt:cfout.obj
 0001:000741a0       __acrt_fltout              00000001800751a0 f   libucrt:cfout.obj
 0001:00075a18       __acrt_stdio_flush_and_write_narrow_nolock 0000000180076a18 f   libucrt:_flsbuf.obj
 0001:00075b00       __acrt_stdio_flush_and_write_wide_nolock 0000000180076b00 f   libucrt:_flsbuf.obj
 0001:00075bec       _fcloseall                 0000000180076bec f   libucrt:closeall.obj
 0001:00075ca0       ?has_crt_buffer@__crt_stdio_stream@@QEBA_NXZ 0000000180076ca0 f i libucrt:_freebuf.obj
 0001:00075cb0       __acrt_stdio_free_buffer_nolock 0000000180076cb0 f   libucrt:_freebuf.obj
 0001:00075e90       __acrt_GetLocaleInfoA      0000000180076e90 f   libucrt:getlocaleinfoa.obj
 0001:000764c8       _i64toa                    00000001800774c8 f   libucrt:xtoa.obj
 0001:000764fc       _i64toa_s                  00000001800774fc f   libucrt:xtoa.obj
 0001:00076520       _i64tow                    0000000180077520 f   libucrt:xtoa.obj
 0001:00076554       _i64tow_s                  0000000180077554 f   libucrt:xtoa.obj
 0001:00076578       _itoa                      0000000180077578 f   libucrt:xtoa.obj
 0001:000765a8       _itoa_s                    00000001800775a8 f   libucrt:xtoa.obj
 0001:000765c8       _itow                      00000001800775c8 f   libucrt:xtoa.obj
 0001:000765f8       _itow_s                    00000001800775f8 f   libucrt:xtoa.obj
 0001:00076618       _ltoa                      0000000180077618 f   libucrt:xtoa.obj
 0001:00076648       _ltoa_s                    0000000180077648 f   libucrt:xtoa.obj
 0001:00076668       _ltow                      0000000180077668 f   libucrt:xtoa.obj
 0001:00076698       _ltow_s                    0000000180077698 f   libucrt:xtoa.obj
 0001:000766b8       _ui64toa                   00000001800776b8 f   libucrt:xtoa.obj
 0001:000766dc       _ui64toa_s                 00000001800776dc f   libucrt:xtoa.obj
 0001:000766f0       _ui64tow                   00000001800776f0 f   libucrt:xtoa.obj
 0001:00076714       _ui64tow_s                 0000000180077714 f   libucrt:xtoa.obj
 0001:00076728       _ultoa                     0000000180077728 f   libucrt:xtoa.obj
 0001:0007674c       _ultoa_s                   000000018007774c f   libucrt:xtoa.obj
 0001:00076760       _ultow                     0000000180077760 f   libucrt:xtoa.obj
 0001:00076784       _ultow_s                   0000000180077784 f   libucrt:xtoa.obj
 0001:00076798       _wcsicmp                   0000000180077798 f   libucrt:wcsicmp.obj
 0001:00076820       _wcsicmp_l                 0000000180077820 f   libucrt:wcsicmp.obj
 0001:00076910       _wcsnicmp                  0000000180077910 f   libucrt:wcsnicmp.obj
 0001:000769ac       _wcsnicmp_l                00000001800779ac f   libucrt:wcsnicmp.obj
 0001:00076ac4       wcscmp                     0000000180077ac4 f   libucrt:wcscmp.obj
 0001:00076afc       __strncnt                  0000000180077afc f   libucrt:strncnt.obj
 0001:00076b14       __acrt_CompareStringW      0000000180077b14 f   libucrt:comparestringw.obj
 0001:00076bd4       __ascii_strnicmp           0000000180077bd4 f   libucrt:strnicmp.obj
 0001:00076c1c       _strnicmp                  0000000180077c1c f   libucrt:strnicmp.obj
 0001:00076c6c       _strnicmp_l                0000000180077c6c f   libucrt:strnicmp.obj
 0001:000770dc       __acrt_CompareStringA      00000001800780dc f   libucrt:comparestringa.obj
 0001:00077240       __acrt_report_runtime_error 0000000180078240 f   libucrt:report_runtime_error.obj
 0001:000773fc       _query_app_type            00000001800783fc f   libucrt:report_runtime_error.obj
 0001:00077404       _set_app_type              0000000180078404 f   libucrt:report_runtime_error.obj
 0001:0007740c       ??$?RV<lambda_b521505b218e5242e90febf6bfebc422>@@AEAV<lambda_6978c1fb23f02e42e1d9e99668cc68aa>@@V<lambda_314360699dd331753a4119843814e9a7>@@@?$__crt_seh_guarded_call@H@@QEAAH$$QEAV<lambda_b521505b218e5242e90febf6bfebc422>@@AEAV<lambda_6978c1fb23f02e42e1d9e99668cc68aa>@@$$QEAV<lambda_314360699dd331753a4119843814e9a7>@@@Z 000000018007840c f i libucrt:commit.obj
 0001:00077498       ??$__acrt_lowio_lock_fh_and_call@V<lambda_6978c1fb23f02e42e1d9e99668cc68aa>@@@@YAHH$$QEAV<lambda_6978c1fb23f02e42e1d9e99668cc68aa>@@@Z 0000000180078498 f i libucrt:commit.obj
 0001:00077554       _commit                    0000000180078554 f   libucrt:commit.obj
 0001:00077d18       _write                     0000000180078d18 f   libucrt:write.obj
 0001:00077e04       _write_nolock              0000000180078e04 f   libucrt:write.obj
 0001:000780e8       fegetenv                   00000001800790e8 f   libucrt:fegetenv.obj
 0001:00078108       fesetenv                   0000000180079108 f   libucrt:fesetenv.obj
 0001:00078154       feholdexcept               0000000180079154 f   libucrt:feholdexcept.obj
 0001:000781a4       ceil                       00000001800791a4 f   libucrt:ceil.obj
 0001:00078270       log10                      0000000180079270 f   libucrt:log10.obj
 0001:00078bf4       _lseek                     0000000180079bf4 f   libucrt:lseek.obj
 0001:00078bfc       _lseek_nolock              0000000180079bfc f   libucrt:lseek.obj
 0001:00078c04       _lseeki64                  0000000180079c04 f   libucrt:lseek.obj
 0001:00078c0c       _lseeki64_nolock           0000000180079c0c f   libucrt:lseek.obj
 0001:00078c14       __acrt_stdio_allocate_buffer_nolock 0000000180079c14 f   libucrt:_getbuf.obj
 0001:00078c78       _fclose_nolock             0000000180079c78 f   libucrt:fclose.obj
 0001:00078cfc       fclose                     0000000180079cfc f   libucrt:fclose.obj
 0001:00078e2c       strncpy_s                  0000000180079e2c f   libucrt:strncpy_s.obj
 0001:00078f00       _towlower_l                0000000180079f00 f   libucrt:towlower.obj
 0001:00078fc4       towlower                   0000000180079fc4 f   libucrt:towlower.obj
 0001:00078fcc       _set_error_mode            0000000180079fcc f   libucrt:set_error_mode.obj
 0001:00079244       ??$message_box@$$TAEAPEBDAEAPEBDAEAI@?$__crt_char_traits@D@@SAH$$QEA$$TAEAPEBD1AEAI@Z 000000018007a244 f i libucrt:crtmbox.obj
 0001:00079258       ??$message_box@$$TAEAPEB_WAEAPEB_WAEAI@?$__crt_char_traits@_W@@SAH$$QEA$$TAEAPEB_W1AEAI@Z 000000018007a258 f i libucrt:crtmbox.obj
 0001:0007926c       ??$message_box@$$TAEBQEBDAEBQEBDK@?$__crt_char_traits@D@@SAH$$QEA$$TAEBQEBD1$$QEAK@Z 000000018007a26c f i libucrt:crtmbox.obj
 0001:00079280       ??$message_box@$$TAEBQEB_WAEBQEB_WK@?$__crt_char_traits@_W@@SAH$$QEA$$TAEBQEB_W1$$QEAK@Z 000000018007a280 f i libucrt:crtmbox.obj
 0001:00079294       ??$message_box@PEAUHWND__@@AEBQEBDAEBQEBDAEBI@?$__crt_char_traits@D@@SAH$$QEAPEAUHWND__@@AEBQEBD1AEBI@Z 000000018007a294 f i libucrt:crtmbox.obj
 0001:000792a8       ??$message_box@PEAUHWND__@@AEBQEB_WAEBQEB_WAEBI@?$__crt_char_traits@_W@@SAH$$QEAPEAUHWND__@@AEBQEB_W1AEBI@Z 000000018007a2a8 f i libucrt:crtmbox.obj
 0001:0007930c       ??$output_debug_string@AEBQEBD@?$__crt_char_traits@D@@SAXAEBQEBD@Z 000000018007a30c f i libucrt:crtmbox.obj
 0001:00079318       ??$output_debug_string@AEBQEB_W@?$__crt_char_traits@_W@@SAXAEBQEB_W@Z 000000018007a318 f i libucrt:crtmbox.obj
 0001:00079324       ??0?$__crt_unique_handle_t@U__crt_handle_traits@@@@QEAA@QEAX@Z 000000018007a324 f i libucrt:crtmbox.obj
 0001:0007932c       ??1?$__crt_unique_handle_t@U__crt_handle_traits@@@@QEAA@XZ 000000018007a32c f i libucrt:crtmbox.obj
 0001:00079350       ??B?$__crt_unique_handle_t@U__crt_handle_traits@@@@QEBA_NXZ 000000018007a350 f i libucrt:crtmbox.obj
 0001:00079358       ?close@?$__crt_unique_handle_t@U__crt_handle_traits@@@@QEAAXXZ 000000018007a358 f i libucrt:crtmbox.obj
 0001:0007937c       ?close@__crt_handle_traits@@SA_NPEAX@Z 000000018007a37c f i libucrt:crtmbox.obj
 0001:00079390       ?get@?$__crt_unique_handle_t@U__crt_handle_traits@@@@QEBAPEAXXZ 000000018007a390 f i libucrt:crtmbox.obj
 0001:00079394       ?get_invalid_value@__crt_handle_traits@@SAPEAXXZ 000000018007a394 f i libucrt:crtmbox.obj
 0001:0007939c       ?is_valid@?$__crt_unique_handle_t@U__crt_handle_traits@@@@QEBA_NXZ 000000018007a39c f i libucrt:crtmbox.obj
 0001:000793a4       __acrt_show_narrow_message_box 000000018007a3a4 f   libucrt:crtmbox.obj
 0001:000794c0       __acrt_show_wide_message_box 000000018007a4c0 f   libucrt:crtmbox.obj
 0001:000795dc       ??$?RV<lambda_9fda798407f8391327e99fec20084266>@@AEAV<lambda_6e3e78bb6855d1e4040e022c1b427e22>@@V<lambda_5d54a80e00f5dcce6acfc22736ebf0cf>@@@?$__crt_seh_guarded_call@G@@QEAAG$$QEAV<lambda_9fda798407f8391327e99fec20084266>@@AEAV<lambda_6e3e78bb6855d1e4040e022c1b427e22>@@$$QEAV<lambda_5d54a80e00f5dcce6acfc22736ebf0cf>@@@Z 000000018007a5dc f i libucrt:putwch.obj
 0001:0007961c       ??$__acrt_lock_and_call@V<lambda_6e3e78bb6855d1e4040e022c1b427e22>@@@@YAGW4__acrt_lock_id@@$$QEAV<lambda_6e3e78bb6855d1e4040e022c1b427e22>@@@Z 000000018007a61c f i libucrt:putwch.obj
 0001:00079678       _putwch                    000000018007a678 f   libucrt:putwch.obj
 0001:000796b4       _putwch_nolock             000000018007a6b4 f   libucrt:putwch.obj
 0001:00079710       __acrt_fenv_get_fp_status_word_from_exception_mask 000000018007a710 f   libucrt:_fenvutils.obj
 0001:0007974c       _getfpcontrolword          000000018007a74c f   libucrt:_fenvutils.obj
 0001:00079764       _getfpstatusword           000000018007a764 f   libucrt:_fenvutils.obj
 0001:00079778       _setfpcontrolword          000000018007a778 f   libucrt:_fenvutils.obj
 0001:00079784       _setfpstatusword           000000018007a784 f   libucrt:_fenvutils.obj
 0001:000798b8       _clearfp                   000000018007a8b8 f   libucrt:ieee.obj
 0001:0007990c       _control87                 000000018007a90c f   libucrt:ieee.obj
 0001:00079914       _controlfp                 000000018007a914 f   libucrt:ieee.obj
 0001:00079920       _fpreset                   000000018007a920 f   libucrt:ieee.obj
 0001:000799d4       _set_controlfp             000000018007a9d4 f   libucrt:ieee.obj
 0001:00079a08       _statusfp                  000000018007aa08 f   libucrt:ieee.obj
 0001:00079e0c       _handle_error              000000018007ae0c f   libucrt:libm_error.obj
 0001:00079f34       _handle_errorf             000000018007af34 f   libucrt:libm_error.obj
 0001:0007a068       _handle_nan                000000018007b068 f   libucrt:libm_error.obj
 0001:0007a084       _handle_nanf               000000018007b084 f   libucrt:libm_error.obj
 0001:0007a0a0       __acrt_initialize_fma3     000000018007b0a0 f   libucrt:fma3_available.obj
 0001:0007a110       _get_FMA3_enable           000000018007b110 f   libucrt:fma3_available.obj
 0001:0007a118       _set_FMA3_enable           000000018007b118 f   libucrt:fma3_available.obj
 0001:0007a130       _log10_special             000000018007b130 f   libucrt:log_special.obj
 0001:0007a150       _log10f_special            000000018007b150 f   libucrt:log_special.obj
 0001:0007a170       _log_special               000000018007b170 f   libucrt:log_special.obj
 0001:0007a228       _logf_special              000000018007b228 f   libucrt:log_special.obj
 0001:0007a2e4       ??$?RV<lambda_bfedae4ebbf01fab1bb6dcc6a9e276e0>@@AEAV<lambda_2fe9b910cf3cbf4a0ab98a02ba45b3ec>@@V<lambda_237c231691f317818eb88cc1d5d642d6>@@@?$__crt_seh_guarded_call@H@@QEAAH$$QEAV<lambda_bfedae4ebbf01fab1bb6dcc6a9e276e0>@@AEAV<lambda_2fe9b910cf3cbf4a0ab98a02ba45b3ec>@@$$QEAV<lambda_237c231691f317818eb88cc1d5d642d6>@@@Z 000000018007b2e4 f i libucrt:close.obj
 0001:0007a358       ??$__acrt_lowio_lock_fh_and_call@V<lambda_2fe9b910cf3cbf4a0ab98a02ba45b3ec>@@@@YAHH$$QEAV<lambda_2fe9b910cf3cbf4a0ab98a02ba45b3ec>@@@Z 000000018007b358 f i libucrt:close.obj
 0001:0007a470       _close                     000000018007b470 f   libucrt:close.obj
 0001:0007a514       _close_nolock              000000018007b514 f   libucrt:close.obj
 0001:0007a5d0       ??$?RU__crt_stdio_stream_data@@@__crt_internal_free_policy@@QEBAXQEBU__crt_stdio_stream_data@@@Z 000000018007b5d0 f i libucrt:stream.obj
 0001:0007a5d8       ??0?$__crt_unique_heap_ptr@U__crt_stdio_stream_data@@U__crt_internal_free_policy@@@@QEAA@QEAU__crt_stdio_stream_data@@@Z 000000018007b5d8 f i libucrt:stream.obj
 0001:0007a5e0       ??0__crt_stdio_stream@@QEAA@XZ 000000018007b5e0 f i libucrt:stream.obj
 0001:0007a5e8       ??1?$__crt_unique_heap_ptr@U__crt_stdio_stream_data@@U__crt_internal_free_policy@@@@QEAA@XZ 000000018007b5e8 f i libucrt:stream.obj
 0001:0007a604       ?__acrt_stdio_allocate_stream@@YA?AV__crt_stdio_stream@@XZ 000000018007b604 f   libucrt:stream.obj
 0001:0007a660       ?__acrt_stdio_free_stream@@YAXV__crt_stdio_stream@@@Z 000000018007b660 f   libucrt:stream.obj
 0001:0007a6a4       ?deallocate@__crt_stdio_stream@@QEAAXXZ 000000018007b6a4 f i libucrt:stream.obj
 0001:0007a6b0       ?detach@?$__crt_unique_heap_ptr@U__crt_stdio_stream_data@@U__crt_internal_free_policy@@@@QEAAPEAU__crt_stdio_stream_data@@XZ 000000018007b6b0 f i libucrt:stream.obj
 0001:0007a7a4       ?lock@__crt_stdio_stream@@QEBAXXZ 000000018007b7a4 f i libucrt:stream.obj
 0001:0007a7ac       ?release@?$__crt_unique_heap_ptr@U__crt_stdio_stream_data@@U__crt_internal_free_policy@@@@QEAAXXZ 000000018007b7ac f i libucrt:stream.obj
 0001:0007a7c8       ?try_allocate@__crt_stdio_stream@@QEAA_NXZ 000000018007b7c8 f i libucrt:stream.obj
 0001:0007a7e8       ?unlock@__crt_stdio_stream@@QEBAXXZ 000000018007b7e8 f i libucrt:stream.obj
 0001:0007a7f0       __acrt_LCMapStringW        000000018007b7f0 f   libucrt:lcmapstringw.obj
 0001:0007a878       __dcrt_lowio_initialize_console_output 000000018007b878 f   libucrt:initcon.obj
 0001:0007a8b4       __dcrt_terminate_console_output 000000018007b8b4 f   libucrt:initcon.obj
 0001:0007a8f0       _get_fpsr                  000000018007b8f0 f   libucrt:fpsr.obj
 0001:0007a900       _set_fpsr                  000000018007b900 f   libucrt:fpsr.obj
 0001:0007a90a       _fclrf                     000000018007b90a f   libucrt:fpsr.obj
 0001:0007a91e       _frnd                      000000018007b91e f   libucrt:fpsr.obj
 0001:0007a940       _errcode                   000000018007b940 f   libucrt:fpexcept.obj
 0001:0007a984       _except1                   000000018007b984 f   libucrt:fpexcept.obj
 0001:0007aa78       _except2                   000000018007ba78 f   libucrt:fpexcept.obj
 0001:0007abb4       _handle_exc                000000018007bbb4 f   libucrt:fpexcept.obj
 0001:0007ae1c       _handle_qnan2              000000018007be1c f   libucrt:fpexcept.obj
 0001:0007ae24       _raise_exc                 000000018007be24 f   libucrt:fpexcept.obj
 0001:0007ae4c       _raise_exc_ex              000000018007be4c f   libucrt:fpexcept.obj
 0001:0007b154       _raise_excf                000000018007c154 f   libucrt:fpexcept.obj
 0001:0007b180       _set_errno_from_matherr    000000018007c180 f   libucrt:fpexcept.obj
 0001:0007b1b0       _umatherr                  000000018007c1b0 f   libucrt:fpexcept.obj
 0001:0007b284       _clrfp                     000000018007c284 f   libucrt:fpctrl.obj
 0001:0007b2a4       _ctrlfp                    000000018007c2a4 f   libucrt:fpctrl.obj
 0001:0007b320       _set_statfp                000000018007c320 f   libucrt:fpctrl.obj
 0001:0007b340       _statfp                    000000018007c340 f   libucrt:fpctrl.obj
 0001:0007b354       _add_exp                   000000018007c354 f   libucrt:util.obj
 0001:0007b3a4       _decomp                    000000018007c3a4 f   libucrt:util.obj
 0001:0007b4d8       _get_exp                   000000018007c4d8 f   libucrt:util.obj
 0001:0007b500       _set_bexp                  000000018007c500 f   libucrt:util.obj
 0001:0007b530       _set_exp                   000000018007c530 f   libucrt:util.obj
 0001:0007b568       _sptype                    000000018007c568 f   libucrt:util.obj
 0001:0007b5dc       WaitForSingleObjectEx      000000018007c5dc f   kernel32:KERNEL32.dll
 0001:0007b5e2       RtlCaptureContext          000000018007c5e2 f   kernel32:KERNEL32.dll
 0001:0007b5e8       RtlLookupFunctionEntry     000000018007c5e8 f   kernel32:KERNEL32.dll
 0001:0007b5ee       RtlVirtualUnwind           000000018007c5ee f   kernel32:KERNEL32.dll
 0001:0007b5f4       UnhandledExceptionFilter   000000018007c5f4 f   kernel32:KERNEL32.dll
 0001:0007b5fa       SetUnhandledExceptionFilter 000000018007c5fa f   kernel32:KERNEL32.dll
 0001:0007b600       IsProcessorFeaturePresent  000000018007c600 f   kernel32:KERNEL32.dll
 0001:0007b606       QueryPerformanceCounter    000000018007c606 f   kernel32:KERNEL32.dll
 0001:0007b60c       GetSystemTimeAsFileTime    000000018007c60c f   kernel32:KERNEL32.dll
 0001:0007b612       InitializeSListHead        000000018007c612 f   kernel32:KERNEL32.dll
 0001:0007b618       RtlUnwindEx                000000018007c618 f   kernel32:KERNEL32.dll
 0001:0007b61e       InitializeCriticalSectionAndSpinCount 000000018007c61e f   kernel32:KERNEL32.dll
 0001:0007b624       TlsAlloc                   000000018007c624 f   kernel32:KERNEL32.dll
 0001:0007b62a       TlsGetValue                000000018007c62a f   kernel32:KERNEL32.dll
 0001:0007b630       TlsSetValue                000000018007c630 f   kernel32:KERNEL32.dll
 0001:0007b636       TlsFree                    000000018007c636 f   kernel32:KERNEL32.dll
 0001:0007b63c       LoadLibraryExW             000000018007c63c f   kernel32:KERNEL32.dll
 0001:0007b642       InterlockedPushEntrySList  000000018007c642 f   kernel32:KERNEL32.dll
 0001:0007b648       InterlockedFlushSList      000000018007c648 f   kernel32:KERNEL32.dll
 0001:0007b64e       ExitProcess                000000018007c64e f   kernel32:KERNEL32.dll
 0001:0007b654       GetModuleHandleExW         000000018007c654 f   kernel32:KERNEL32.dll
 0001:0007b65a       GetStringTypeW             000000018007c65a f   kernel32:KERNEL32.dll
 0001:0007b660       GetCurrentThread           000000018007c660 f   kernel32:KERNEL32.dll
 0001:0007b666       GetACP                     000000018007c666 f   kernel32:KERNEL32.dll
 0001:0007b66c       GetDateFormatW             000000018007c66c f   kernel32:KERNEL32.dll
 0001:0007b672       GetTimeFormatW             000000018007c672 f   kernel32:KERNEL32.dll
 0001:0007b678       CompareStringW             000000018007c678 f   kernel32:KERNEL32.dll
 0001:0007b67e       LCMapStringW               000000018007c67e f   kernel32:KERNEL32.dll
 0001:0007b684       GetLocaleInfoW             000000018007c684 f   kernel32:KERNEL32.dll
 0001:0007b68a       IsValidLocale              000000018007c68a f   kernel32:KERNEL32.dll
 0001:0007b690       GetUserDefaultLCID         000000018007c690 f   kernel32:KERNEL32.dll
 0001:0007b696       EnumSystemLocalesW         000000018007c696 f   kernel32:KERNEL32.dll
 0001:0007b69c       IsValidCodePage            000000018007c69c f   kernel32:KERNEL32.dll
 0001:0007b6a2       GetOEMCP                   000000018007c6a2 f   kernel32:KERNEL32.dll
 0001:0007b6a8       GetCPInfo                  000000018007c6a8 f   kernel32:KERNEL32.dll
 0001:0007b6ae       SetEnvironmentVariableA    000000018007c6ae f   kernel32:KERNEL32.dll
 0001:0007b6b4       GetProcessHeap             000000018007c6b4 f   kernel32:KERNEL32.dll
 0001:0007b6ba       GetFileType                000000018007c6ba f   kernel32:KERNEL32.dll
 0001:0007b6c0       GetCommandLineA            000000018007c6c0 f   kernel32:KERNEL32.dll
 0001:0007b6c6       GetCommandLineW            000000018007c6c6 f   kernel32:KERNEL32.dll
 0001:0007b6cc       SetConsoleCtrlHandler      000000018007c6cc f   kernel32:KERNEL32.dll
 0001:0007b6d2       HeapSize                   000000018007c6d2 f   kernel32:KERNEL32.dll
 0001:0007b6d8       SetStdHandle               000000018007c6d8 f   kernel32:KERNEL32.dll
 0001:0007b6de       GetConsoleCP               000000018007c6de f   kernel32:KERNEL32.dll
 0001:0007b6e4       SetFilePointerEx           000000018007c6e4 f   kernel32:KERNEL32.dll
 0001:0007b6ea       OutputDebugStringA         000000018007c6ea f   kernel32:KERNEL32.dll
 0001:0007b6f0       OutputDebugStringW         000000018007c6f0 f   kernel32:KERNEL32.dll
 0001:0007b6f6       WriteConsoleW              000000018007c6f6 f   kernel32:KERNEL32.dll
 0001:0007b6fc       SystemFunction036          000000018007c6fc f   advapi32:ADVAPI32.dll
 0001:0007b710       _FindPESection             000000018007c710 f   LIBCMT:pesect.obj
 0001:0007b760       _IsNonwritableInCurrentImage 000000018007c760 f   LIBCMT:pesect.obj
 0001:0007b7b0       _ValidateImageBase         000000018007c7b0 f   LIBCMT:pesect.obj
 0001:0007b7e0       __GSHandlerCheck           000000018007c7e0 f   LIBCMT:_gshandler_.obj
 0001:0007b800       __GSHandlerCheckCommon     000000018007c800 f   LIBCMT:_gshandler_.obj
 0001:0007b870       __security_check_cookie    000000018007c870 f   LIBCMT:_amdsecgs_.obj
 0001:0007b894       ??1type_info@@UEAA@XZ      000000018007c894 f   LIBCMT:std_type_info_static.obj
 0001:0007b8a0       ??_Etype_info@@UEAAPEAXI@Z 000000018007c8a0 f i LIBCMT:std_type_info_static.obj
 0001:0007b8a0       ??_Gtype_info@@UEAAPEAXI@Z 000000018007c8a0 f i LIBCMT:std_type_info_static.obj
 0001:0007b8cc       __raise_securityfailure    000000018007c8cc f   LIBCMT:gs_report.obj
 0001:0007b900       __report_gsfailure         000000018007c900 f   LIBCMT:gs_report.obj
 0001:0007b9d4       __report_rangecheckfailure 000000018007c9d4 f   LIBCMT:gs_report.obj
 0001:0007b9e8       __report_securityfailure   000000018007c9e8 f   LIBCMT:gs_report.obj
 0001:0007ba84       __report_securityfailureEx 000000018007ca84 f   LIBCMT:gs_report.obj
 0001:0007bc90       _guard_dispatch_icall_nop  000000018007cc90 f   LIBCMT:_guard_dispatch_.obj
 0002:00000000       __imp_SystemFunction036    000000018007e000     advapi32:ADVAPI32.dll
 0002:00000008       __imp_ConvertSidToStringSidW 000000018007e008     advapi32:ADVAPI32.dll
 0002:00000010       __imp_RegEnumKeyExW        000000018007e010     advapi32:ADVAPI32.dll
 0002:00000018       __imp_GetTokenInformation  000000018007e018     advapi32:ADVAPI32.dll
 0002:00000020       __imp_FreeSid              000000018007e020     advapi32:ADVAPI32.dll
 0002:00000028       __imp_CheckTokenMembership 000000018007e028     advapi32:ADVAPI32.dll
 0002:00000030       __imp_AllocateAndInitializeSid 000000018007e030     advapi32:ADVAPI32.dll
 0002:00000038       __imp_OpenProcessToken     000000018007e038     advapi32:ADVAPI32.dll
 0002:00000040       __imp_RegCreateKeyExW      000000018007e040     advapi32:ADVAPI32.dll
 0002:00000048       __imp_RegQueryValueExW     000000018007e048     advapi32:ADVAPI32.dll
 0002:00000050       __imp_RegOpenKeyExW        000000018007e050     advapi32:ADVAPI32.dll
 0002:00000058       __imp_RegCloseKey          000000018007e058     advapi32:ADVAPI32.dll
 0002:00000060       \177ADVAPI32_NULL_THUNK_DATA 000000018007e060     advapi32:ADVAPI32.dll
 0002:00000068       __imp_CreateDIBSection     000000018007e068     gdi32:GDI32.dll
 0002:00000070       __imp_GetEnhMetaFileBits   000000018007e070     gdi32:GDI32.dll
 0002:00000078       __imp_DeleteEnhMetaFile    000000018007e078     gdi32:GDI32.dll
 0002:00000080       __imp_CreateEnhMetaFileW   000000018007e080     gdi32:GDI32.dll
 0002:00000088       __imp_CloseEnhMetaFile     000000018007e088     gdi32:GDI32.dll
 0002:00000090       __imp_GetDeviceCaps        000000018007e090     gdi32:GDI32.dll
 0002:00000098       __imp_CreateSolidBrush     000000018007e098     gdi32:GDI32.dll
 0002:000000a0       __imp_GetTextMetricsW      000000018007e0a0     gdi32:GDI32.dll
 0002:000000a8       __imp_SelectObject         000000018007e0a8     gdi32:GDI32.dll
 0002:000000b0       __imp_DeleteObject         000000018007e0b0     gdi32:GDI32.dll
 0002:000000b8       __imp_DeleteDC             000000018007e0b8     gdi32:GDI32.dll
 0002:000000c0       __imp_CreateFontIndirectW  000000018007e0c0     gdi32:GDI32.dll
 0002:000000c8       __imp_CreateCompatibleDC   000000018007e0c8     gdi32:GDI32.dll
 0002:000000d0       __imp_GdiFlush             000000018007e0d0     gdi32:GDI32.dll
 0002:000000d8       \177GDI32_NULL_THUNK_DATA  000000018007e0d8     gdi32:GDI32.dll
 0002:000000e0       __imp_GetConsoleWindow     000000018007e0e0     kernel32:KERNEL32.dll
 0002:000000e8       __imp_LoadLibraryW         000000018007e0e8     kernel32:KERNEL32.dll
 0002:000000f0       __imp_VirtualProtect       000000018007e0f0     kernel32:KERNEL32.dll
 0002:000000f8       __imp_lstrcpyW             000000018007e0f8     kernel32:KERNEL32.dll
 0002:00000100       __imp_lstrcpynA            000000018007e100     kernel32:KERNEL32.dll
 0002:00000108       __imp_lstrcpyA             000000018007e108     kernel32:KERNEL32.dll
 0002:00000110       __imp_lstrlenA             000000018007e110     kernel32:KERNEL32.dll
 0002:00000118       __imp_MultiByteToWideChar  000000018007e118     kernel32:KERNEL32.dll
 0002:00000120       __imp_WideCharToMultiByte  000000018007e120     kernel32:KERNEL32.dll
 0002:00000128       __imp_GetEnvironmentStringsW 000000018007e128     kernel32:KERNEL32.dll
 0002:00000130       __imp_GetStdHandle         000000018007e130     kernel32:KERNEL32.dll
 0002:00000138       __imp_GetEnvironmentVariableW 000000018007e138     kernel32:KERNEL32.dll
 0002:00000140       __imp_DeleteFileW          000000018007e140     kernel32:KERNEL32.dll
 0002:00000148       __imp_SetEvent             000000018007e148     kernel32:KERNEL32.dll
 0002:00000150       __imp_ResetEvent           000000018007e150     kernel32:KERNEL32.dll
 0002:00000158       __imp_ReleaseSemaphore     000000018007e158     kernel32:KERNEL32.dll
 0002:00000160       __imp_CreateEventW         000000018007e160     kernel32:KERNEL32.dll
 0002:00000168       __imp_GetCurrentProcess    000000018007e168     kernel32:KERNEL32.dll
 0002:00000170       __imp_TerminateProcess     000000018007e170     kernel32:KERNEL32.dll
 0002:00000178       __imp_GetExitCodeProcess   000000018007e178     kernel32:KERNEL32.dll
 0002:00000180       __imp_SuspendThread        000000018007e180     kernel32:KERNEL32.dll
 0002:00000188       __imp_ResumeThread         000000018007e188     kernel32:KERNEL32.dll
 0002:00000190       __imp_CreateProcessW       000000018007e190     kernel32:KERNEL32.dll
 0002:00000198       __imp_WaitForMultipleObjects 000000018007e198     kernel32:KERNEL32.dll
 0002:000001a0       __imp_lstrcatW             000000018007e1a0     kernel32:KERNEL32.dll
 0002:000001a8       __imp_CreateSemaphoreW     000000018007e1a8     kernel32:KERNEL32.dll
 0002:000001b0       __imp_IsBadStringPtrW      000000018007e1b0     kernel32:KERNEL32.dll
 0002:000001b8       __imp_PeekConsoleInputW    000000018007e1b8     kernel32:KERNEL32.dll
 0002:000001c0       __imp_WriteConsoleInputW   000000018007e1c0     kernel32:KERNEL32.dll
 0002:000001c8       __imp_GetConsoleScreenBufferInfo 000000018007e1c8     kernel32:KERNEL32.dll
 0002:000001d0       __imp_GetConsoleCursorInfo 000000018007e1d0     kernel32:KERNEL32.dll
 0002:000001d8       __imp_GetConsoleTitleW     000000018007e1d8     kernel32:KERNEL32.dll
 0002:000001e0       __imp_SetConsoleTitleW     000000018007e1e0     kernel32:KERNEL32.dll
 0002:000001e8       __imp_GetConsoleMode       000000018007e1e8     kernel32:KERNEL32.dll
 0002:000001f0       __imp_GetNumberOfConsoleInputEvents 000000018007e1f0     kernel32:KERNEL32.dll
 0002:000001f8       __imp_ReadConsoleInputW    000000018007e1f8     kernel32:KERNEL32.dll
 0002:00000200       __imp_SetConsoleMode       000000018007e200     kernel32:KERNEL32.dll
 0002:00000208       __imp_CreateToolhelp32Snapshot 000000018007e208     kernel32:KERNEL32.dll
 0002:00000210       __imp_Thread32First        000000018007e210     kernel32:KERNEL32.dll
 0002:00000218       __imp_Thread32Next         000000018007e218     kernel32:KERNEL32.dll
 0002:00000220       __imp_Module32FirstW       000000018007e220     kernel32:KERNEL32.dll
 0002:00000228       __imp_Module32NextW        000000018007e228     kernel32:KERNEL32.dll
 0002:00000230       __imp_VerSetConditionMask  000000018007e230     kernel32:KERNEL32.dll
 0002:00000238       __imp_ReleaseMutex         000000018007e238     kernel32:KERNEL32.dll
 0002:00000240       __imp_CreateMutexW         000000018007e240     kernel32:KERNEL32.dll
 0002:00000248       __imp_VerifyVersionInfoW   000000018007e248     kernel32:KERNEL32.dll
 0002:00000250       __imp_ExpandEnvironmentStringsW 000000018007e250     kernel32:KERNEL32.dll
 0002:00000258       __imp_SearchPathW          000000018007e258     kernel32:KERNEL32.dll
 0002:00000260       __imp_GetFileInformationByHandle 000000018007e260     kernel32:KERNEL32.dll
 0002:00000268       __imp_SetFilePointer       000000018007e268     kernel32:KERNEL32.dll
 0002:00000270       __imp_DebugBreak           000000018007e270     kernel32:KERNEL32.dll
 0002:00000278       __imp_ReadProcessMemory    000000018007e278     kernel32:KERNEL32.dll
 0002:00000280       __imp_FreeLibrary          000000018007e280     kernel32:KERNEL32.dll
 0002:00000288       __imp_HeapCreate           000000018007e288     kernel32:KERNEL32.dll
 0002:00000290       __imp_HeapDestroy          000000018007e290     kernel32:KERNEL32.dll
 0002:00000298       __imp_HeapAlloc            000000018007e298     kernel32:KERNEL32.dll
 0002:000002a0       __imp_HeapReAlloc          000000018007e2a0     kernel32:KERNEL32.dll
 0002:000002a8       __imp_HeapFree             000000018007e2a8     kernel32:KERNEL32.dll
 0002:000002b0       __imp_HeapValidate         000000018007e2b0     kernel32:KERNEL32.dll
 0002:000002b8       __imp_GetStartupInfoW      000000018007e2b8     kernel32:KERNEL32.dll
 0002:000002c0       __imp_OpenThread           000000018007e2c0     kernel32:KERNEL32.dll
 0002:000002c8       __imp_InitializeCriticalSection 000000018007e2c8     kernel32:KERNEL32.dll
 0002:000002d0       __imp_EnterCriticalSection 000000018007e2d0     kernel32:KERNEL32.dll
 0002:000002d8       __imp_LeaveCriticalSection 000000018007e2d8     kernel32:KERNEL32.dll
 0002:000002e0       __imp_TryEnterCriticalSection 000000018007e2e0     kernel32:KERNEL32.dll
 0002:000002e8       __imp_DeleteCriticalSection 000000018007e2e8     kernel32:KERNEL32.dll
 0002:000002f0       __imp_LocalAlloc           000000018007e2f0     kernel32:KERNEL32.dll
 0002:000002f8       __imp_LocalFree            000000018007e2f8     kernel32:KERNEL32.dll
 0002:00000300       __imp_lstrcmpiA            000000018007e300     kernel32:KERNEL32.dll
 0002:00000308       __imp_FlushFileBuffers     000000018007e308     kernel32:KERNEL32.dll
 0002:00000310       __imp_ConnectNamedPipe     000000018007e310     kernel32:KERNEL32.dll
 0002:00000318       __imp_DisconnectNamedPipe  000000018007e318     kernel32:KERNEL32.dll
 0002:00000320       __imp_GetModuleFileNameW   000000018007e320     kernel32:KERNEL32.dll
 0002:00000328       __imp_GetOverlappedResult  000000018007e328     kernel32:KERNEL32.dll
 0002:00000330       __imp_SetThreadPriority    000000018007e330     kernel32:KERNEL32.dll
 0002:00000338       __imp_GetExitCodeThread    000000018007e338     kernel32:KERNEL32.dll
 0002:00000340       __imp_FreeEnvironmentStringsW 000000018007e340     kernel32:KERNEL32.dll
 0002:00000348       __imp_GetLargestConsoleWindowSize 000000018007e348     kernel32:KERNEL32.dll
 0002:00000350       __imp_SetConsoleWindowInfo 000000018007e350     kernel32:KERNEL32.dll
 0002:00000358       __imp_SetConsoleTextAttribute 000000018007e358     kernel32:KERNEL32.dll
 0002:00000360       __imp_GetConsoleOutputCP   000000018007e360     kernel32:KERNEL32.dll
 0002:00000368       __imp_CreateDirectoryW     000000018007e368     kernel32:KERNEL32.dll
 0002:00000370       __imp_FindClose            000000018007e370     kernel32:KERNEL32.dll
 0002:00000378       __imp_FindFirstFileW       000000018007e378     kernel32:KERNEL32.dll
 0002:00000380       __imp_FindNextFileW        000000018007e380     kernel32:KERNEL32.dll
 0002:00000388       __imp_GetFileSize          000000018007e388     kernel32:KERNEL32.dll
 0002:00000390       __imp_GetFileSizeEx        000000018007e390     kernel32:KERNEL32.dll
 0002:00000398       __imp_GetPrivateProfileIntW 000000018007e398     kernel32:KERNEL32.dll
 0002:000003a0       __imp_WritePrivateProfileStringW 000000018007e3a0     kernel32:KERNEL32.dll
 0002:000003a8       __imp_GetSystemInfo        000000018007e3a8     kernel32:KERNEL32.dll
 0002:000003b0       __imp_VirtualAlloc         000000018007e3b0     kernel32:KERNEL32.dll
 0002:000003b8       __imp_VirtualFree          000000018007e3b8     kernel32:KERNEL32.dll
 0002:000003c0       __imp_IsBadReadPtr         000000018007e3c0     kernel32:KERNEL32.dll
 0002:000003c8       __imp_GetFullPathNameW     000000018007e3c8     kernel32:KERNEL32.dll
 0002:000003d0       __imp_OpenProcess          000000018007e3d0     kernel32:KERNEL32.dll
 0002:000003d8       __imp_GetWindowsDirectoryW 000000018007e3d8     kernel32:KERNEL32.dll
 0002:000003e0       __imp_GetVersionExW        000000018007e3e0     kernel32:KERNEL32.dll
 0002:000003e8       __imp_Process32FirstW      000000018007e3e8     kernel32:KERNEL32.dll
 0002:000003f0       __imp_Process32NextW       000000018007e3f0     kernel32:KERNEL32.dll
 0002:000003f8       __imp_RaiseException       000000018007e3f8     kernel32:KERNEL32.dll
 0002:00000400       __imp_CreateThread         000000018007e400     kernel32:KERNEL32.dll
 0002:00000408       __imp_TerminateThread      000000018007e408     kernel32:KERNEL32.dll
 0002:00000410       __imp_DuplicateHandle      000000018007e410     kernel32:KERNEL32.dll
 0002:00000418       __imp_WriteConsoleW        000000018007e418     kernel32:KERNEL32.dll
 0002:00000420       __imp_OutputDebugStringW   000000018007e420     kernel32:KERNEL32.dll
 0002:00000428       __imp_OutputDebugStringA   000000018007e428     kernel32:KERNEL32.dll
 0002:00000430       __imp_SetFilePointerEx     000000018007e430     kernel32:KERNEL32.dll
 0002:00000438       __imp_GetConsoleCP         000000018007e438     kernel32:KERNEL32.dll
 0002:00000440       __imp_SetStdHandle         000000018007e440     kernel32:KERNEL32.dll
 0002:00000448       __imp_HeapSize             000000018007e448     kernel32:KERNEL32.dll
 0002:00000450       __imp_SetConsoleCtrlHandler 000000018007e450     kernel32:KERNEL32.dll
 0002:00000458       __imp_GetCommandLineW      000000018007e458     kernel32:KERNEL32.dll
 0002:00000460       __imp_GetCommandLineA      000000018007e460     kernel32:KERNEL32.dll
 0002:00000468       __imp_GetFileType          000000018007e468     kernel32:KERNEL32.dll
 0002:00000470       __imp_GetProcessHeap       000000018007e470     kernel32:KERNEL32.dll
 0002:00000478       __imp_SetEnvironmentVariableA 000000018007e478     kernel32:KERNEL32.dll
 0002:00000480       __imp_GetCPInfo            000000018007e480     kernel32:KERNEL32.dll
 0002:00000488       __imp_GetOEMCP             000000018007e488     kernel32:KERNEL32.dll
 0002:00000490       __imp_IsValidCodePage      000000018007e490     kernel32:KERNEL32.dll
 0002:00000498       __imp_EnumSystemLocalesW   000000018007e498     kernel32:KERNEL32.dll
 0002:000004a0       __imp_GetUserDefaultLCID   000000018007e4a0     kernel32:KERNEL32.dll
 0002:000004a8       __imp_IsValidLocale        000000018007e4a8     kernel32:KERNEL32.dll
 0002:000004b0       __imp_GetLocaleInfoW       000000018007e4b0     kernel32:KERNEL32.dll
 0002:000004b8       __imp_LCMapStringW         000000018007e4b8     kernel32:KERNEL32.dll
 0002:000004c0       __imp_CompareStringW       000000018007e4c0     kernel32:KERNEL32.dll
 0002:000004c8       __imp_GetTimeFormatW       000000018007e4c8     kernel32:KERNEL32.dll
 0002:000004d0       __imp_GetDateFormatW       000000018007e4d0     kernel32:KERNEL32.dll
 0002:000004d8       __imp_GetACP               000000018007e4d8     kernel32:KERNEL32.dll
 0002:000004e0       __imp_GetCurrentThread     000000018007e4e0     kernel32:KERNEL32.dll
 0002:000004e8       __imp_GetStringTypeW       000000018007e4e8     kernel32:KERNEL32.dll
 0002:000004f0       __imp_GetModuleHandleExW   000000018007e4f0     kernel32:KERNEL32.dll
 0002:000004f8       __imp_ExitProcess          000000018007e4f8     kernel32:KERNEL32.dll
 0002:00000500       __imp_InterlockedFlushSList 000000018007e500     kernel32:KERNEL32.dll
 0002:00000508       __imp_InterlockedPushEntrySList 000000018007e508     kernel32:KERNEL32.dll
 0002:00000510       __imp_LoadLibraryExW       000000018007e510     kernel32:KERNEL32.dll
 0002:00000518       __imp_TlsFree              000000018007e518     kernel32:KERNEL32.dll
 0002:00000520       __imp_TlsSetValue          000000018007e520     kernel32:KERNEL32.dll
 0002:00000528       __imp_TlsGetValue          000000018007e528     kernel32:KERNEL32.dll
 0002:00000530       __imp_TlsAlloc             000000018007e530     kernel32:KERNEL32.dll
 0002:00000538       __imp_InitializeCriticalSectionAndSpinCount 000000018007e538     kernel32:KERNEL32.dll
 0002:00000540       __imp_RtlUnwindEx          000000018007e540     kernel32:KERNEL32.dll
 0002:00000548       __imp_InitializeSListHead  000000018007e548     kernel32:KERNEL32.dll
 0002:00000550       __imp_GetSystemTimeAsFileTime 000000018007e550     kernel32:KERNEL32.dll
 0002:00000558       __imp_QueryPerformanceCounter 000000018007e558     kernel32:KERNEL32.dll
 0002:00000560       __imp_IsProcessorFeaturePresent 000000018007e560     kernel32:KERNEL32.dll
 0002:00000568       __imp_UnmapViewOfFile      000000018007e568     kernel32:KERNEL32.dll
 0002:00000570       __imp_MapViewOfFile        000000018007e570     kernel32:KERNEL32.dll
 0002:00000578       __imp_OpenFileMappingW     000000018007e578     kernel32:KERNEL32.dll
 0002:00000580       __imp_CreateFileMappingW   000000018007e580     kernel32:KERNEL32.dll
 0002:00000588       __imp_GetTickCount         000000018007e588     kernel32:KERNEL32.dll
 0002:00000590       __imp_GetCurrentThreadId   000000018007e590     kernel32:KERNEL32.dll
 0002:00000598       __imp_GetCurrentProcessId  000000018007e598     kernel32:KERNEL32.dll
 0002:000005a0       __imp_Sleep                000000018007e5a0     kernel32:KERNEL32.dll
 0002:000005a8       __imp_WaitForSingleObject  000000018007e5a8     kernel32:KERNEL32.dll
 0002:000005b0       __imp_WaitNamedPipeW       000000018007e5b0     kernel32:KERNEL32.dll
 0002:000005b8       __imp_TransactNamedPipe    000000018007e5b8     kernel32:KERNEL32.dll
 0002:000005c0       __imp_SetNamedPipeHandleState 000000018007e5c0     kernel32:KERNEL32.dll
 0002:000005c8       __imp_SetLastError         000000018007e5c8     kernel32:KERNEL32.dll
 0002:000005d0       __imp_CloseHandle          000000018007e5d0     kernel32:KERNEL32.dll
 0002:000005d8       __imp_GetLastError         000000018007e5d8     kernel32:KERNEL32.dll
 0002:000005e0       __imp_IsDebuggerPresent    000000018007e5e0     kernel32:KERNEL32.dll
 0002:000005e8       __imp_WriteFile            000000018007e5e8     kernel32:KERNEL32.dll
 0002:000005f0       __imp_ReadFile             000000018007e5f0     kernel32:KERNEL32.dll
 0002:000005f8       __imp_CreateFileW          000000018007e5f8     kernel32:KERNEL32.dll
 0002:00000600       __imp_lstrcmpiW            000000018007e600     kernel32:KERNEL32.dll
 0002:00000608       __imp_lstrcmpW             000000018007e608     kernel32:KERNEL32.dll
 0002:00000610       __imp_GetProcAddress       000000018007e610     kernel32:KERNEL32.dll
 0002:00000618       __imp_GetModuleHandleW     000000018007e618     kernel32:KERNEL32.dll
 0002:00000620       __imp_GetCurrentDirectoryW 000000018007e620     kernel32:KERNEL32.dll
 0002:00000628       __imp_lstrlenW             000000018007e628     kernel32:KERNEL32.dll
 0002:00000630       __imp_lstrcpynW            000000018007e630     kernel32:KERNEL32.dll
 0002:00000638       __imp_CreateNamedPipeW     000000018007e638     kernel32:KERNEL32.dll
 0002:00000640       __imp_SetUnhandledExceptionFilter 000000018007e640     kernel32:KERNEL32.dll
 0002:00000648       __imp_UnhandledExceptionFilter 000000018007e648     kernel32:KERNEL32.dll
 0002:00000650       __imp_RtlVirtualUnwind     000000018007e650     kernel32:KERNEL32.dll
 0002:00000658       __imp_RtlLookupFunctionEntry 000000018007e658     kernel32:KERNEL32.dll
 0002:00000660       __imp_RtlCaptureContext    000000018007e660     kernel32:KERNEL32.dll
 0002:00000668       __imp_WaitForSingleObjectEx 000000018007e668     kernel32:KERNEL32.dll
 0002:00000670       __imp_SetEnvironmentVariableW 000000018007e670     kernel32:KERNEL32.dll
 0002:00000678       \177KERNEL32_NULL_THUNK_DATA 000000018007e678     kernel32:KERNEL32.dll
 0002:00000680       __imp_SHAppBarMessage      000000018007e680     shell32:SHELL32.dll
 0002:00000688       \177SHELL32_NULL_THUNK_DATA 000000018007e688     shell32:SHELL32.dll
 0002:00000690       __imp_MapVirtualKeyW       000000018007e690     user32:USER32.dll
 0002:00000698       __imp_VkKeyScanW           000000018007e698     user32:USER32.dll
 0002:000006a0       __imp_CharUpperBuffW       000000018007e6a0     user32:USER32.dll
 0002:000006a8       __imp_SetForegroundWindow  000000018007e6a8     user32:USER32.dll
 0002:000006b0       __imp_ShowWindowAsync      000000018007e6b0     user32:USER32.dll
 0002:000006b8       __imp_ShowWindow           000000018007e6b8     user32:USER32.dll
 0002:000006c0       __imp_wsprintfA            000000018007e6c0     user32:USER32.dll
 0002:000006c8       __imp_GetWindowTextW       000000018007e6c8     user32:USER32.dll
 0002:000006d0       __imp_SendMessageTimeoutW  000000018007e6d0     user32:USER32.dll
 0002:000006d8       __imp_SendMessageW         000000018007e6d8     user32:USER32.dll
 0002:000006e0       __imp_ActivateKeyboardLayout 000000018007e6e0     user32:USER32.dll
 0002:000006e8       __imp_LoadKeyboardLayoutW  000000018007e6e8     user32:USER32.dll
 0002:000006f0       __imp_FillRect             000000018007e6f0     user32:USER32.dll
 0002:000006f8       __imp_ReleaseDC            000000018007e6f8     user32:USER32.dll
 0002:00000700       __imp_GetDC                000000018007e700     user32:USER32.dll
 0002:00000708       __imp_EnumDisplayMonitors  000000018007e708     user32:USER32.dll
 0002:00000710       __imp_MonitorFromRect      000000018007e710     user32:USER32.dll
 0002:00000718       __imp_MonitorFromPoint     000000018007e718     user32:USER32.dll
 0002:00000720       __imp_SystemParametersInfoW 000000018007e720     user32:USER32.dll
 0002:00000728       __imp_FindWindowExW        000000018007e728     user32:USER32.dll
 0002:00000730       __imp_IsRectEmpty          000000018007e730     user32:USER32.dll
 0002:00000738       __imp_IntersectRect        000000018007e738     user32:USER32.dll
 0002:00000740       __imp_GetCursorPos         000000018007e740     user32:USER32.dll
 0002:00000748       __imp_GetMonitorInfoW      000000018007e748     user32:USER32.dll
 0002:00000750       __imp_MonitorFromWindow    000000018007e750     user32:USER32.dll
 0002:00000758       __imp_GetWindowRect        000000018007e758     user32:USER32.dll
 0002:00000760       __imp_GetSystemMetrics     000000018007e760     user32:USER32.dll
 0002:00000768       __imp_IsWindowEnabled      000000018007e768     user32:USER32.dll
 0002:00000770       __imp_EnableWindow         000000018007e770     user32:USER32.dll
 0002:00000778       __imp_SetWindowPos         000000018007e778     user32:USER32.dll
 0002:00000780       __imp_IsWindowVisible      000000018007e780     user32:USER32.dll
 0002:00000788       __imp_PostMessageW         000000018007e788     user32:USER32.dll
 0002:00000790       __imp_RegisterWindowMessageW 000000018007e790     user32:USER32.dll
 0002:00000798       __imp_GetParent            000000018007e798     user32:USER32.dll
 0002:000007a0       __imp_wsprintfW            000000018007e7a0     user32:USER32.dll
 0002:000007a8       __imp_GetWindowThreadProcessId 000000018007e7a8     user32:USER32.dll
 0002:000007b0       __imp_FindWindowW          000000018007e7b0     user32:USER32.dll
 0002:000007b8       __imp_GetClassNameW        000000018007e7b8     user32:USER32.dll
 0002:000007c0       __imp_GetWindowLongPtrW    000000018007e7c0     user32:USER32.dll
 0002:000007c8       __imp_MessageBoxW          000000018007e7c8     user32:USER32.dll
 0002:000007d0       __imp_IsWindow             000000018007e7d0     user32:USER32.dll
 0002:000007d8       \177USER32_NULL_THUNK_DATA 000000018007e7d8     user32:USER32.dll
 0002:000007e0       __imp_GetFileVersionInfoW  000000018007e7e0     version:VERSION.dll
 0002:000007e8       __imp_VerQueryValueW       000000018007e7e8     version:VERSION.dll
 0002:000007f0       __imp_GetFileVersionInfoSizeW 000000018007e7f0     version:VERSION.dll
 0002:000007f8       \177VERSION_NULL_THUNK_DATA 000000018007e7f8     version:VERSION.dll
 0002:00000800       __guard_check_icall_fptr   000000018007e800     LIBCMT:guard_support.obj
 0002:00000808       __guard_dispatch_icall_fptr 000000018007e808     LIBCMT:guard_support.obj
 0002:00000810       __xc_a                     000000018007e810     LIBCMT:initializers.obj
 0002:00000828       __xc_z                     000000018007e828     LIBCMT:initializers.obj
 0002:00000830       __xi_a                     000000018007e830     LIBCMT:initializers.obj
 0002:00000840       __acrt_multibyte_initializer 000000018007e840     libucrt:multibyte_initializer.obj
 0002:00000848       __acrt_stdio_initializer   000000018007e848     libucrt:stdio_initializer.obj
 0002:00000850       __acrt_tran_fma3_initializer 000000018007e850     libucrt:fma3_initializer.obj
 0002:00000858       __xi_z                     000000018007e858     LIBCMT:initializers.obj
 0002:00000860       __xl_a                     000000018007e860     LIBCMT:tlssup.obj
 0002:00000868       __xl_z                     000000018007e868     LIBCMT:tlssup.obj
 0002:00000870       __xp_a                     000000018007e870     LIBCMT:initializers.obj
 0002:00000878       __acrt_locale_terminator   000000018007e878     libucrt:locale_initializer.obj
 0002:00000880       __dcrt_console_output_terminator 000000018007e880     libucrt:console_output_initializer.obj
 0002:00000888       __acrt_stdio_terminator    000000018007e888     libucrt:stdio_initializer.obj
 0002:00000890       __xp_z                     000000018007e890     LIBCMT:initializers.obj
 0002:00000898       __xt_a                     000000018007e898     LIBCMT:initializers.obj
 0002:000008a0       __xt_z                     000000018007e8a0     LIBCMT:initializers.obj
 0002:000008b0       ??_C@_19IJOJOJIB@?$AAP?$AAA?$AAT?$AAH?$AA?$AA@ 000000018007e8b0     CEStr.obj
 0002:000008c0       ??_C@_1EHK@JMHPNAMN@?$AAA?$AAC?$AAT?$AAI?$AAV?$AAA?$AAT?$AAE?$AA?$AA?$AAA?$AAL?$AAI?$AAA?$AAS?$AA?$AA?$AAA?$AAS?$AAS?$AAO?$AAC?$AA?$AA?$AAA?$AAT?$AAT?$AAR?$AAI?$AAB?$AA?$AA?$AAB?$AAE?$AAE?$AAP@ 000000018007e8c0     CmdLine.obj
 0002:00000d3c       ??_C@_11LOCGONAA@?$AA?$AA@ 000000018007ed3c     CmdLine.obj
 0002:00000d40       ??_C@_1BK@MGMFAEKH@?$AAk?$AAe?$AAr?$AAn?$AAe?$AAl?$AA3?$AA2?$AA?4?$AAd?$AAl?$AAl?$AA?$AA@ 000000018007ed40     CmdLine.obj
 0002:00000d60       ??_C@_0BP@OODKCJPP@Wow64DisableWow64FsRedirection?$AA@ 000000018007ed60     CmdLine.obj
 0002:00000d80       ??_C@_0BO@KOCOEJCM@Wow64RevertWow64FsRedirection?$AA@ 000000018007ed80     CmdLine.obj
 0002:00000da0       ??_C@_15HCICFAGO@?$AA?$FO?$AA?$CC?$AA?$AA@ 000000018007eda0     CmdLine.obj
 0002:00000da8       ??_C@_13NEIAEHFG@?$AA?$CC?$AA?$AA@ 000000018007eda8     CmdLine.obj
 0002:00000dac       ??_C@_13PFGJFIHC@?$AA?$FO?$AA?$AA@ 000000018007edac     CmdLine.obj
 0002:00000db0       ??_C@_15DPEKPBGF@?$AA?2?$AA?$CC?$AA?$AA@ 000000018007edb0     CmdLine.obj
 0002:00000db8       ??_C@_17GCLANFBN@?$AA?5?$AA?$CI?$AA?0?$AA?$AA@ 000000018007edb8     CmdLine.obj
 0002:00000dc0       ??_C@_15DBGGBOGM@?$AA?1?$AAC?$AA?$AA@ 000000018007edc0     CmdLine.obj
 0002:00000dc8       ??_C@_15PENCDGID@?$AA?1?$AAK?$AA?$AA@ 000000018007edc8     CmdLine.obj
 0002:00000dd0       ??_C@_17MEJHPLBO@?$AAc?$AAm?$AAd?$AA?$AA@ 000000018007edd0     CmdLine.obj
 0002:00000dd8       ??_C@_1BA@DBKIDAPL@?$AAc?$AAm?$AAd?$AA?4?$AAe?$AAx?$AAe?$AA?$AA@ 000000018007edd8     CmdLine.obj
 0002:00000de8       ??_C@_1BA@OOOLGAEE@?$AAC?$AAo?$AAn?$AAE?$AAm?$AAu?$AAC?$AA?$AA@ 000000018007ede8     CmdLine.obj
 0002:00000df8       ??_C@_1BI@OPBAAHCM@?$AAC?$AAo?$AAn?$AAE?$AAm?$AAu?$AAC?$AA?4?$AAe?$AAx?$AAe?$AA?$AA@ 000000018007edf8     CmdLine.obj
 0002:00000e10       ??_C@_1BE@LPDGKFE@?$AAC?$AAo?$AAn?$AAE?$AAm?$AAu?$AAC?$AA6?$AA4?$AA?$AA@ 000000018007ee10     CmdLine.obj
 0002:00000e28       ??_C@_1BM@DIGKKBBA@?$AAC?$AAo?$AAn?$AAE?$AAm?$AAu?$AAC?$AA6?$AA4?$AA?4?$AAe?$AAx?$AAe?$AA?$AA@ 000000018007ee28     CmdLine.obj
 0002:00000e44       ??_C@_15JNBOKNOG@?$AA?$AN?$AA?6?$AA?$AA@ 000000018007ee44     CmdLine.obj
 0002:00000e50       ??_C@_1BC@NAEGMMKI@?$AA?2?$AA?2?$AA?$DP?$AA?2?$AAU?$AAN?$AAC?$AA?2?$AA?$AA@ 000000018007ee50     CmdLine.obj
 0002:00000e68       ??_C@_19MJCDBCKE@?$AA?2?$AA?2?$AA?$DP?$AA?2?$AA?$AA@ 000000018007ee68     CmdLine.obj
 0002:00000e78       ??_C@_1M@JGKKHEFC@?$AAs?$AAt?$AAa?$AAr?$AAt?$AA?$AA@ 000000018007ee78     CmdLine.obj
 0002:00000e88       ??_C@_1M@PJCPAACI@?$AA?5?$AA?$KA?$AA?7?$AA?$AN?$AA?6?$AA?$AA@ 000000018007ee88     CmdLine.obj
 0002:00000e98       ??_C@_1M@HHBDDMDH@?$AA?$DP?$AA?$CK?$AA?$DM?$AA?$DO?$AA?$HM?$AA?$AA@ 000000018007ee98     CmdLine.obj
 0002:00000ea8       ??_C@_19DOGDICKI@?$AA?4?$AAe?$AAx?$AAe?$AA?$AA@ 000000018007eea8     CmdLine.obj
 0002:00000eb8       ??_C@_17BFDEJKOF@?$AAt?$AAc?$AAc?$AA?$AA@ 000000018007eeb8     CmdLine.obj
 0002:00000ec0       ??_C@_1BA@JFHFEKBP@?$AAt?$AAc?$AAc?$AA?4?$AAe?$AAx?$AAe?$AA?$AA@ 000000018007eec0     CmdLine.obj
 0002:00000ed0       ??_C@_19CDGLJBOD@?$AA?4?$AAc?$AAo?$AAm?$AA?$AA@ 000000018007eed0     CmdLine.obj
 0002:00000ee0       ??_C@_1BE@OMGDNGEO@?$AAc?$AAs?$AAr?$AAs?$AAs?$AA?4?$AAe?$AAx?$AAe?$AA?$AA@ 000000018007eee0     CmdLine.obj
 0002:00000ef8       ??_C@_1BI@KAPIDPND@?$AAc?$AAo?$AAn?$AAh?$AAo?$AAs?$AAt?$AA?4?$AAe?$AAx?$AAe?$AA?$AA@ 000000018007eef8     CmdLine.obj
 0002:00000f10       ??_C@_1BG@PIGCKNCG@?$AAC?$AAo?$AAn?$AAE?$AAm?$AAu?$AA?4?$AAe?$AAx?$AAe?$AA?$AA@ 000000018007ef10     CmdLine.obj
 0002:00000f28       ??_C@_1BK@BNOCAHHB@?$AAC?$AAo?$AAn?$AAE?$AAm?$AAu?$AA6?$AA4?$AA?4?$AAe?$AAx?$AAe?$AA?$AA@ 000000018007ef28     CmdLine.obj
 0002:00000f48       ??_C@_1CE@DHEGLFCN@?$AAc?$AAo?$AAn?$AAe?$AAm?$AAu?$AA?9?$AAc?$AAy?$AAg?$AA?9?$AA3?$AA2?$AA?4?$AAe?$AAx?$AAe?$AA?$AA@ 000000018007ef48     CmdLine.obj
 0002:00000f70       ??_C@_1CE@FMNIHOKA@?$AAc?$AAo?$AAn?$AAe?$AAm?$AAu?$AA?9?$AAc?$AAy?$AAg?$AA?9?$AA6?$AA4?$AA?4?$AAe?$AAx?$AAe?$AA?$AA@ 000000018007ef70     CmdLine.obj
 0002:00000f98       ??_C@_1CG@HKNDDCJA@?$AAc?$AAo?$AAn?$AAe?$AAm?$AAu?$AA?9?$AAm?$AAs?$AAy?$AAs?$AA?9?$AA3?$AA2?$AA?4?$AAe?$AAx?$AAe?$AA?$AA@ 000000018007ef98     CmdLine.obj
 0002:00000fc0       ??_C@_1CI@BKGBONO@?$AAc?$AAo?$AAn?$AAe?$AAm?$AAu?$AA?9?$AAm?$AAs?$AAy?$AAs?$AA2?$AA?9?$AA3?$AA2?$AA?4?$AAe?$AAx?$AAe?$AA?$AA@ 000000018007efc0     CmdLine.obj
 0002:00000fe8       ??_C@_1CI@GKDINFFD@?$AAc?$AAo?$AAn?$AAe?$AAm?$AAu?$AA?9?$AAm?$AAs?$AAy?$AAs?$AA2?$AA?9?$AA6?$AA4?$AA?4?$AAe?$AAx?$AAe?$AA?$AA@ 000000018007efe8     CmdLine.obj
 0002:00001010       ??_C@_1BK@LMKHKIEA@?$AAg?$AAi?$AAt?$AA?9?$AAb?$AAa?$AAs?$AAh?$AA?4?$AAe?$AAx?$AAe?$AA?$AA@ 000000018007f010     CmdLine.obj
 0002:00001030       ??_C@_1BI@FELILGEI@?$AAg?$AAi?$AAt?$AA?9?$AAc?$AAm?$AAd?$AA?4?$AAe?$AAx?$AAe?$AA?$AA@ 000000018007f030     CmdLine.obj
 0002:00001048       ??_C@_1BA@ICCBDENM@?$AAf?$AAa?$AAr?$AA?4?$AAe?$AAx?$AAe?$AA?$AA@ 000000018007f048     CmdLine.obj
 0002:00001058       ??_C@_1BE@GNHPPGCJ@?$AAf?$AAa?$AAr?$AA6?$AA4?$AA?4?$AAe?$AAx?$AAe?$AA?$AA@ 000000018007f058     CmdLine.obj
 0002:00001070       ??_C@_1BE@KKPGGEOO@?$AA?5?$AA?$DM?$AA?$DO?$AA?$CI?$AA?$CJ?$AA?$CG?$AA?$HM?$AA?$FO?$AA?$CC?$AA?$AA@ 000000018007f070     CmdLine.obj
 0002:00001084       ??_C@_15KEGLFFFP@?$AA?$CC?$AA?5?$AA?$AA@ 000000018007f084     CmdLine.obj
 0002:0000108c       ??_C@_13HOIJIPNN@?$AA?5?$AA?$AA@ 000000018007f08c     CmdLine.obj
 0002:00001090       ??_C@_13FPGAJAPJ@?$AA?2?$AA?$AA@ 000000018007f090     CmdLine.obj
 0002:00001094       ??_C@_15NGAHEDKP@?$AA?5?$AA?3?$AA?$AA@ 000000018007f094     CmdLine.obj
 0002:000010a0       ??_C@_1O@PICBDAL@?$AAC?$AAo?$AAn?$AAE?$AAm?$AAu?$AA?$AA@ 000000018007f0a0     Common.obj
 0002:000010b0       ??_C@_1BA@LEPJIIOK@?$AAU?$AAn?$AAk?$AAn?$AAo?$AAw?$AAn?$AA?$AA@ 000000018007f0b0     ConEmuCheck.obj
 0002:000010c0       ??_C@_1EM@INHGIPLC@?$AA?$CF?$AAs?$AA?4?$AA?$CF?$AAu?$AA?3?$AA?5?$AAC?$AAr?$AAe?$AAa?$AAt?$AAe?$AAF?$AAi?$AAl?$AAe?$AA?$CI?$AA?$CF?$AAs?$AA?$CJ?$AA?5?$AAf?$AAa?$AAi?$AAl?$AAe?$AAd?$AA?0?$AA?5?$AAc?$AAo@ 000000018007f0c0     ConEmuCheck.obj
 0002:00001110       ??_C@_1CO@ELKEEMPJ@?$AAC?$AAo?$AAn?$AAE?$AAm?$AAu?$AAF?$AAi?$AAl?$AAe?$AAM?$AAa?$AAp?$AAp?$AAi?$AAn?$AAg?$AA?4?$AA?$CF?$AA0?$AA8?$AAX?$AA?$AA@ 000000018007f110     ConEmuCheck.obj
 0002:00001140       ??_C@_1DA@LCPELGGN@?$AAC?$AAo?$AAn?$AAE?$AAm?$AAu?$AAG?$AAu?$AAi?$AAI?$AAn?$AAf?$AAo?$AAM?$AAa?$AAp?$AAp?$AAi?$AAn?$AAg?$AA?4?$AA?$CF?$AAu?$AA?$AA@ 000000018007f140     ConEmuCheck.obj
 0002:00001170       ??_C@_1M@JLDCNMKN@?$AAS?$AAh?$AAe?$AAl?$AAl?$AA?$AA@ 000000018007f170     ConEmuCheck.obj
 0002:00001180       ??_C@_1O@GMCJGMIO@?$AAC?$AAr?$AAe?$AAa?$AAt?$AAe?$AA?$AA@ 000000018007f180     ConEmuCheck.obj
 0002:00001190       ??_C@_1O@DEDLEBMG@?$AAI?$AAn?$AAj?$AAe?$AAc?$AAt?$AA?$AA@ 000000018007f190     ConEmuCheck.obj
 0002:000011a0       ??_C@_1O@PPMFEOGL@?$AAH?$AAk?$AAL?$AAo?$AAa?$AAd?$AA?$AA@ 000000018007f1a0     ConEmuCheck.obj
 0002:000011b0       ??_C@_1O@EHPOJOIH@?$AAS?$AAr?$AAL?$AAo?$AAa?$AAd?$AA?$AA@ 000000018007f1b0     ConEmuCheck.obj
 0002:000011c0       ??_C@_1BA@OBPMCEAG@?$AAC?$AAh?$AAa?$AAn?$AAg?$AAe?$AAd?$AA?$AA@ 000000018007f1c0     ConEmuCheck.obj
 0002:000011d0       ??_C@_1M@KJKJNBFD@?$AAL?$AAd?$AAL?$AAi?$AAb?$AA?$AA@ 000000018007f1d0     ConEmuCheck.obj
 0002:000011e0       ??_C@_1M@GJCOMIJN@?$AAF?$AAr?$AAL?$AAi?$AAb?$AA?$AA@ 000000018007f1e0     ConEmuCheck.obj
 0002:000011ec       ??_C@_13JOFGPIOO@?$AA?4?$AA?$AA@ 000000018007f1ec     ConEmuCheck.obj
 0002:000011f0       ??_C@_1DC@MJLCOFMA@?$AA?2?$AA?2?$AA?$CF?$AAs?$AA?2?$AAp?$AAi?$AAp?$AAe?$AA?2?$AAC?$AAo?$AAn?$AAE?$AAm?$AAu?$AAG?$AAu?$AAi?$AA?4?$AA?$CF?$AA0?$AA8?$AAX?$AA?$AA@ 000000018007f1f0     ConEmuCheck.obj
 0002:00001228       ??_C@_1CM@OPJKOFLA@?$AA?2?$AA?2?$AA?$CF?$AAs?$AA?2?$AAp?$AAi?$AAp?$AAe?$AA?2?$AAC?$AAo?$AAn?$AAE?$AAm?$AAu?$AAS?$AAr?$AAv?$AA?$CF?$AAu?$AA?$AA@ 000000018007f228     ConEmuCheck.obj
 0002:00001258       ??_C@_1CK@IFINLJPE@?$AA?2?$AA?2?$AA?$CF?$AAs?$AA?2?$AAp?$AAi?$AAp?$AAe?$AA?2?$AAC?$AAo?$AAn?$AAE?$AAm?$AAu?$AAH?$AAk?$AA?$CF?$AAu?$AA?$AA@ 000000018007f258     ConEmuCheck.obj
 0002:00001288       ??_C@_1CG@FFFCCLIF@?$AAC?$AAo?$AAn?$AAs?$AAo?$AAl?$AAe?$AAW?$AAi?$AAn?$AAd?$AAo?$AAw?$AAC?$AAl?$AAa?$AAs?$AAs?$AA?$AA@ 000000018007f288     ConEmuCheck.obj
 0002:000012b0       ??_C@_1CC@LMJBOHFL@?$AAW?$AAi?$AAn?$AAe?$AAC?$AAo?$AAn?$AAs?$AAo?$AAl?$AAe?$AAC?$AAl?$AAa?$AAs?$AAs?$AA?$AA@ 000000018007f2b0     ConEmuCheck.obj
 0002:000012e0       ??_C@_1GK@OGACKIKJ@?$AAI?$AAn?$AAt?$AAe?$AAr?$AAn?$AAa?$AAl?$AA?5?$AAe?$AAr?$AAr?$AAo?$AAr?$AA?4?$AA?5?$AAM?$AAa?$AAp?$AAp?$AAi?$AAn?$AAg?$AA?5?$AAf?$AAi?$AAl?$AAe?$AA?5?$AAn?$AAa?$AAm@ 000000018007f2e0     ConEmuCheck.obj
 0002:00001350       ??_C@_1O@KBENBEFG@?$AAc?$AAr?$AAe?$AAa?$AAt?$AAe?$AA?$AA@ 000000018007f350     ConEmuCheck.obj
 0002:00001360       ??_C@_19BDAJEHDN@?$AAo?$AAp?$AAe?$AAn?$AA?$AA@ 000000018007f360     ConEmuCheck.obj
 0002:00001370       ??_C@_1GM@LGOLGABE@?$AAC?$AAa?$AAn?$AA?8?$AAt?$AA?5?$AA?$CF?$AAs?$AA?5?$AAc?$AAo?$AAn?$AAs?$AAo?$AAl?$AAe?$AA?5?$AAd?$AAa?$AAt?$AAa?$AA?5?$AAf?$AAi?$AAl?$AAe?$AA?5?$AAm?$AAa?$AAp?$AAp?$AAi@ 000000018007f370     ConEmuCheck.obj
 0002:000013e0       ??_C@_1BE@HADLJAO@?$AAR?$AAe?$AAa?$AAd?$AAW?$AAr?$AAi?$AAt?$AAe?$AA?$AA@ 000000018007f3e0     ConEmuCheck.obj
 0002:000013f8       ??_C@_19EOHDNDII@?$AAR?$AAe?$AAa?$AAd?$AA?$AA@ 000000018007f3f8     ConEmuCheck.obj
 0002:00001410       ??_C@_1FO@BGAPBIGG@?$AAC?$AAa?$AAn?$AA?8?$AAt?$AA?5?$AAm?$AAa?$AAp?$AA?5?$AAc?$AAo?$AAn?$AAs?$AAo?$AAl?$AAe?$AA?5?$AAi?$AAn?$AAf?$AAo?$AA?5?$AA?$CI?$AA?$CF?$AAs?$AA?$CJ?$AA?4?$AA?5?$AAE?$AAr?$AAr@ 000000018007f410     ConEmuCheck.obj
 0002:00001470       ??_C@_1CI@PDOPFPLH@?$AAV?$AAi?$AAr?$AAt?$AAu?$AAa?$AAl?$AAC?$AAo?$AAn?$AAs?$AAo?$AAl?$AAe?$AAC?$AAl?$AAa?$AAs?$AAs?$AA?$AA@ 000000018007f470     ConEmuCheckEx.obj
 0002:00001498       ??_C@_1CC@PDEDDOGK@?$AA?2?$AAP?$AAl?$AAu?$AAg?$AAi?$AAn?$AAs?$AA?2?$AAC?$AAo?$AAn?$AAE?$AAm?$AAu?$AA?2?$AA?$AA@ 000000018007f498     ConEmuCheckEx.obj
 0002:000014c0       ??_C@_1CA@CNCOCNJD@?$AAS?$AAo?$AAf?$AAt?$AAw?$AAa?$AAr?$AAe?$AA?2?$AAC?$AAo?$AAn?$AAE?$AAm?$AAu?$AA?$AA@ 000000018007f4c0     ConEmuCheckEx.obj
 0002:000014e0       ??_C@_1CK@KBHIPEEC@?$AAC?$AAo?$AAn?$AAE?$AAm?$AAu?$AA?2?$AAC?$AAo?$AAn?$AAE?$AAm?$AAu?$AAC?$AA6?$AA4?$AA?4?$AAe?$AAx?$AAe?$AA?$AA@ 000000018007f4e0     ConEmuCheckEx.obj
 0002:00001510       ??_C@_1CG@HCDHJIEM@?$AAC?$AAo?$AAn?$AAE?$AAm?$AAu?$AA?2?$AAC?$AAo?$AAn?$AAE?$AAm?$AAu?$AAC?$AA?4?$AAe?$AAx?$AAe?$AA?$AA@ 000000018007f510     ConEmuCheckEx.obj
 0002:00001538       ??_C@_1BO@MLCHEAGG@?$AAC?$AAo?$AAn?$AAE?$AAm?$AAu?$AAH?$AAk?$AA6?$AA4?$AA?4?$AAd?$AAl?$AAl?$AA?$AA@ 000000018007f538     ConEmuInjects.obj
 0002:00001560       ??_C@_1IM@IDJBHJMA@?$AAC?$AAo?$AAn?$AAE?$AAm?$AAu?$AAH?$AAk?$AA?5?$AAw?$AAa?$AAs?$AA?5?$AAn?$AAo?$AAt?$AA?5?$AAl?$AAo?$AAa?$AAd?$AAe?$AAd?$AA?0?$AA?5?$AAb?$AAu?$AAt?$AA?5?$AAC?$AAo?$AAn@ 000000018007f560     ConEmuInjects.obj
 0002:000015f0       ??_C@_1BM@LHLFCECN@?$AAC?$AAo?$AAn?$AAE?$AAm?$AAu?$AA?5?$AAp?$AAl?$AAu?$AAg?$AAi?$AAn?$AA?$AA@ 000000018007f5f0     ConEmuInjects.obj
 0002:00001610       ??_C@_0BB@OPFPFOCM@SetHookCallbacks?$AA@ 000000018007f610     ConEmuInjects.obj
 0002:00001628       ??_C@_0BH@HLKHEPME@SetLoadLibraryCallback?$AA@ 000000018007f628     ConEmuInjects.obj
 0002:00001640       ??_C@_0P@JOHNNMGG@SetFarHookMode?$AA@ 000000018007f640     ConEmuInjects.obj
 0002:00001650       ??_C@_1CM@DEPCLAGE@?$AAC?$AAo?$AAn?$AAE?$AAm?$AAu?$AA?5?$AAp?$AAl?$AAu?$AAg?$AAi?$AAn?$AA?0?$AA?5?$AAP?$AAI?$AAD?$AA?$DN?$AA?$CF?$AAu?$AA?$AA@ 000000018007f650     ConEmuInjects.obj
 0002:00001680       ??_C@_1CC@JNEFFKJH@?$AAS?$AAe?$AAt?$AAH?$AAo?$AAo?$AAk?$AAC?$AAa?$AAl?$AAl?$AAb?$AAa?$AAc?$AAk?$AAs?$AA?$AA@ 000000018007f680     ConEmuInjects.obj
 0002:000016a8       ??_C@_1CO@HHOFMBDD@?$AAS?$AAe?$AAt?$AAL?$AAo?$AAa?$AAd?$AAL?$AAi?$AAb?$AAr?$AAa?$AAr?$AAy?$AAC?$AAa?$AAl?$AAl?$AAb?$AAa?$AAc?$AAk?$AA?$AA@ 000000018007f6a8     ConEmuInjects.obj
 0002:000016d8       ??_C@_1BO@OGOEDKED@?$AAS?$AAe?$AAt?$AAF?$AAa?$AAr?$AAH?$AAo?$AAo?$AAk?$AAM?$AAo?$AAd?$AAe?$AA?$AA@ 000000018007f6d8     ConEmuInjects.obj
 0002:00001700       ??_C@_1FG@GKBMDCCM@?$AAC?$AAo?$AAn?$AAE?$AAm?$AAu?$AAH?$AAk?$AA?5?$AAi?$AAs?$AA?5?$AAb?$AAr?$AAo?$AAk?$AAe?$AAn?$AA?0?$AA?5?$AAe?$AAx?$AAp?$AAo?$AAr?$AAt?$AA?5?$AA?$CI?$AA?$CF?$AAs?$AA?$CJ?$AA?5@ 000000018007f700     ConEmuInjects.obj
 0002:00001758       ??_C@_1CM@NELFNPDE@?$AAE?$AAx?$AAt?$AAe?$AAn?$AAd?$AAe?$AAd?$AAC?$AAo?$AAn?$AAs?$AAo?$AAl?$AAe?$AA6?$AA4?$AA?4?$AAd?$AAl?$AAl?$AA?$AA@ 000000018007f758     ConEmuInjects.obj
 0002:00001788       ??_C@_0BE@FDMAKOMB@SetHookCallbacksExt?$AA@ 000000018007f788     ConEmuInjects.obj
 0002:000017a0       ??_C@_0M@LAGCIMKJ@FreeConsole?$AA@ 000000018007f7a0     ConEmuInjects.obj
 0002:000017b0       ??_C@_0N@MOGGHBHN@AllocConsole?$AA@ 000000018007f7b0     ConEmuInjects.obj
 0002:000017c0       ??_C@_0BC@BINPJBNK@PeekConsoleInputA?$AA@ 000000018007f7c0     ConEmuInjects.obj
 0002:000017d8       ??_C@_0BC@EEHCEAN@PeekConsoleInputW?$AA@ 000000018007f7d8     ConEmuInjects.obj
 0002:000017f0       ??_C@_0BC@JNLCHFED@ReadConsoleInputA?$AA@ 000000018007f7f0     ConEmuInjects.obj
 0002:00001808       ??_C@_0BC@IBCKMAJE@ReadConsoleInputW?$AA@ 000000018007f808     ConEmuInjects.obj
 0002:00001820       ??_C@_0BE@PKLMIEOM@WriteConsoleOutputA?$AA@ 000000018007f820     ConEmuInjects.obj
 0002:00001838       ??_C@_0BE@OGCEDBDL@WriteConsoleOutputW?$AA@ 000000018007f838     ConEmuInjects.obj
 0002:00001850       ??_C@_0BO@HCPBIAL@GetNumberOfConsoleInputEvents?$AA@ 000000018007f850     ConEmuInjects.obj
 0002:00001870       ??_C@_1BI@BNFKGMFK@?$AAs?$AAh?$AAe?$AAl?$AAl?$AA3?$AA2?$AA?4?$AAd?$AAl?$AAl?$AA?$AA@ 000000018007f870     ConEmuInjects.obj
 0002:00001888       ??_C@_0BA@LIPPODFA@ShellExecuteExW?$AA@ 000000018007f888     ConEmuInjects.obj
 0002:00001898       ??_C@_08BCACMCCB@ExitFARW?$AA@ 000000018007f898     ConEmuPlugin.obj
 0002:000018a8       ??_C@_0BE@PJBDJPG@ProcessEditorEventW?$AA@ 000000018007f8a8     ConEmuPlugin.obj
 0002:000018c0       ??_C@_0BE@OMPAFBFG@ProcessViewerEventW?$AA@ 000000018007f8c0     ConEmuPlugin.obj
 0002:000018d8       ??_C@_0BF@NLPJFAHE@ProcessSynchroEventW?$AA@ 000000018007f8d8     ConEmuPlugin.obj
 0002:000018f0       ??_C@_1BA@JOPOJEME@?$AAE?$AAx?$AAi?$AAt?$AAF?$AAA?$AAR?$AA?$AA@ 000000018007f8f0     ConEmuPlugin.obj
 0002:00001900       ??_C@_1BO@LDDOEOAL@?$AAE?$AAx?$AAi?$AAt?$AAF?$AAA?$AAR?$AA?5?$AA?9?$AA?5?$AAd?$AAo?$AAn?$AAe?$AA?$AA@ 000000018007f900     ConEmuPlugin.obj
 0002:00001920       ??_C@_1BC@OCOOMPC@?$AAE?$AAx?$AAi?$AAt?$AAF?$AAA?$AAR?$AAW?$AA?$AA@ 000000018007f920     ConEmuPlugin.obj
 0002:00001938       ??_C@_1CA@IFHGCKFI@?$AAE?$AAx?$AAi?$AAt?$AAF?$AAA?$AAR?$AAW?$AA?5?$AA?9?$AA?5?$AAd?$AAo?$AAn?$AAe?$AA?$AA@ 000000018007f938     ConEmuPlugin.obj
 0002:00001958       ??_C@_1BE@GNKIHEAN@?$AAE?$AAx?$AAi?$AAt?$AAF?$AAA?$AAR?$AAW?$AA3?$AA?$AA@ 000000018007f958     ConEmuPlugin.obj
 0002:00001970       ??_C@_1CC@LCFMKIJA@?$AAE?$AAx?$AAi?$AAt?$AAF?$AAA?$AAR?$AAW?$AA3?$AA?5?$AA?9?$AA?5?$AAd?$AAo?$AAn?$AAe?$AA?$AA@ 000000018007f970     ConEmuPlugin.obj
 0002:00001998       ??_7CPluginW1900@@6B@      000000018007f998     ConEmuPlugin1900.obj
 0002:00001ac0       ??_C@_1BK@BCDKFLCP@?$AAE?$AAx?$AAi?$AAt?$AAF?$AAA?$AAR?$AAW?$AA1?$AA9?$AA0?$AA0?$AA?$AA@ 000000018007fac0     ConEmuPlugin1900.obj
 0002:00001ae0       ??_C@_1CI@OHGGDAJD@?$AAE?$AAx?$AAi?$AAt?$AAF?$AAA?$AAR?$AAW?$AA1?$AA9?$AA0?$AA0?$AA?5?$AA?9?$AA?5?$AAd?$AAo?$AAn?$AAe?$AA?$AA@ 000000018007fae0     ConEmuPlugin1900.obj
 0002:00001b08       ??_C@_1M@OKCNCBMD@?$AA$?$AAT?$AAE?$AAX?$AAT?$AA?$AA@ 000000018007fb08     ConEmuPlugin1900.obj
 0002:00001b18       ??_C@_1O@BBPMHPCD@?$AAp?$AAr?$AAi?$AAn?$AAt?$AA?$CI?$AA?$AA@ 000000018007fb18     ConEmuPlugin1900.obj
 0002:00001b28       ??_C@_19JPEEHMMI@?$AA?5?$AA?7?$AA?$AN?$AA?6?$AA?$AA@ 000000018007fb28     ConEmuPlugin1900.obj
 0002:00001b38       ??_C@_1BC@OLJIBFPH@?$AA?0?$AA?5?$AAH?$AAi?$AAn?$AAt?$AA?3?$AA?5?$AA?$AA@ 000000018007fb38     ConEmuPlugin1900.obj
 0002:00001b50       ??_C@_1BCK@MAAKAKN@?$AAE?$AAr?$AAr?$AAo?$AAr?$AA?5?$AAi?$AAn?$AA?5?$AAM?$AAa?$AAc?$AAr?$AAo?$AA?4?$AA?5?$AAF?$AAa?$AAr?$AA?5?$AA?$CF?$AAu?$AA?4?$AA?$CF?$AAu?$AA?5?$AAb?$AAu?$AAi?$AAl?$AAd?$AA?5@ 000000018007fb50     ConEmuPlugin1900.obj
 0002:00001c80       ??_C@_1OK@GOJADEAC@?$AAE?$AAr?$AAr?$AAo?$AAr?$AA?5?$AAi?$AAn?$AA?5?$AAM?$AAa?$AAc?$AAr?$AAo?$AA?4?$AA?5?$AAF?$AAa?$AAr?$AA?5?$AA?$CF?$AAu?$AA?4?$AA?$CF?$AAu?$AA?5?$AAb?$AAu?$AAi?$AAl?$AAd?$AA?5@ 000000018007fc80     ConEmuPlugin1900.obj
 0002:00001d70       ??_C@_0BF@MFOIGNA@BackgroundMacroError?$AA@ 000000018007fd70     ConEmuPlugin1900.obj
 0002:00001d88       ??_C@_1BI@EKLHEFDO@?$AAS?$AAh?$AAo?$AAw?$AAM?$AAe?$AAn?$AAu?$AAB?$AAa?$AAr?$AA?$AA@ 000000018007fd88     ConEmuPlugin1900.obj
 0002:00001da0       ??_C@_1O@PDEOIOBG@?$AAK?$AAe?$AAy?$AAB?$AAa?$AAr?$AA?$AA@ 000000018007fda0     ConEmuPlugin1900.obj
 0002:00001db0       ??_C@_1BK@MBFACEDG@?$AAC?$AAo?$AAl?$AAu?$AAm?$AAn?$AAT?$AAi?$AAt?$AAl?$AAe?$AAs?$AA?$AA@ 000000018007fdb0     ConEmuPlugin1900.obj
 0002:00001dd0       ??_C@_1BG@MHMKAABO@?$AAS?$AAt?$AAa?$AAt?$AAu?$AAs?$AAL?$AAi?$AAn?$AAe?$AA?$AA@ 000000018007fdd0     ConEmuPlugin1900.obj
 0002:00001de8       ??_C@_1BC@IALIJCAM@?$AAS?$AAo?$AAr?$AAt?$AAM?$AAo?$AAd?$AAe?$AA?$AA@ 000000018007fde8     ConEmuPlugin1900.obj
 0002:00001e00       ??_C@_1BK@BKCACCAI@?$AAW?$AAT?$AAY?$AAP?$AAE?$AA_?$AAP?$AAA?$AAN?$AAE?$AAL?$AAS?$AA?$AA@ 000000018007fe00     ConEmuPlugin1900.obj
 0002:00001e20       ??_C@_1BK@LNCDOEEM@?$AAW?$AAT?$AAY?$AAP?$AAE?$AA_?$AAV?$AAI?$AAE?$AAW?$AAE?$AAR?$AA?$AA@ 000000018007fe20     ConEmuPlugin1900.obj
 0002:00001e40       ??_C@_1BK@MHHDIBO@?$AAW?$AAT?$AAY?$AAP?$AAE?$AA_?$AAE?$AAD?$AAI?$AAT?$AAO?$AAR?$AA?$AA@ 000000018007fe40     ConEmuPlugin1900.obj
 0002:00001e60       ??_C@_1BK@NEJJBFEB@?$AAW?$AAT?$AAY?$AAP?$AAE?$AA_?$AAD?$AAI?$AAA?$AAL?$AAO?$AAG?$AA?$AA@ 000000018007fe60     ConEmuPlugin1900.obj
 0002:00001e80       ??_C@_1BI@IHGDMIGH@?$AAW?$AAT?$AAY?$AAP?$AAE?$AA_?$AAV?$AAM?$AAE?$AAN?$AAU?$AA?$AA@ 000000018007fe80     ConEmuPlugin1900.obj
 0002:00001e98       ??_C@_1BG@LKGDBHML@?$AAW?$AAT?$AAY?$AAP?$AAE?$AA_?$AAH?$AAE?$AAL?$AAP?$AA?$AA@ 000000018007fe98     ConEmuPlugin1900.obj
 0002:00001eb0       ??_C@_1CE@PEOBLGJK@?$AAC?$AAo?$AAn?$AAE?$AAm?$AAu?$AAM?$AAa?$AAc?$AAr?$AAo?$AAR?$AAe?$AAs?$AAu?$AAl?$AAt?$AA?$AA@ 000000018007feb0     ConEmuPlugin1900.obj
 0002:00001ed8       ??_C@_1BO@HNJMHBAE@?$AAC?$AAo?$AAn?$AAE?$AAm?$AAu?$AAG?$AAu?$AAi?$AAM?$AAa?$AAc?$AAr?$AAo?$AA?$AA@ 000000018007fed8     ConEmuPlugin1900.obj
 0002:00001ef8       ??_7CPluginW2800@@6B@      000000018007fef8     ConEmuPlugin2800.obj
 0002:00002020       ??_C@_1DO@JIOAOHCJ@?$AAC?$AAo?$AAn?$AAE?$AAm?$AAu?$AA?5?$AAs?$AAu?$AAp?$AAp?$AAo?$AAr?$AAt?$AA?5?$AAf?$AAo?$AAr?$AA?5?$AAF?$AAa?$AAr?$AA?5?$AAM?$AAa?$AAn?$AAa?$AAg?$AAe?$AAr?$AA?$AA@ 0000000180080020     ConEmuPlugin2800.obj
 0002:00002060       ??_C@_1DE@DJEAMLPH@?$AAC?$AAo?$AAn?$AAE?$AAm?$AAu?$AA?4?$AAM?$AAa?$AAx?$AAi?$AAm?$AAu?$AAs?$AA5?$AA?$EA?$AAg?$AAm?$AAa?$AAi?$AAl?$AA?4?$AAc?$AAo?$AAm?$AA?$AA@ 0000000180080060     ConEmuPlugin2800.obj
 0002:00002098       ??_C@_17IOMHDNEC@?$AAf?$AAa?$AAr?$AA?$AA@ 0000000180080098     ConEmuPlugin2800.obj
 0002:000020a0       ??_C@_1BK@DFKHOALC@?$AAE?$AAx?$AAi?$AAt?$AAF?$AAA?$AAR?$AAW?$AA2?$AA8?$AA0?$AA0?$AA?$AA@ 00000001800800a0     ConEmuPlugin2800.obj
 0002:000020c0       ??_C@_1CI@KIFAPNHL@?$AAE?$AAx?$AAi?$AAt?$AAF?$AAA?$AAR?$AAW?$AA2?$AA8?$AA0?$AA0?$AA?5?$AA?9?$AA?5?$AAd?$AAo?$AAn?$AAe?$AA?$AA@ 00000001800800c0     ConEmuPlugin2800.obj
 0002:000020f0       ??_C@_1BCK@KGGLGNDM@?$AAE?$AAr?$AAr?$AAo?$AAr?$AA?5?$AAi?$AAn?$AA?5?$AAM?$AAa?$AAc?$AAr?$AAo?$AA?4?$AA?5?$AAF?$AAa?$AAr?$AA?5?$AA?$CF?$AAu?$AA?4?$AA?$CF?$AAu?$AA?5?$AAb?$AAu?$AAi?$AAl?$AAd?$AA?5@ 00000001800800f0     ConEmuPlugin2800.obj
 0002:00002220       ??_C@_1OK@MGLNOED@?$AAE?$AAr?$AAr?$AAo?$AAr?$AA?5?$AAi?$AAn?$AA?5?$AAM?$AAa?$AAc?$AAr?$AAo?$AA?4?$AA?5?$AAF?$AAa?$AAr?$AA?5?$AA?$CF?$AAu?$AA?4?$AA?$CF?$AAu?$AA?5?$AAb?$AAu?$AAi?$AAl?$AAd?$AA?5@ 0000000180080220     ConEmuPlugin2800.obj
 0002:00002310       ??_7CPluginW995@@6B@       0000000180080310     ConEmuPlugin995.obj
 0002:00002438       ??_C@_1BI@IBAPHBGL@?$AAE?$AAx?$AAi?$AAt?$AAF?$AAA?$AAR?$AAW?$AA9?$AA9?$AA5?$AA?$AA@ 0000000180080438     ConEmuPlugin995.obj
 0002:00002450       ??_C@_1CG@PKCNLDOL@?$AAE?$AAx?$AAi?$AAt?$AAF?$AAA?$AAR?$AAW?$AA9?$AA9?$AA5?$AA?5?$AA?9?$AA?5?$AAd?$AAo?$AAn?$AAe?$AA?$AA@ 0000000180080450     ConEmuPlugin995.obj
 0002:00002476       ??_C@_00CNPNBAHC@?$AA@     0000000180080476     ConEmuPluginA.obj
 0002:00002478       ??_7CPluginAnsi@@6B@       0000000180080478     ConEmuPluginA.obj
 0002:000025a0       ??_C@_1O@BKFLFFPA@?$AAP?$AAl?$AAu?$AAg?$AAi?$AAn?$AA?$AA@ 00000001800805a0     ConEmuPluginA.obj
 0002:000025b0       ??_C@_06HGFNEGAJ@ConEmu?$AA@ 00000001800805b0     ConEmuPluginA.obj
 0002:000025b8       ??_C@_0P@DFGMHJNG@ConEmuGuiMacro?$AA@ 00000001800805b8     ConEmuPluginA.obj
 0002:000025c8       ??_7CPluginBase@@6B@       00000001800805c8     ConEmuPluginBase.obj
 0002:000026f0       ??_C@_1FG@DPPGENBC@?$AAL?$AAo?$AAa?$AAd?$AAA?$AAp?$AAp?$AAV?$AAe?$AAr?$AAs?$AAi?$AAo?$AAn?$AA?4?$AAV?$AAe?$AAr?$AAQ?$AAu?$AAe?$AAr?$AAy?$AAV?$AAa?$AAl?$AAu?$AAe?$AA?$CI?$AA?$CC?$AA?2?$AA?$CC@ 00000001800806f0     ConEmuPluginBase.obj
 0002:00002750       ??_C@_1FK@HILEEFML@?$AAL?$AAo?$AAa?$AAd?$AAA?$AAp?$AAp?$AAV?$AAe?$AAr?$AAs?$AAi?$AAo?$AAn?$AA?4?$AAG?$AAe?$AAt?$AAF?$AAi?$AAl?$AAe?$AAV?$AAe?$AAr?$AAs?$AAi?$AAo?$AAn?$AAI?$AAn?$AAf@ 0000000180080750     ConEmuPluginBase.obj
 0002:000027b0       ??_C@_1GC@BINFLBDC@?$AAL?$AAo?$AAa?$AAd?$AAA?$AAp?$AAp?$AAV?$AAe?$AAr?$AAs?$AAi?$AAo?$AAn?$AA?5?$AAf?$AAa?$AAi?$AAl?$AAe?$AAd?$AA?$CB?$AA?5?$AAC?$AAa?$AAn?$AA?8?$AAt?$AA?5?$AAa?$AAl?$AAl@ 00000001800807b0     ConEmuPluginBase.obj
 0002:00002820       ??_C@_1GC@CPPHDKJK@?$AAL?$AAo?$AAa?$AAd?$AAA?$AAp?$AAp?$AAV?$AAe?$AAr?$AAs?$AAi?$AAo?$AAn?$AA?4?$AAG?$AAe?$AAt?$AAF?$AAi?$AAl?$AAe?$AAV?$AAe?$AAr?$AAs?$AAi?$AAo?$AAn?$AAI?$AAn?$AAf@ 0000000180080820     ConEmuPluginBase.obj
 0002:00002890       ??_C@_1EG@IINOBDEG@?$AAI?$AAn?$AAv?$AAa?$AAl?$AAi?$AAd?$AA?5?$AAa?$AAs?$AAM?$AAo?$AAd?$AAu?$AAl?$AAe?$AAP?$AAa?$AAt?$AAh?$AA?5?$AAw?$AAa?$AAs?$AA?5?$AAs?$AAp?$AAe?$AAc?$AAi?$AAf?$AAi@ 0000000180080890     ConEmuPluginBase.obj
